
/home/guotong/4OJ4-2023/dv/aapg_test/work/bin/out_config_00000.elf:     file format elf32-littleriscv


Disassembly of section .text.init:

00100080 <_start>:
  100080:	00010117          	auipc	sp,0x10
  100084:	f8010113          	add	sp,sp,-128 # 110000 <mem>
  100088:	00012083          	lw	ra,0(sp)
  10008c:	00412183          	lw	gp,4(sp)
  100090:	00812203          	lw	tp,8(sp)
  100094:	00c12283          	lw	t0,12(sp)
  100098:	01012303          	lw	t1,16(sp)
  10009c:	01412383          	lw	t2,20(sp)
  1000a0:	01812403          	lw	s0,24(sp)
  1000a4:	01c12483          	lw	s1,28(sp)
  1000a8:	02012503          	lw	a0,32(sp)
  1000ac:	02412583          	lw	a1,36(sp)
  1000b0:	02812603          	lw	a2,40(sp)
  1000b4:	02c12683          	lw	a3,44(sp)
  1000b8:	03012703          	lw	a4,48(sp)
  1000bc:	03412783          	lw	a5,52(sp)
  1000c0:	03812803          	lw	a6,56(sp)
  1000c4:	03c12883          	lw	a7,60(sp)
  1000c8:	04012903          	lw	s2,64(sp)
  1000cc:	04412983          	lw	s3,68(sp)
  1000d0:	04812a03          	lw	s4,72(sp)
  1000d4:	04c12a83          	lw	s5,76(sp)
  1000d8:	05012b03          	lw	s6,80(sp)
  1000dc:	05412b83          	lw	s7,84(sp)
  1000e0:	05812c03          	lw	s8,88(sp)
  1000e4:	05c12c83          	lw	s9,92(sp)
  1000e8:	06012d03          	lw	s10,96(sp)
  1000ec:	06412d83          	lw	s11,100(sp)
  1000f0:	06812e03          	lw	t3,104(sp)
  1000f4:	06c12e83          	lw	t4,108(sp)
  1000f8:	07012f03          	lw	t5,112(sp)
  1000fc:	07412f83          	lw	t6,116(sp)
  100100:	0001e2b7          	lui	t0,0x1e
  100104:	3002a073          	csrs	mstatus,t0
  100108:	00100293          	li	t0,1
  10010c:	01f29293          	sll	t0,t0,0x1f
  100110:	0002ca63          	bltz	t0,100124 <_start+0xa4>
  100114:	00100513          	li	a0,1
  100118:	00030297          	auipc	t0,0x30
  10011c:	eea2a423          	sw	a0,-280(t0) # 130000 <end_signature>
  100120:	ff5ff06f          	j	100114 <_start+0x94>
  100124:	00000297          	auipc	t0,0x0
  100128:	03c28293          	add	t0,t0,60 # 100160 <trap_entry>
  10012c:	30529073          	csrw	mtvec,t0
  100130:	00031217          	auipc	tp,0x31
  100134:	93420213          	add	tp,tp,-1740 # 130a64 <_end+0x3f>
  100138:	fc027213          	and	tp,tp,-64
  10013c:	f1402573          	csrr	a0,mhartid
  100140:	00100593          	li	a1,1
  100144:	00b57063          	bgeu	a0,a1,100144 <_start+0xc4>
  100148:	01151613          	sll	a2,a0,0x11
  10014c:	00c20233          	add	tp,tp,a2
  100150:	00150113          	add	sp,a0,1
  100154:	01111113          	sll	sp,sp,0x11
  100158:	00410133          	add	sp,sp,tp
  10015c:	3d40006f          	j	100530 <main>

00100160 <trap_entry>:
  100160:	ef010113          	add	sp,sp,-272
  100164:	00112223          	sw	ra,4(sp)
  100168:	00212423          	sw	sp,8(sp)
  10016c:	00312623          	sw	gp,12(sp)
  100170:	00412823          	sw	tp,16(sp)
  100174:	00512a23          	sw	t0,20(sp)
  100178:	00612c23          	sw	t1,24(sp)
  10017c:	00712e23          	sw	t2,28(sp)
  100180:	02812023          	sw	s0,32(sp)
  100184:	02912223          	sw	s1,36(sp)
  100188:	02a12423          	sw	a0,40(sp)
  10018c:	02b12623          	sw	a1,44(sp)
  100190:	02c12823          	sw	a2,48(sp)
  100194:	02d12a23          	sw	a3,52(sp)
  100198:	02e12c23          	sw	a4,56(sp)
  10019c:	02f12e23          	sw	a5,60(sp)
  1001a0:	05012023          	sw	a6,64(sp)
  1001a4:	05112223          	sw	a7,68(sp)
  1001a8:	05212423          	sw	s2,72(sp)
  1001ac:	05312623          	sw	s3,76(sp)
  1001b0:	05412823          	sw	s4,80(sp)
  1001b4:	05512a23          	sw	s5,84(sp)
  1001b8:	05612c23          	sw	s6,88(sp)
  1001bc:	05712e23          	sw	s7,92(sp)
  1001c0:	07812023          	sw	s8,96(sp)
  1001c4:	07912223          	sw	s9,100(sp)
  1001c8:	07a12423          	sw	s10,104(sp)
  1001cc:	07b12623          	sw	s11,108(sp)
  1001d0:	07c12823          	sw	t3,112(sp)
  1001d4:	07d12a23          	sw	t4,116(sp)
  1001d8:	07e12c23          	sw	t5,120(sp)
  1001dc:	07f12e23          	sw	t6,124(sp)
  1001e0:	34202573          	csrr	a0,mcause
  1001e4:	341025f3          	csrr	a1,mepc
  1001e8:	0005d603          	lhu	a2,0(a1)
  1001ec:	00367613          	and	a2,a2,3
  1001f0:	00300293          	li	t0,3
  1001f4:	00561663          	bne	a2,t0,100200 <inst16>

001001f8 <inst32>:
  1001f8:	00458593          	add	a1,a1,4
  1001fc:	00000463          	beqz	zero,100204 <inst16+0x4>

00100200 <inst16>:
  100200:	00258593          	add	a1,a1,2
  100204:	34159073          	csrw	mepc,a1
  100208:	000022b7          	lui	t0,0x2
  10020c:	80028293          	add	t0,t0,-2048 # 1800 <_tbss_end+0x1800>
  100210:	3002a073          	csrs	mstatus,t0
  100214:	00412083          	lw	ra,4(sp)
  100218:	00812103          	lw	sp,8(sp)
  10021c:	00c12183          	lw	gp,12(sp)
  100220:	01012203          	lw	tp,16(sp)
  100224:	01412283          	lw	t0,20(sp)
  100228:	01812303          	lw	t1,24(sp)
  10022c:	01c12383          	lw	t2,28(sp)
  100230:	02012403          	lw	s0,32(sp)
  100234:	02412483          	lw	s1,36(sp)
  100238:	02812503          	lw	a0,40(sp)
  10023c:	02c12583          	lw	a1,44(sp)
  100240:	03012603          	lw	a2,48(sp)
  100244:	03412683          	lw	a3,52(sp)
  100248:	03812703          	lw	a4,56(sp)
  10024c:	03c12783          	lw	a5,60(sp)
  100250:	04012803          	lw	a6,64(sp)
  100254:	04412883          	lw	a7,68(sp)
  100258:	04812903          	lw	s2,72(sp)
  10025c:	04c12983          	lw	s3,76(sp)
  100260:	05012a03          	lw	s4,80(sp)
  100264:	05412a83          	lw	s5,84(sp)
  100268:	05812b03          	lw	s6,88(sp)
  10026c:	05c12b83          	lw	s7,92(sp)
  100270:	06012c03          	lw	s8,96(sp)
  100274:	06412c83          	lw	s9,100(sp)
  100278:	06812d03          	lw	s10,104(sp)
  10027c:	06c12d83          	lw	s11,108(sp)
  100280:	07012e03          	lw	t3,112(sp)
  100284:	07412e83          	lw	t4,116(sp)
  100288:	07812f03          	lw	t5,120(sp)
  10028c:	07c12f83          	lw	t6,124(sp)
  100290:	11010113          	add	sp,sp,272
  100294:	30200073          	mret

Disassembly of section .text:

001002a0 <custom_trap_handler_s>:
  1002a0:	f6010113          	add	sp,sp,-160
  1002a4:	00112223          	sw	ra,4(sp)
  1002a8:	00312623          	sw	gp,12(sp)
  1002ac:	00412823          	sw	tp,16(sp)
  1002b0:	00512a23          	sw	t0,20(sp)
  1002b4:	00612c23          	sw	t1,24(sp)
  1002b8:	00712e23          	sw	t2,28(sp)
  1002bc:	02812023          	sw	s0,32(sp)
  1002c0:	02912223          	sw	s1,36(sp)
  1002c4:	02a12423          	sw	a0,40(sp)
  1002c8:	02b12623          	sw	a1,44(sp)
  1002cc:	02c12823          	sw	a2,48(sp)
  1002d0:	02d12a23          	sw	a3,52(sp)
  1002d4:	02e12c23          	sw	a4,56(sp)
  1002d8:	02f12e23          	sw	a5,60(sp)
  1002dc:	05012023          	sw	a6,64(sp)
  1002e0:	05112223          	sw	a7,68(sp)
  1002e4:	05212423          	sw	s2,72(sp)
  1002e8:	05312623          	sw	s3,76(sp)
  1002ec:	05412823          	sw	s4,80(sp)
  1002f0:	05512a23          	sw	s5,84(sp)
  1002f4:	05612c23          	sw	s6,88(sp)
  1002f8:	05712e23          	sw	s7,92(sp)
  1002fc:	07812023          	sw	s8,96(sp)
  100300:	07912223          	sw	s9,100(sp)
  100304:	07a12423          	sw	s10,104(sp)
  100308:	07b12623          	sw	s11,108(sp)
  10030c:	07c12823          	sw	t3,112(sp)
  100310:	07d12a23          	sw	t4,116(sp)
  100314:	07e12c23          	sw	t5,120(sp)
  100318:	07f12e23          	sw	t6,124(sp)
  10031c:	10002573          	csrr	a0,sstatus
  100320:	14102573          	csrr	a0,sepc
  100324:	10502573          	csrr	a0,stvec
  100328:	14202573          	csrr	a0,scause
  10032c:	00000613          	li	a2,0
  100330:	00c50863          	beq	a0,a2,100340 <custom_trap_handler_s+0xa0>
  100334:	00100613          	li	a2,1
  100338:	00c50463          	beq	a0,a2,100340 <custom_trap_handler_s+0xa0>
  10033c:	141025f3          	csrr	a1,sepc
  100340:	00059603          	lh	a2,0(a1)
  100344:	00367613          	and	a2,a2,3
  100348:	00300293          	li	t0,3
  10034c:	00561663          	bne	a2,t0,100358 <inst16_s>

00100350 <inst32_s>:
  100350:	00458593          	add	a1,a1,4
  100354:	00000463          	beqz	zero,10035c <inst16_s+0x4>

00100358 <inst16_s>:
  100358:	00258593          	add	a1,a1,2
  10035c:	14159073          	csrw	sepc,a1
  100360:	00412083          	lw	ra,4(sp)
  100364:	00c12183          	lw	gp,12(sp)
  100368:	01012203          	lw	tp,16(sp)
  10036c:	01412283          	lw	t0,20(sp)
  100370:	01812303          	lw	t1,24(sp)
  100374:	01c12383          	lw	t2,28(sp)
  100378:	02012403          	lw	s0,32(sp)
  10037c:	02412483          	lw	s1,36(sp)
  100380:	02812503          	lw	a0,40(sp)
  100384:	02c12583          	lw	a1,44(sp)
  100388:	03012603          	lw	a2,48(sp)
  10038c:	03412683          	lw	a3,52(sp)
  100390:	03812703          	lw	a4,56(sp)
  100394:	03c12783          	lw	a5,60(sp)
  100398:	04012803          	lw	a6,64(sp)
  10039c:	04412883          	lw	a7,68(sp)
  1003a0:	04812903          	lw	s2,72(sp)
  1003a4:	04c12983          	lw	s3,76(sp)
  1003a8:	05012a03          	lw	s4,80(sp)
  1003ac:	05412a83          	lw	s5,84(sp)
  1003b0:	05812b03          	lw	s6,88(sp)
  1003b4:	05c12b83          	lw	s7,92(sp)
  1003b8:	06012c03          	lw	s8,96(sp)
  1003bc:	06412c83          	lw	s9,100(sp)
  1003c0:	06812d03          	lw	s10,104(sp)
  1003c4:	06c12d83          	lw	s11,108(sp)
  1003c8:	07012e03          	lw	t3,112(sp)
  1003cc:	07412e83          	lw	t4,116(sp)
  1003d0:	07812f03          	lw	t5,120(sp)
  1003d4:	07c12f83          	lw	t6,124(sp)
  1003d8:	0a010113          	add	sp,sp,160
  1003dc:	10200073          	sret

001003e0 <custom_trap_handler>:
  1003e0:	f6010113          	add	sp,sp,-160
  1003e4:	00112223          	sw	ra,4(sp)
  1003e8:	00312623          	sw	gp,12(sp)
  1003ec:	00412823          	sw	tp,16(sp)
  1003f0:	00512a23          	sw	t0,20(sp)
  1003f4:	00612c23          	sw	t1,24(sp)
  1003f8:	00712e23          	sw	t2,28(sp)
  1003fc:	02812023          	sw	s0,32(sp)
  100400:	02912223          	sw	s1,36(sp)
  100404:	02a12423          	sw	a0,40(sp)
  100408:	02b12623          	sw	a1,44(sp)
  10040c:	02c12823          	sw	a2,48(sp)
  100410:	02d12a23          	sw	a3,52(sp)
  100414:	02e12c23          	sw	a4,56(sp)
  100418:	02f12e23          	sw	a5,60(sp)
  10041c:	05012023          	sw	a6,64(sp)
  100420:	05112223          	sw	a7,68(sp)
  100424:	05212423          	sw	s2,72(sp)
  100428:	05312623          	sw	s3,76(sp)
  10042c:	05412823          	sw	s4,80(sp)
  100430:	05512a23          	sw	s5,84(sp)
  100434:	05612c23          	sw	s6,88(sp)
  100438:	05712e23          	sw	s7,92(sp)
  10043c:	07812023          	sw	s8,96(sp)
  100440:	07912223          	sw	s9,100(sp)
  100444:	07a12423          	sw	s10,104(sp)
  100448:	07b12623          	sw	s11,108(sp)
  10044c:	07c12823          	sw	t3,112(sp)
  100450:	07d12a23          	sw	t4,116(sp)
  100454:	07e12c23          	sw	t5,120(sp)
  100458:	07f12e23          	sw	t6,124(sp)
  10045c:	30002573          	csrr	a0,mstatus
  100460:	34102573          	csrr	a0,mepc
  100464:	30502573          	csrr	a0,mtvec
  100468:	34202573          	csrr	a0,mcause
  10046c:	00000613          	li	a2,0
  100470:	00c50863          	beq	a0,a2,100480 <custom_trap_handler+0xa0>
  100474:	00100613          	li	a2,1
  100478:	00c50463          	beq	a0,a2,100480 <custom_trap_handler+0xa0>
  10047c:	341025f3          	csrr	a1,mepc
  100480:	00059603          	lh	a2,0(a1)
  100484:	00367613          	and	a2,a2,3
  100488:	00300293          	li	t0,3
  10048c:	00561663          	bne	a2,t0,100498 <inst16>

00100490 <inst32>:
  100490:	00458593          	add	a1,a1,4
  100494:	00000463          	beqz	zero,10049c <inst16+0x4>

00100498 <inst16>:
  100498:	00258593          	add	a1,a1,2
  10049c:	34159073          	csrw	mepc,a1
  1004a0:	00412083          	lw	ra,4(sp)
  1004a4:	00c12183          	lw	gp,12(sp)
  1004a8:	01012203          	lw	tp,16(sp)
  1004ac:	01412283          	lw	t0,20(sp)
  1004b0:	01812303          	lw	t1,24(sp)
  1004b4:	01c12383          	lw	t2,28(sp)
  1004b8:	02012403          	lw	s0,32(sp)
  1004bc:	02412483          	lw	s1,36(sp)
  1004c0:	02812503          	lw	a0,40(sp)
  1004c4:	02c12583          	lw	a1,44(sp)
  1004c8:	03012603          	lw	a2,48(sp)
  1004cc:	03412683          	lw	a3,52(sp)
  1004d0:	03812703          	lw	a4,56(sp)
  1004d4:	03c12783          	lw	a5,60(sp)
  1004d8:	04012803          	lw	a6,64(sp)
  1004dc:	04412883          	lw	a7,68(sp)
  1004e0:	04812903          	lw	s2,72(sp)
  1004e4:	04c12983          	lw	s3,76(sp)
  1004e8:	05012a03          	lw	s4,80(sp)
  1004ec:	05412a83          	lw	s5,84(sp)
  1004f0:	05812b03          	lw	s6,88(sp)
  1004f4:	05c12b83          	lw	s7,92(sp)
  1004f8:	06012c03          	lw	s8,96(sp)
  1004fc:	06412c83          	lw	s9,100(sp)
  100500:	06812d03          	lw	s10,104(sp)
  100504:	06c12d83          	lw	s11,108(sp)
  100508:	07012e03          	lw	t3,112(sp)
  10050c:	07412e83          	lw	t4,116(sp)
  100510:	07812f03          	lw	t5,120(sp)
  100514:	07c12f83          	lw	t6,124(sp)
  100518:	0a010113          	add	sp,sp,160
  10051c:	30200073          	mret

00100520 <func1>:
  100520:	00000033          	add	zero,zero,zero
  100524:	00008067          	ret
  100528:	00000013          	nop
  10052c:	00000013          	nop

00100530 <main>:
  100530:	00000033          	add	zero,zero,zero
  100534:	00000297          	auipc	t0,0x0
  100538:	eac28293          	add	t0,t0,-340 # 1003e0 <custom_trap_handler>
  10053c:	30529073          	csrw	mtvec,t0
  100540:	00010117          	auipc	sp,0x10
  100544:	ac010113          	add	sp,sp,-1344 # 110000 <mem>
  100548:	00015337          	lui	t1,0x15
  10054c:	67830313          	add	t1,t1,1656 # 15678 <_tbss_end+0x15678>
  100550:	00610133          	add	sp,sp,t1

00100554 <i0000000000>:
  100554:	00a00f93          	li	t6,10

00100558 <i0000000001>:
  100558:	39952937          	lui	s2,0x39952

0010055c <i0000000002>:
  10055c:	4023df13          	sra	t5,t2,0x2

00100560 <i0000000003>:
  100560:	cf0f6c93          	or	s9,t5,-784

00100564 <i0000000004>:
  100564:	33bfc197          	auipc	gp,0x33bfc

00100568 <i0000000005>:
  100568:	a351ac13          	slti	s8,gp,-1483

0010056c <i0000000006>:
  10056c:	0181f833          	and	a6,gp,s8

00100570 <i0000000007>:
  100570:	0084bf33          	sltu	t5,s1,s0

00100574 <i0000000008>:
  100574:	01893e33          	sltu	t3,s2,s8

00100578 <i0000000009>:
  100578:	28211b83          	lh	s7,642(sp)

0010057c <i000000000a>:
  10057c:	ff711623          	sh	s7,-20(sp)

00100580 <i000000000b>:
  100580:	4c912c23          	sw	s1,1240(sp)

00100584 <i000000000c>:
  100584:	4a611483          	lh	s1,1190(sp)

00100588 <i000000000d>:
  100588:	d8615c03          	lhu	s8,-634(sp)

0010058c <i000000000e>:
  10058c:	a631c493          	xor	s1,gp,-1437

00100590 <i000000000f>:
  100590:	410c5413          	sra	s0,s8,0x10

00100594 <i0000000010>:
  100594:	5d3100a3          	sb	s3,1473(sp)

00100598 <i0000000011>:
  100598:	c4411623          	sh	tp,-948(sp)
  10059c:	00010117          	auipc	sp,0x10
  1005a0:	a6410113          	add	sp,sp,-1436 # 110000 <mem>
  1005a4:	00002337          	lui	t1,0x2
  1005a8:	d7030313          	add	t1,t1,-656 # 1d70 <_tbss_end+0x1d70>
  1005ac:	00610133          	add	sp,sp,t1

001005b0 <i0000000012>:
  1005b0:	985107a3          	sb	t0,-1649(sp)

001005b4 <i0000000013>:
  1005b4:	590c3193          	sltiu	gp,s8,1424

001005b8 <i0000000014>:
  1005b8:	f5b10883          	lb	a7,-165(sp)
  1005bc:	00a00a13          	li	s4,10
  1005c0:	00a00f93          	li	t6,10
  1005c4:	00010117          	auipc	sp,0x10
  1005c8:	a3c10113          	add	sp,sp,-1476 # 110000 <mem>
  1005cc:	00018337          	lui	t1,0x18
  1005d0:	b8030313          	add	t1,t1,-1152 # 17b80 <_tbss_end+0x17b80>
  1005d4:	00610133          	add	sp,sp,t1
  1005d8:	409184b3          	sub	s1,gp,s1
  1005dc:	e70eb493          	sltiu	s1,t4,-400
  1005e0:	c5d12423          	sw	t4,-952(sp)
  1005e4:	018494b3          	sll	s1,s1,s8
  1005e8:	498d4737          	lui	a4,0x498d4
  1005ec:	003c4933          	xor	s2,s8,gp
  1005f0:	00993c33          	sltu	s8,s2,s1

001005f4 <b0000000015>:
  1005f4:	00000033          	add	zero,zero,zero
  1005f8:	074f9663          	bne	t6,s4,100664 <i000000001c>
  1005fc:	00000033          	add	zero,zero,zero
  100600:	fd614383          	lbu	t2,-42(sp)
  100604:	006e1c13          	sll	s8,t3,0x6
  100608:	79811c03          	lh	s8,1944(sp)
  10060c:	1f59adb7          	lui	s11,0x1f59a
  100610:	7e312a23          	sw	gp,2036(sp)
  100614:	9bb11523          	sh	s11,-1622(sp)
  100618:	b8610483          	lb	s1,-1146(sp)
  10061c:	00a00f93          	li	t6,10

00100620 <i0000000015>:
  100620:	47210183          	lb	gp,1138(sp)

00100624 <i0000000016>:
  100624:	177ceb13          	or	s6,s9,375
  100628:	00010117          	auipc	sp,0x10
  10062c:	9d810113          	add	sp,sp,-1576 # 110000 <mem>
  100630:	0001e337          	lui	t1,0x1e
  100634:	88030313          	add	t1,t1,-1920 # 1d880 <_tbss_end+0x1d880>
  100638:	00610133          	add	sp,sp,t1

0010063c <i0000000017>:
  10063c:	4a011183          	lh	gp,1184(sp)

00100640 <i0000000018>:
  100640:	01e1fc33          	and	s8,gp,t5

00100644 <i0000000019>:
  100644:	31800997          	auipc	s3,0x31800

00100648 <i000000001a>:
  100648:	d2812423          	sw	s0,-728(sp)

0010064c <i000000001b>:
  10064c:	3d412f03          	lw	t5,980(sp)
  100650:	00010117          	auipc	sp,0x10
  100654:	9b010113          	add	sp,sp,-1616 # 110000 <mem>
  100658:	0001a337          	lui	t1,0x1a
  10065c:	de030313          	add	t1,t1,-544 # 19de0 <_tbss_end+0x19de0>
  100660:	00610133          	add	sp,sp,t1

00100664 <i000000001c>:
  100664:	ee215f03          	lhu	t5,-286(sp)

00100668 <i000000001d>:
  100668:	016dc933          	xor	s2,s11,s6

0010066c <i000000001e>:
  10066c:	e1e10623          	sb	t5,-500(sp)

00100670 <i000000001f>:
  100670:	8781ff13          	and	t5,gp,-1928

00100674 <i0000000020>:
  100674:	e8415903          	lhu	s2,-380(sp)

00100678 <i0000000021>:
  100678:	18211183          	lh	gp,386(sp)

0010067c <i0000000022>:
  10067c:	37090f13          	add	t5,s2,880 # 39952370 <_end+0x3982194b>
  100680:	00010117          	auipc	sp,0x10
  100684:	98010113          	add	sp,sp,-1664 # 110000 <mem>
  100688:	0000e337          	lui	t1,0xe
  10068c:	b9030313          	add	t1,t1,-1136 # db90 <_tbss_end+0xdb90>
  100690:	00610133          	add	sp,sp,t1

00100694 <i0000000023>:
  100694:	60a15703          	lhu	a4,1546(sp)

00100698 <i0000000024>:
  100698:	01477d33          	and	s10,a4,s4

0010069c <i0000000025>:
  10069c:	965c6293          	or	t0,s8,-1691
  1006a0:	00010117          	auipc	sp,0x10
  1006a4:	96010113          	add	sp,sp,-1696 # 110000 <mem>
  1006a8:	00012337          	lui	t1,0x12
  1006ac:	5e830313          	add	t1,t1,1512 # 125e8 <_tbss_end+0x125e8>
  1006b0:	00610133          	add	sp,sp,t1

001006b4 <i0000000026>:
  1006b4:	53014f03          	lbu	t5,1328(sp)

001006b8 <i0000000027>:
  1006b8:	fa0109a3          	sb	zero,-77(sp)

001006bc <i0000000028>:
  1006bc:	cca3ce13          	xor	t3,t2,-822
  1006c0:	00010117          	auipc	sp,0x10
  1006c4:	94010113          	add	sp,sp,-1728 # 110000 <mem>
  1006c8:	00010337          	lui	t1,0x10
  1006cc:	77030313          	add	t1,t1,1904 # 10770 <_tbss_end+0x10770>
  1006d0:	00610133          	add	sp,sp,t1
  1006d4:	01a757b3          	srl	a5,a4,s10
  1006d8:	016d5033          	srl	zero,s10,s6
  1006dc:	b1010903          	lb	s2,-1264(sp)
  1006e0:	0d412c83          	lw	s9,212(sp)
  1006e4:	53ac3d13          	sltiu	s10,s8,1338
  1006e8:	012c4bb3          	xor	s7,s8,s2
  1006ec:	0197d813          	srl	a6,a5,0x19

001006f0 <b0000000029>:
  1006f0:	0580056f          	jal	a0,100748 <i0000000032>
  1006f4:	01d41933          	sll	s2,s0,t4
  1006f8:	665ea793          	slti	a5,t4,1637
  1006fc:	30412a83          	lw	s5,772(sp)
  100700:	007b6933          	or	s2,s6,t2
  100704:	e0c15903          	lhu	s2,-500(sp)
  100708:	60c15703          	lhu	a4,1548(sp)
  10070c:	72110703          	lb	a4,1825(sp)
  100710:	00010117          	auipc	sp,0x10
  100714:	8f010113          	add	sp,sp,-1808 # 110000 <mem>
  100718:	00016337          	lui	t1,0x16
  10071c:	45830313          	add	t1,t1,1112 # 16458 <_tbss_end+0x16458>
  100720:	00610133          	add	sp,sp,t1

00100724 <i0000000029>:
  100724:	7aa11403          	lh	s0,1962(sp)

00100728 <i000000002a>:
  100728:	55b10503          	lb	a0,1371(sp)

0010072c <i000000002b>:
  10072c:	8b714b03          	lbu	s6,-1865(sp)

00100730 <i000000002c>:
  100730:	4074d193          	sra	gp,s1,0x7

00100734 <i000000002d>:
  100734:	198f3d13          	sltiu	s10,t5,408

00100738 <i000000002e>:
  100738:	07910523          	sb	s9,106(sp)

0010073c <i000000002f>:
  10073c:	234c3e37          	lui	t3,0x234c3

00100740 <i0000000030>:
  100740:	01acde93          	srl	t4,s9,0x1a

00100744 <i0000000031>:
  100744:	75514203          	lbu	tp,1877(sp)

00100748 <i0000000032>:
  100748:	56a15283          	lhu	t0,1386(sp)

0010074c <i0000000033>:
  10074c:	85972c13          	slti	s8,a4,-1959

00100750 <i0000000034>:
  100750:	86615b83          	lhu	s7,-1946(sp)

00100754 <i0000000035>:
  100754:	007edbb3          	srl	s7,t4,t2

00100758 <i0000000036>:
  100758:	3120da17          	auipc	s4,0x3120d
  10075c:	00010117          	auipc	sp,0x10
  100760:	8a410113          	add	sp,sp,-1884 # 110000 <mem>
  100764:	00011337          	lui	t1,0x11
  100768:	bd030313          	add	t1,t1,-1072 # 10bd0 <_tbss_end+0x10bd0>
  10076c:	00610133          	add	sp,sp,t1

00100770 <i0000000037>:
  100770:	69314183          	lbu	gp,1683(sp)

00100774 <i0000000038>:
  100774:	c0812303          	lw	t1,-1016(sp)
  100778:	00010117          	auipc	sp,0x10
  10077c:	88810113          	add	sp,sp,-1912 # 110000 <mem>
  100780:	00011337          	lui	t1,0x11
  100784:	6d830313          	add	t1,t1,1752 # 116d8 <_tbss_end+0x116d8>
  100788:	00610133          	add	sp,sp,t1

0010078c <i0000000039>:
  10078c:	aec12183          	lw	gp,-1300(sp)
  100790:	00010117          	auipc	sp,0x10
  100794:	87010113          	add	sp,sp,-1936 # 110000 <mem>
  100798:	00018337          	lui	t1,0x18
  10079c:	24030313          	add	t1,t1,576 # 18240 <_tbss_end+0x18240>
  1007a0:	00610133          	add	sp,sp,t1

001007a4 <i000000003a>:
  1007a4:	79e11e03          	lh	t3,1950(sp)

001007a8 <i000000003b>:
  1007a8:	7c412703          	lw	a4,1988(sp)

001007ac <i000000003c>:
  1007ac:	bda15f03          	lhu	t5,-1062(sp)
  1007b0:	00010117          	auipc	sp,0x10
  1007b4:	85010113          	add	sp,sp,-1968 # 110000 <mem>
  1007b8:	0000a337          	lui	t1,0xa
  1007bc:	c4030313          	add	t1,t1,-960 # 9c40 <_tbss_end+0x9c40>
  1007c0:	00610133          	add	sp,sp,t1
  1007c4:	00010117          	auipc	sp,0x10
  1007c8:	83c10113          	add	sp,sp,-1988 # 110000 <mem>
  1007cc:	00019337          	lui	t1,0x19
  1007d0:	b6030313          	add	t1,t1,-1184 # 18b60 <_tbss_end+0x18b60>
  1007d4:	00610133          	add	sp,sp,t1
  1007d8:	00010117          	auipc	sp,0x10
  1007dc:	82810113          	add	sp,sp,-2008 # 110000 <mem>
  1007e0:	0000b337          	lui	t1,0xb
  1007e4:	a7030313          	add	t1,t1,-1424 # aa70 <_tbss_end+0xaa70>
  1007e8:	00610133          	add	sp,sp,t1
  1007ec:	25714483          	lbu	s1,599(sp)
  1007f0:	014d6c33          	or	s8,s10,s4
  1007f4:	56d10c03          	lb	s8,1389(sp)
  1007f8:	fb6e7793          	and	a5,t3,-74
  1007fc:	63bcc193          	xor	gp,s9,1595
  100800:	60815c03          	lhu	s8,1544(sp)
  100804:	03012c03          	lw	s8,48(sp)

00100808 <b000000003d>:
  100808:	00000e97          	auipc	t4,0x0
  10080c:	068e8e93          	add	t4,t4,104 # 100870 <i0000000048>
  100810:	000e8567          	jalr	a0,t4
  100814:	418e0033          	sub	zero,t3,s8
  100818:	fcba4c13          	xor	s8,s4,-53
  10081c:	007881b3          	add	gp,a7,t2
  100820:	21a14e03          	lbu	t3,538(sp)
  100824:	c6d7bd93          	sltiu	s11,a5,-915
  100828:	00fb7db3          	and	s11,s6,a5
  10082c:	410988b3          	sub	a7,s3,a6

00100830 <i000000003d>:
  100830:	34096437          	lui	s0,0x34096
  100834:	0000f117          	auipc	sp,0xf
  100838:	7cc10113          	add	sp,sp,1996 # 110000 <mem>
  10083c:	0001d337          	lui	t1,0x1d
  100840:	72830313          	add	t1,t1,1832 # 1d728 <_tbss_end+0x1d728>
  100844:	00610133          	add	sp,sp,t1

00100848 <i000000003e>:
  100848:	32e107a3          	sb	a4,815(sp)

0010084c <i000000003f>:
  10084c:	91c10fa3          	sb	t3,-1761(sp)

00100850 <i0000000040>:
  100850:	01ce5db3          	srl	s11,t3,t3

00100854 <i0000000041>:
  100854:	0f8107a3          	sb	s8,239(sp)

00100858 <i0000000042>:
  100858:	3da11c23          	sh	s10,984(sp)

0010085c <i0000000043>:
  10085c:	67c15c03          	lhu	s8,1660(sp)

00100860 <i0000000044>:
  100860:	0145c1b3          	xor	gp,a1,s4

00100864 <i0000000045>:
  100864:	5731e1b7          	lui	gp,0x5731e

00100868 <i0000000046>:
  100868:	55e10da3          	sb	t5,1371(sp)

0010086c <i0000000047>:
  10086c:	c8812583          	lw	a1,-888(sp)

00100870 <i0000000048>:
  100870:	403f51b3          	sra	gp,t5,gp

00100874 <i0000000049>:
  100874:	007f1693          	sll	a3,t5,0x7

00100878 <i000000004a>:
  100878:	64d12e23          	sw	a3,1628(sp)

0010087c <i000000004b>:
  10087c:	31ec2193          	slti	gp,s8,798

00100880 <i000000004c>:
  100880:	50011423          	sh	zero,1288(sp)

00100884 <i000000004d>:
  100884:	08c12883          	lw	a7,140(sp)

00100888 <i000000004e>:
  100888:	03210c03          	lb	s8,50(sp)

0010088c <i000000004f>:
  10088c:	f9811523          	sh	s8,-118(sp)

00100890 <i0000000050>:
  100890:	a84c6f13          	or	t5,s8,-1404
  100894:	00a00a13          	li	s4,10
  100898:	0000f117          	auipc	sp,0xf
  10089c:	76810113          	add	sp,sp,1896 # 110000 <mem>
  1008a0:	0001b337          	lui	t1,0x1b
  1008a4:	40030313          	add	t1,t1,1024 # 1b400 <_tbss_end+0x1b400>
  1008a8:	00610133          	add	sp,sp,t1
  1008ac:	0000f117          	auipc	sp,0xf
  1008b0:	75410113          	add	sp,sp,1876 # 110000 <mem>
  1008b4:	0000a337          	lui	t1,0xa
  1008b8:	ef030313          	add	t1,t1,-272 # 9ef0 <_tbss_end+0x9ef0>
  1008bc:	00610133          	add	sp,sp,t1
  1008c0:	ecf10fa3          	sb	a5,-289(sp)
  1008c4:	95614c03          	lbu	s8,-1706(sp)
  1008c8:	01c1b833          	sltu	a6,gp,t3
  1008cc:	470c6c13          	or	s8,s8,1136
  1008d0:	5e821c37          	lui	s8,0x5e821
  1008d4:	34412983          	lw	s3,836(sp)
  1008d8:	7c010003          	lb	zero,1984(sp)

001008dc <b0000000051>:
  1008dc:	00000033          	add	zero,zero,zero
  1008e0:	f94f9ce3          	bne	t6,s4,100878 <i000000004a>
  1008e4:	00000033          	add	zero,zero,zero
  1008e8:	cfb11323          	sh	s11,-794(sp)
  1008ec:	60f11023          	sh	a5,1536(sp)
  1008f0:	b0e11723          	sh	a4,-1266(sp)
  1008f4:	e4b14c03          	lbu	s8,-437(sp)
  1008f8:	dc312e23          	sw	gp,-548(sp)
  1008fc:	86012703          	lw	a4,-1952(sp)
  100900:	98411183          	lh	gp,-1660(sp)
  100904:	00a00f93          	li	t6,10

00100908 <i0000000051>:
  100908:	15311223          	sh	s3,324(sp)
  10090c:	0000f117          	auipc	sp,0xf
  100910:	6f410113          	add	sp,sp,1780 # 110000 <mem>
  100914:	00001337          	lui	t1,0x1
  100918:	c3830313          	add	t1,t1,-968 # c38 <_tbss_end+0xc38>
  10091c:	00610133          	add	sp,sp,t1

00100920 <i0000000052>:
  100920:	59a11983          	lh	s3,1434(sp)

00100924 <i0000000053>:
  100924:	08215183          	lhu	gp,130(sp)

00100928 <i0000000054>:
  100928:	b8a11623          	sh	a0,-1140(sp)

0010092c <i0000000055>:
  10092c:	c371ef13          	or	t5,gp,-969

00100930 <i0000000056>:
  100930:	ade12423          	sw	t5,-1336(sp)

00100934 <i0000000057>:
  100934:	a0c12c23          	sw	a2,-1512(sp)

00100938 <i0000000058>:
  100938:	a7110423          	sb	a7,-1432(sp)

0010093c <i0000000059>:
  10093c:	ad610203          	lb	tp,-1322(sp)

00100940 <i000000005a>:
  100940:	003c7533          	and	a0,s8,gp

00100944 <i000000005b>:
  100944:	cde10aa3          	sb	t5,-811(sp)

00100948 <i000000005c>:
  100948:	72344317          	auipc	t1,0x72344

0010094c <i000000005d>:
  10094c:	003c5333          	srl	t1,s8,gp
  100950:	0000f117          	auipc	sp,0xf
  100954:	6b010113          	add	sp,sp,1712 # 110000 <mem>
  100958:	00019337          	lui	t1,0x19
  10095c:	0b830313          	add	t1,t1,184 # 190b8 <_tbss_end+0x190b8>
  100960:	00610133          	add	sp,sp,t1

00100964 <i000000005e>:
  100964:	74011723          	sh	zero,1870(sp)

00100968 <i000000005f>:
  100968:	424d0513          	add	a0,s10,1060

0010096c <i0000000060>:
  10096c:	01131813          	sll	a6,t1,0x11
  100970:	0000f117          	auipc	sp,0xf
  100974:	69010113          	add	sp,sp,1680 # 110000 <mem>
  100978:	00014337          	lui	t1,0x14
  10097c:	b6030313          	add	t1,t1,-1184 # 13b60 <_tbss_end+0x13b60>
  100980:	00610133          	add	sp,sp,t1

00100984 <i0000000061>:
  100984:	a7e12623          	sw	t5,-1428(sp)

00100988 <i0000000062>:
  100988:	00e5d833          	srl	a6,a1,a4

0010098c <i0000000063>:
  10098c:	f8610883          	lb	a7,-122(sp)

00100990 <i0000000064>:
  100990:	f29105a3          	sb	s1,-213(sp)
  100994:	0000f117          	auipc	sp,0xf
  100998:	66c10113          	add	sp,sp,1644 # 110000 <mem>
  10099c:	00015337          	lui	t1,0x15
  1009a0:	13030313          	add	t1,t1,304 # 15130 <_tbss_end+0x15130>
  1009a4:	00610133          	add	sp,sp,t1
  1009a8:	ca310203          	lb	tp,-861(sp)
  1009ac:	7bc11a23          	sh	t3,1972(sp)
  1009b0:	ec810e03          	lb	t3,-312(sp)
  1009b4:	bbe72213          	slti	tp,a4,-1090
  1009b8:	a2b72b93          	slti	s7,a4,-1493
  1009bc:	0c7b8197          	auipc	gp,0xc7b8
  1009c0:	f4412023          	sw	tp,-192(sp)

001009c4 <b0000000065>:
  1009c4:	00000c17          	auipc	s8,0x0
  1009c8:	058c0c13          	add	s8,s8,88 # 100a1c <i0000000071>
  1009cc:	000c0567          	jalr	a0,s8
  1009d0:	82310483          	lb	s1,-2013(sp)
  1009d4:	2a914883          	lbu	a7,681(sp)
  1009d8:	005b9e13          	sll	t3,s7,0x5
  1009dc:	8631cc93          	xor	s9,gp,-1949
  1009e0:	85b96e13          	or	t3,s2,-1957
  1009e4:	d9814183          	lbu	gp,-616(sp)
  1009e8:	66812483          	lw	s1,1640(sp)

001009ec <i0000000065>:
  1009ec:	008bb1b3          	sltu	gp,s7,s0

001009f0 <i0000000066>:
  1009f0:	018f3a33          	sltu	s4,t5,s8

001009f4 <i0000000067>:
  1009f4:	63211583          	lh	a1,1586(sp)

001009f8 <i0000000068>:
  1009f8:	98e15183          	lhu	gp,-1650(sp)

001009fc <i0000000069>:
  1009fc:	40614183          	lbu	gp,1030(sp)

00100a00 <i000000006a>:
  100a00:	01e1dab3          	srl	s5,gp,t5

00100a04 <i000000006b>:
  100a04:	3721f693          	and	a3,gp,882

00100a08 <i000000006c>:
  100a08:	00085c33          	srl	s8,a6,zero

00100a0c <i000000006d>:
  100a0c:	57611783          	lh	a5,1398(sp)

00100a10 <i000000006e>:
  100a10:	0089ff33          	and	t5,s3,s0

00100a14 <i000000006f>:
  100a14:	013466b3          	or	a3,s0,s3

00100a18 <i0000000070>:
  100a18:	43b103b7          	lui	t2,0x43b10

00100a1c <i0000000071>:
  100a1c:	018f2c33          	slt	s8,t5,s8

00100a20 <i0000000072>:
  100a20:	00cea233          	slt	tp,t4,a2

00100a24 <i0000000073>:
  100a24:	4be11e23          	sh	t5,1212(sp)

00100a28 <i0000000074>:
  100a28:	01679733          	sll	a4,a5,s6

00100a2c <i0000000075>:
  100a2c:	007df8b3          	and	a7,s11,t2

00100a30 <i0000000076>:
  100a30:	42011823          	sh	zero,1072(sp)

00100a34 <i0000000077>:
  100a34:	01e1cc33          	xor	s8,gp,t5

00100a38 <i0000000078>:
  100a38:	00d93f13          	sltiu	t5,s2,13
  100a3c:	00c00e13          	li	t3,12
  100a40:	001f8f93          	add	t6,t6,1
  100a44:	0000f117          	auipc	sp,0xf
  100a48:	5bc10113          	add	sp,sp,1468 # 110000 <mem>
  100a4c:	00004337          	lui	t1,0x4
  100a50:	9c030313          	add	t1,t1,-1600 # 39c0 <_tbss_end+0x39c0>
  100a54:	00610133          	add	sp,sp,t1
  100a58:	0000f117          	auipc	sp,0xf
  100a5c:	5a810113          	add	sp,sp,1448 # 110000 <mem>
  100a60:	0000a337          	lui	t1,0xa
  100a64:	fc030313          	add	t1,t1,-64 # 9fc0 <_tbss_end+0x9fc0>
  100a68:	00610133          	add	sp,sp,t1
  100a6c:	0000f117          	auipc	sp,0xf
  100a70:	59410113          	add	sp,sp,1428 # 110000 <mem>
  100a74:	0001d337          	lui	t1,0x1d
  100a78:	2d830313          	add	t1,t1,728 # 1d2d8 <_tbss_end+0x1d2d8>
  100a7c:	00610133          	add	sp,sp,t1
  100a80:	0000f117          	auipc	sp,0xf
  100a84:	58010113          	add	sp,sp,1408 # 110000 <mem>
  100a88:	00002337          	lui	t1,0x2
  100a8c:	8c030313          	add	t1,t1,-1856 # 18c0 <_tbss_end+0x18c0>
  100a90:	00610133          	add	sp,sp,t1
  100a94:	55ae2417          	auipc	s0,0x55ae2
  100a98:	0c015183          	lhu	gp,192(sp)
  100a9c:	24412183          	lw	gp,580(sp)
  100aa0:	0f411a83          	lh	s5,244(sp)
  100aa4:	13c15a03          	lhu	s4,316(sp)
  100aa8:	80b70813          	add	a6,a4,-2037 # 498d380b <_end+0x497a2de6>
  100aac:	96e15c03          	lhu	s8,-1682(sp)

00100ab0 <b0000000079>:
  100ab0:	01cf8863          	beq	t6,t3,100ac0 <b0000000079+0x10>
  100ab4:	00000e17          	auipc	t3,0x0
  100ab8:	f54e0e13          	add	t3,t3,-172 # 100a08 <i000000006c>
  100abc:	000e0567          	jalr	a0,t3
  100ac0:	00a00f93          	li	t6,10
  100ac4:	431a4397          	auipc	t2,0x431a4
  100ac8:	79314703          	lbu	a4,1939(sp)
  100acc:	27015703          	lhu	a4,624(sp)
  100ad0:	c0814403          	lbu	s0,-1016(sp)
  100ad4:	203dba93          	sltiu	s5,s11,515
  100ad8:	91415c03          	lhu	s8,-1772(sp)
  100adc:	0007e933          	or	s2,a5,zero

00100ae0 <i0000000079>:
  100ae0:	010f5f13          	srl	t5,t5,0x10

00100ae4 <i000000007a>:
  100ae4:	5ca11a23          	sh	a0,1492(sp)

00100ae8 <i000000007b>:
  100ae8:	00fc5f13          	srl	t5,s8,0xf

00100aec <i000000007c>:
  100aec:	418f0f33          	sub	t5,t5,s8

00100af0 <i000000007d>:
  100af0:	2e611b23          	sh	t1,758(sp)

00100af4 <i000000007e>:
  100af4:	f1211c03          	lh	s8,-238(sp)

00100af8 <i000000007f>:
  100af8:	423f2c13          	slti	s8,t5,1059

00100afc <i0000000080>:
  100afc:	018c51b3          	srl	gp,s8,s8

00100b00 <i0000000081>:
  100b00:	4119d913          	sra	s2,s3,0x11

00100b04 <i0000000082>:
  100b04:	0031c933          	xor	s2,gp,gp

00100b08 <i0000000083>:
  100b08:	b0e14183          	lbu	gp,-1266(sp)

00100b0c <i0000000084>:
  100b0c:	c7210183          	lb	gp,-910(sp)

00100b10 <i0000000085>:
  100b10:	003c5a13          	srl	s4,s8,0x3

00100b14 <i0000000086>:
  100b14:	01f19e13          	sll	t3,gp,0x1f

00100b18 <i0000000087>:
  100b18:	0054bc33          	sltu	s8,s1,t0

00100b1c <i0000000088>:
  100b1c:	00b3df33          	srl	t5,t2,a1
  100b20:	0000f117          	auipc	sp,0xf
  100b24:	4e010113          	add	sp,sp,1248 # 110000 <mem>
  100b28:	00004337          	lui	t1,0x4
  100b2c:	4e830313          	add	t1,t1,1256 # 44e8 <_tbss_end+0x44e8>
  100b30:	00610133          	add	sp,sp,t1

00100b34 <i0000000089>:
  100b34:	e3710183          	lb	gp,-457(sp)

00100b38 <i000000008a>:
  100b38:	47910ca3          	sb	s9,1145(sp)

00100b3c <i000000008b>:
  100b3c:	000aaa33          	sltz	s4,s5
  100b40:	0000f117          	auipc	sp,0xf
  100b44:	4c010113          	add	sp,sp,1216 # 110000 <mem>
  100b48:	00016337          	lui	t1,0x16
  100b4c:	0a030313          	add	t1,t1,160 # 160a0 <_tbss_end+0x160a0>
  100b50:	00610133          	add	sp,sp,t1

00100b54 <i000000008c>:
  100b54:	03215c03          	lhu	s8,50(sp)
  100b58:	0000f117          	auipc	sp,0xf
  100b5c:	4a810113          	add	sp,sp,1192 # 110000 <mem>
  100b60:	00015337          	lui	t1,0x15
  100b64:	a1830313          	add	t1,t1,-1512 # 14a18 <_tbss_end+0x14a18>
  100b68:	00610133          	add	sp,sp,t1
  100b6c:	0000f117          	auipc	sp,0xf
  100b70:	49410113          	add	sp,sp,1172 # 110000 <mem>
  100b74:	0000a337          	lui	t1,0xa
  100b78:	9d030313          	add	t1,t1,-1584 # 99d0 <_tbss_end+0x99d0>
  100b7c:	00610133          	add	sp,sp,t1
  100b80:	0000f117          	auipc	sp,0xf
  100b84:	48010113          	add	sp,sp,1152 # 110000 <mem>
  100b88:	00003337          	lui	t1,0x3
  100b8c:	63830313          	add	t1,t1,1592 # 3638 <_tbss_end+0x3638>
  100b90:	00610133          	add	sp,sp,t1
  100b94:	0000f117          	auipc	sp,0xf
  100b98:	46c10113          	add	sp,sp,1132 # 110000 <mem>
  100b9c:	0001e337          	lui	t1,0x1e
  100ba0:	b3030313          	add	t1,t1,-1232 # 1db30 <_tbss_end+0x1db30>
  100ba4:	00610133          	add	sp,sp,t1
  100ba8:	50e00a93          	li	s5,1294
  100bac:	14611003          	lh	zero,326(sp)
  100bb0:	30411003          	lh	zero,772(sp)
  100bb4:	d1b14003          	lbu	zero,-741(sp)
  100bb8:	00e45db3          	srl	s11,s0,a4
  100bbc:	0a410a23          	sb	tp,180(sp)
  100bc0:	4d810ba3          	sb	s8,1239(sp)

00100bc4 <b000000008d>:
  100bc4:	00000917          	auipc	s2,0x0
  100bc8:	05090913          	add	s2,s2,80 # 100c14 <i0000000097>
  100bcc:	00090567          	jalr	a0,s2
  100bd0:	1db9f193          	and	gp,s3,475
  100bd4:	41bb8a33          	sub	s4,s7,s11
  100bd8:	5c412d83          	lw	s11,1476(sp)
  100bdc:	d0210703          	lb	a4,-766(sp)
  100be0:	01819033          	sll	zero,gp,s8
  100be4:	095e2d13          	slti	s10,t3,149
  100be8:	4d5e2193          	slti	gp,t3,1237

00100bec <i000000008d>:
  100bec:	07411c03          	lh	s8,116(sp)

00100bf0 <i000000008e>:
  100bf0:	01011983          	lh	s3,16(sp)

00100bf4 <i000000008f>:
  100bf4:	29442c17          	auipc	s8,0x29442

00100bf8 <i0000000090>:
  100bf8:	4f83a1b7          	lui	gp,0x4f83a

00100bfc <i0000000091>:
  100bfc:	18310f03          	lb	t5,387(sp)

00100c00 <i0000000092>:
  100c00:	74ae3f13          	sltiu	t5,t3,1866

00100c04 <i0000000093>:
  100c04:	7e414883          	lbu	a7,2020(sp)

00100c08 <i0000000094>:
  100c08:	1f635f17          	auipc	t5,0x1f635

00100c0c <i0000000095>:
  100c0c:	5fc11e03          	lh	t3,1532(sp)

00100c10 <i0000000096>:
  100c10:	003f33b3          	sltu	t2,t5,gp

00100c14 <i0000000097>:
  100c14:	506ed497          	auipc	s1,0x506ed

00100c18 <i0000000098>:
  100c18:	f2914183          	lbu	gp,-215(sp)

00100c1c <i0000000099>:
  100c1c:	22b216b7          	lui	a3,0x22b21

00100c20 <i000000009a>:
  100c20:	06615183          	lhu	gp,102(sp)

00100c24 <i000000009b>:
  100c24:	97110903          	lb	s2,-1679(sp)

00100c28 <i000000009c>:
  100c28:	bd7d2613          	slti	a2,s10,-1065

00100c2c <i000000009d>:
  100c2c:	003f4c33          	xor	s8,t5,gp

00100c30 <i000000009e>:
  100c30:	894a2c13          	slti	s8,s4,-1900

00100c34 <i000000009f>:
  100c34:	0fc12c03          	lw	s8,252(sp)

00100c38 <i00000000a0>:
  100c38:	9fc15d83          	lhu	s11,-1540(sp)
  100c3c:	00c00b93          	li	s7,12
  100c40:	001f8f93          	add	t6,t6,1
  100c44:	0000f117          	auipc	sp,0xf
  100c48:	3bc10113          	add	sp,sp,956 # 110000 <mem>
  100c4c:	00014337          	lui	t1,0x14
  100c50:	9e830313          	add	t1,t1,-1560 # 139e8 <_tbss_end+0x139e8>
  100c54:	00610133          	add	sp,sp,t1
  100c58:	0000f117          	auipc	sp,0xf
  100c5c:	3a810113          	add	sp,sp,936 # 110000 <mem>
  100c60:	00014337          	lui	t1,0x14
  100c64:	c1830313          	add	t1,t1,-1000 # 13c18 <_tbss_end+0x13c18>
  100c68:	00610133          	add	sp,sp,t1
  100c6c:	0000f117          	auipc	sp,0xf
  100c70:	39410113          	add	sp,sp,916 # 110000 <mem>
  100c74:	0000a337          	lui	t1,0xa
  100c78:	98030313          	add	t1,t1,-1664 # 9980 <_tbss_end+0x9980>
  100c7c:	00610133          	add	sp,sp,t1
  100c80:	aa410183          	lb	gp,-1372(sp)
  100c84:	4df49c17          	auipc	s8,0x4df49
  100c88:	d8c15003          	lhu	zero,-628(sp)
  100c8c:	9c0107a3          	sb	zero,-1585(sp)
  100c90:	61c11f23          	sh	t3,1566(sp)
  100c94:	016b3033          	sltu	zero,s6,s6
  100c98:	99c12c83          	lw	s9,-1636(sp)

00100c9c <b00000000a1>:
  100c9c:	017f8863          	beq	t6,s7,100cac <b00000000a1+0x10>
  100ca0:	00000b97          	auipc	s7,0x0
  100ca4:	f84b8b93          	add	s7,s7,-124 # 100c24 <i000000009b>
  100ca8:	000b8567          	jalr	a0,s7
  100cac:	00a00f93          	li	t6,10
  100cb0:	019c9c13          	sll	s8,s9,0x19
  100cb4:	788d2397          	auipc	t2,0x788d2
  100cb8:	0c64c393          	xor	t2,s1,198
  100cbc:	55c92193          	slti	gp,s2,1372
  100cc0:	00b1d193          	srl	gp,gp,0xb
  100cc4:	5e114183          	lbu	gp,1505(sp)
  100cc8:	d1610da3          	sb	s6,-741(sp)

00100ccc <i00000000a1>:
  100ccc:	0195ef33          	or	t5,a1,s9

00100cd0 <i00000000a2>:
  100cd0:	f5e12623          	sw	t5,-180(sp)

00100cd4 <i00000000a3>:
  100cd4:	97811c03          	lh	s8,-1672(sp)

00100cd8 <i00000000a4>:
  100cd8:	00c57633          	and	a2,a0,a2

00100cdc <i00000000a5>:
  100cdc:	9ee107a3          	sb	a4,-1553(sp)

00100ce0 <i00000000a6>:
  100ce0:	4031dd33          	sra	s10,gp,gp

00100ce4 <i00000000a7>:
  100ce4:	8cc11f03          	lh	t5,-1844(sp)

00100ce8 <i00000000a8>:
  100ce8:	404c5713          	sra	a4,s8,0x4

00100cec <i00000000a9>:
  100cec:	7d992513          	slti	a0,s2,2009

00100cf0 <i00000000aa>:
  100cf0:	5e41bc93          	sltiu	s9,gp,1508

00100cf4 <i00000000ab>:
  100cf4:	a9c15703          	lhu	a4,-1380(sp)

00100cf8 <i00000000ac>:
  100cf8:	a4610383          	lb	t2,-1466(sp)

00100cfc <i00000000ad>:
  100cfc:	9fb1bf13          	sltiu	t5,gp,-1541

00100d00 <i00000000ae>:
  100d00:	009de1b3          	or	gp,s11,s1

00100d04 <i00000000af>:
  100d04:	b9d03793          	sltiu	a5,zero,-1123

00100d08 <i00000000b0>:
  100d08:	407bd613          	sra	a2,s7,0x7

00100d0c <i00000000b1>:
  100d0c:	27c15c03          	lhu	s8,636(sp)

00100d10 <i00000000b2>:
  100d10:	b5014183          	lbu	gp,-1200(sp)

00100d14 <i00000000b3>:
  100d14:	01ad7c33          	and	s8,s10,s10

00100d18 <i00000000b4>:
  100d18:	435c2c13          	slti	s8,s8,1077
  100d1c:	0000f117          	auipc	sp,0xf
  100d20:	2e410113          	add	sp,sp,740 # 110000 <mem>
  100d24:	0000d337          	lui	t1,0xd
  100d28:	c4030313          	add	t1,t1,-960 # cc40 <_tbss_end+0xcc40>
  100d2c:	00610133          	add	sp,sp,t1
  100d30:	01b1d213          	srl	tp,gp,0x1b
  100d34:	003c4eb3          	xor	t4,s8,gp
  100d38:	01b7d413          	srl	s0,a5,0x1b
  100d3c:	39812e23          	sw	s8,924(sp)
  100d40:	d6f10703          	lb	a4,-657(sp)
  100d44:	2e711c23          	sh	t2,760(sp)
  100d48:	407201b3          	sub	gp,tp,t2

00100d4c <b00000000b5>:
  100d4c:	00000e17          	auipc	t3,0x0
  100d50:	058e0e13          	add	t3,t3,88 # 100da4 <i00000000c1>
  100d54:	000e0567          	jalr	a0,t3
  100d58:	18412383          	lw	t2,388(sp)
  100d5c:	0083b9b3          	sltu	s3,t2,s0
  100d60:	01276833          	or	a6,a4,s2
  100d64:	2a312023          	sw	gp,672(sp)
  100d68:	00e193b3          	sll	t2,gp,a4
  100d6c:	e2015183          	lhu	gp,-480(sp)
  100d70:	ff814383          	lbu	t2,-8(sp)

00100d74 <i00000000b5>:
  100d74:	003c7bb3          	and	s7,s8,gp

00100d78 <i00000000b6>:
  100d78:	cdc15c03          	lhu	s8,-804(sp)

00100d7c <i00000000b7>:
  100d7c:	50d68193          	add	gp,a3,1293 # 22b2150d <_end+0x229f0ae8>

00100d80 <i00000000b8>:
  100d80:	01ef3033          	sltu	zero,t5,t5

00100d84 <i00000000b9>:
  100d84:	6ea11723          	sh	a0,1774(sp)

00100d88 <i00000000ba>:
  100d88:	9d112823          	sw	a7,-1584(sp)

00100d8c <i00000000bb>:
  100d8c:	09615583          	lhu	a1,150(sp)

00100d90 <i00000000bc>:
  100d90:	0181a333          	slt	t1,gp,s8

00100d94 <i00000000bd>:
  100d94:	39c11f23          	sh	t3,926(sp)

00100d98 <i00000000be>:
  100d98:	ffc12a23          	sw	t3,-12(sp)

00100d9c <i00000000bf>:
  100d9c:	009521b3          	slt	gp,a0,s1

00100da0 <i00000000c0>:
  100da0:	b999cc13          	xor	s8,s3,-1127

00100da4 <i00000000c1>:
  100da4:	01f1d613          	srl	a2,gp,0x1f

00100da8 <i00000000c2>:
  100da8:	08897e13          	and	t3,s2,136

00100dac <i00000000c3>:
  100dac:	6ca12223          	sw	a0,1732(sp)

00100db0 <i00000000c4>:
  100db0:	9a211183          	lh	gp,-1630(sp)

00100db4 <i00000000c5>:
  100db4:	ad410003          	lb	zero,-1324(sp)
  100db8:	0000f117          	auipc	sp,0xf
  100dbc:	24810113          	add	sp,sp,584 # 110000 <mem>
  100dc0:	0000e337          	lui	t1,0xe
  100dc4:	f2830313          	add	t1,t1,-216 # df28 <_tbss_end+0xdf28>
  100dc8:	00610133          	add	sp,sp,t1

00100dcc <i00000000c6>:
  100dcc:	09612c23          	sw	s6,152(sp)

00100dd0 <i00000000c7>:
  100dd0:	41a1dc13          	sra	s8,gp,0x1a
  100dd4:	0000f117          	auipc	sp,0xf
  100dd8:	22c10113          	add	sp,sp,556 # 110000 <mem>
  100ddc:	0001a337          	lui	t1,0x1a
  100de0:	0a030313          	add	t1,t1,160 # 1a0a0 <_tbss_end+0x1a0a0>
  100de4:	00610133          	add	sp,sp,t1

00100de8 <i00000000c8>:
  100de8:	ec411303          	lh	t1,-316(sp)
  100dec:	00b00b13          	li	s6,11
  100df0:	00a00f93          	li	t6,10
  100df4:	0000f117          	auipc	sp,0xf
  100df8:	20c10113          	add	sp,sp,524 # 110000 <mem>
  100dfc:	00006337          	lui	t1,0x6
  100e00:	79830313          	add	t1,t1,1944 # 6798 <_tbss_end+0x6798>
  100e04:	00610133          	add	sp,sp,t1
  100e08:	0000f117          	auipc	sp,0xf
  100e0c:	1f810113          	add	sp,sp,504 # 110000 <mem>
  100e10:	0001a337          	lui	t1,0x1a
  100e14:	4d030313          	add	t1,t1,1232 # 1a4d0 <_tbss_end+0x1a4d0>
  100e18:	00610133          	add	sp,sp,t1
  100e1c:	28a25037          	lui	zero,0x28a25
  100e20:	95110003          	lb	zero,-1711(sp)
  100e24:	3f945397          	auipc	t2,0x3f945
  100e28:	0bc12b83          	lw	s7,188(sp)
  100e2c:	3fc15703          	lhu	a4,1020(sp)
  100e30:	dcb10e83          	lb	t4,-565(sp)
  100e34:	a6411d23          	sh	tp,-1414(sp)

00100e38 <b00000000c9>:
  100e38:	00000033          	add	zero,zero,zero
  100e3c:	056f9c63          	bne	t6,s6,100e94 <i00000000d5>
  100e40:	00000033          	add	zero,zero,zero
  100e44:	01c1ed33          	or	s10,gp,t3
  100e48:	2d811823          	sh	s8,720(sp)
  100e4c:	07a10e23          	sb	s10,124(sp)
  100e50:	0031a1b3          	slt	gp,gp,gp
  100e54:	4154d1b3          	sra	gp,s1,s5
  100e58:	31e10c03          	lb	s8,798(sp)
  100e5c:	ece15203          	lhu	tp,-306(sp)
  100e60:	00a00f93          	li	t6,10

00100e64 <i00000000c9>:
  100e64:	27e14003          	lbu	zero,638(sp)

00100e68 <i00000000ca>:
  100e68:	01b7ec33          	or	s8,a5,s11

00100e6c <i00000000cb>:
  100e6c:	03d62ab7          	lui	s5,0x3d62

00100e70 <i00000000cc>:
  100e70:	410404b3          	sub	s1,s0,a6

00100e74 <i00000000cd>:
  100e74:	49b86193          	or	gp,a6,1179

00100e78 <i00000000ce>:
  100e78:	c1412e23          	sw	s4,-996(sp)

00100e7c <i00000000cf>:
  100e7c:	019c1193          	sll	gp,s8,0x19

00100e80 <i00000000d0>:
  100e80:	ec310023          	sb	gp,-320(sp)

00100e84 <i00000000d1>:
  100e84:	00c81f13          	sll	t5,a6,0xc

00100e88 <i00000000d2>:
  100e88:	41685f13          	sra	t5,a6,0x16

00100e8c <i00000000d3>:
  100e8c:	3fe10ea3          	sb	t5,1021(sp)

00100e90 <i00000000d4>:
  100e90:	d1511523          	sh	s5,-758(sp)

00100e94 <i00000000d5>:
  100e94:	86d47193          	and	gp,s0,-1939

00100e98 <i00000000d6>:
  100e98:	11b23193          	sltiu	gp,tp,283

00100e9c <i00000000d7>:
  100e9c:	00ce0b33          	add	s6,t3,a2

00100ea0 <i00000000d8>:
  100ea0:	d1eba893          	slti	a7,s7,-738

00100ea4 <i00000000d9>:
  100ea4:	418c5433          	sra	s0,s8,s8
  100ea8:	0000f117          	auipc	sp,0xf
  100eac:	15810113          	add	sp,sp,344 # 110000 <mem>
  100eb0:	00019337          	lui	t1,0x19
  100eb4:	94830313          	add	t1,t1,-1720 # 18948 <_tbss_end+0x18948>
  100eb8:	00610133          	add	sp,sp,t1

00100ebc <i00000000da>:
  100ebc:	b3811e23          	sh	s8,-1220(sp)

00100ec0 <i00000000db>:
  100ec0:	17a3f193          	and	gp,t2,378

00100ec4 <i00000000dc>:
  100ec4:	73412c23          	sw	s4,1848(sp)
  100ec8:	0000f117          	auipc	sp,0xf
  100ecc:	13810113          	add	sp,sp,312 # 110000 <mem>
  100ed0:	00003337          	lui	t1,0x3
  100ed4:	7d830313          	add	t1,t1,2008 # 37d8 <_tbss_end+0x37d8>
  100ed8:	00610133          	add	sp,sp,t1
  100edc:	0000f117          	auipc	sp,0xf
  100ee0:	12410113          	add	sp,sp,292 # 110000 <mem>
  100ee4:	0001a337          	lui	t1,0x1a
  100ee8:	de830313          	add	t1,t1,-536 # 19de8 <_tbss_end+0x19de8>
  100eec:	00610133          	add	sp,sp,t1
  100ef0:	b8215983          	lhu	s3,-1150(sp)
  100ef4:	43614c03          	lbu	s8,1078(sp)
  100ef8:	d801e013          	or	zero,gp,-640
  100efc:	6f211e03          	lh	t3,1778(sp)
  100f00:	44436197          	auipc	gp,0x44436
  100f04:	4161d893          	sra	a7,gp,0x16
  100f08:	3f8174b7          	lui	s1,0x3f817

00100f0c <b00000000dd>:
  100f0c:	03c0056f          	jal	a0,100f48 <i00000000e4>
  100f10:	3a11e713          	or	a4,gp,929
  100f14:	98411523          	sh	tp,-1654(sp)
  100f18:	3779b7b7          	lui	a5,0x3779b
  100f1c:	98311323          	sh	gp,-1658(sp)
  100f20:	7b4dac93          	slti	s9,s11,1972
  100f24:	0d20dcb7          	lui	s9,0xd20d
  100f28:	fc811383          	lh	t2,-56(sp)

00100f2c <i00000000dd>:
  100f2c:	47412703          	lw	a4,1140(sp)

00100f30 <i00000000de>:
  100f30:	0052bdb3          	sltu	s11,t0,t0

00100f34 <i00000000df>:
  100f34:	7151ba93          	sltiu	s5,gp,1813

00100f38 <i00000000e0>:
  100f38:	6f711123          	sh	s7,1762(sp)

00100f3c <i00000000e1>:
  100f3c:	83e1ec13          	or	s8,gp,-1986

00100f40 <i00000000e2>:
  100f40:	d9510b23          	sb	s5,-618(sp)

00100f44 <i00000000e3>:
  100f44:	e0a11183          	lh	gp,-502(sp)

00100f48 <i00000000e4>:
  100f48:	7f910e23          	sb	s9,2044(sp)

00100f4c <i00000000e5>:
  100f4c:	1b215203          	lhu	tp,434(sp)

00100f50 <i00000000e6>:
  100f50:	f4bc3c13          	sltiu	s8,s8,-181

00100f54 <i00000000e7>:
  100f54:	41818933          	sub	s2,gp,s8

00100f58 <i00000000e8>:
  100f58:	4c79e897          	auipc	a7,0x4c79e
  100f5c:	0000f117          	auipc	sp,0xf
  100f60:	0a410113          	add	sp,sp,164 # 110000 <mem>
  100f64:	0001a337          	lui	t1,0x1a
  100f68:	6c830313          	add	t1,t1,1736 # 1a6c8 <_tbss_end+0x1a6c8>
  100f6c:	00610133          	add	sp,sp,t1

00100f70 <i00000000e9>:
  100f70:	8fc10623          	sb	t3,-1812(sp)
  100f74:	0000f117          	auipc	sp,0xf
  100f78:	08c10113          	add	sp,sp,140 # 110000 <mem>
  100f7c:	0001a337          	lui	t1,0x1a
  100f80:	c3830313          	add	t1,t1,-968 # 19c38 <_tbss_end+0x19c38>
  100f84:	00610133          	add	sp,sp,t1

00100f88 <i00000000ea>:
  100f88:	dfa11183          	lh	gp,-518(sp)

00100f8c <i00000000eb>:
  100f8c:	418b5f13          	sra	t5,s6,0x18

00100f90 <i00000000ec>:
  100f90:	ef41ca93          	xor	s5,gp,-268

00100f94 <i00000000ed>:
  100f94:	fd7107a3          	sb	s7,-49(sp)

00100f98 <i00000000ee>:
  100f98:	13812c23          	sw	s8,312(sp)
  100f9c:	0000f117          	auipc	sp,0xf
  100fa0:	06410113          	add	sp,sp,100 # 110000 <mem>
  100fa4:	00006337          	lui	t1,0x6
  100fa8:	9f830313          	add	t1,t1,-1544 # 59f8 <_tbss_end+0x59f8>
  100fac:	00610133          	add	sp,sp,t1

00100fb0 <i00000000ef>:
  100fb0:	1a310623          	sb	gp,428(sp)

00100fb4 <i00000000f0>:
  100fb4:	bbe11a23          	sh	t5,-1100(sp)
  100fb8:	00b00d13          	li	s10,11
  100fbc:	00a00f93          	li	t6,10
  100fc0:	00ad9d93          	sll	s11,s11,0xa
  100fc4:	95914e83          	lbu	t4,-1703(sp)
  100fc8:	99310c03          	lb	s8,-1645(sp)
  100fcc:	01219db3          	sll	s11,gp,s2
  100fd0:	00ea3833          	sltu	a6,s4,a4
  100fd4:	01c95a33          	srl	s4,s2,t3
  100fd8:	bbc12223          	sw	t3,-1116(sp)

00100fdc <b00000000f1>:
  100fdc:	00000033          	add	zero,zero,zero
  100fe0:	03fd5e63          	bge	s10,t6,10101c <i00000000f6>
  100fe4:	00000033          	add	zero,zero,zero
  100fe8:	9a1a7c13          	and	s8,s4,-1631
  100fec:	9aa14e03          	lbu	t3,-1622(sp)
  100ff0:	40eadc33          	sra	s8,s5,a4
  100ff4:	004de433          	or	s0,s11,tp
  100ff8:	7b714e03          	lbu	t3,1975(sp)
  100ffc:	c7011803          	lh	a6,-912(sp)
  101000:	cb015783          	lhu	a5,-848(sp)
  101004:	00a00f93          	li	t6,10

00101008 <i00000000f1>:
  101008:	83714183          	lbu	gp,-1993(sp)

0010100c <i00000000f2>:
  10100c:	0031ef33          	or	t5,gp,gp

00101010 <i00000000f3>:
  101010:	4034d493          	sra	s1,s1,0x3

00101014 <i00000000f4>:
  101014:	ad211183          	lh	gp,-1326(sp)

00101018 <i00000000f5>:
  101018:	2b6c6213          	or	tp,s8,694

0010101c <i00000000f6>:
  10101c:	4b13ca97          	auipc	s5,0x4b13c
  101020:	0000f117          	auipc	sp,0xf
  101024:	fe010113          	add	sp,sp,-32 # 110000 <mem>
  101028:	00008337          	lui	t1,0x8
  10102c:	ae030313          	add	t1,t1,-1312 # 7ae0 <_tbss_end+0x7ae0>
  101030:	00610133          	add	sp,sp,t1

00101034 <i00000000f7>:
  101034:	a6a12223          	sw	a0,-1436(sp)

00101038 <i00000000f8>:
  101038:	01ef3ab3          	sltu	s5,t5,t5

0010103c <i00000000f9>:
  10103c:	a9a15183          	lhu	gp,-1382(sp)

00101040 <i00000000fa>:
  101040:	0045e933          	or	s2,a1,tp

00101044 <i00000000fb>:
  101044:	9e1e6313          	or	t1,t3,-1567

00101048 <i00000000fc>:
  101048:	5acf7b97          	auipc	s7,0x5acf7
  10104c:	0000f117          	auipc	sp,0xf
  101050:	fb410113          	add	sp,sp,-76 # 110000 <mem>
  101054:	0000c337          	lui	t1,0xc
  101058:	ac030313          	add	t1,t1,-1344 # bac0 <_tbss_end+0xbac0>
  10105c:	00610133          	add	sp,sp,t1

00101060 <i00000000fd>:
  101060:	bf811723          	sh	s8,-1042(sp)
  101064:	0000f117          	auipc	sp,0xf
  101068:	f9c10113          	add	sp,sp,-100 # 110000 <mem>
  10106c:	0000c337          	lui	t1,0xc
  101070:	2c030313          	add	t1,t1,704 # c2c0 <_tbss_end+0xc2c0>
  101074:	00610133          	add	sp,sp,t1

00101078 <i00000000fe>:
  101078:	23811823          	sh	s8,560(sp)

0010107c <i00000000ff>:
  10107c:	84311123          	sh	gp,-1982(sp)

00101080 <i0000000100>:
  101080:	01099193          	sll	gp,s3,0x10

00101084 <i0000000101>:
  101084:	32016f37          	lui	t5,0x32016

00101088 <i0000000102>:
  101088:	0d812183          	lw	gp,216(sp)

0010108c <i0000000103>:
  10108c:	0c312623          	sw	gp,204(sp)

00101090 <i0000000104>:
  101090:	76214983          	lbu	s3,1890(sp)
  101094:	00a00813          	li	a6,10
  101098:	91110523          	sb	a7,-1782(sp)
  10109c:	018c31b3          	sltu	gp,s8,s8
  1010a0:	bac10c03          	lb	s8,-1108(sp)
  1010a4:	a3412223          	sw	s4,-1500(sp)
  1010a8:	009e6e33          	or	t3,t3,s1
  1010ac:	89e11c03          	lh	s8,-1890(sp)
  1010b0:	003c08b3          	add	a7,s8,gp

001010b4 <b0000000105>:
  1010b4:	010f8463          	beq	t6,a6,1010bc <b0000000105+0x8>
  1010b8:	f7dff56f          	jal	a0,101034 <i00000000f7>
  1010bc:	00a00f93          	li	t6,10
  1010c0:	e7b88c13          	add	s8,a7,-389 # 4c89edd3 <_end+0x4c76e3ae>
  1010c4:	77210323          	sb	s2,1894(sp)
  1010c8:	009ce1b3          	or	gp,s9,s1
  1010cc:	6c8c3a13          	sltiu	s4,s8,1736
  1010d0:	85212e23          	sw	s2,-1956(sp)
  1010d4:	f4314183          	lbu	gp,-189(sp)
  1010d8:	f2d43713          	sltiu	a4,s0,-211

001010dc <i0000000105>:
  1010dc:	3d212423          	sw	s2,968(sp)

001010e0 <i0000000106>:
  1010e0:	7e68cc13          	xor	s8,a7,2022

001010e4 <i0000000107>:
  1010e4:	495e9717          	auipc	a4,0x495e9
  1010e8:	0000f117          	auipc	sp,0xf
  1010ec:	f1810113          	add	sp,sp,-232 # 110000 <mem>
  1010f0:	00009337          	lui	t1,0x9
  1010f4:	11830313          	add	t1,t1,280 # 9118 <_tbss_end+0x9118>
  1010f8:	00610133          	add	sp,sp,t1

001010fc <i0000000108>:
  1010fc:	fb314183          	lbu	gp,-77(sp)

00101100 <i0000000109>:
  101100:	01761193          	sll	gp,a2,0x17

00101104 <i000000010a>:
  101104:	8a510f03          	lb	t5,-1883(sp)
  101108:	0000f117          	auipc	sp,0xf
  10110c:	ef810113          	add	sp,sp,-264 # 110000 <mem>
  101110:	0001a337          	lui	t1,0x1a
  101114:	6a830313          	add	t1,t1,1704 # 1a6a8 <_tbss_end+0x1a6a8>
  101118:	00610133          	add	sp,sp,t1

0010111c <i000000010b>:
  10111c:	b6012c03          	lw	s8,-1184(sp)

00101120 <i000000010c>:
  101120:	b7d10f03          	lb	t5,-1155(sp)

00101124 <i000000010d>:
  101124:	d6c12703          	lw	a4,-660(sp)

00101128 <i000000010e>:
  101128:	c4810323          	sb	s0,-954(sp)

0010112c <i000000010f>:
  10112c:	6be11f23          	sh	t5,1726(sp)

00101130 <i0000000110>:
  101130:	37714903          	lbu	s2,887(sp)
  101134:	0000f117          	auipc	sp,0xf
  101138:	ecc10113          	add	sp,sp,-308 # 110000 <mem>
  10113c:	0001c337          	lui	t1,0x1c
  101140:	e7830313          	add	t1,t1,-392 # 1be78 <_tbss_end+0x1be78>
  101144:	00610133          	add	sp,sp,t1

00101148 <i0000000111>:
  101148:	d1812423          	sw	s8,-760(sp)

0010114c <i0000000112>:
  10114c:	008f1c13          	sll	s8,t5,0x8

00101150 <i0000000113>:
  101150:	2e311923          	sh	gp,754(sp)

00101154 <i0000000114>:
  101154:	41404f13          	xor	t5,zero,1044

00101158 <i0000000115>:
  101158:	01571893          	sll	a7,a4,0x15

0010115c <i0000000116>:
  10115c:	0181bf33          	sltu	t5,gp,s8

00101160 <i0000000117>:
  101160:	018c2333          	slt	t1,s8,s8
  101164:	0000f117          	auipc	sp,0xf
  101168:	e9c10113          	add	sp,sp,-356 # 110000 <mem>
  10116c:	0000a337          	lui	t1,0xa
  101170:	7e030313          	add	t1,t1,2016 # a7e0 <_tbss_end+0xa7e0>
  101174:	00610133          	add	sp,sp,t1

00101178 <i0000000118>:
  101178:	8f411503          	lh	a0,-1804(sp)
  10117c:	00b00b13          	li	s6,11
  101180:	001f8f93          	add	t6,t6,1
  101184:	01a99833          	sll	a6,s3,s10
  101188:	4f012a03          	lw	s4,1264(sp)
  10118c:	aa911023          	sh	s1,-1376(sp)
  101190:	01f85e13          	srl	t3,a6,0x1f
  101194:	23f14d83          	lbu	s11,575(sp)
  101198:	014db433          	sltu	s0,s11,s4
  10119c:	87190493          	add	s1,s2,-1935

001011a0 <b0000000119>:
  1011a0:	00000033          	add	zero,zero,zero
  1011a4:	fb6f86e3          	beq	t6,s6,101150 <i0000000113>
  1011a8:	00000033          	add	zero,zero,zero
  1011ac:	ef997993          	and	s3,s2,-263
  1011b0:	b0c12e03          	lw	t3,-1268(sp)
  1011b4:	013d31b3          	sltu	gp,s10,s3
  1011b8:	e0714e03          	lbu	t3,-505(sp)
  1011bc:	78812483          	lw	s1,1928(sp)
  1011c0:	80c12c03          	lw	s8,-2036(sp)
  1011c4:	b2d10e83          	lb	t4,-1235(sp)
  1011c8:	00a00f93          	li	t6,10

001011cc <i0000000119>:
  1011cc:	414451b3          	sra	gp,s0,s4

001011d0 <i000000011a>:
  1011d0:	5abfe197          	auipc	gp,0x5abfe

001011d4 <i000000011b>:
  1011d4:	b3e15303          	lhu	t1,-1218(sp)

001011d8 <i000000011c>:
  1011d8:	5d812823          	sw	s8,1488(sp)

001011dc <i000000011d>:
  1011dc:	26415f03          	lhu	t5,612(sp)

001011e0 <i000000011e>:
  1011e0:	7c310f03          	lb	t5,1987(sp)

001011e4 <i000000011f>:
  1011e4:	01e181b3          	add	gp,gp,t5

001011e8 <i0000000120>:
  1011e8:	5c210f03          	lb	t5,1474(sp)

001011ec <i0000000121>:
  1011ec:	45012023          	sw	a6,1088(sp)
  1011f0:	0000f117          	auipc	sp,0xf
  1011f4:	e1010113          	add	sp,sp,-496 # 110000 <mem>
  1011f8:	00008337          	lui	t1,0x8
  1011fc:	36830313          	add	t1,t1,872 # 8368 <_tbss_end+0x8368>
  101200:	00610133          	add	sp,sp,t1

00101204 <i0000000122>:
  101204:	69014f03          	lbu	t5,1680(sp)

00101208 <i0000000123>:
  101208:	003c7cb3          	and	s9,s8,gp

0010120c <i0000000124>:
  10120c:	00dc8033          	add	zero,s9,a3

00101210 <i0000000125>:
  101210:	018191b3          	sll	gp,gp,s8

00101214 <i0000000126>:
  101214:	013d01b3          	add	gp,s10,s3

00101218 <i0000000127>:
  101218:	18611383          	lh	t2,390(sp)

0010121c <i0000000128>:
  10121c:	00a62c33          	slt	s8,a2,a0

00101220 <i0000000129>:
  101220:	6cb74713          	xor	a4,a4,1739

00101224 <i000000012a>:
  101224:	403186b3          	sub	a3,gp,gp

00101228 <i000000012b>:
  101228:	61354c13          	xor	s8,a0,1555

0010122c <i000000012c>:
  10122c:	a2e74f13          	xor	t5,a4,-1490
  101230:	0000f117          	auipc	sp,0xf
  101234:	dd010113          	add	sp,sp,-560 # 110000 <mem>
  101238:	00008337          	lui	t1,0x8
  10123c:	4b030313          	add	t1,t1,1200 # 84b0 <_tbss_end+0x84b0>
  101240:	00610133          	add	sp,sp,t1
  101244:	00039b13          	sll	s6,t2,0x0
  101248:	40988ab3          	sub	s5,a7,s1
  10124c:	011d6e33          	or	t3,s10,a7
  101250:	607374b7          	lui	s1,0x60737
  101254:	00f95813          	srl	a6,s2,0xf
  101258:	012c3c33          	sltu	s8,s8,s2
  10125c:	b9e76413          	or	s0,a4,-1122

00101260 <b000000012d>:
  101260:	00000d97          	auipc	s11,0x0
  101264:	080d8d93          	add	s11,s11,128 # 1012e0 <i0000000139>
  101268:	000d8567          	jalr	a0,s11
  10126c:	9d611383          	lh	t2,-1578(sp)
  101270:	01896cb3          	or	s9,s2,s8
  101274:	2f310803          	lb	a6,755(sp)
  101278:	85512623          	sw	s5,-1972(sp)
  10127c:	09f14e03          	lbu	t3,159(sp)
  101280:	ec8b0c13          	add	s8,s6,-312
  101284:	05446213          	or	tp,s0,84

00101288 <i000000012d>:
  101288:	f16c3f13          	sltiu	t5,s8,-234

0010128c <i000000012e>:
  10128c:	75310d83          	lb	s11,1875(sp)
  101290:	0000f117          	auipc	sp,0xf
  101294:	d7010113          	add	sp,sp,-656 # 110000 <mem>
  101298:	0001b337          	lui	t1,0x1b
  10129c:	a5030313          	add	t1,t1,-1456 # 1aa50 <_tbss_end+0x1aa50>
  1012a0:	00610133          	add	sp,sp,t1

001012a4 <i000000012f>:
  1012a4:	5ae10903          	lb	s2,1454(sp)
  1012a8:	0000f117          	auipc	sp,0xf
  1012ac:	d5810113          	add	sp,sp,-680 # 110000 <mem>
  1012b0:	0000c337          	lui	t1,0xc
  1012b4:	0b030313          	add	t1,t1,176 # c0b0 <_tbss_end+0xc0b0>
  1012b8:	00610133          	add	sp,sp,t1

001012bc <i0000000130>:
  1012bc:	66211a03          	lh	s4,1634(sp)

001012c0 <i0000000131>:
  1012c0:	41bcdc33          	sra	s8,s9,s11

001012c4 <i0000000132>:
  1012c4:	01818c33          	add	s8,gp,s8

001012c8 <i0000000133>:
  1012c8:	0e311723          	sh	gp,238(sp)

001012cc <i0000000134>:
  1012cc:	60d108a3          	sb	a3,1553(sp)

001012d0 <i0000000135>:
  1012d0:	bb9c6f13          	or	t5,s8,-1095

001012d4 <i0000000136>:
  1012d4:	4109deb3          	sra	t4,s3,a6

001012d8 <i0000000137>:
  1012d8:	c9067193          	and	gp,a2,-880

001012dc <i0000000138>:
  1012dc:	81f14803          	lbu	a6,-2017(sp)

001012e0 <i0000000139>:
  1012e0:	cbe11b23          	sh	t5,-842(sp)

001012e4 <i000000013a>:
  1012e4:	c3f10f03          	lb	t5,-961(sp)

001012e8 <i000000013b>:
  1012e8:	bda14e83          	lbu	t4,-1062(sp)

001012ec <i000000013c>:
  1012ec:	53812823          	sw	s8,1328(sp)

001012f0 <i000000013d>:
  1012f0:	3ed12c23          	sw	a3,1016(sp)

001012f4 <i000000013e>:
  1012f4:	63e11423          	sh	t5,1576(sp)

001012f8 <i000000013f>:
  1012f8:	013beb33          	or	s6,s7,s3

001012fc <i0000000140>:
  1012fc:	c87f4293          	xor	t0,t5,-889
  101300:	00c00e13          	li	t3,12
  101304:	00a00f93          	li	t6,10
  101308:	0000f117          	auipc	sp,0xf
  10130c:	cf810113          	add	sp,sp,-776 # 110000 <mem>
  101310:	0001c337          	lui	t1,0x1c
  101314:	b9030313          	add	t1,t1,-1136 # 1bb90 <_tbss_end+0x1bb90>
  101318:	00610133          	add	sp,sp,t1
  10131c:	40fc8033          	sub	zero,s9,a5
  101320:	bbc3a393          	slti	t2,t2,-1092
  101324:	52312823          	sw	gp,1328(sp)
  101328:	75e15c03          	lhu	s8,1886(sp)
  10132c:	afd10fa3          	sb	t4,-1281(sp)
  101330:	27410c83          	lb	s9,628(sp)
  101334:	01445733          	srl	a4,s0,s4

00101338 <b0000000141>:
  101338:	00000033          	add	zero,zero,zero
  10133c:	07cfc863          	blt	t6,t3,1013ac <i0000000149>
  101340:	00000033          	add	zero,zero,zero
  101344:	011c9993          	sll	s3,s9,0x11
  101348:	00ac1c93          	sll	s9,s8,0xa
  10134c:	93b10983          	lb	s3,-1733(sp)
  101350:	fc310323          	sb	gp,-58(sp)
  101354:	1d73cd97          	auipc	s11,0x1d73c
  101358:	6480f417          	auipc	s0,0x6480f
  10135c:	010c1b93          	sll	s7,s8,0x10
  101360:	00a00f93          	li	t6,10
  101364:	0000f117          	auipc	sp,0xf
  101368:	c9c10113          	add	sp,sp,-868 # 110000 <mem>
  10136c:	0001c337          	lui	t1,0x1c
  101370:	56030313          	add	t1,t1,1376 # 1c560 <_tbss_end+0x1c560>
  101374:	00610133          	add	sp,sp,t1

00101378 <i0000000141>:
  101378:	ced12223          	sw	a3,-796(sp)

0010137c <i0000000142>:
  10137c:	403f5f33          	sra	t5,t5,gp

00101380 <i0000000143>:
  101380:	154acc13          	xor	s8,s5,340

00101384 <i0000000144>:
  101384:	10412183          	lw	gp,260(sp)

00101388 <i0000000145>:
  101388:	41e85d13          	sra	s10,a6,0x1e

0010138c <i0000000146>:
  10138c:	929c7c13          	and	s8,s8,-1751

00101390 <i0000000147>:
  101390:	738104a3          	sb	s8,1833(sp)

00101394 <i0000000148>:
  101394:	003f27b3          	slt	a5,t5,gp
  101398:	0000f117          	auipc	sp,0xf
  10139c:	c6810113          	add	sp,sp,-920 # 110000 <mem>
  1013a0:	00007337          	lui	t1,0x7
  1013a4:	65030313          	add	t1,t1,1616 # 7650 <_tbss_end+0x7650>
  1013a8:	00610133          	add	sp,sp,t1

001013ac <i0000000149>:
  1013ac:	ef811523          	sh	s8,-278(sp)
  1013b0:	0000f117          	auipc	sp,0xf
  1013b4:	c5010113          	add	sp,sp,-944 # 110000 <mem>
  1013b8:	00011337          	lui	t1,0x11
  1013bc:	29030313          	add	t1,t1,656 # 11290 <_tbss_end+0x11290>
  1013c0:	00610133          	add	sp,sp,t1

001013c4 <i000000014a>:
  1013c4:	47311023          	sh	s3,1120(sp)

001013c8 <i000000014b>:
  1013c8:	4e312823          	sw	gp,1264(sp)
  1013cc:	0000f117          	auipc	sp,0xf
  1013d0:	c3410113          	add	sp,sp,-972 # 110000 <mem>
  1013d4:	00004337          	lui	t1,0x4
  1013d8:	7b030313          	add	t1,t1,1968 # 47b0 <_tbss_end+0x47b0>
  1013dc:	00610133          	add	sp,sp,t1

001013e0 <i000000014c>:
  1013e0:	41d14e83          	lbu	t4,1053(sp)

001013e4 <i000000014d>:
  1013e4:	af811123          	sh	s8,-1310(sp)

001013e8 <i000000014e>:
  1013e8:	96312623          	sw	gp,-1684(sp)

001013ec <i000000014f>:
  1013ec:	00d1dc13          	srl	s8,gp,0xd

001013f0 <i0000000150>:
  1013f0:	ff012f03          	lw	t5,-16(sp)

001013f4 <i0000000151>:
  1013f4:	b6a66a13          	or	s4,a2,-1174

001013f8 <i0000000152>:
  1013f8:	122f2b93          	slti	s7,t5,290

001013fc <i0000000153>:
  1013fc:	0ea15c03          	lhu	s8,234(sp)

00101400 <i0000000154>:
  101400:	76011183          	lh	gp,1888(sp)
  101404:	00900e13          	li	t3,9
  101408:	00a00f93          	li	t6,10
  10140c:	0000f117          	auipc	sp,0xf
  101410:	bf410113          	add	sp,sp,-1036 # 110000 <mem>
  101414:	00011337          	lui	t1,0x11
  101418:	ba030313          	add	t1,t1,-1120 # 10ba0 <_tbss_end+0x10ba0>
  10141c:	00610133          	add	sp,sp,t1
  101420:	61412983          	lw	s3,1556(sp)
  101424:	bc310c23          	sb	gp,-1064(sp)
  101428:	0031bc33          	sltu	s8,gp,gp
  10142c:	00e263b3          	or	t2,tp,a4
  101430:	fc010b83          	lb	s7,-64(sp)
  101434:	01489993          	sll	s3,a7,0x14
  101438:	ef510a03          	lb	s4,-267(sp)

0010143c <b0000000155>:
  10143c:	00000033          	add	zero,zero,zero
  101440:	05cfc263          	blt	t6,t3,101484 <i000000015c>
  101444:	00000033          	add	zero,zero,zero
  101448:	6d812003          	lw	zero,1752(sp)
  10144c:	007df1b3          	and	gp,s11,t2
  101450:	d4f10203          	lb	tp,-689(sp)
  101454:	77d11423          	sh	t4,1896(sp)
  101458:	014d4933          	xor	s2,s10,s4
  10145c:	00489c13          	sll	s8,a7,0x4
  101460:	a0912a23          	sw	s1,-1516(sp)
  101464:	00a00f93          	li	t6,10

00101468 <i0000000155>:
  101468:	8e215e03          	lhu	t3,-1822(sp)

0010146c <i0000000156>:
  10146c:	ac011f03          	lh	t5,-1344(sp)

00101470 <i0000000157>:
  101470:	4c614a83          	lbu	s5,1222(sp)

00101474 <i0000000158>:
  101474:	413c88b3          	sub	a7,s9,s3

00101478 <i0000000159>:
  101478:	01ef0c33          	add	s8,t5,t5

0010147c <i000000015a>:
  10147c:	6f818a93          	add	s5,gp,1784 # 5acff8c8 <_end+0x5abceea3>

00101480 <i000000015b>:
  101480:	64015303          	lhu	t1,1600(sp)

00101484 <i000000015c>:
  101484:	77c14c83          	lbu	s9,1916(sp)

00101488 <i000000015d>:
  101488:	419f5593          	sra	a1,t5,0x19

0010148c <i000000015e>:
  10148c:	35011f03          	lh	t5,848(sp)

00101490 <i000000015f>:
  101490:	70312623          	sw	gp,1804(sp)

00101494 <i0000000160>:
  101494:	18d14f03          	lbu	t5,397(sp)

00101498 <i0000000161>:
  101498:	01819f33          	sll	t5,gp,s8

0010149c <i0000000162>:
  10149c:	fe412183          	lw	gp,-28(sp)

001014a0 <i0000000163>:
  1014a0:	cf012c03          	lw	s8,-784(sp)

001014a4 <i0000000164>:
  1014a4:	8f914183          	lbu	gp,-1799(sp)

001014a8 <i0000000165>:
  1014a8:	75dc7c13          	and	s8,s8,1885

001014ac <i0000000166>:
  1014ac:	c1914903          	lbu	s2,-999(sp)

001014b0 <i0000000167>:
  1014b0:	a0312a23          	sw	gp,-1516(sp)

001014b4 <i0000000168>:
  1014b4:	403f51b3          	sra	gp,t5,gp
  1014b8:	00c00a13          	li	s4,12
  1014bc:	00a00f93          	li	t6,10
  1014c0:	0000f117          	auipc	sp,0xf
  1014c4:	b4010113          	add	sp,sp,-1216 # 110000 <mem>
  1014c8:	00003337          	lui	t1,0x3
  1014cc:	8b830313          	add	t1,t1,-1864 # 28b8 <_tbss_end+0x28b8>
  1014d0:	00610133          	add	sp,sp,t1
  1014d4:	0000f117          	auipc	sp,0xf
  1014d8:	b2c10113          	add	sp,sp,-1236 # 110000 <mem>
  1014dc:	00010337          	lui	t1,0x10
  1014e0:	93830313          	add	t1,t1,-1736 # f938 <_tbss_end+0xf938>
  1014e4:	00610133          	add	sp,sp,t1
  1014e8:	000b8e33          	add	t3,s7,zero
  1014ec:	0af14b03          	lbu	s6,175(sp)
  1014f0:	011e09b3          	add	s3,t3,a7
  1014f4:	412c0033          	sub	zero,s8,s2
  1014f8:	01370bb3          	add	s7,a4,s3
  1014fc:	018919b3          	sll	s3,s2,s8
  101500:	bca10c03          	lb	s8,-1078(sp)

00101504 <b0000000169>:
  101504:	00000033          	add	zero,zero,zero
  101508:	054fce63          	blt	t6,s4,101564 <i0000000171>
  10150c:	00000033          	add	zero,zero,zero
  101510:	9f314983          	lbu	s3,-1549(sp)
  101514:	ca71bd13          	sltiu	s10,gp,-857
  101518:	2f4c2e13          	slti	t3,s8,756
  10151c:	14310aa3          	sb	gp,341(sp)
  101520:	1ee15203          	lhu	tp,494(sp)
  101524:	31812183          	lw	gp,792(sp)
  101528:	76011183          	lh	gp,1888(sp)
  10152c:	00a00f93          	li	t6,10

00101530 <i0000000169>:
  101530:	2bdc3393          	sltiu	t2,s8,701

00101534 <i000000016a>:
  101534:	41742f17          	auipc	t5,0x41742

00101538 <i000000016b>:
  101538:	77611e03          	lh	t3,1910(sp)

0010153c <i000000016c>:
  10153c:	33e11423          	sh	t5,808(sp)

00101540 <i000000016d>:
  101540:	f0a10a03          	lb	s4,-246(sp)

00101544 <i000000016e>:
  101544:	fde12023          	sw	t5,-64(sp)

00101548 <i000000016f>:
  101548:	00943f33          	sltu	t5,s0,s1

0010154c <i0000000170>:
  10154c:	94e2c913          	xor	s2,t0,-1714
  101550:	0000f117          	auipc	sp,0xf
  101554:	ab010113          	add	sp,sp,-1360 # 110000 <mem>
  101558:	0001c337          	lui	t1,0x1c
  10155c:	3a030313          	add	t1,t1,928 # 1c3a0 <_tbss_end+0x1c3a0>
  101560:	00610133          	add	sp,sp,t1

00101564 <i0000000171>:
  101564:	26c12183          	lw	gp,620(sp)

00101568 <i0000000172>:
  101568:	2c0bc693          	xor	a3,s7,704

0010156c <i0000000173>:
  10156c:	00a1db13          	srl	s6,gp,0xa

00101570 <i0000000174>:
  101570:	01ef1ab3          	sll	s5,t5,t5

00101574 <i0000000175>:
  101574:	6b211523          	sh	s2,1706(sp)
  101578:	0000f117          	auipc	sp,0xf
  10157c:	a8810113          	add	sp,sp,-1400 # 110000 <mem>
  101580:	00001337          	lui	t1,0x1
  101584:	b3030313          	add	t1,t1,-1232 # b30 <_tbss_end+0xb30>
  101588:	00610133          	add	sp,sp,t1

0010158c <i0000000176>:
  10158c:	2ee10403          	lb	s0,750(sp)

00101590 <i0000000177>:
  101590:	01ef77b3          	and	a5,t5,t5

00101594 <i0000000178>:
  101594:	40e65633          	sra	a2,a2,a4

00101598 <i0000000179>:
  101598:	418c0c33          	sub	s8,s8,s8

0010159c <i000000017a>:
  10159c:	0031dbb3          	srl	s7,gp,gp

001015a0 <i000000017b>:
  1015a0:	5a814a03          	lbu	s4,1448(sp)

001015a4 <i000000017c>:
  1015a4:	411403b3          	sub	t2,s0,a7
  1015a8:	00b00e93          	li	t4,11
  1015ac:	00a00f93          	li	t6,10
  1015b0:	1eea0493          	add	s1,s4,494 # 3130d946 <_end+0x311dcf21>
  1015b4:	2cf10523          	sb	a5,714(sp)
  1015b8:	d7087c13          	and	s8,a6,-656
  1015bc:	4004d993          	sra	s3,s1,0x0
  1015c0:	1d512223          	sw	s5,452(sp)
  1015c4:	d6e14783          	lbu	a5,-658(sp)
  1015c8:	4008d1b3          	sra	gp,a7,zero

001015cc <b000000017d>:
  1015cc:	00000033          	add	zero,zero,zero
  1015d0:	07feda63          	bge	t4,t6,101644 <i000000018b>
  1015d4:	00000033          	add	zero,zero,zero
  1015d8:	551a31b7          	lui	gp,0x551a3
  1015dc:	01122ab3          	slt	s5,tp,a7
  1015e0:	4c311523          	sh	gp,1226(sp)
  1015e4:	b3811923          	sh	s8,-1230(sp)
  1015e8:	85b12623          	sw	s11,-1972(sp)
  1015ec:	70a10203          	lb	tp,1802(sp)
  1015f0:	40095993          	sra	s3,s2,0x0
  1015f4:	00a00f93          	li	t6,10

001015f8 <i000000017d>:
  1015f8:	da310ba3          	sb	gp,-585(sp)

001015fc <i000000017e>:
  1015fc:	33ee0d17          	auipc	s10,0x33ee0

00101600 <i000000017f>:
  101600:	bf1108a3          	sb	a7,-1039(sp)

00101604 <i0000000180>:
  101604:	003f7733          	and	a4,t5,gp

00101608 <i0000000181>:
  101608:	cde104a3          	sb	t5,-823(sp)
  10160c:	0000f117          	auipc	sp,0xf
  101610:	9f410113          	add	sp,sp,-1548 # 110000 <mem>
  101614:	00013337          	lui	t1,0x13
  101618:	7d830313          	add	t1,t1,2008 # 137d8 <_tbss_end+0x137d8>
  10161c:	00610133          	add	sp,sp,t1

00101620 <i0000000182>:
  101620:	bcc10b03          	lb	s6,-1076(sp)

00101624 <i0000000183>:
  101624:	8ee11303          	lh	t1,-1810(sp)

00101628 <i0000000184>:
  101628:	01d79f33          	sll	t5,a5,t4

0010162c <i0000000185>:
  10162c:	79ea8c13          	add	s8,s5,1950 # 4b23d7ba <_end+0x4b10cd95>

00101630 <i0000000186>:
  101630:	016b1e33          	sll	t3,s6,s6

00101634 <i0000000187>:
  101634:	6ec12b83          	lw	s7,1772(sp)

00101638 <i0000000188>:
  101638:	01ec4eb3          	xor	t4,s8,t5

0010163c <i0000000189>:
  10163c:	47110323          	sb	a7,1126(sp)

00101640 <i000000018a>:
  101640:	2d69ce97          	auipc	t4,0x2d69c

00101644 <i000000018b>:
  101644:	3c514c03          	lbu	s8,965(sp)
  101648:	0000f117          	auipc	sp,0xf
  10164c:	9b810113          	add	sp,sp,-1608 # 110000 <mem>
  101650:	0000d337          	lui	t1,0xd
  101654:	6b030313          	add	t1,t1,1712 # d6b0 <_tbss_end+0xd6b0>
  101658:	00610133          	add	sp,sp,t1

0010165c <i000000018c>:
  10165c:	0ec12183          	lw	gp,236(sp)

00101660 <i000000018d>:
  101660:	7e015583          	lhu	a1,2016(sp)

00101664 <i000000018e>:
  101664:	95920793          	add	a5,tp,-1703 # fffff959 <_end+0xffecef34>
  101668:	0000f117          	auipc	sp,0xf
  10166c:	99810113          	add	sp,sp,-1640 # 110000 <mem>
  101670:	0000c337          	lui	t1,0xc
  101674:	80830313          	add	t1,t1,-2040 # b808 <_tbss_end+0xb808>
  101678:	00610133          	add	sp,sp,t1

0010167c <i000000018f>:
  10167c:	72312823          	sw	gp,1840(sp)

00101680 <i0000000190>:
  101680:	fb914503          	lbu	a0,-71(sp)
  101684:	0000f117          	auipc	sp,0xf
  101688:	97c10113          	add	sp,sp,-1668 # 110000 <mem>
  10168c:	0000a337          	lui	t1,0xa
  101690:	9b830313          	add	t1,t1,-1608 # 99b8 <_tbss_end+0x99b8>
  101694:	00610133          	add	sp,sp,t1
  101698:	012c4933          	xor	s2,s8,s2
  10169c:	efcaf993          	and	s3,s5,-260
  1016a0:	f6615183          	lhu	gp,-154(sp)
  1016a4:	a2211183          	lh	gp,-1502(sp)
  1016a8:	012c5c33          	srl	s8,s8,s2
  1016ac:	82314883          	lbu	a7,-2013(sp)
  1016b0:	40875e33          	sra	t3,a4,s0

001016b4 <b0000000191>:
  1016b4:	0680056f          	jal	a0,10171c <i000000019e>
  1016b8:	9b110a83          	lb	s5,-1615(sp)
  1016bc:	003c2c33          	slt	s8,s8,gp
  1016c0:	00419913          	sll	s2,gp,0x4
  1016c4:	96d3b393          	sltiu	t2,t2,-1683
  1016c8:	44d14483          	lbu	s1,1101(sp)
  1016cc:	6f510fa3          	sb	s5,1791(sp)
  1016d0:	4d812223          	sw	s8,1220(sp)

001016d4 <i0000000191>:
  1016d4:	8c012503          	lw	a0,-1856(sp)

001016d8 <i0000000192>:
  1016d8:	8ac10c83          	lb	s9,-1876(sp)

001016dc <i0000000193>:
  1016dc:	45fe9d37          	lui	s10,0x45fe9

001016e0 <i0000000194>:
  1016e0:	d0c15c03          	lhu	s8,-756(sp)

001016e4 <i0000000195>:
  1016e4:	6239cf37          	lui	t5,0x6239c

001016e8 <i0000000196>:
  1016e8:	01605733          	srl	a4,zero,s6

001016ec <i0000000197>:
  1016ec:	00aa97b3          	sll	a5,s5,a0

001016f0 <i0000000198>:
  1016f0:	3209e537          	lui	a0,0x3209e

001016f4 <i0000000199>:
  1016f4:	52f1ec37          	lui	s8,0x52f1e

001016f8 <i000000019a>:
  1016f8:	40610503          	lb	a0,1030(sp)

001016fc <i000000019b>:
  1016fc:	01811123          	sh	s8,2(sp)

00101700 <i000000019c>:
  101700:	01ef4c33          	xor	s8,t5,t5

00101704 <i000000019d>:
  101704:	0a718393          	add	t2,gp,167 # 551a30a7 <_end+0x55072682>
  101708:	0000f117          	auipc	sp,0xf
  10170c:	8f810113          	add	sp,sp,-1800 # 110000 <mem>
  101710:	00008337          	lui	t1,0x8
  101714:	85030313          	add	t1,t1,-1968 # 7850 <_tbss_end+0x7850>
  101718:	00610133          	add	sp,sp,t1

0010171c <i000000019e>:
  10171c:	5cc12883          	lw	a7,1484(sp)

00101720 <i000000019f>:
  101720:	04610483          	lb	s1,70(sp)

00101724 <i00000001a0>:
  101724:	01705733          	srl	a4,zero,s7

00101728 <i00000001a1>:
  101728:	00c05c13          	srl	s8,zero,0xc

0010172c <i00000001a2>:
  10172c:	018c4f33          	xor	t5,s8,s8

00101730 <i00000001a3>:
  101730:	57811f23          	sh	s8,1406(sp)

00101734 <i00000001a4>:
  101734:	dfb10b83          	lb	s7,-517(sp)
  101738:	00a00c93          	li	s9,10
  10173c:	0000f117          	auipc	sp,0xf
  101740:	8c410113          	add	sp,sp,-1852 # 110000 <mem>
  101744:	0000a337          	lui	t1,0xa
  101748:	11830313          	add	t1,t1,280 # a118 <_tbss_end+0xa118>
  10174c:	00610133          	add	sp,sp,t1
  101750:	0000f117          	auipc	sp,0xf
  101754:	8b010113          	add	sp,sp,-1872 # 110000 <mem>
  101758:	00014337          	lui	t1,0x14
  10175c:	f2830313          	add	t1,t1,-216 # 13f28 <_tbss_end+0x13f28>
  101760:	00610133          	add	sp,sp,t1
  101764:	b9211323          	sh	s2,-1146(sp)
  101768:	0031dc33          	srl	s8,gp,gp
  10176c:	00ec1bb3          	sll	s7,s8,a4
  101770:	629a6913          	or	s2,s4,1577
  101774:	e0c10983          	lb	s3,-500(sp)
  101778:	011b61b3          	or	gp,s6,a7
  10177c:	6ce49c37          	lui	s8,0x6ce49

00101780 <b00000001a5>:
  101780:	019f8463          	beq	t6,s9,101788 <b00000001a5+0x8>
  101784:	f6dff56f          	jal	a0,1016f0 <i0000000198>
  101788:	00a00f93          	li	t6,10
  10178c:	df112423          	sw	a7,-536(sp)
  101790:	0181b433          	sltu	s0,gp,s8
  101794:	00819193          	sll	gp,gp,0x8
  101798:	df3d3993          	sltiu	s3,s10,-525
  10179c:	a3c11903          	lh	s2,-1476(sp)
  1017a0:	18710e03          	lb	t3,391(sp)
  1017a4:	1b615e83          	lhu	t4,438(sp)

001017a8 <i00000001a5>:
  1017a8:	70411323          	sh	tp,1798(sp)

001017ac <i00000001a6>:
  1017ac:	26014183          	lbu	gp,608(sp)

001017b0 <i00000001a7>:
  1017b0:	003f02b3          	add	t0,t5,gp

001017b4 <i00000001a8>:
  1017b4:	255e8513          	add	a0,t4,597 # 2d79d895 <_end+0x2d66ce70>

001017b8 <i00000001a9>:
  1017b8:	49211e23          	sh	s2,1180(sp)

001017bc <i00000001aa>:
  1017bc:	e58107a3          	sb	s8,-433(sp)

001017c0 <i00000001ab>:
  1017c0:	3b412c03          	lw	s8,948(sp)
  1017c4:	0000f117          	auipc	sp,0xf
  1017c8:	83c10113          	add	sp,sp,-1988 # 110000 <mem>
  1017cc:	00013337          	lui	t1,0x13
  1017d0:	ee030313          	add	t1,t1,-288 # 12ee0 <_tbss_end+0x12ee0>
  1017d4:	00610133          	add	sp,sp,t1

001017d8 <i00000001ac>:
  1017d8:	b1e11623          	sh	t5,-1268(sp)

001017dc <i00000001ad>:
  1017dc:	8ba18313          	add	t1,gp,-1862

001017e0 <i00000001ae>:
  1017e0:	e6311d23          	sh	gp,-390(sp)

001017e4 <i00000001af>:
  1017e4:	0f268bb7          	lui	s7,0xf268

001017e8 <i00000001b0>:
  1017e8:	00c49c33          	sll	s8,s1,a2

001017ec <i00000001b1>:
  1017ec:	75cf3f13          	sltiu	t5,t5,1884

001017f0 <i00000001b2>:
  1017f0:	2f238997          	auipc	s3,0x2f238

001017f4 <i00000001b3>:
  1017f4:	01c38c33          	add	s8,t2,t3

001017f8 <i00000001b4>:
  1017f8:	00d9d2b3          	srl	t0,s3,a3

001017fc <i00000001b5>:
  1017fc:	526c4c13          	xor	s8,s8,1318

00101800 <i00000001b6>:
  101800:	2a815183          	lhu	gp,680(sp)

00101804 <i00000001b7>:
  101804:	22010da3          	sb	zero,571(sp)

00101808 <i00000001b8>:
  101808:	7c012483          	lw	s1,1984(sp)
  10180c:	0000e117          	auipc	sp,0xe
  101810:	7f410113          	add	sp,sp,2036 # 110000 <mem>
  101814:	00016337          	lui	t1,0x16
  101818:	45030313          	add	t1,t1,1104 # 16450 <_tbss_end+0x16450>
  10181c:	00610133          	add	sp,sp,t1
  101820:	94910a03          	lb	s4,-1719(sp)
  101824:	a1211823          	sh	s2,-1520(sp)
  101828:	61042193          	slti	gp,s0,1552
  10182c:	0147f9b3          	and	s3,a5,s4
  101830:	6e412a03          	lw	s4,1764(sp)
  101834:	d4692c13          	slti	s8,s2,-698
  101838:	25415383          	lhu	t2,596(sp)

0010183c <b00000001b9>:
  10183c:	00000d97          	auipc	s11,0x0
  101840:	0a0d8d93          	add	s11,s11,160 # 1018dc <i00000001c8>
  101844:	000d8567          	jalr	a0,s11
  101848:	24718c13          	add	s8,gp,583
  10184c:	012961b3          	or	gp,s2,s2
  101850:	7ef94997          	auipc	s3,0x7ef94
  101854:	65473193          	sltiu	gp,a4,1620
  101858:	2c815183          	lhu	gp,712(sp)
  10185c:	01dcf1b3          	and	gp,s9,t4
  101860:	22164bb7          	lui	s7,0x22164

00101864 <i00000001b9>:
  101864:	6ee98893          	add	a7,s3,1774 # 7f095f3e <_end+0x7ef65519>

00101868 <i00000001ba>:
  101868:	c1a14a83          	lbu	s5,-998(sp)

0010186c <i00000001bb>:
  10186c:	fce11323          	sh	a4,-58(sp)
  101870:	0000e117          	auipc	sp,0xe
  101874:	79010113          	add	sp,sp,1936 # 110000 <mem>
  101878:	00005337          	lui	t1,0x5
  10187c:	23030313          	add	t1,t1,560 # 5230 <_tbss_end+0x5230>
  101880:	00610133          	add	sp,sp,t1

00101884 <i00000001bc>:
  101884:	12411903          	lh	s2,292(sp)

00101888 <i00000001bd>:
  101888:	406381b3          	sub	gp,t2,t1

0010188c <i00000001be>:
  10188c:	e7012223          	sw	a6,-412(sp)

00101890 <i00000001bf>:
  101890:	42c691b7          	lui	gp,0x42c69

00101894 <i00000001c0>:
  101894:	0e415003          	lhu	zero,228(sp)

00101898 <i00000001c1>:
  101898:	5f08ec37          	lui	s8,0x5f08e

0010189c <i00000001c2>:
  10189c:	6e358193          	add	gp,a1,1763

001018a0 <i00000001c3>:
  1018a0:	63414d03          	lbu	s10,1588(sp)
  1018a4:	0000e117          	auipc	sp,0xe
  1018a8:	75c10113          	add	sp,sp,1884 # 110000 <mem>
  1018ac:	00004337          	lui	t1,0x4
  1018b0:	3f030313          	add	t1,t1,1008 # 43f0 <_tbss_end+0x43f0>
  1018b4:	00610133          	add	sp,sp,t1

001018b8 <i00000001c4>:
  1018b8:	51e12a23          	sw	t5,1300(sp)

001018bc <i00000001c5>:
  1018bc:	01705d13          	srl	s10,zero,0x17

001018c0 <i00000001c6>:
  1018c0:	c4e15903          	lhu	s2,-946(sp)

001018c4 <i00000001c7>:
  1018c4:	8bb10e03          	lb	t3,-1861(sp)
  1018c8:	0000e117          	auipc	sp,0xe
  1018cc:	73810113          	add	sp,sp,1848 # 110000 <mem>
  1018d0:	0000e337          	lui	t1,0xe
  1018d4:	80030313          	add	t1,t1,-2048 # d800 <_tbss_end+0xd800>
  1018d8:	00610133          	add	sp,sp,t1

001018dc <i00000001c8>:
  1018dc:	06b11b23          	sh	a1,118(sp)

001018e0 <i00000001c9>:
  1018e0:	e1944c93          	xor	s9,s0,-487

001018e4 <i00000001ca>:
  1018e4:	04410803          	lb	a6,68(sp)

001018e8 <i00000001cb>:
  1018e8:	685d8c37          	lui	s8,0x685d8

001018ec <i00000001cc>:
  1018ec:	40fadb13          	sra	s6,s5,0xf
  1018f0:	00b00a13          	li	s4,11
  1018f4:	00a00f93          	li	t6,10
  1018f8:	0000e117          	auipc	sp,0xe
  1018fc:	70810113          	add	sp,sp,1800 # 110000 <mem>
  101900:	0000c337          	lui	t1,0xc
  101904:	92030313          	add	t1,t1,-1760 # b920 <_tbss_end+0xb920>
  101908:	00610133          	add	sp,sp,t1
  10190c:	0000e117          	auipc	sp,0xe
  101910:	6f410113          	add	sp,sp,1780 # 110000 <mem>
  101914:	0001a337          	lui	t1,0x1a
  101918:	cd030313          	add	t1,t1,-816 # 19cd0 <_tbss_end+0x19cd0>
  10191c:	00610133          	add	sp,sp,t1
  101920:	015b2cb3          	slt	s9,s6,s5
  101924:	01897c33          	and	s8,s2,s8
  101928:	018c69b3          	or	s3,s8,s8
  10192c:	9b914983          	lbu	s3,-1607(sp)
  101930:	a3c11d23          	sh	t3,-1478(sp)
  101934:	da611983          	lh	s3,-602(sp)
  101938:	412c51b3          	sra	gp,s8,s2

0010193c <b00000001cd>:
  10193c:	00000033          	add	zero,zero,zero
  101940:	03fa5e63          	bge	s4,t6,10197c <i00000001d2>
  101944:	00000033          	add	zero,zero,zero
  101948:	59714c83          	lbu	s9,1431(sp)
  10194c:	003c51b3          	srl	gp,s8,gp
  101950:	00d19993          	sll	s3,gp,0xd
  101954:	90810b03          	lb	s6,-1784(sp)
  101958:	e8311323          	sh	gp,-378(sp)
  10195c:	53810183          	lb	gp,1336(sp)
  101960:	3813bc13          	sltiu	s8,t2,897
  101964:	00a00f93          	li	t6,10

00101968 <i00000001cd>:
  101968:	01ec05b3          	add	a1,s8,t5

0010196c <i00000001ce>:
  10196c:	c5e11a23          	sh	t5,-940(sp)

00101970 <i00000001cf>:
  101970:	01571d33          	sll	s10,a4,s5

00101974 <i00000001d0>:
  101974:	39015183          	lhu	gp,912(sp)

00101978 <i00000001d1>:
  101978:	78412383          	lw	t2,1924(sp)

0010197c <i00000001d2>:
  10197c:	1ce7ac13          	slti	s8,a5,462

00101980 <i00000001d3>:
  101980:	0199d433          	srl	s0,s3,s9

00101984 <i00000001d4>:
  101984:	4b812a23          	sw	s8,1204(sp)

00101988 <i00000001d5>:
  101988:	407f5193          	sra	gp,t5,0x7
  10198c:	0000e117          	auipc	sp,0xe
  101990:	67410113          	add	sp,sp,1652 # 110000 <mem>
  101994:	00004337          	lui	t1,0x4
  101998:	36030313          	add	t1,t1,864 # 4360 <_tbss_end+0x4360>
  10199c:	00610133          	add	sp,sp,t1

001019a0 <i00000001d6>:
  1019a0:	3aa11d03          	lh	s10,938(sp)

001019a4 <i00000001d7>:
  1019a4:	10812183          	lw	gp,264(sp)

001019a8 <i00000001d8>:
  1019a8:	01759f33          	sll	t5,a1,s7

001019ac <i00000001d9>:
  1019ac:	401cd913          	sra	s2,s9,0x1

001019b0 <i00000001da>:
  1019b0:	01ec2f33          	slt	t5,s8,t5

001019b4 <i00000001db>:
  1019b4:	40318f33          	sub	t5,gp,gp

001019b8 <i00000001dc>:
  1019b8:	01183cb3          	sltu	s9,a6,a7

001019bc <i00000001dd>:
  1019bc:	41045c13          	sra	s8,s0,0x10

001019c0 <i00000001de>:
  1019c0:	69812023          	sw	s8,1664(sp)
  1019c4:	0000e117          	auipc	sp,0xe
  1019c8:	63c10113          	add	sp,sp,1596 # 110000 <mem>
  1019cc:	00003337          	lui	t1,0x3
  1019d0:	84830313          	add	t1,t1,-1976 # 2848 <_tbss_end+0x2848>
  1019d4:	00610133          	add	sp,sp,t1

001019d8 <i00000001df>:
  1019d8:	4fe11723          	sh	t5,1262(sp)

001019dc <i00000001e0>:
  1019dc:	01739193          	sll	gp,t2,0x17
  1019e0:	00c00e13          	li	t3,12
  1019e4:	00a00f93          	li	t6,10
  1019e8:	0000e117          	auipc	sp,0xe
  1019ec:	61810113          	add	sp,sp,1560 # 110000 <mem>
  1019f0:	00008337          	lui	t1,0x8
  1019f4:	34030313          	add	t1,t1,832 # 8340 <_tbss_end+0x8340>
  1019f8:	00610133          	add	sp,sp,t1
  1019fc:	0000e117          	auipc	sp,0xe
  101a00:	60410113          	add	sp,sp,1540 # 110000 <mem>
  101a04:	0001b337          	lui	t1,0x1b
  101a08:	fd830313          	add	t1,t1,-40 # 1afd8 <_tbss_end+0x1afd8>
  101a0c:	00610133          	add	sp,sp,t1
  101a10:	0000e117          	auipc	sp,0xe
  101a14:	5f010113          	add	sp,sp,1520 # 110000 <mem>
  101a18:	00003337          	lui	t1,0x3
  101a1c:	02030313          	add	t1,t1,32 # 3020 <_tbss_end+0x3020>
  101a20:	00610133          	add	sp,sp,t1
  101a24:	412c5cb3          	sra	s9,s8,s2
  101a28:	4041d193          	sra	gp,gp,0x4
  101a2c:	b3815783          	lhu	a5,-1224(sp)
  101a30:	afa10a03          	lb	s4,-1286(sp)
  101a34:	721b0c13          	add	s8,s6,1825
  101a38:	41fa3813          	sltiu	a6,s4,1055
  101a3c:	018c59b3          	srl	s3,s8,s8

00101a40 <b00000001e1>:
  101a40:	00000033          	add	zero,zero,zero
  101a44:	09cfc063          	blt	t6,t3,101ac4 <i00000001ed>
  101a48:	00000033          	add	zero,zero,zero
  101a4c:	17211983          	lh	s3,370(sp)
  101a50:	00710723          	sb	t2,14(sp)
  101a54:	2f012903          	lw	s2,752(sp)
  101a58:	6b1efd37          	lui	s10,0x6b1ef
  101a5c:	8f78b993          	sltiu	s3,a7,-1801
  101a60:	2777c997          	auipc	s3,0x2777c
  101a64:	f9212e23          	sw	s2,-100(sp)
  101a68:	00a00f93          	li	t6,10

00101a6c <i00000001e1>:
  101a6c:	2f7cac13          	slti	s8,s9,759

00101a70 <i00000001e2>:
  101a70:	0047cf33          	xor	t5,a5,tp

00101a74 <i00000001e3>:
  101a74:	67e10da3          	sb	t5,1659(sp)

00101a78 <i00000001e4>:
  101a78:	2d017017          	auipc	zero,0x2d017

00101a7c <i00000001e5>:
  101a7c:	6ca53437          	lui	s0,0x6ca53
  101a80:	0000e117          	auipc	sp,0xe
  101a84:	58010113          	add	sp,sp,1408 # 110000 <mem>
  101a88:	00006337          	lui	t1,0x6
  101a8c:	2e030313          	add	t1,t1,736 # 62e0 <_tbss_end+0x62e0>
  101a90:	00610133          	add	sp,sp,t1

00101a94 <i00000001e6>:
  101a94:	a7e15b83          	lhu	s7,-1410(sp)

00101a98 <i00000001e7>:
  101a98:	56310723          	sb	gp,1390(sp)

00101a9c <i00000001e8>:
  101a9c:	138bf513          	and	a0,s7,312

00101aa0 <i00000001e9>:
  101aa0:	41df5193          	sra	gp,t5,0x1d
  101aa4:	0000e117          	auipc	sp,0xe
  101aa8:	55c10113          	add	sp,sp,1372 # 110000 <mem>
  101aac:	0001d337          	lui	t1,0x1d
  101ab0:	44830313          	add	t1,t1,1096 # 1d448 <_tbss_end+0x1d448>
  101ab4:	00610133          	add	sp,sp,t1

00101ab8 <i00000001ea>:
  101ab8:	54615b03          	lhu	s6,1350(sp)

00101abc <i00000001eb>:
  101abc:	b8787f13          	and	t5,a6,-1145

00101ac0 <i00000001ec>:
  101ac0:	9d810f03          	lb	t5,-1576(sp)

00101ac4 <i00000001ed>:
  101ac4:	05c66493          	or	s1,a2,92

00101ac8 <i00000001ee>:
  101ac8:	438c0c13          	add	s8,s8,1080 # 685d8438 <_end+0x684a7a13>

00101acc <i00000001ef>:
  101acc:	bd615283          	lhu	t0,-1066(sp)

00101ad0 <i00000001f0>:
  101ad0:	cac10183          	lb	gp,-852(sp)

00101ad4 <i00000001f1>:
  101ad4:	003f39b3          	sltu	s3,t5,gp
  101ad8:	0000e117          	auipc	sp,0xe
  101adc:	52810113          	add	sp,sp,1320 # 110000 <mem>
  101ae0:	0001a337          	lui	t1,0x1a
  101ae4:	96830313          	add	t1,t1,-1688 # 19968 <_tbss_end+0x19968>
  101ae8:	00610133          	add	sp,sp,t1

00101aec <i00000001f2>:
  101aec:	c2114883          	lbu	a7,-991(sp)

00101af0 <i00000001f3>:
  101af0:	2be10183          	lb	gp,702(sp)

00101af4 <i00000001f4>:
  101af4:	01c83f33          	sltu	t5,a6,t3
  101af8:	00b00a13          	li	s4,11
  101afc:	00a00f93          	li	t6,10
  101b00:	0000e117          	auipc	sp,0xe
  101b04:	50010113          	add	sp,sp,1280 # 110000 <mem>
  101b08:	00004337          	lui	t1,0x4
  101b0c:	01030313          	add	t1,t1,16 # 4010 <_tbss_end+0x4010>
  101b10:	00610133          	add	sp,sp,t1
  101b14:	d8415483          	lhu	s1,-636(sp)
  101b18:	01e91013          	sll	zero,s2,0x1e
  101b1c:	08714c03          	lbu	s8,135(sp)
  101b20:	0f812e23          	sw	s8,252(sp)
  101b24:	018963b3          	or	t2,s2,s8
  101b28:	3a3c2993          	slti	s3,s8,931
  101b2c:	86ac4893          	xor	a7,s8,-1942

00101b30 <b00000001f5>:
  101b30:	00000033          	add	zero,zero,zero
  101b34:	054f9263          	bne	t6,s4,101b78 <i00000001fc>
  101b38:	00000033          	add	zero,zero,zero
  101b3c:	143be997          	auipc	s3,0x143be
  101b40:	012903b3          	add	t2,s2,s2
  101b44:	41ccd033          	sra	zero,s9,t3
  101b48:	003c0c33          	add	s8,s8,gp
  101b4c:	3a812823          	sw	s0,944(sp)
  101b50:	14614403          	lbu	s0,326(sp)
  101b54:	018c2733          	slt	a4,s8,s8
  101b58:	00a00f93          	li	t6,10

00101b5c <i00000001f5>:
  101b5c:	dde12423          	sw	t5,-568(sp)

00101b60 <i00000001f6>:
  101b60:	ee5100a3          	sb	t0,-287(sp)

00101b64 <i00000001f7>:
  101b64:	00319033          	sll	zero,gp,gp

00101b68 <i00000001f8>:
  101b68:	3d710f03          	lb	t5,983(sp)

00101b6c <i00000001f9>:
  101b6c:	6421ed93          	or	s11,gp,1602

00101b70 <i00000001fa>:
  101b70:	0198ea33          	or	s4,a7,s9

00101b74 <i00000001fb>:
  101b74:	00ad35b3          	sltu	a1,s10,a0

00101b78 <i00000001fc>:
  101b78:	75c14183          	lbu	gp,1884(sp)
  101b7c:	0000e117          	auipc	sp,0xe
  101b80:	48410113          	add	sp,sp,1156 # 110000 <mem>
  101b84:	0000b337          	lui	t1,0xb
  101b88:	b4030313          	add	t1,t1,-1216 # ab40 <_tbss_end+0xab40>
  101b8c:	00610133          	add	sp,sp,t1

00101b90 <i00000001fd>:
  101b90:	e2211f03          	lh	t5,-478(sp)

00101b94 <i00000001fe>:
  101b94:	4b8103a3          	sb	s8,1191(sp)

00101b98 <i00000001ff>:
  101b98:	f9814a03          	lbu	s4,-104(sp)

00101b9c <i0000000200>:
  101b9c:	f0512a23          	sw	t0,-236(sp)

00101ba0 <i0000000201>:
  101ba0:	b8714f03          	lbu	t5,-1145(sp)

00101ba4 <i0000000202>:
  101ba4:	52512823          	sw	t0,1328(sp)

00101ba8 <i0000000203>:
  101ba8:	a8cf7f13          	and	t5,t5,-1396

00101bac <i0000000204>:
  101bac:	9d8107a3          	sb	s8,-1585(sp)

00101bb0 <i0000000205>:
  101bb0:	d8812983          	lw	s3,-632(sp)

00101bb4 <i0000000206>:
  101bb4:	52611903          	lh	s2,1318(sp)

00101bb8 <i0000000207>:
  101bb8:	7c4104a3          	sb	tp,1993(sp)

00101bbc <i0000000208>:
  101bbc:	6ee11c03          	lh	s8,1774(sp)
  101bc0:	00c00c13          	li	s8,12
  101bc4:	001f8f93          	add	t6,t6,1
  101bc8:	0000e117          	auipc	sp,0xe
  101bcc:	43810113          	add	sp,sp,1080 # 110000 <mem>
  101bd0:	0001f337          	lui	t1,0x1f
  101bd4:	2c830313          	add	t1,t1,712 # 1f2c8 <_tbss_end+0x1f2c8>
  101bd8:	00610133          	add	sp,sp,t1
  101bdc:	0000e117          	auipc	sp,0xe
  101be0:	42410113          	add	sp,sp,1060 # 110000 <mem>
  101be4:	0000d337          	lui	t1,0xd
  101be8:	7c830313          	add	t1,t1,1992 # d7c8 <_tbss_end+0xd7c8>
  101bec:	00610133          	add	sp,sp,t1
  101bf0:	e1912623          	sw	s9,-500(sp)
  101bf4:	2ae12223          	sw	a4,676(sp)
  101bf8:	01dbda13          	srl	s4,s7,0x1d
  101bfc:	44c14903          	lbu	s2,1100(sp)
  101c00:	9c8b7193          	and	gp,s6,-1592
  101c04:	fb91b493          	sltiu	s1,gp,-71
  101c08:	00c91993          	sll	s3,s2,0xc

00101c0c <b0000000209>:
  101c0c:	018f8863          	beq	t6,s8,101c1c <b0000000209+0x10>
  101c10:	00000c17          	auipc	s8,0x0
  101c14:	f68c0c13          	add	s8,s8,-152 # 101b78 <i00000001fc>
  101c18:	000c0567          	jalr	a0,s8
  101c1c:	00a00f93          	li	t6,10
  101c20:	00871893          	sll	a7,a4,0x8
  101c24:	41c1d993          	sra	s3,gp,0x1c
  101c28:	5a012823          	sw	zero,1456(sp)
  101c2c:	cb710123          	sb	s7,-862(sp)
  101c30:	96d14983          	lbu	s3,-1683(sp)
  101c34:	1951da97          	auipc	s5,0x1951d
  101c38:	f7714983          	lbu	s3,-137(sp)
  101c3c:	0000e117          	auipc	sp,0xe
  101c40:	3c410113          	add	sp,sp,964 # 110000 <mem>
  101c44:	0000d337          	lui	t1,0xd
  101c48:	2e030313          	add	t1,t1,736 # d2e0 <_tbss_end+0xd2e0>
  101c4c:	00610133          	add	sp,sp,t1

00101c50 <i0000000209>:
  101c50:	b43104a3          	sb	gp,-1207(sp)

00101c54 <i000000020a>:
  101c54:	d9c15f03          	lhu	t5,-612(sp)

00101c58 <i000000020b>:
  101c58:	61bbde17          	auipc	t3,0x61bbd

00101c5c <i000000020c>:
  101c5c:	417c5c13          	sra	s8,s8,0x17

00101c60 <i000000020d>:
  101c60:	84310423          	sb	gp,-1976(sp)

00101c64 <i000000020e>:
  101c64:	10815b83          	lhu	s7,264(sp)
  101c68:	0000e117          	auipc	sp,0xe
  101c6c:	39810113          	add	sp,sp,920 # 110000 <mem>
  101c70:	0000d337          	lui	t1,0xd
  101c74:	7e830313          	add	t1,t1,2024 # d7e8 <_tbss_end+0xd7e8>
  101c78:	00610133          	add	sp,sp,t1

00101c7c <i000000020f>:
  101c7c:	19615683          	lhu	a3,406(sp)

00101c80 <i0000000210>:
  101c80:	00dac7b3          	xor	a5,s5,a3
  101c84:	0000e117          	auipc	sp,0xe
  101c88:	37c10113          	add	sp,sp,892 # 110000 <mem>
  101c8c:	0001a337          	lui	t1,0x1a
  101c90:	23830313          	add	t1,t1,568 # 1a238 <_tbss_end+0x1a238>
  101c94:	00610133          	add	sp,sp,t1

00101c98 <i0000000211>:
  101c98:	87a12023          	sw	s10,-1952(sp)

00101c9c <i0000000212>:
  101c9c:	0c412883          	lw	a7,196(sp)

00101ca0 <i0000000213>:
  101ca0:	c5511723          	sh	s5,-946(sp)

00101ca4 <i0000000214>:
  101ca4:	018c3f33          	sltu	t5,s8,s8

00101ca8 <i0000000215>:
  101ca8:	003c2f33          	slt	t5,s8,gp

00101cac <i0000000216>:
  101cac:	4121d193          	sra	gp,gp,0x12

00101cb0 <i0000000217>:
  101cb0:	14b1b713          	sltiu	a4,gp,331

00101cb4 <i0000000218>:
  101cb4:	de27e713          	or	a4,a5,-542

00101cb8 <i0000000219>:
  101cb8:	01e1af33          	slt	t5,gp,t5
  101cbc:	0000e117          	auipc	sp,0xe
  101cc0:	34410113          	add	sp,sp,836 # 110000 <mem>
  101cc4:	00019337          	lui	t1,0x19
  101cc8:	29830313          	add	t1,t1,664 # 19298 <_tbss_end+0x19298>
  101ccc:	00610133          	add	sp,sp,t1

00101cd0 <i000000021a>:
  101cd0:	c4510e03          	lb	t3,-955(sp)

00101cd4 <i000000021b>:
  101cd4:	1d210a03          	lb	s4,466(sp)

00101cd8 <i000000021c>:
  101cd8:	fc6f2f13          	slti	t5,t5,-58
  101cdc:	00c00a93          	li	s5,12
  101ce0:	001f8f93          	add	t6,t6,1
  101ce4:	0000e117          	auipc	sp,0xe
  101ce8:	31c10113          	add	sp,sp,796 # 110000 <mem>
  101cec:	0000b337          	lui	t1,0xb
  101cf0:	dd030313          	add	t1,t1,-560 # add0 <_tbss_end+0xadd0>
  101cf4:	00610133          	add	sp,sp,t1
  101cf8:	0000e117          	auipc	sp,0xe
  101cfc:	30810113          	add	sp,sp,776 # 110000 <mem>
  101d00:	00008337          	lui	t1,0x8
  101d04:	6d830313          	add	t1,t1,1752 # 86d8 <_tbss_end+0x86d8>
  101d08:	00610133          	add	sp,sp,t1
  101d0c:	0000e117          	auipc	sp,0xe
  101d10:	2f410113          	add	sp,sp,756 # 110000 <mem>
  101d14:	0000f337          	lui	t1,0xf
  101d18:	d3830313          	add	t1,t1,-712 # ed38 <_tbss_end+0xed38>
  101d1c:	00610133          	add	sp,sp,t1
  101d20:	57c11123          	sh	t3,1378(sp)
  101d24:	01c277b3          	and	a5,tp,t3
  101d28:	3b615783          	lhu	a5,950(sp)
  101d2c:	01296c33          	or	s8,s2,s2
  101d30:	43811923          	sh	s8,1074(sp)
  101d34:	418907b3          	sub	a5,s2,s8
  101d38:	60a10703          	lb	a4,1546(sp)

00101d3c <b000000021d>:
  101d3c:	00000033          	add	zero,zero,zero
  101d40:	f7fadae3          	bge	s5,t6,101cb4 <i0000000218>
  101d44:	00000033          	add	zero,zero,zero
  101d48:	9ed14c83          	lbu	s9,-1555(sp)
  101d4c:	b5610183          	lb	gp,-1194(sp)
  101d50:	d3514c03          	lbu	s8,-715(sp)
  101d54:	82211c03          	lh	s8,-2014(sp)
  101d58:	eb614383          	lbu	t2,-330(sp)
  101d5c:	0124d413          	srl	s0,s1,0x12
  101d60:	4aa15983          	lhu	s3,1194(sp)
  101d64:	00a00f93          	li	t6,10
  101d68:	0000e117          	auipc	sp,0xe
  101d6c:	29810113          	add	sp,sp,664 # 110000 <mem>
  101d70:	0000a337          	lui	t1,0xa
  101d74:	26030313          	add	t1,t1,608 # a260 <_tbss_end+0xa260>
  101d78:	00610133          	add	sp,sp,t1

00101d7c <i000000021d>:
  101d7c:	14312023          	sw	gp,320(sp)
  101d80:	0000e117          	auipc	sp,0xe
  101d84:	28010113          	add	sp,sp,640 # 110000 <mem>
  101d88:	00004337          	lui	t1,0x4
  101d8c:	d4030313          	add	t1,t1,-704 # 3d40 <_tbss_end+0x3d40>
  101d90:	00610133          	add	sp,sp,t1

00101d94 <i000000021e>:
  101d94:	e2014203          	lbu	tp,-480(sp)

00101d98 <i000000021f>:
  101d98:	00077d33          	and	s10,a4,zero

00101d9c <i0000000220>:
  101d9c:	04311f23          	sh	gp,94(sp)

00101da0 <i0000000221>:
  101da0:	cd912423          	sw	s9,-824(sp)

00101da4 <i0000000222>:
  101da4:	26412f03          	lw	t5,612(sp)

00101da8 <i0000000223>:
  101da8:	01cdd6b3          	srl	a3,s11,t3

00101dac <i0000000224>:
  101dac:	408201b3          	sub	gp,tp,s0

00101db0 <i0000000225>:
  101db0:	10206a13          	or	s4,zero,258

00101db4 <i0000000226>:
  101db4:	00289f13          	sll	t5,a7,0x2

00101db8 <i0000000227>:
  101db8:	b45c6c13          	or	s8,s8,-1211

00101dbc <i0000000228>:
  101dbc:	dda15183          	lhu	gp,-550(sp)
  101dc0:	0000e117          	auipc	sp,0xe
  101dc4:	24010113          	add	sp,sp,576 # 110000 <mem>
  101dc8:	00014337          	lui	t1,0x14
  101dcc:	d1030313          	add	t1,t1,-752 # 13d10 <_tbss_end+0x13d10>
  101dd0:	00610133          	add	sp,sp,t1

00101dd4 <i0000000229>:
  101dd4:	88914c03          	lbu	s8,-1911(sp)

00101dd8 <i000000022a>:
  101dd8:	80815803          	lhu	a6,-2040(sp)

00101ddc <i000000022b>:
  101ddc:	eac10c03          	lb	s8,-340(sp)

00101de0 <i000000022c>:
  101de0:	4bb11723          	sh	s11,1198(sp)

00101de4 <i000000022d>:
  101de4:	018f01b3          	add	gp,t5,s8
  101de8:	0000e117          	auipc	sp,0xe
  101dec:	21810113          	add	sp,sp,536 # 110000 <mem>
  101df0:	0001c337          	lui	t1,0x1c
  101df4:	2c830313          	add	t1,t1,712 # 1c2c8 <_tbss_end+0x1c2c8>
  101df8:	00610133          	add	sp,sp,t1

00101dfc <i000000022e>:
  101dfc:	c0810683          	lb	a3,-1016(sp)
  101e00:	0000e117          	auipc	sp,0xe
  101e04:	20010113          	add	sp,sp,512 # 110000 <mem>
  101e08:	0000d337          	lui	t1,0xd
  101e0c:	75030313          	add	t1,t1,1872 # d750 <_tbss_end+0xd750>
  101e10:	00610133          	add	sp,sp,t1

00101e14 <i000000022f>:
  101e14:	4a415283          	lhu	t0,1188(sp)

00101e18 <i0000000230>:
  101e18:	372e6913          	or	s2,t3,882
  101e1c:	00900913          	li	s2,9
  101e20:	0000e117          	auipc	sp,0xe
  101e24:	1e010113          	add	sp,sp,480 # 110000 <mem>
  101e28:	00018337          	lui	t1,0x18
  101e2c:	49830313          	add	t1,t1,1176 # 18498 <_tbss_end+0x18498>
  101e30:	00610133          	add	sp,sp,t1
  101e34:	0000e117          	auipc	sp,0xe
  101e38:	1cc10113          	add	sp,sp,460 # 110000 <mem>
  101e3c:	0000d337          	lui	t1,0xd
  101e40:	88830313          	add	t1,t1,-1912 # c888 <_tbss_end+0xc888>
  101e44:	00610133          	add	sp,sp,t1
  101e48:	0181dc33          	srl	s8,gp,s8
  101e4c:	8d811723          	sh	s8,-1842(sp)
  101e50:	3d014c03          	lbu	s8,976(sp)
  101e54:	003c11b3          	sll	gp,s8,gp
  101e58:	73eb59b7          	lui	s3,0x73eb5
  101e5c:	0cf14c83          	lbu	s9,207(sp)
  101e60:	20e11c23          	sh	a4,536(sp)

00101e64 <b0000000231>:
  101e64:	00000033          	add	zero,zero,zero
  101e68:	f52fc0e3          	blt	t6,s2,101da8 <i0000000223>
  101e6c:	00000033          	add	zero,zero,zero
  101e70:	d0e12823          	sw	a4,-752(sp)
  101e74:	003c2b33          	slt	s6,s8,gp
  101e78:	bae12023          	sw	a4,-1120(sp)
  101e7c:	b8711123          	sh	t2,-1150(sp)
  101e80:	13a1ec13          	or	s8,gp,314
  101e84:	56b7fa13          	and	s4,a5,1387
  101e88:	765b2b93          	slti	s7,s6,1893
  101e8c:	00a00f93          	li	t6,10

00101e90 <i0000000231>:
  101e90:	413ad013          	sra	zero,s5,0x13

00101e94 <i0000000232>:
  101e94:	7eb07c13          	and	s8,zero,2027

00101e98 <i0000000233>:
  101e98:	f8b14f03          	lbu	t5,-117(sp)

00101e9c <i0000000234>:
  101e9c:	2c312c23          	sw	gp,728(sp)

00101ea0 <i0000000235>:
  101ea0:	0163cab3          	xor	s5,t2,s6

00101ea4 <i0000000236>:
  101ea4:	c3b14c83          	lbu	s9,-965(sp)

00101ea8 <i0000000237>:
  101ea8:	f9a15f03          	lhu	t5,-102(sp)

00101eac <i0000000238>:
  101eac:	018f5f33          	srl	t5,t5,s8

00101eb0 <i0000000239>:
  101eb0:	76f6fd17          	auipc	s10,0x76f6f

00101eb4 <i000000023a>:
  101eb4:	e641cc13          	xor	s8,gp,-412
  101eb8:	0000e117          	auipc	sp,0xe
  101ebc:	14810113          	add	sp,sp,328 # 110000 <mem>
  101ec0:	0001e337          	lui	t1,0x1e
  101ec4:	6f030313          	add	t1,t1,1776 # 1e6f0 <_tbss_end+0x1e6f0>
  101ec8:	00610133          	add	sp,sp,t1

00101ecc <i000000023b>:
  101ecc:	f2910c03          	lb	s8,-215(sp)

00101ed0 <i000000023c>:
  101ed0:	017e9193          	sll	gp,t4,0x17

00101ed4 <i000000023d>:
  101ed4:	017573b3          	and	t2,a0,s7

00101ed8 <i000000023e>:
  101ed8:	4f8c6917          	auipc	s2,0x4f8c6

00101edc <i000000023f>:
  101edc:	77415483          	lhu	s1,1908(sp)

00101ee0 <i0000000240>:
  101ee0:	d3cf4f13          	xor	t5,t5,-708

00101ee4 <i0000000241>:
  101ee4:	403f03b3          	sub	t2,t5,gp

00101ee8 <i0000000242>:
  101ee8:	4f811b23          	sh	s8,1270(sp)

00101eec <i0000000243>:
  101eec:	25812883          	lw	a7,600(sp)

00101ef0 <i0000000244>:
  101ef0:	29415f03          	lhu	t5,660(sp)
  101ef4:	00c00d93          	li	s11,12
  101ef8:	001f8f93          	add	t6,t6,1
  101efc:	0000e117          	auipc	sp,0xe
  101f00:	10410113          	add	sp,sp,260 # 110000 <mem>
  101f04:	00009337          	lui	t1,0x9
  101f08:	fe030313          	add	t1,t1,-32 # 8fe0 <_tbss_end+0x8fe0>
  101f0c:	00610133          	add	sp,sp,t1
  101f10:	49b76893          	or	a7,a4,1179
  101f14:	01742ab3          	slt	s5,s0,s7
  101f18:	013e0433          	add	s0,t3,s3
  101f1c:	e23aa013          	slti	zero,s5,-477
  101f20:	58415983          	lhu	s3,1412(sp)
  101f24:	a1310183          	lb	gp,-1517(sp)
  101f28:	3d210923          	sb	s2,978(sp)

00101f2c <b0000000245>:
  101f2c:	01bf8463          	beq	t6,s11,101f34 <b0000000245+0x8>
  101f30:	fadff56f          	jal	a0,101edc <i000000023f>
  101f34:	00a00f93          	li	t6,10
  101f38:	00ee03b3          	add	t2,t3,a4
  101f3c:	01b8d193          	srl	gp,a7,0x1b
  101f40:	ed811323          	sh	s8,-314(sp)
  101f44:	7a311d23          	sh	gp,1978(sp)
  101f48:	4121d3b3          	sra	t2,gp,s2
  101f4c:	017d79b3          	and	s3,s10,s7
  101f50:	01c19193          	sll	gp,gp,0x1c
  101f54:	0000e117          	auipc	sp,0xe
  101f58:	0ac10113          	add	sp,sp,172 # 110000 <mem>
  101f5c:	00011337          	lui	t1,0x11
  101f60:	f7830313          	add	t1,t1,-136 # 10f78 <_tbss_end+0x10f78>
  101f64:	00610133          	add	sp,sp,t1

00101f68 <i0000000245>:
  101f68:	21812623          	sw	s8,524(sp)
  101f6c:	0000e117          	auipc	sp,0xe
  101f70:	09410113          	add	sp,sp,148 # 110000 <mem>
  101f74:	00004337          	lui	t1,0x4
  101f78:	91830313          	add	t1,t1,-1768 # 3918 <_tbss_end+0x3918>
  101f7c:	00610133          	add	sp,sp,t1

00101f80 <i0000000246>:
  101f80:	29b11623          	sh	s11,652(sp)

00101f84 <i0000000247>:
  101f84:	56910fa3          	sb	s1,1407(sp)

00101f88 <i0000000248>:
  101f88:	4178d433          	sra	s0,a7,s7

00101f8c <i0000000249>:
  101f8c:	003f71b3          	and	gp,t5,gp

00101f90 <i000000024a>:
  101f90:	7b214703          	lbu	a4,1970(sp)

00101f94 <i000000024b>:
  101f94:	41e1d533          	sra	a0,gp,t5

00101f98 <i000000024c>:
  101f98:	013c1d93          	sll	s11,s8,0x13

00101f9c <i000000024d>:
  101f9c:	d0e11f03          	lh	t5,-754(sp)

00101fa0 <i000000024e>:
  101fa0:	93a1cb13          	xor	s6,gp,-1734

00101fa4 <i000000024f>:
  101fa4:	16b53537          	lui	a0,0x16b53

00101fa8 <i0000000250>:
  101fa8:	01e1e733          	or	a4,gp,t5

00101fac <i0000000251>:
  101fac:	1f211683          	lh	a3,498(sp)

00101fb0 <i0000000252>:
  101fb0:	018c0c33          	add	s8,s8,s8

00101fb4 <i0000000253>:
  101fb4:	2da691b7          	lui	gp,0x2da69

00101fb8 <i0000000254>:
  101fb8:	88204813          	xor	a6,zero,-1918

00101fbc <i0000000255>:
  101fbc:	00fe91b3          	sll	gp,t4,a5

00101fc0 <i0000000256>:
  101fc0:	00c87db3          	and	s11,a6,a2

00101fc4 <i0000000257>:
  101fc4:	008e2bb3          	slt	s7,t3,s0

00101fc8 <i0000000258>:
  101fc8:	0021d513          	srl	a0,gp,0x2
  101fcc:	00900c13          	li	s8,9
  101fd0:	0000e117          	auipc	sp,0xe
  101fd4:	03010113          	add	sp,sp,48 # 110000 <mem>
  101fd8:	00011337          	lui	t1,0x11
  101fdc:	8b030313          	add	t1,t1,-1872 # 108b0 <_tbss_end+0x108b0>
  101fe0:	00610133          	add	sp,sp,t1
  101fe4:	00e49493          	sll	s1,s1,0xe
  101fe8:	00e769b3          	or	s3,a4,a4
  101fec:	01295bb3          	srl	s7,s2,s2
  101ff0:	009d7033          	and	zero,s10,s1
  101ff4:	01bef193          	and	gp,t4,27
  101ff8:	01c75413          	srl	s0,a4,0x1c
  101ffc:	ab615e83          	lhu	t4,-1354(sp)

00102000 <b0000000259>:
  102000:	00000033          	add	zero,zero,zero
  102004:	f9fc5ae3          	bge	s8,t6,101f98 <i000000024c>
  102008:	00000033          	add	zero,zero,zero
  10200c:	40f38cb3          	sub	s9,t2,a5
  102010:	00e939b3          	sltu	s3,s2,a4
  102014:	00e941b3          	xor	gp,s2,a4
  102018:	7f412003          	lw	zero,2036(sp)
  10201c:	0134d1b3          	srl	gp,s1,s3
  102020:	bc3105a3          	sb	gp,-1077(sp)
  102024:	4e015803          	lhu	a6,1248(sp)
  102028:	00a00f93          	li	t6,10

0010202c <i0000000259>:
  10202c:	00f67e33          	and	t3,a2,a5

00102030 <i000000025a>:
  102030:	cc32bf13          	sltiu	t5,t0,-829

00102034 <i000000025b>:
  102034:	c2414f03          	lbu	t5,-988(sp)

00102038 <i000000025c>:
  102038:	67e12823          	sw	t5,1648(sp)

0010203c <i000000025d>:
  10203c:	41b05393          	sra	t2,zero,0x1b
  102040:	0000e117          	auipc	sp,0xe
  102044:	fc010113          	add	sp,sp,-64 # 110000 <mem>
  102048:	00010337          	lui	t1,0x10
  10204c:	dd830313          	add	t1,t1,-552 # fdd8 <_tbss_end+0xfdd8>
  102050:	00610133          	add	sp,sp,t1

00102054 <i000000025e>:
  102054:	82c11f03          	lh	t5,-2004(sp)

00102058 <i000000025f>:
  102058:	00c30c33          	add	s8,t1,a2

0010205c <i0000000260>:
  10205c:	54b10783          	lb	a5,1355(sp)

00102060 <i0000000261>:
  102060:	f6711023          	sh	t2,-160(sp)

00102064 <i0000000262>:
  102064:	6f211d83          	lh	s11,1778(sp)

00102068 <i0000000263>:
  102068:	c823c813          	xor	a6,t2,-894

0010206c <i0000000264>:
  10206c:	11415c03          	lhu	s8,276(sp)

00102070 <i0000000265>:
  102070:	41a78d33          	sub	s10,a5,s10

00102074 <i0000000266>:
  102074:	0155ff33          	and	t5,a1,s5

00102078 <i0000000267>:
  102078:	1a056f13          	or	t5,a0,416

0010207c <i0000000268>:
  10207c:	01260c33          	add	s8,a2,s2

00102080 <i0000000269>:
  102080:	499c6513          	or	a0,s8,1177

00102084 <i000000026a>:
  102084:	01e1e433          	or	s0,gp,t5

00102088 <i000000026b>:
  102088:	8a310da3          	sb	gp,-1861(sp)

0010208c <i000000026c>:
  10208c:	4dfc5cb7          	lui	s9,0x4dfc5
  102090:	00b00b93          	li	s7,11
  102094:	001f8f93          	add	t6,t6,1
  102098:	0000e117          	auipc	sp,0xe
  10209c:	f6810113          	add	sp,sp,-152 # 110000 <mem>
  1020a0:	00006337          	lui	t1,0x6
  1020a4:	e8030313          	add	t1,t1,-384 # 5e80 <_tbss_end+0x5e80>
  1020a8:	00610133          	add	sp,sp,t1
  1020ac:	0000e117          	auipc	sp,0xe
  1020b0:	f5410113          	add	sp,sp,-172 # 110000 <mem>
  1020b4:	0000d337          	lui	t1,0xd
  1020b8:	26830313          	add	t1,t1,616 # d268 <_tbss_end+0xd268>
  1020bc:	00610133          	add	sp,sp,t1
  1020c0:	0000e117          	auipc	sp,0xe
  1020c4:	f4010113          	add	sp,sp,-192 # 110000 <mem>
  1020c8:	00003337          	lui	t1,0x3
  1020cc:	e5830313          	add	t1,t1,-424 # 2e58 <_tbss_end+0x2e58>
  1020d0:	00610133          	add	sp,sp,t1
  1020d4:	dff76c13          	or	s8,a4,-513
  1020d8:	ed811c03          	lh	s8,-296(sp)
  1020dc:	29614003          	lbu	zero,662(sp)
  1020e0:	52514c03          	lbu	s8,1317(sp)
  1020e4:	72415983          	lhu	s3,1828(sp)
  1020e8:	a0b10703          	lb	a4,-1525(sp)
  1020ec:	6ca11383          	lh	t2,1738(sp)

001020f0 <b000000026d>:
  1020f0:	00000033          	add	zero,zero,zero
  1020f4:	f97f84e3          	beq	t6,s7,10207c <i0000000268>
  1020f8:	00000033          	add	zero,zero,zero
  1020fc:	56311723          	sh	gp,1390(sp)
  102100:	bdd11823          	sh	t4,-1072(sp)
  102104:	59814d03          	lbu	s10,1432(sp)
  102108:	b721a013          	slti	zero,gp,-1166
  10210c:	40395033          	sra	zero,s2,gp
  102110:	01d241b3          	xor	gp,tp,t4
  102114:	3bc10403          	lb	s0,956(sp)
  102118:	00a00f93          	li	t6,10

0010211c <i000000026d>:
  10211c:	56f12a23          	sw	a5,1396(sp)
  102120:	0000e117          	auipc	sp,0xe
  102124:	ee010113          	add	sp,sp,-288 # 110000 <mem>
  102128:	00016337          	lui	t1,0x16
  10212c:	a6830313          	add	t1,t1,-1432 # 15a68 <_tbss_end+0x15a68>
  102130:	00610133          	add	sp,sp,t1

00102134 <i000000026e>:
  102134:	5be10ca3          	sb	t5,1465(sp)

00102138 <i000000026f>:
  102138:	e7e10b03          	lb	s6,-386(sp)

0010213c <i0000000270>:
  10213c:	74c1ef13          	or	t5,gp,1868

00102140 <i0000000271>:
  102140:	3e4f0c93          	add	s9,t5,996 # 6239c3e4 <_end+0x6226b9bf>

00102144 <i0000000272>:
  102144:	65810183          	lb	gp,1624(sp)

00102148 <i0000000273>:
  102148:	b5011183          	lh	gp,-1200(sp)

0010214c <i0000000274>:
  10214c:	583c0f13          	add	t5,s8,1411

00102150 <i0000000275>:
  102150:	bdb10f03          	lb	t5,-1061(sp)

00102154 <i0000000276>:
  102154:	dde14f03          	lbu	t5,-546(sp)

00102158 <i0000000277>:
  102158:	010eaf33          	slt	t5,t4,a6

0010215c <i0000000278>:
  10215c:	13015403          	lhu	s0,304(sp)

00102160 <i0000000279>:
  102160:	01356f33          	or	t5,a0,s3

00102164 <i000000027a>:
  102164:	01ec4c33          	xor	s8,s8,t5

00102168 <i000000027b>:
  102168:	f59f0f13          	add	t5,t5,-167

0010216c <i000000027c>:
  10216c:	05e12a23          	sw	t5,84(sp)

00102170 <i000000027d>:
  102170:	e4e15183          	lhu	gp,-434(sp)

00102174 <i000000027e>:
  102174:	0143c8b3          	xor	a7,t2,s4

00102178 <i000000027f>:
  102178:	5f510123          	sb	s5,1506(sp)

0010217c <i0000000280>:
  10217c:	82211d83          	lh	s11,-2014(sp)
  102180:	00a00a13          	li	s4,10
  102184:	9a312e23          	sw	gp,-1604(sp)
  102188:	80c11c83          	lh	s9,-2036(sp)
  10218c:	017bf033          	and	zero,s7,s7
  102190:	eb1103a3          	sb	a7,-345(sp)
  102194:	414c5193          	sra	gp,s8,0x14
  102198:	7b610123          	sb	s6,1954(sp)
  10219c:	013db1b3          	sltu	gp,s11,s3

001021a0 <b0000000281>:
  1021a0:	00000033          	add	zero,zero,zero
  1021a4:	074f8863          	beq	t6,s4,102214 <i000000028e>
  1021a8:	00000033          	add	zero,zero,zero
  1021ac:	09412003          	lw	zero,148(sp)
  1021b0:	015d64b3          	or	s1,s10,s5
  1021b4:	49855797          	auipc	a5,0x49855
  1021b8:	5f914c03          	lbu	s8,1529(sp)
  1021bc:	50412623          	sw	tp,1292(sp)
  1021c0:	f7412783          	lw	a5,-140(sp)
  1021c4:	91510983          	lb	s3,-1771(sp)
  1021c8:	00a00f93          	li	t6,10

001021cc <i0000000281>:
  1021cc:	6ee5ac17          	auipc	s8,0x6ee5a

001021d0 <i0000000282>:
  1021d0:	abe10d23          	sb	t5,-1350(sp)

001021d4 <i0000000283>:
  1021d4:	cd511223          	sh	s5,-828(sp)

001021d8 <i0000000284>:
  1021d8:	7fe11923          	sh	t5,2034(sp)

001021dc <i0000000285>:
  1021dc:	4c811503          	lh	a0,1224(sp)
  1021e0:	0000e117          	auipc	sp,0xe
  1021e4:	e2010113          	add	sp,sp,-480 # 110000 <mem>
  1021e8:	0001c337          	lui	t1,0x1c
  1021ec:	67030313          	add	t1,t1,1648 # 1c670 <_tbss_end+0x1c670>
  1021f0:	00610133          	add	sp,sp,t1

001021f4 <i0000000286>:
  1021f4:	0f012c03          	lw	s8,240(sp)

001021f8 <i0000000287>:
  1021f8:	d1e12223          	sw	t5,-764(sp)

001021fc <i0000000288>:
  1021fc:	003c0eb3          	add	t4,s8,gp

00102200 <i0000000289>:
  102200:	410e8e33          	sub	t3,t4,a6

00102204 <i000000028a>:
  102204:	4125dcb3          	sra	s9,a1,s2

00102208 <i000000028b>:
  102208:	fd015603          	lhu	a2,-48(sp)

0010220c <i000000028c>:
  10220c:	e1a12023          	sw	s10,-512(sp)

00102210 <i000000028d>:
  102210:	b7812e23          	sw	s8,-1156(sp)

00102214 <i000000028e>:
  102214:	edfa7f13          	and	t5,s4,-289

00102218 <i000000028f>:
  102218:	36aacf13          	xor	t5,s5,874

0010221c <i0000000290>:
  10221c:	e7e10183          	lb	gp,-386(sp)

00102220 <i0000000291>:
  102220:	41b90c33          	sub	s8,s2,s11

00102224 <i0000000292>:
  102224:	4121d993          	sra	s3,gp,0x12

00102228 <i0000000293>:
  102228:	ff6f7493          	and	s1,t5,-10

0010222c <i0000000294>:
  10222c:	a4812c03          	lw	s8,-1464(sp)
  102230:	00900e13          	li	t3,9
  102234:	0000e117          	auipc	sp,0xe
  102238:	dcc10113          	add	sp,sp,-564 # 110000 <mem>
  10223c:	00002337          	lui	t1,0x2
  102240:	3d030313          	add	t1,t1,976 # 23d0 <_tbss_end+0x23d0>
  102244:	00610133          	add	sp,sp,t1
  102248:	0000e117          	auipc	sp,0xe
  10224c:	db810113          	add	sp,sp,-584 # 110000 <mem>
  102250:	00004337          	lui	t1,0x4
  102254:	3d030313          	add	t1,t1,976 # 43d0 <_tbss_end+0x43d0>
  102258:	00610133          	add	sp,sp,t1
  10225c:	0000e117          	auipc	sp,0xe
  102260:	da410113          	add	sp,sp,-604 # 110000 <mem>
  102264:	0000f337          	lui	t1,0xf
  102268:	b0830313          	add	t1,t1,-1272 # eb08 <_tbss_end+0xeb08>
  10226c:	00610133          	add	sp,sp,t1
  102270:	7701ac93          	slti	s9,gp,1904
  102274:	02310ba3          	sb	gp,55(sp)
  102278:	007389b3          	add	s3,t2,t2
  10227c:	007701b3          	add	gp,a4,t2
  102280:	5cacf193          	and	gp,s9,1482
  102284:	45811123          	sh	s8,1090(sp)
  102288:	a3b11123          	sh	s11,-1502(sp)

0010228c <b0000000295>:
  10228c:	00000033          	add	zero,zero,zero
  102290:	f9cfc0e3          	blt	t6,t3,102210 <i000000028d>
  102294:	00000033          	add	zero,zero,zero
  102298:	91310c03          	lb	s8,-1773(sp)
  10229c:	0701b193          	sltiu	gp,gp,112
  1022a0:	7a015c03          	lhu	s8,1952(sp)
  1022a4:	9e812203          	lw	tp,-1560(sp)
  1022a8:	2f811823          	sh	s8,752(sp)
  1022ac:	b3344493          	xor	s1,s0,-1229
  1022b0:	d8c12903          	lw	s2,-628(sp)
  1022b4:	00a00f93          	li	t6,10

001022b8 <i0000000295>:
  1022b8:	01f19193          	sll	gp,gp,0x1f

001022bc <i0000000296>:
  1022bc:	40fad193          	sra	gp,s5,0xf

001022c0 <i0000000297>:
  1022c0:	018c61b3          	or	gp,s8,s8
  1022c4:	0000e117          	auipc	sp,0xe
  1022c8:	d3c10113          	add	sp,sp,-708 # 110000 <mem>
  1022cc:	00018337          	lui	t1,0x18
  1022d0:	89030313          	add	t1,t1,-1904 # 17890 <_tbss_end+0x17890>
  1022d4:	00610133          	add	sp,sp,t1

001022d8 <i0000000298>:
  1022d8:	65812c03          	lw	s8,1624(sp)

001022dc <i0000000299>:
  1022dc:	13e104a3          	sb	t5,297(sp)

001022e0 <i000000029a>:
  1022e0:	2fe11523          	sh	t5,746(sp)

001022e4 <i000000029b>:
  1022e4:	85d10a83          	lb	s5,-1955(sp)

001022e8 <i000000029c>:
  1022e8:	00381c13          	sll	s8,a6,0x3

001022ec <i000000029d>:
  1022ec:	003f5f13          	srl	t5,t5,0x3

001022f0 <i000000029e>:
  1022f0:	fd611183          	lh	gp,-42(sp)

001022f4 <i000000029f>:
  1022f4:	004cdc33          	srl	s8,s9,tp

001022f8 <i00000002a0>:
  1022f8:	ba211183          	lh	gp,-1118(sp)

001022fc <i00000002a1>:
  1022fc:	41373d17          	auipc	s10,0x41373

00102300 <i00000002a2>:
  102300:	cb4107a3          	sb	s4,-849(sp)

00102304 <i00000002a3>:
  102304:	01e1af33          	slt	t5,gp,t5

00102308 <i00000002a4>:
  102308:	f5512823          	sw	s5,-176(sp)

0010230c <i00000002a5>:
  10230c:	87e15983          	lhu	s3,-1922(sp)

00102310 <i00000002a6>:
  102310:	86997393          	and	t2,s2,-1943

00102314 <i00000002a7>:
  102314:	01aeb3b3          	sltu	t2,t4,s10

00102318 <i00000002a8>:
  102318:	dac15f03          	lhu	t5,-596(sp)
  10231c:	00a00c93          	li	s9,10
  102320:	00a00f93          	li	t6,10
  102324:	0000e117          	auipc	sp,0xe
  102328:	cdc10113          	add	sp,sp,-804 # 110000 <mem>
  10232c:	00016337          	lui	t1,0x16
  102330:	2e030313          	add	t1,t1,736 # 162e0 <_tbss_end+0x162e0>
  102334:	00610133          	add	sp,sp,t1
  102338:	b72100a3          	sb	s2,-1183(sp)
  10233c:	403c01b3          	sub	gp,s8,gp
  102340:	ee6df013          	and	zero,s11,-282
  102344:	00f8deb3          	srl	t4,a7,a5
  102348:	d2011003          	lh	zero,-736(sp)
  10234c:	b5011183          	lh	gp,-1200(sp)
  102350:	2ea14e03          	lbu	t3,746(sp)

00102354 <b00000002a9>:
  102354:	00000033          	add	zero,zero,zero
  102358:	059f9463          	bne	t6,s9,1023a0 <i00000002b1>
  10235c:	00000033          	add	zero,zero,zero
  102360:	22b14003          	lbu	zero,555(sp)
  102364:	7af11e23          	sh	a5,1980(sp)
  102368:	77211523          	sh	s2,1898(sp)
  10236c:	a0712e23          	sw	t2,-1508(sp)
  102370:	54814183          	lbu	gp,1352(sp)
  102374:	f9210403          	lb	s0,-110(sp)
  102378:	1e8c7a93          	and	s5,s8,488
  10237c:	00a00f93          	li	t6,10

00102380 <i00000002a9>:
  102380:	638102a3          	sb	s8,1573(sp)

00102384 <i00000002aa>:
  102384:	94ad3213          	sltiu	tp,s10,-1718

00102388 <i00000002ab>:
  102388:	49812c23          	sw	s8,1176(sp)

0010238c <i00000002ac>:
  10238c:	64e11703          	lh	a4,1614(sp)

00102390 <i00000002ad>:
  102390:	6c7c1797          	auipc	a5,0x6c7c1

00102394 <i00000002ae>:
  102394:	6a615203          	lhu	tp,1702(sp)

00102398 <i00000002af>:
  102398:	00815c03          	lhu	s8,8(sp)

0010239c <i00000002b0>:
  10239c:	01ef3e33          	sltu	t3,t5,t5

001023a0 <i00000002b1>:
  1023a0:	f2015803          	lhu	a6,-224(sp)

001023a4 <i00000002b2>:
  1023a4:	37e15f03          	lhu	t5,894(sp)
  1023a8:	0000e117          	auipc	sp,0xe
  1023ac:	c5810113          	add	sp,sp,-936 # 110000 <mem>
  1023b0:	00018337          	lui	t1,0x18
  1023b4:	26030313          	add	t1,t1,608 # 18260 <_tbss_end+0x18260>
  1023b8:	00610133          	add	sp,sp,t1

001023bc <i00000002b3>:
  1023bc:	78f14703          	lbu	a4,1935(sp)

001023c0 <i00000002b4>:
  1023c0:	01559c13          	sll	s8,a1,0x15

001023c4 <i00000002b5>:
  1023c4:	003f32b3          	sltu	t0,t5,gp
  1023c8:	0000e117          	auipc	sp,0xe
  1023cc:	c3810113          	add	sp,sp,-968 # 110000 <mem>
  1023d0:	00013337          	lui	t1,0x13
  1023d4:	a1830313          	add	t1,t1,-1512 # 12a18 <_tbss_end+0x12a18>
  1023d8:	00610133          	add	sp,sp,t1

001023dc <i00000002b6>:
  1023dc:	cf310f03          	lb	t5,-781(sp)

001023e0 <i00000002b7>:
  1023e0:	006cd1b3          	srl	gp,s9,t1

001023e4 <i00000002b8>:
  1023e4:	0031bf33          	sltu	t5,gp,gp

001023e8 <i00000002b9>:
  1023e8:	3c311923          	sh	gp,978(sp)

001023ec <i00000002ba>:
  1023ec:	01e1f233          	and	tp,gp,t5

001023f0 <i00000002bb>:
  1023f0:	3a615703          	lhu	a4,934(sp)

001023f4 <i00000002bc>:
  1023f4:	90b14703          	lbu	a4,-1781(sp)
  1023f8:	00c00813          	li	a6,12
  1023fc:	001f8f93          	add	t6,t6,1
  102400:	0000e117          	auipc	sp,0xe
  102404:	c0010113          	add	sp,sp,-1024 # 110000 <mem>
  102408:	00014337          	lui	t1,0x14
  10240c:	4e830313          	add	t1,t1,1256 # 144e8 <_tbss_end+0x144e8>
  102410:	00610133          	add	sp,sp,t1
  102414:	0181a733          	slt	a4,gp,s8
  102418:	00ec6c33          	or	s8,s8,a4
  10241c:	0031ebb3          	or	s7,gp,gp
  102420:	41945b93          	sra	s7,s0,0x19
  102424:	1e310223          	sb	gp,484(sp)
  102428:	037c6b93          	or	s7,s8,55
  10242c:	66a15c03          	lhu	s8,1642(sp)

00102430 <b00000002bd>:
  102430:	00000033          	add	zero,zero,zero
  102434:	fbf854e3          	bge	a6,t6,1023dc <i00000002b6>
  102438:	00000033          	add	zero,zero,zero
  10243c:	00e19733          	sll	a4,gp,a4
  102440:	011917b3          	sll	a5,s2,a7
  102444:	fcb07b93          	and	s7,zero,-53
  102448:	f0312c23          	sw	gp,-232(sp)
  10244c:	4181dd93          	sra	s11,gp,0x18
  102450:	01049c13          	sll	s8,s1,0x10
  102454:	000cd733          	srl	a4,s9,zero
  102458:	00a00f93          	li	t6,10

0010245c <i00000002bd>:
  10245c:	37b12823          	sw	s11,880(sp)

00102460 <i00000002be>:
  102460:	018f3833          	sltu	a6,t5,s8

00102464 <i00000002bf>:
  102464:	40dd5c33          	sra	s8,s10,a3

00102468 <i00000002c0>:
  102468:	41e6da13          	sra	s4,a3,0x1e

0010246c <i00000002c1>:
  10246c:	d2011d83          	lh	s11,-736(sp)
  102470:	0000e117          	auipc	sp,0xe
  102474:	b9010113          	add	sp,sp,-1136 # 110000 <mem>
  102478:	0001f337          	lui	t1,0x1f
  10247c:	ad030313          	add	t1,t1,-1328 # 1ead0 <_tbss_end+0x1ead0>
  102480:	00610133          	add	sp,sp,t1

00102484 <i00000002c2>:
  102484:	93815383          	lhu	t2,-1736(sp)

00102488 <i00000002c3>:
  102488:	0153de13          	srl	t3,t2,0x15

0010248c <i00000002c4>:
  10248c:	a03109a3          	sb	gp,-1517(sp)

00102490 <i00000002c5>:
  102490:	a5011523          	sh	a6,-1462(sp)

00102494 <i00000002c6>:
  102494:	6fcd3413          	sltiu	s0,s10,1788

00102498 <i00000002c7>:
  102498:	010729b3          	slt	s3,a4,a6

0010249c <i00000002c8>:
  10249c:	e9811e23          	sh	s8,-356(sp)

001024a0 <i00000002c9>:
  1024a0:	97814d83          	lbu	s11,-1672(sp)

001024a4 <i00000002ca>:
  1024a4:	ce9c6f13          	or	t5,s8,-791

001024a8 <i00000002cb>:
  1024a8:	01e71c13          	sll	s8,a4,0x1e

001024ac <i00000002cc>:
  1024ac:	49812883          	lw	a7,1176(sp)

001024b0 <i00000002cd>:
  1024b0:	c1112223          	sw	a7,-1020(sp)

001024b4 <i00000002ce>:
  1024b4:	41ef51b3          	sra	gp,t5,t5

001024b8 <i00000002cf>:
  1024b8:	4e714883          	lbu	a7,1255(sp)

001024bc <i00000002d0>:
  1024bc:	b56c2f13          	slti	t5,s8,-1194
  1024c0:	00900e13          	li	t3,9
  1024c4:	0000e117          	auipc	sp,0xe
  1024c8:	b3c10113          	add	sp,sp,-1220 # 110000 <mem>
  1024cc:	00018337          	lui	t1,0x18
  1024d0:	fc030313          	add	t1,t1,-64 # 17fc0 <_tbss_end+0x17fc0>
  1024d4:	00610133          	add	sp,sp,t1
  1024d8:	0000e117          	auipc	sp,0xe
  1024dc:	b2810113          	add	sp,sp,-1240 # 110000 <mem>
  1024e0:	00009337          	lui	t1,0x9
  1024e4:	5d830313          	add	t1,t1,1496 # 95d8 <_tbss_end+0x95d8>
  1024e8:	00610133          	add	sp,sp,t1
  1024ec:	0137c833          	xor	a6,a5,s3
  1024f0:	0181cdb3          	xor	s11,gp,s8
  1024f4:	be0c0a93          	add	s5,s8,-1056 # 6ef5bdac <_end+0x6ee2b387>
  1024f8:	9d811e23          	sh	s8,-1572(sp)
  1024fc:	a5811c03          	lh	s8,-1448(sp)
  102500:	018751b3          	srl	gp,a4,s8
  102504:	e4dce913          	or	s2,s9,-435

00102508 <b00000002d1>:
  102508:	00000033          	add	zero,zero,zero
  10250c:	f9cfcee3          	blt	t6,t3,1024a8 <i00000002cb>
  102510:	00000033          	add	zero,zero,zero
  102514:	7faff397          	auipc	t2,0x7faff
  102518:	41214883          	lbu	a7,1042(sp)
  10251c:	42012003          	lw	zero,1056(sp)
  102520:	003c3d33          	sltu	s10,s8,gp
  102524:	b4910e83          	lb	t4,-1207(sp)
  102528:	e7c15c03          	lhu	s8,-388(sp)
  10252c:	f5e1ad13          	slti	s10,gp,-162
  102530:	00a00f93          	li	t6,10

00102534 <i00000002d1>:
  102534:	be311123          	sh	gp,-1054(sp)

00102538 <i00000002d2>:
  102538:	4049d7b3          	sra	a5,s3,tp

0010253c <i00000002d3>:
  10253c:	9ce10d83          	lb	s11,-1586(sp)

00102540 <i00000002d4>:
  102540:	01ef5bb3          	srl	s7,t5,t5

00102544 <i00000002d5>:
  102544:	07011e03          	lh	t3,112(sp)

00102548 <i00000002d6>:
  102548:	002c1a13          	sll	s4,s8,0x2

0010254c <i00000002d7>:
  10254c:	a3c15183          	lhu	gp,-1476(sp)

00102550 <i00000002d8>:
  102550:	018f29b3          	slt	s3,t5,s8

00102554 <i00000002d9>:
  102554:	b1011783          	lh	a5,-1264(sp)
  102558:	0000e117          	auipc	sp,0xe
  10255c:	aa810113          	add	sp,sp,-1368 # 110000 <mem>
  102560:	00014337          	lui	t1,0x14
  102564:	43830313          	add	t1,t1,1080 # 14438 <_tbss_end+0x14438>
  102568:	00610133          	add	sp,sp,t1

0010256c <i00000002da>:
  10256c:	49615c03          	lhu	s8,1174(sp)

00102570 <i00000002db>:
  102570:	01384f33          	xor	t5,a6,s3

00102574 <i00000002dc>:
  102574:	f9e12c23          	sw	t5,-104(sp)

00102578 <i00000002dd>:
  102578:	59b54c13          	xor	s8,a0,1435

0010257c <i00000002de>:
  10257c:	00e29293          	sll	t0,t0,0xe

00102580 <i00000002df>:
  102580:	d6d10c03          	lb	s8,-659(sp)

00102584 <i00000002e0>:
  102584:	158109a3          	sb	s8,339(sp)
  102588:	0000e117          	auipc	sp,0xe
  10258c:	a7810113          	add	sp,sp,-1416 # 110000 <mem>
  102590:	00016337          	lui	t1,0x16
  102594:	a1830313          	add	t1,t1,-1512 # 15a18 <_tbss_end+0x15a18>
  102598:	00610133          	add	sp,sp,t1

0010259c <i00000002e1>:
  10259c:	19c11003          	lh	zero,412(sp)

001025a0 <i00000002e2>:
  1025a0:	d069c813          	xor	a6,s3,-762

001025a4 <i00000002e3>:
  1025a4:	01015383          	lhu	t2,16(sp)

001025a8 <i00000002e4>:
  1025a8:	31914b03          	lbu	s6,793(sp)
  1025ac:	00000c93          	li	s9,0
  1025b0:	0000e117          	auipc	sp,0xe
  1025b4:	a5010113          	add	sp,sp,-1456 # 110000 <mem>
  1025b8:	00016337          	lui	t1,0x16
  1025bc:	bf030313          	add	t1,t1,-1040 # 15bf0 <_tbss_end+0x15bf0>
  1025c0:	00610133          	add	sp,sp,t1
  1025c4:	0000e117          	auipc	sp,0xe
  1025c8:	a3c10113          	add	sp,sp,-1476 # 110000 <mem>
  1025cc:	0001e337          	lui	t1,0x1e
  1025d0:	6f030313          	add	t1,t1,1776 # 1e6f0 <_tbss_end+0x1e6f0>
  1025d4:	00610133          	add	sp,sp,t1
  1025d8:	78e12a23          	sw	a4,1940(sp)
  1025dc:	93f14803          	lbu	a6,-1729(sp)
  1025e0:	0137a933          	slt	s2,a5,s3
  1025e4:	00faec33          	or	s8,s5,a5
  1025e8:	d4c15983          	lhu	s3,-692(sp)
  1025ec:	46210d03          	lb	s10,1122(sp)
  1025f0:	daf14983          	lbu	s3,-593(sp)

001025f4 <b00000002e5>:
  1025f4:	00000033          	add	zero,zero,zero
  1025f8:	f99f86e3          	beq	t6,s9,102584 <i00000002e0>
  1025fc:	00000033          	add	zero,zero,zero
  102600:	0aa15983          	lhu	s3,170(sp)
  102604:	69612a23          	sw	s6,1684(sp)
  102608:	3b412983          	lw	s3,948(sp)
  10260c:	9b012a83          	lw	s5,-1616(sp)
  102610:	37710aa3          	sb	s7,885(sp)
  102614:	be010b83          	lb	s7,-1056(sp)
  102618:	1f212823          	sw	s2,496(sp)
  10261c:	00a00f93          	li	t6,10

00102620 <i00000002e5>:
  102620:	436da513          	slti	a0,s11,1078

00102624 <i00000002e6>:
  102624:	01ef5f33          	srl	t5,t5,t5

00102628 <i00000002e7>:
  102628:	01819d13          	sll	s10,gp,0x18

0010262c <i00000002e8>:
  10262c:	0031ff33          	and	t5,gp,gp

00102630 <i00000002e9>:
  102630:	0181d1b3          	srl	gp,gp,s8

00102634 <i00000002ea>:
  102634:	54311223          	sh	gp,1348(sp)

00102638 <i00000002eb>:
  102638:	9d3bb493          	sltiu	s1,s7,-1581

0010263c <i00000002ec>:
  10263c:	01e1ef33          	or	t5,gp,t5

00102640 <i00000002ed>:
  102640:	bd012783          	lw	a5,-1072(sp)

00102644 <i00000002ee>:
  102644:	3a614383          	lbu	t2,934(sp)

00102648 <i00000002ef>:
  102648:	07db5197          	auipc	gp,0x7db5

0010264c <i00000002f0>:
  10264c:	7e012c03          	lw	s8,2016(sp)

00102650 <i00000002f1>:
  102650:	08f14183          	lbu	gp,143(sp)

00102654 <i00000002f2>:
  102654:	01ec5f33          	srl	t5,s8,t5

00102658 <i00000002f3>:
  102658:	bc010183          	lb	gp,-1088(sp)

0010265c <i00000002f4>:
  10265c:	e3c10f03          	lb	t5,-452(sp)

00102660 <i00000002f5>:
  102660:	004deab3          	or	s5,s11,tp

00102664 <i00000002f6>:
  102664:	cac12f03          	lw	t5,-852(sp)

00102668 <i00000002f7>:
  102668:	55b56193          	or	gp,a0,1371
  10266c:	0000e117          	auipc	sp,0xe
  102670:	99410113          	add	sp,sp,-1644 # 110000 <mem>
  102674:	00019337          	lui	t1,0x19
  102678:	1c830313          	add	t1,t1,456 # 191c8 <_tbss_end+0x191c8>
  10267c:	00610133          	add	sp,sp,t1

00102680 <i00000002f8>:
  102680:	9d410c03          	lb	s8,-1580(sp)
  102684:	0000e117          	auipc	sp,0xe
  102688:	97c10113          	add	sp,sp,-1668 # 110000 <mem>
  10268c:	00009337          	lui	t1,0x9
  102690:	61830313          	add	t1,t1,1560 # 9618 <_tbss_end+0x9618>
  102694:	00610133          	add	sp,sp,t1
  102698:	52012c03          	lw	s8,1312(sp)
  10269c:	7a473993          	sltiu	s3,a4,1956
  1026a0:	3c61c193          	xor	gp,gp,966
  1026a4:	6a614803          	lbu	a6,1702(sp)
  1026a8:	4b812c83          	lw	s9,1208(sp)
  1026ac:	0fe11003          	lh	zero,254(sp)
  1026b0:	33815983          	lhu	s3,824(sp)

001026b4 <b00000002f9>:
  1026b4:	00000a17          	auipc	s4,0x0
  1026b8:	044a0a13          	add	s4,s4,68 # 1026f8 <i0000000300>
  1026bc:	000a0567          	jalr	a0,s4
  1026c0:	96011c03          	lh	s8,-1696(sp)
  1026c4:	bb810983          	lb	s3,-1096(sp)
  1026c8:	bfb12223          	sw	s11,-1052(sp)
  1026cc:	aa310d23          	sb	gp,-1350(sp)
  1026d0:	007c1e13          	sll	t3,s8,0x7
  1026d4:	742e2c13          	slti	s8,t3,1858
  1026d8:	59310983          	lb	s3,1427(sp)

001026dc <i00000002f9>:
  1026dc:	40211183          	lh	gp,1026(sp)

001026e0 <i00000002fa>:
  1026e0:	89611823          	sh	s6,-1904(sp)

001026e4 <i00000002fb>:
  1026e4:	418c5d33          	sra	s10,s8,s8

001026e8 <i00000002fc>:
  1026e8:	003f2e33          	slt	t3,t5,gp

001026ec <i00000002fd>:
  1026ec:	40dd5d93          	sra	s11,s10,0xd

001026f0 <i00000002fe>:
  1026f0:	92812183          	lw	gp,-1752(sp)

001026f4 <i00000002ff>:
  1026f4:	7a812c03          	lw	s8,1960(sp)

001026f8 <i0000000300>:
  1026f8:	019b9193          	sll	gp,s7,0x19

001026fc <i0000000301>:
  1026fc:	01331c33          	sll	s8,t1,s3

00102700 <i0000000302>:
  102700:	4fb97d13          	and	s10,s2,1275

00102704 <i0000000303>:
  102704:	fde102a3          	sb	t5,-59(sp)
  102708:	0000e117          	auipc	sp,0xe
  10270c:	8f810113          	add	sp,sp,-1800 # 110000 <mem>
  102710:	00019337          	lui	t1,0x19
  102714:	e7030313          	add	t1,t1,-400 # 18e70 <_tbss_end+0x18e70>
  102718:	00610133          	add	sp,sp,t1

0010271c <i0000000304>:
  10271c:	a6615d03          	lhu	s10,-1434(sp)
  102720:	0000e117          	auipc	sp,0xe
  102724:	8e010113          	add	sp,sp,-1824 # 110000 <mem>
  102728:	00008337          	lui	t1,0x8
  10272c:	19830313          	add	t1,t1,408 # 8198 <_tbss_end+0x8198>
  102730:	00610133          	add	sp,sp,t1

00102734 <i0000000305>:
  102734:	b4812f03          	lw	t5,-1208(sp)

00102738 <i0000000306>:
  102738:	66d12023          	sw	a3,1632(sp)

0010273c <i0000000307>:
  10273c:	e7214c03          	lbu	s8,-398(sp)

00102740 <i0000000308>:
  102740:	e0410603          	lb	a2,-508(sp)

00102744 <i0000000309>:
  102744:	009751b3          	srl	gp,a4,s1

00102748 <i000000030a>:
  102748:	65611c03          	lh	s8,1622(sp)

0010274c <i000000030b>:
  10274c:	015a5f33          	srl	t5,s4,s5

00102750 <i000000030c>:
  102750:	ec1f0f13          	add	t5,t5,-319
  102754:	00900d93          	li	s11,9
  102758:	00a00f93          	li	t6,10
  10275c:	0000e117          	auipc	sp,0xe
  102760:	8a410113          	add	sp,sp,-1884 # 110000 <mem>
  102764:	0001d337          	lui	t1,0x1d
  102768:	e7030313          	add	t1,t1,-400 # 1ce70 <_tbss_end+0x1ce70>
  10276c:	00610133          	add	sp,sp,t1
  102770:	0000e117          	auipc	sp,0xe
  102774:	89010113          	add	sp,sp,-1904 # 110000 <mem>
  102778:	0000e337          	lui	t1,0xe
  10277c:	4b830313          	add	t1,t1,1208 # e4b8 <_tbss_end+0xe4b8>
  102780:	00610133          	add	sp,sp,t1
  102784:	64e15183          	lhu	gp,1614(sp)
  102788:	9e410183          	lb	gp,-1564(sp)
  10278c:	00814203          	lbu	tp,8(sp)
  102790:	0181ac33          	slt	s8,gp,s8
  102794:	16414983          	lbu	s3,356(sp)
  102798:	08e10623          	sb	a4,140(sp)
  10279c:	ce312823          	sw	gp,-784(sp)

001027a0 <b000000030d>:
  1027a0:	00000033          	add	zero,zero,zero
  1027a4:	05fdd863          	bge	s11,t6,1027f4 <i0000000312>
  1027a8:	00000033          	add	zero,zero,zero
  1027ac:	9c597193          	and	gp,s2,-1595
  1027b0:	01025c13          	srl	s8,tp,0x10
  1027b4:	00e1fe33          	and	t3,gp,a4
  1027b8:	45e11783          	lh	a5,1118(sp)
  1027bc:	68012c03          	lw	s8,1664(sp)
  1027c0:	98e11c23          	sh	a4,-1640(sp)
  1027c4:	0e2c3197          	auipc	gp,0xe2c3
  1027c8:	00a00f93          	li	t6,10

001027cc <i000000030d>:
  1027cc:	00b5e9b3          	or	s3,a1,a1

001027d0 <i000000030e>:
  1027d0:	8821ff13          	and	t5,gp,-1918
  1027d4:	0000e117          	auipc	sp,0xe
  1027d8:	82c10113          	add	sp,sp,-2004 # 110000 <mem>
  1027dc:	00018337          	lui	t1,0x18
  1027e0:	66830313          	add	t1,t1,1640 # 18668 <_tbss_end+0x18668>
  1027e4:	00610133          	add	sp,sp,t1

001027e8 <i000000030f>:
  1027e8:	db812f03          	lw	t5,-584(sp)

001027ec <i0000000310>:
  1027ec:	2b811023          	sh	s8,672(sp)

001027f0 <i0000000311>:
  1027f0:	dfe15483          	lhu	s1,-514(sp)

001027f4 <i0000000312>:
  1027f4:	003f27b3          	slt	a5,t5,gp

001027f8 <i0000000313>:
  1027f8:	29ac0c13          	add	s8,s8,666

001027fc <i0000000314>:
  1027fc:	fa312223          	sw	gp,-92(sp)

00102800 <i0000000315>:
  102800:	41188f33          	sub	t5,a7,a7

00102804 <i0000000316>:
  102804:	e7e03193          	sltiu	gp,zero,-386

00102808 <i0000000317>:
  102808:	1f811823          	sh	s8,496(sp)

0010280c <i0000000318>:
  10280c:	47410ba3          	sb	s4,1143(sp)

00102810 <i0000000319>:
  102810:	0c215183          	lhu	gp,194(sp)

00102814 <i000000031a>:
  102814:	53c15c83          	lhu	s9,1340(sp)

00102818 <i000000031b>:
  102818:	02215183          	lhu	gp,34(sp)

0010281c <i000000031c>:
  10281c:	23a39c17          	auipc	s8,0x23a39

00102820 <i000000031d>:
  102820:	003f5f33          	srl	t5,t5,gp

00102824 <i000000031e>:
  102824:	01419713          	sll	a4,gp,0x14

00102828 <i000000031f>:
  102828:	5a89ec13          	or	s8,s3,1448

0010282c <i0000000320>:
  10282c:	bc8f0e93          	add	t4,t5,-1080
  102830:	00b00a13          	li	s4,11
  102834:	00a00f93          	li	t6,10
  102838:	009c1993          	sll	s3,s8,0x9
  10283c:	45411803          	lh	a6,1108(sp)
  102840:	ff6c4393          	xor	t2,s8,-10
  102844:	01ccfc33          	and	s8,s9,t3
  102848:	0543a197          	auipc	gp,0x543a
  10284c:	4181d9b3          	sra	s3,gp,s8
  102850:	05d100a3          	sb	t4,65(sp)

00102854 <b0000000321>:
  102854:	00000033          	add	zero,zero,zero
  102858:	094f9063          	bne	t6,s4,1028d8 <i000000032d>
  10285c:	00000033          	add	zero,zero,zero
  102860:	01245c13          	srl	s8,s0,0x12
  102864:	01bceab3          	or	s5,s9,s11
  102868:	fa312c23          	sw	gp,-72(sp)
  10286c:	71511823          	sh	s5,1808(sp)
  102870:	015cecb3          	or	s9,s9,s5
  102874:	96b10e03          	lb	t3,-1685(sp)
  102878:	0197d713          	srl	a4,a5,0x19
  10287c:	00a00f93          	li	t6,10

00102880 <i0000000321>:
  102880:	009bd1b3          	srl	gp,s7,s1

00102884 <i0000000322>:
  102884:	0181a1b3          	slt	gp,gp,s8

00102888 <i0000000323>:
  102888:	14912e23          	sw	s1,348(sp)

0010288c <i0000000324>:
  10288c:	10827c13          	and	s8,tp,264
  102890:	0000d117          	auipc	sp,0xd
  102894:	77010113          	add	sp,sp,1904 # 110000 <mem>
  102898:	0000d337          	lui	t1,0xd
  10289c:	1e830313          	add	t1,t1,488 # d1e8 <_tbss_end+0xd1e8>
  1028a0:	00610133          	add	sp,sp,t1

001028a4 <i0000000325>:
  1028a4:	71615583          	lhu	a1,1814(sp)

001028a8 <i0000000326>:
  1028a8:	635db197          	auipc	gp,0x635db

001028ac <i0000000327>:
  1028ac:	018f61b3          	or	gp,t5,s8

001028b0 <i0000000328>:
  1028b0:	35410603          	lb	a2,852(sp)

001028b4 <i0000000329>:
  1028b4:	0127ff33          	and	t5,a5,s2

001028b8 <i000000032a>:
  1028b8:	a3d14803          	lbu	a6,-1475(sp)
  1028bc:	0000d117          	auipc	sp,0xd
  1028c0:	74410113          	add	sp,sp,1860 # 110000 <mem>
  1028c4:	00004337          	lui	t1,0x4
  1028c8:	97830313          	add	t1,t1,-1672 # 3978 <_tbss_end+0x3978>
  1028cc:	00610133          	add	sp,sp,t1

001028d0 <i000000032b>:
  1028d0:	fe611603          	lh	a2,-26(sp)

001028d4 <i000000032c>:
  1028d4:	4167dc13          	sra	s8,a5,0x16

001028d8 <i000000032d>:
  1028d8:	1e497193          	and	gp,s2,484

001028dc <i000000032e>:
  1028dc:	db31bc13          	sltiu	s8,gp,-589

001028e0 <i000000032f>:
  1028e0:	018f41b3          	xor	gp,t5,s8

001028e4 <i0000000330>:
  1028e4:	0142e633          	or	a2,t0,s4
  1028e8:	0000d117          	auipc	sp,0xd
  1028ec:	71810113          	add	sp,sp,1816 # 110000 <mem>
  1028f0:	00002337          	lui	t1,0x2
  1028f4:	bd830313          	add	t1,t1,-1064 # 1bd8 <_tbss_end+0x1bd8>
  1028f8:	00610133          	add	sp,sp,t1

001028fc <i0000000331>:
  1028fc:	4c812e23          	sw	s0,1244(sp)

00102900 <i0000000332>:
  102900:	c23105a3          	sb	gp,-981(sp)

00102904 <i0000000333>:
  102904:	12a77b13          	and	s6,a4,298

00102908 <i0000000334>:
  102908:	c1e10523          	sb	t5,-1014(sp)
  10290c:	00a00e93          	li	t4,10
  102910:	0000d117          	auipc	sp,0xd
  102914:	6f010113          	add	sp,sp,1776 # 110000 <mem>
  102918:	00007337          	lui	t1,0x7
  10291c:	64030313          	add	t1,t1,1600 # 7640 <_tbss_end+0x7640>
  102920:	00610133          	add	sp,sp,t1
  102924:	49c12183          	lw	gp,1180(sp)
  102928:	19879437          	lui	s0,0x19879
  10292c:	9bc12903          	lw	s2,-1604(sp)
  102930:	20310d23          	sb	gp,538(sp)
  102934:	00e75c33          	srl	s8,a4,a4
  102938:	01141813          	sll	a6,s0,0x11
  10293c:	22812a03          	lw	s4,552(sp)

00102940 <b0000000335>:
  102940:	01df8863          	beq	t6,t4,102950 <b0000000335+0x10>
  102944:	00000e97          	auipc	t4,0x0
  102948:	f8ce8e93          	add	t4,t4,-116 # 1028d0 <i000000032b>
  10294c:	000e8567          	jalr	a0,t4
  102950:	00a00f93          	li	t6,10
  102954:	b8a11003          	lh	zero,-1142(sp)
  102958:	09511c23          	sh	s5,152(sp)
  10295c:	148ce993          	or	s3,s9,328
  102960:	0148dc13          	srl	s8,a7,0x14
  102964:	018c59b3          	srl	s3,s8,s8
  102968:	7a370193          	add	gp,a4,1955 # 496ea887 <_end+0x495b9e62>
  10296c:	2e3db793          	sltiu	a5,s11,739
  102970:	0000d117          	auipc	sp,0xd
  102974:	69010113          	add	sp,sp,1680 # 110000 <mem>
  102978:	0000f337          	lui	t1,0xf
  10297c:	c6830313          	add	t1,t1,-920 # ec68 <_tbss_end+0xec68>
  102980:	00610133          	add	sp,sp,t1

00102984 <i0000000335>:
  102984:	cc012f03          	lw	t5,-832(sp)

00102988 <i0000000336>:
  102988:	41ec0c33          	sub	s8,s8,t5

0010298c <i0000000337>:
  10298c:	4031d733          	sra	a4,gp,gp

00102990 <i0000000338>:
  102990:	f7e14c03          	lbu	s8,-130(sp)

00102994 <i0000000339>:
  102994:	b4bc4b93          	xor	s7,s8,-1205

00102998 <i000000033a>:
  102998:	43812a23          	sw	s8,1076(sp)
  10299c:	0000d117          	auipc	sp,0xd
  1029a0:	66410113          	add	sp,sp,1636 # 110000 <mem>
  1029a4:	0000a337          	lui	t1,0xa
  1029a8:	74030313          	add	t1,t1,1856 # a740 <_tbss_end+0xa740>
  1029ac:	00610133          	add	sp,sp,t1

001029b0 <i000000033b>:
  1029b0:	86110983          	lb	s3,-1951(sp)

001029b4 <i000000033c>:
  1029b4:	018c1c33          	sll	s8,s8,s8

001029b8 <i000000033d>:
  1029b8:	00f74ab3          	xor	s5,a4,a5

001029bc <i000000033e>:
  1029bc:	00695613          	srl	a2,s2,0x6
  1029c0:	0000d117          	auipc	sp,0xd
  1029c4:	64010113          	add	sp,sp,1600 # 110000 <mem>
  1029c8:	0000d337          	lui	t1,0xd
  1029cc:	7b830313          	add	t1,t1,1976 # d7b8 <_tbss_end+0xd7b8>
  1029d0:	00610133          	add	sp,sp,t1

001029d4 <i000000033f>:
  1029d4:	bef10403          	lb	s0,-1041(sp)

001029d8 <i0000000340>:
  1029d8:	27010003          	lb	zero,624(sp)

001029dc <i0000000341>:
  1029dc:	04a15603          	lhu	a2,74(sp)

001029e0 <i0000000342>:
  1029e0:	c4410223          	sb	tp,-956(sp)

001029e4 <i0000000343>:
  1029e4:	62012183          	lw	gp,1568(sp)

001029e8 <i0000000344>:
  1029e8:	d3fc6c13          	or	s8,s8,-705

001029ec <i0000000345>:
  1029ec:	00271e93          	sll	t4,a4,0x2

001029f0 <i0000000346>:
  1029f0:	00e58e33          	add	t3,a1,a4

001029f4 <i0000000347>:
  1029f4:	404a5993          	sra	s3,s4,0x4

001029f8 <i0000000348>:
  1029f8:	19e7e193          	or	gp,a5,414
  1029fc:	00c00a93          	li	s5,12
  102a00:	00a00f93          	li	t6,10
  102a04:	018c03b3          	add	t2,s8,s8
  102a08:	dfd14e83          	lbu	t4,-515(sp)
  102a0c:	7b812823          	sw	s8,1968(sp)
  102a10:	00e1a1b3          	slt	gp,gp,a4
  102a14:	f1414b03          	lbu	s6,-236(sp)
  102a18:	a7772413          	slti	s0,a4,-1417
  102a1c:	003c29b3          	slt	s3,s8,gp

00102a20 <b0000000349>:
  102a20:	00000033          	add	zero,zero,zero
  102a24:	095fc463          	blt	t6,s5,102aac <i0000000357>
  102a28:	00000033          	add	zero,zero,zero
  102a2c:	22deec37          	lui	s8,0x22dee
  102a30:	4bb73b13          	sltiu	s6,a4,1211
  102a34:	74e14183          	lbu	gp,1870(sp)
  102a38:	55412783          	lw	a5,1364(sp)
  102a3c:	772ee9b7          	lui	s3,0x772ee
  102a40:	00445b13          	srl	s6,s0,0x4
  102a44:	9b9c7c13          	and	s8,s8,-1607
  102a48:	00a00f93          	li	t6,10
  102a4c:	0000d117          	auipc	sp,0xd
  102a50:	5b410113          	add	sp,sp,1460 # 110000 <mem>
  102a54:	00012337          	lui	t1,0x12
  102a58:	d0030313          	add	t1,t1,-768 # 11d00 <_tbss_end+0x11d00>
  102a5c:	00610133          	add	sp,sp,t1

00102a60 <i0000000349>:
  102a60:	c5810323          	sb	s8,-954(sp)

00102a64 <i000000034a>:
  102a64:	0fc11183          	lh	gp,252(sp)

00102a68 <i000000034b>:
  102a68:	c7510183          	lb	gp,-907(sp)

00102a6c <i000000034c>:
  102a6c:	34454193          	xor	gp,a0,836

00102a70 <i000000034d>:
  102a70:	b4c11623          	sh	a2,-1204(sp)

00102a74 <i000000034e>:
  102a74:	71de6037          	lui	zero,0x71de6

00102a78 <i000000034f>:
  102a78:	0c011283          	lh	t0,192(sp)

00102a7c <i0000000350>:
  102a7c:	a38107a3          	sb	s8,-1489(sp)
  102a80:	0000d117          	auipc	sp,0xd
  102a84:	58010113          	add	sp,sp,1408 # 110000 <mem>
  102a88:	0000c337          	lui	t1,0xc
  102a8c:	6d030313          	add	t1,t1,1744 # c6d0 <_tbss_end+0xc6d0>
  102a90:	00610133          	add	sp,sp,t1

00102a94 <i0000000351>:
  102a94:	fda14183          	lbu	gp,-38(sp)

00102a98 <i0000000352>:
  102a98:	87815583          	lhu	a1,-1928(sp)

00102a9c <i0000000353>:
  102a9c:	e4920713          	add	a4,tp,-439 # fffffe49 <_end+0xffecf424>

00102aa0 <i0000000354>:
  102aa0:	4f3c6193          	or	gp,s8,1267

00102aa4 <i0000000355>:
  102aa4:	58812c03          	lw	s8,1416(sp)

00102aa8 <i0000000356>:
  102aa8:	1d810ca3          	sb	s8,473(sp)

00102aac <i0000000357>:
  102aac:	61aa5b37          	lui	s6,0x61aa5

00102ab0 <i0000000358>:
  102ab0:	37c56037          	lui	zero,0x37c56

00102ab4 <i0000000359>:
  102ab4:	24012e03          	lw	t3,576(sp)

00102ab8 <i000000035a>:
  102ab8:	018f2d33          	slt	s10,t5,s8

00102abc <i000000035b>:
  102abc:	3eb18f13          	add	t5,gp,1003 # 636ddc93 <_end+0x635ad26e>

00102ac0 <i000000035c>:
  102ac0:	00b31013          	sll	zero,t1,0xb
  102ac4:	00c00a93          	li	s5,12
  102ac8:	001f8f93          	add	t6,t6,1
  102acc:	008e79b3          	and	s3,t3,s0
  102ad0:	003c2eb3          	slt	t4,s8,gp
  102ad4:	008c1d13          	sll	s10,s8,0x8
  102ad8:	03c12983          	lw	s3,60(sp)
  102adc:	4137d433          	sra	s0,a5,s3
  102ae0:	a98108a3          	sb	s8,-1391(sp)
  102ae4:	72e11d23          	sh	a4,1850(sp)

00102ae8 <b000000035d>:
  102ae8:	00000033          	add	zero,zero,zero
  102aec:	fdfad0e3          	bge	s5,t6,102aac <i0000000357>
  102af0:	00000033          	add	zero,zero,zero
  102af4:	fedc3813          	sltiu	a6,s8,-19
  102af8:	00e73733          	sltu	a4,a4,a4
  102afc:	401c5213          	sra	tp,s8,0x1
  102b00:	002c5713          	srl	a4,s8,0x2
  102b04:	014beeb3          	or	t4,s7,s4
  102b08:	3831a193          	slti	gp,gp,899
  102b0c:	7c812c03          	lw	s8,1992(sp)
  102b10:	00a00f93          	li	t6,10
  102b14:	0000d117          	auipc	sp,0xd
  102b18:	4ec10113          	add	sp,sp,1260 # 110000 <mem>
  102b1c:	0000f337          	lui	t1,0xf
  102b20:	3a830313          	add	t1,t1,936 # f3a8 <_tbss_end+0xf3a8>
  102b24:	00610133          	add	sp,sp,t1

00102b28 <i000000035d>:
  102b28:	6e714683          	lbu	a3,1767(sp)

00102b2c <i000000035e>:
  102b2c:	b2f14683          	lbu	a3,-1233(sp)
  102b30:	0000d117          	auipc	sp,0xd
  102b34:	4d010113          	add	sp,sp,1232 # 110000 <mem>
  102b38:	0001c337          	lui	t1,0x1c
  102b3c:	91030313          	add	t1,t1,-1776 # 1b910 <_tbss_end+0x1b910>
  102b40:	00610133          	add	sp,sp,t1

00102b44 <i000000035f>:
  102b44:	13211c03          	lh	s8,306(sp)

00102b48 <i0000000360>:
  102b48:	d1c12303          	lw	t1,-740(sp)

00102b4c <i0000000361>:
  102b4c:	7a215c03          	lhu	s8,1954(sp)

00102b50 <i0000000362>:
  102b50:	017ddf13          	srl	t5,s11,0x17

00102b54 <i0000000363>:
  102b54:	04215283          	lhu	t0,66(sp)

00102b58 <i0000000364>:
  102b58:	1b88b713          	sltiu	a4,a7,440

00102b5c <i0000000365>:
  102b5c:	617cdf37          	lui	t5,0x617cd

00102b60 <i0000000366>:
  102b60:	27b1fc13          	and	s8,gp,635

00102b64 <i0000000367>:
  102b64:	a7812c03          	lw	s8,-1416(sp)

00102b68 <i0000000368>:
  102b68:	000e51b3          	srl	gp,t3,zero

00102b6c <i0000000369>:
  102b6c:	d2bf3c13          	sltiu	s8,t5,-725

00102b70 <i000000036a>:
  102b70:	2aec7f37          	lui	t5,0x2aec7

00102b74 <i000000036b>:
  102b74:	45610b97          	auipc	s7,0x45610

00102b78 <i000000036c>:
  102b78:	09714e83          	lbu	t4,151(sp)

00102b7c <i000000036d>:
  102b7c:	1ac12c03          	lw	s8,428(sp)
  102b80:	0000d117          	auipc	sp,0xd
  102b84:	48010113          	add	sp,sp,1152 # 110000 <mem>
  102b88:	00018337          	lui	t1,0x18
  102b8c:	5b830313          	add	t1,t1,1464 # 185b8 <_tbss_end+0x185b8>
  102b90:	00610133          	add	sp,sp,t1

00102b94 <i000000036e>:
  102b94:	16c11183          	lh	gp,364(sp)
  102b98:	0000d117          	auipc	sp,0xd
  102b9c:	46810113          	add	sp,sp,1128 # 110000 <mem>
  102ba0:	0000a337          	lui	t1,0xa
  102ba4:	7c830313          	add	t1,t1,1992 # a7c8 <_tbss_end+0xa7c8>
  102ba8:	00610133          	add	sp,sp,t1

00102bac <i000000036f>:
  102bac:	15811d23          	sh	s8,346(sp)

00102bb0 <i0000000370>:
  102bb0:	d5014c03          	lbu	s8,-688(sp)
  102bb4:	00c00e93          	li	t4,12
  102bb8:	001f8f93          	add	t6,t6,1
  102bbc:	0000d117          	auipc	sp,0xd
  102bc0:	44410113          	add	sp,sp,1092 # 110000 <mem>
  102bc4:	0001c337          	lui	t1,0x1c
  102bc8:	a4830313          	add	t1,t1,-1464 # 1ba48 <_tbss_end+0x1ba48>
  102bcc:	00610133          	add	sp,sp,t1
  102bd0:	0000d117          	auipc	sp,0xd
  102bd4:	43010113          	add	sp,sp,1072 # 110000 <mem>
  102bd8:	00016337          	lui	t1,0x16
  102bdc:	fe830313          	add	t1,t1,-24 # 15fe8 <_tbss_end+0x15fe8>
  102be0:	00610133          	add	sp,sp,t1
  102be4:	0000d117          	auipc	sp,0xd
  102be8:	41c10113          	add	sp,sp,1052 # 110000 <mem>
  102bec:	00007337          	lui	t1,0x7
  102bf0:	19030313          	add	t1,t1,400 # 7190 <_tbss_end+0x7190>
  102bf4:	00610133          	add	sp,sp,t1
  102bf8:	0000d117          	auipc	sp,0xd
  102bfc:	40810113          	add	sp,sp,1032 # 110000 <mem>
  102c00:	00019337          	lui	t1,0x19
  102c04:	f2830313          	add	t1,t1,-216 # 18f28 <_tbss_end+0x18f28>
  102c08:	00610133          	add	sp,sp,t1
  102c0c:	008b9733          	sll	a4,s7,s0
  102c10:	526c0993          	add	s3,s8,1318 # 22dee526 <_end+0x22cbdb01>
  102c14:	b0f10423          	sb	a5,-1272(sp)
  102c18:	75710b03          	lb	s6,1879(sp)
  102c1c:	0047e433          	or	s0,a5,tp
  102c20:	00ec67b3          	or	a5,s8,a4
  102c24:	e8410223          	sb	tp,-380(sp)

00102c28 <b0000000371>:
  102c28:	01df8463          	beq	t6,t4,102c30 <b0000000371+0x8>
  102c2c:	f3dff56f          	jal	a0,102b68 <i0000000368>
  102c30:	00a00f93          	li	t6,10
  102c34:	829df213          	and	tp,s11,-2007
  102c38:	013cf1b3          	and	gp,s9,s3
  102c3c:	82c15983          	lhu	s3,-2004(sp)
  102c40:	408cdc13          	sra	s8,s9,0x8
  102c44:	45215b83          	lhu	s7,1106(sp)
  102c48:	46412783          	lw	a5,1124(sp)
  102c4c:	70f4d997          	auipc	s3,0x70f4d
  102c50:	0000d117          	auipc	sp,0xd
  102c54:	3b010113          	add	sp,sp,944 # 110000 <mem>
  102c58:	00001337          	lui	t1,0x1
  102c5c:	4c830313          	add	t1,t1,1224 # 14c8 <_tbss_end+0x14c8>
  102c60:	00610133          	add	sp,sp,t1

00102c64 <i0000000371>:
  102c64:	b6e11723          	sh	a4,-1170(sp)

00102c68 <i0000000372>:
  102c68:	018f1ab3          	sll	s5,t5,s8

00102c6c <i0000000373>:
  102c6c:	00311523          	sh	gp,10(sp)

00102c70 <i0000000374>:
  102c70:	df114c03          	lbu	s8,-527(sp)

00102c74 <i0000000375>:
  102c74:	fb811523          	sh	s8,-86(sp)

00102c78 <i0000000376>:
  102c78:	894c7d13          	and	s10,s8,-1900

00102c7c <i0000000377>:
  102c7c:	0a314183          	lbu	gp,163(sp)
  102c80:	0000d117          	auipc	sp,0xd
  102c84:	38010113          	add	sp,sp,896 # 110000 <mem>
  102c88:	0000a337          	lui	t1,0xa
  102c8c:	4d830313          	add	t1,t1,1240 # a4d8 <_tbss_end+0xa4d8>
  102c90:	00610133          	add	sp,sp,t1

00102c94 <i0000000378>:
  102c94:	0bc11a83          	lh	s5,188(sp)
  102c98:	0000d117          	auipc	sp,0xd
  102c9c:	36810113          	add	sp,sp,872 # 110000 <mem>
  102ca0:	00006337          	lui	t1,0x6
  102ca4:	90830313          	add	t1,t1,-1784 # 5908 <_tbss_end+0x5908>
  102ca8:	00610133          	add	sp,sp,t1

00102cac <i0000000379>:
  102cac:	54a11403          	lh	s0,1354(sp)

00102cb0 <i000000037a>:
  102cb0:	018c1933          	sll	s2,s8,s8

00102cb4 <i000000037b>:
  102cb4:	ab615183          	lhu	gp,-1354(sp)

00102cb8 <i000000037c>:
  102cb8:	16812c23          	sw	s0,376(sp)

00102cbc <i000000037d>:
  102cbc:	2171cc13          	xor	s8,gp,535

00102cc0 <i000000037e>:
  102cc0:	01d54f33          	xor	t5,a0,t4

00102cc4 <i000000037f>:
  102cc4:	6673e013          	or	zero,t2,1639

00102cc8 <i0000000380>:
  102cc8:	91811f03          	lh	t5,-1768(sp)

00102ccc <i0000000381>:
  102ccc:	28812c03          	lw	s8,648(sp)

00102cd0 <i0000000382>:
  102cd0:	09714a83          	lbu	s5,151(sp)

00102cd4 <i0000000383>:
  102cd4:	0e312223          	sw	gp,228(sp)

00102cd8 <i0000000384>:
  102cd8:	01bb7f33          	and	t5,s6,s11
  102cdc:	00c00813          	li	a6,12
  102ce0:	00a00f93          	li	t6,10
  102ce4:	0000d117          	auipc	sp,0xd
  102ce8:	31c10113          	add	sp,sp,796 # 110000 <mem>
  102cec:	0001b337          	lui	t1,0x1b
  102cf0:	95830313          	add	t1,t1,-1704 # 1a958 <_tbss_end+0x1a958>
  102cf4:	00610133          	add	sp,sp,t1
  102cf8:	0000d117          	auipc	sp,0xd
  102cfc:	30810113          	add	sp,sp,776 # 110000 <mem>
  102d00:	00018337          	lui	t1,0x18
  102d04:	63030313          	add	t1,t1,1584 # 18630 <_tbss_end+0x18630>
  102d08:	00610133          	add	sp,sp,t1
  102d0c:	01871c33          	sll	s8,a4,s8
  102d10:	01295e33          	srl	t3,s2,s2
  102d14:	018c5393          	srl	t2,s8,0x18
  102d18:	595b1d17          	auipc	s10,0x595b1
  102d1c:	403c0733          	sub	a4,s8,gp
  102d20:	d1814a03          	lbu	s4,-744(sp)
  102d24:	f2f11523          	sh	a5,-214(sp)

00102d28 <b0000000385>:
  102d28:	00000033          	add	zero,zero,zero
  102d2c:	090fc463          	blt	t6,a6,102db4 <i000000038e>
  102d30:	00000033          	add	zero,zero,zero
  102d34:	b9610183          	lb	gp,-1130(sp)
  102d38:	33030cb7          	lui	s9,0x33030
  102d3c:	41200d33          	neg	s10,s2
  102d40:	2471a713          	slti	a4,gp,583
  102d44:	007bd713          	srl	a4,s7,0x7
  102d48:	e2312423          	sw	gp,-472(sp)
  102d4c:	0c2abc37          	lui	s8,0xc2ab
  102d50:	00a00f93          	li	t6,10
  102d54:	0000d117          	auipc	sp,0xd
  102d58:	2ac10113          	add	sp,sp,684 # 110000 <mem>
  102d5c:	0001f337          	lui	t1,0x1f
  102d60:	98830313          	add	t1,t1,-1656 # 1e988 <_tbss_end+0x1e988>
  102d64:	00610133          	add	sp,sp,t1

00102d68 <i0000000385>:
  102d68:	70914683          	lbu	a3,1801(sp)

00102d6c <i0000000386>:
  102d6c:	e7810123          	sb	s8,-414(sp)

00102d70 <i0000000387>:
  102d70:	80b1ec13          	or	s8,gp,-2037
  102d74:	0000d117          	auipc	sp,0xd
  102d78:	28c10113          	add	sp,sp,652 # 110000 <mem>
  102d7c:	0001c337          	lui	t1,0x1c
  102d80:	b8030313          	add	t1,t1,-1152 # 1bb80 <_tbss_end+0x1bb80>
  102d84:	00610133          	add	sp,sp,t1

00102d88 <i0000000388>:
  102d88:	e9914183          	lbu	gp,-359(sp)

00102d8c <i0000000389>:
  102d8c:	a7810ba3          	sb	s8,-1417(sp)

00102d90 <i000000038a>:
  102d90:	015c8c33          	add	s8,s9,s5

00102d94 <i000000038b>:
  102d94:	009f5b93          	srl	s7,t5,0x9

00102d98 <i000000038c>:
  102d98:	005b34b3          	sltu	s1,s6,t0

00102d9c <i000000038d>:
  102d9c:	017d41b3          	xor	gp,s10,s7
  102da0:	0000d117          	auipc	sp,0xd
  102da4:	26010113          	add	sp,sp,608 # 110000 <mem>
  102da8:	0000a337          	lui	t1,0xa
  102dac:	ab030313          	add	t1,t1,-1360 # 9ab0 <_tbss_end+0x9ab0>
  102db0:	00610133          	add	sp,sp,t1

00102db4 <i000000038e>:
  102db4:	b3d10183          	lb	gp,-1219(sp)

00102db8 <i000000038f>:
  102db8:	01775393          	srl	t2,a4,0x17

00102dbc <i0000000390>:
  102dbc:	00f3ca33          	xor	s4,t2,a5

00102dc0 <i0000000391>:
  102dc0:	8b812f03          	lw	t5,-1864(sp)

00102dc4 <i0000000392>:
  102dc4:	4fbc2c13          	slti	s8,s8,1275
  102dc8:	0000d117          	auipc	sp,0xd
  102dcc:	23810113          	add	sp,sp,568 # 110000 <mem>
  102dd0:	00010337          	lui	t1,0x10
  102dd4:	45830313          	add	t1,t1,1112 # 10458 <_tbss_end+0x10458>
  102dd8:	00610133          	add	sp,sp,t1

00102ddc <i0000000393>:
  102ddc:	f7e11a23          	sh	t5,-140(sp)
  102de0:	0000d117          	auipc	sp,0xd
  102de4:	22010113          	add	sp,sp,544 # 110000 <mem>
  102de8:	00007337          	lui	t1,0x7
  102dec:	4b830313          	add	t1,t1,1208 # 74b8 <_tbss_end+0x74b8>
  102df0:	00610133          	add	sp,sp,t1

00102df4 <i0000000394>:
  102df4:	f1810ca3          	sb	s8,-231(sp)

00102df8 <i0000000395>:
  102df8:	99a11b23          	sh	s10,-1642(sp)

00102dfc <i0000000396>:
  102dfc:	0864cf13          	xor	t5,s1,134

00102e00 <i0000000397>:
  102e00:	81812823          	sw	s8,-2032(sp)

00102e04 <i0000000398>:
  102e04:	9b812e23          	sw	s8,-1604(sp)
  102e08:	8fa10983          	lb	s3,-1798(sp)
  102e0c:	3e414983          	lbu	s3,996(sp)
  102e10:	08647193          	and	gp,s0,134
  102e14:	003713b3          	sll	t2,a4,gp
  102e18:	eec10c83          	lb	s9,-276(sp)
  102e1c:	70d1ea97          	auipc	s5,0x70d1e
  102e20:	96314183          	lbu	gp,-1693(sp)

00102e24 <b0000000399>:
  102e24:	00000e17          	auipc	t3,0x0
  102e28:	03ce0e13          	add	t3,t3,60 # 102e60 <i000000039e>
  102e2c:	000e0567          	jalr	a0,t3
  102e30:	eab1ea93          	or	s5,gp,-341
  102e34:	01ab4733          	xor	a4,s6,s10
  102e38:	180c7193          	and	gp,s8,384
  102e3c:	00ec7d33          	and	s10,s8,a4
  102e40:	00e19c33          	sll	s8,gp,a4
  102e44:	76110403          	lb	s0,1889(sp)
  102e48:	aa714b03          	lbu	s6,-1369(sp)

00102e4c <i0000000399>:
  102e4c:	b0211183          	lh	gp,-1278(sp)

00102e50 <i000000039a>:
  102e50:	3a460d93          	add	s11,a2,932

00102e54 <i000000039b>:
  102e54:	01ec11b3          	sll	gp,s8,t5

00102e58 <i000000039c>:
  102e58:	b3215003          	lhu	zero,-1230(sp)

00102e5c <i000000039d>:
  102e5c:	e2e1ac93          	slti	s9,gp,-466

00102e60 <i000000039e>:
  102e60:	01c421b3          	slt	gp,s0,t3

00102e64 <i000000039f>:
  102e64:	01e1d633          	srl	a2,gp,t5

00102e68 <i00000003a0>:
  102e68:	01ec5f33          	srl	t5,s8,t5

00102e6c <i00000003a1>:
  102e6c:	0181e733          	or	a4,gp,s8

00102e70 <i00000003a2>:
  102e70:	40af5193          	sra	gp,t5,0xa

00102e74 <i00000003a3>:
  102e74:	3192cf13          	xor	t5,t0,793

00102e78 <i00000003a4>:
  102e78:	01b46cb3          	or	s9,s0,s11

00102e7c <i00000003a5>:
  102e7c:	0181f733          	and	a4,gp,s8

00102e80 <i00000003a6>:
  102e80:	011751b3          	srl	gp,a4,a7

00102e84 <i00000003a7>:
  102e84:	00827db3          	and	s11,tp,s0

00102e88 <i00000003a8>:
  102e88:	13427e37          	lui	t3,0x13427

00102e8c <i00000003a9>:
  102e8c:	2bbd4317          	auipc	t1,0x2bbd4

00102e90 <i00000003aa>:
  102e90:	21222c93          	slti	s9,tp,530

00102e94 <i00000003ab>:
  102e94:	00b8e3b3          	or	t2,a7,a1

00102e98 <i00000003ac>:
  102e98:	c4b5ec13          	or	s8,a1,-949
  102e9c:	00a00c93          	li	s9,10
  102ea0:	015b7733          	and	a4,s6,s5
  102ea4:	19810023          	sb	s8,384(sp)
  102ea8:	01dd5733          	srl	a4,s10,t4
  102eac:	00675713          	srl	a4,a4,0x6
  102eb0:	ff87b713          	sltiu	a4,a5,-8
  102eb4:	fb312023          	sw	s3,-96(sp)
  102eb8:	76e11b23          	sh	a4,1910(sp)

00102ebc <b00000003ad>:
  102ebc:	00000033          	add	zero,zero,zero
  102ec0:	fb9f9ce3          	bne	t6,s9,102e78 <i00000003a4>
  102ec4:	00000033          	add	zero,zero,zero
  102ec8:	40318bb3          	sub	s7,gp,gp
  102ecc:	0097ac33          	slt	s8,a5,s1
  102ed0:	42211703          	lh	a4,1058(sp)
  102ed4:	56374c13          	xor	s8,a4,1379
  102ed8:	004ac1b3          	xor	gp,s5,tp
  102edc:	018c0a33          	add	s4,s8,s8
  102ee0:	47a10483          	lb	s1,1146(sp)
  102ee4:	00a00f93          	li	t6,10

00102ee8 <i00000003ad>:
  102ee8:	41ef0c33          	sub	s8,t5,t5

00102eec <i00000003ae>:
  102eec:	15fc6313          	or	t1,s8,351

00102ef0 <i00000003af>:
  102ef0:	012435b3          	sltu	a1,s0,s2

00102ef4 <i00000003b0>:
  102ef4:	0181cd33          	xor	s10,gp,s8

00102ef8 <i00000003b1>:
  102ef8:	01472233          	slt	tp,a4,s4

00102efc <i00000003b2>:
  102efc:	018f74b3          	and	s1,t5,s8

00102f00 <i00000003b3>:
  102f00:	0076acb3          	slt	s9,a3,t2

00102f04 <i00000003b4>:
  102f04:	010eb1b3          	sltu	gp,t4,a6

00102f08 <i00000003b5>:
  102f08:	b4e94b93          	xor	s7,s2,-1202

00102f0c <i00000003b6>:
  102f0c:	01ef7f33          	and	t5,t5,t5

00102f10 <i00000003b7>:
  102f10:	0198d2b3          	srl	t0,a7,s9

00102f14 <i00000003b8>:
  102f14:	86ff2193          	slti	gp,t5,-1937
  102f18:	00000033          	add	zero,zero,zero
  102f1c:	0040006f          	j	102f20 <write_tohost>

00102f20 <write_tohost>:
  102f20:	00100f13          	li	t5,1
  102f24:	0002de97          	auipc	t4,0x2d
  102f28:	0deeae23          	sw	t5,220(t4) # 130000 <end_signature>

00102f2c <label>:
  102f2c:	0000006f          	j	102f2c <label>
	...
