
ibex/examples/sw/simple_system/custom/aapg_test.elf:     file format elf32-littleriscv


Disassembly of section .vectors:

00100000 <_vectors_start>:
  100000:	43d0e06f          	j	10ec3c <default_exc_handler>
  100004:	4390e06f          	j	10ec3c <default_exc_handler>
  100008:	4350e06f          	j	10ec3c <default_exc_handler>
  10000c:	4310e06f          	j	10ec3c <default_exc_handler>
  100010:	42d0e06f          	j	10ec3c <default_exc_handler>
  100014:	4290e06f          	j	10ec3c <default_exc_handler>
  100018:	4250e06f          	j	10ec3c <default_exc_handler>
  10001c:	4250e06f          	j	10ec40 <timer_handler>
  100020:	41d0e06f          	j	10ec3c <default_exc_handler>
  100024:	4190e06f          	j	10ec3c <default_exc_handler>
  100028:	4150e06f          	j	10ec3c <default_exc_handler>
  10002c:	4110e06f          	j	10ec3c <default_exc_handler>
  100030:	40d0e06f          	j	10ec3c <default_exc_handler>
  100034:	4090e06f          	j	10ec3c <default_exc_handler>
  100038:	4050e06f          	j	10ec3c <default_exc_handler>
  10003c:	4010e06f          	j	10ec3c <default_exc_handler>
  100040:	3fd0e06f          	j	10ec3c <default_exc_handler>
  100044:	3f90e06f          	j	10ec3c <default_exc_handler>
  100048:	3f50e06f          	j	10ec3c <default_exc_handler>
  10004c:	3f10e06f          	j	10ec3c <default_exc_handler>
  100050:	3ed0e06f          	j	10ec3c <default_exc_handler>
  100054:	3e90e06f          	j	10ec3c <default_exc_handler>
  100058:	3e50e06f          	j	10ec3c <default_exc_handler>
  10005c:	3e10e06f          	j	10ec3c <default_exc_handler>
  100060:	3dd0e06f          	j	10ec3c <default_exc_handler>
  100064:	3d90e06f          	j	10ec3c <default_exc_handler>
  100068:	3d50e06f          	j	10ec3c <default_exc_handler>
  10006c:	3d10e06f          	j	10ec3c <default_exc_handler>
  100070:	3cd0e06f          	j	10ec3c <default_exc_handler>
  100074:	3c90e06f          	j	10ec3c <default_exc_handler>
  100078:	3c50e06f          	j	10ec3c <default_exc_handler>
  10007c:	0000                	.2byte	0x0
  10007e:	0000                	.2byte	0x0
  100080:	3c50e06f          	j	10ec44 <reset_handler>

Disassembly of section .text:

00100090 <custom_trap_handler_s>:
  100090:	f6010113          	add	sp,sp,-160
  100094:	00112223          	sw	ra,4(sp)
  100098:	00312623          	sw	gp,12(sp)
  10009c:	00412823          	sw	tp,16(sp)
  1000a0:	00512a23          	sw	t0,20(sp)
  1000a4:	00612c23          	sw	t1,24(sp)
  1000a8:	00712e23          	sw	t2,28(sp)
  1000ac:	02812023          	sw	s0,32(sp)
  1000b0:	02912223          	sw	s1,36(sp)
  1000b4:	02a12423          	sw	a0,40(sp)
  1000b8:	02b12623          	sw	a1,44(sp)
  1000bc:	02c12823          	sw	a2,48(sp)
  1000c0:	02d12a23          	sw	a3,52(sp)
  1000c4:	02e12c23          	sw	a4,56(sp)
  1000c8:	02f12e23          	sw	a5,60(sp)
  1000cc:	05012023          	sw	a6,64(sp)
  1000d0:	05112223          	sw	a7,68(sp)
  1000d4:	05212423          	sw	s2,72(sp)
  1000d8:	05312623          	sw	s3,76(sp)
  1000dc:	05412823          	sw	s4,80(sp)
  1000e0:	05512a23          	sw	s5,84(sp)
  1000e4:	05612c23          	sw	s6,88(sp)
  1000e8:	05712e23          	sw	s7,92(sp)
  1000ec:	07812023          	sw	s8,96(sp)
  1000f0:	07912223          	sw	s9,100(sp)
  1000f4:	07a12423          	sw	s10,104(sp)
  1000f8:	07b12623          	sw	s11,108(sp)
  1000fc:	07c12823          	sw	t3,112(sp)
  100100:	07d12a23          	sw	t4,116(sp)
  100104:	07e12c23          	sw	t5,120(sp)
  100108:	07f12e23          	sw	t6,124(sp)
  10010c:	10002573          	csrr	a0,sstatus
  100110:	14102573          	csrr	a0,sepc
  100114:	10502573          	csrr	a0,stvec
  100118:	14202573          	csrr	a0,scause
  10011c:	00000613          	li	a2,0
  100120:	00c50863          	beq	a0,a2,100130 <custom_trap_handler_s+0xa0>
  100124:	00100613          	li	a2,1
  100128:	00c50463          	beq	a0,a2,100130 <custom_trap_handler_s+0xa0>
  10012c:	141025f3          	csrr	a1,sepc
  100130:	00059603          	lh	a2,0(a1)
  100134:	00367613          	and	a2,a2,3
  100138:	00300293          	li	t0,3
  10013c:	00561663          	bne	a2,t0,100148 <inst16_s>

00100140 <inst32_s>:
  100140:	00458593          	add	a1,a1,4
  100144:	00000463          	beqz	zero,10014c <inst16_s+0x4>

00100148 <inst16_s>:
  100148:	00258593          	add	a1,a1,2
  10014c:	14159073          	csrw	sepc,a1
  100150:	00412083          	lw	ra,4(sp)
  100154:	00c12183          	lw	gp,12(sp)
  100158:	01012203          	lw	tp,16(sp)
  10015c:	01412283          	lw	t0,20(sp)
  100160:	01812303          	lw	t1,24(sp)
  100164:	01c12383          	lw	t2,28(sp)
  100168:	02012403          	lw	s0,32(sp)
  10016c:	02412483          	lw	s1,36(sp)
  100170:	02812503          	lw	a0,40(sp)
  100174:	02c12583          	lw	a1,44(sp)
  100178:	03012603          	lw	a2,48(sp)
  10017c:	03412683          	lw	a3,52(sp)
  100180:	03812703          	lw	a4,56(sp)
  100184:	03c12783          	lw	a5,60(sp)
  100188:	04012803          	lw	a6,64(sp)
  10018c:	04412883          	lw	a7,68(sp)
  100190:	04812903          	lw	s2,72(sp)
  100194:	04c12983          	lw	s3,76(sp)
  100198:	05012a03          	lw	s4,80(sp)
  10019c:	05412a83          	lw	s5,84(sp)
  1001a0:	05812b03          	lw	s6,88(sp)
  1001a4:	05c12b83          	lw	s7,92(sp)
  1001a8:	06012c03          	lw	s8,96(sp)
  1001ac:	06412c83          	lw	s9,100(sp)
  1001b0:	06812d03          	lw	s10,104(sp)
  1001b4:	06c12d83          	lw	s11,108(sp)
  1001b8:	07012e03          	lw	t3,112(sp)
  1001bc:	07412e83          	lw	t4,116(sp)
  1001c0:	07812f03          	lw	t5,120(sp)
  1001c4:	07c12f83          	lw	t6,124(sp)
  1001c8:	0a010113          	add	sp,sp,160
  1001cc:	10200073          	sret

001001d0 <custom_trap_handler>:
  1001d0:	f6010113          	add	sp,sp,-160
  1001d4:	00112223          	sw	ra,4(sp)
  1001d8:	00312623          	sw	gp,12(sp)
  1001dc:	00412823          	sw	tp,16(sp)
  1001e0:	00512a23          	sw	t0,20(sp)
  1001e4:	00612c23          	sw	t1,24(sp)
  1001e8:	00712e23          	sw	t2,28(sp)
  1001ec:	02812023          	sw	s0,32(sp)
  1001f0:	02912223          	sw	s1,36(sp)
  1001f4:	02a12423          	sw	a0,40(sp)
  1001f8:	02b12623          	sw	a1,44(sp)
  1001fc:	02c12823          	sw	a2,48(sp)
  100200:	02d12a23          	sw	a3,52(sp)
  100204:	02e12c23          	sw	a4,56(sp)
  100208:	02f12e23          	sw	a5,60(sp)
  10020c:	05012023          	sw	a6,64(sp)
  100210:	05112223          	sw	a7,68(sp)
  100214:	05212423          	sw	s2,72(sp)
  100218:	05312623          	sw	s3,76(sp)
  10021c:	05412823          	sw	s4,80(sp)
  100220:	05512a23          	sw	s5,84(sp)
  100224:	05612c23          	sw	s6,88(sp)
  100228:	05712e23          	sw	s7,92(sp)
  10022c:	07812023          	sw	s8,96(sp)
  100230:	07912223          	sw	s9,100(sp)
  100234:	07a12423          	sw	s10,104(sp)
  100238:	07b12623          	sw	s11,108(sp)
  10023c:	07c12823          	sw	t3,112(sp)
  100240:	07d12a23          	sw	t4,116(sp)
  100244:	07e12c23          	sw	t5,120(sp)
  100248:	07f12e23          	sw	t6,124(sp)
  10024c:	30002573          	csrr	a0,mstatus
  100250:	34102573          	csrr	a0,mepc
  100254:	30502573          	csrr	a0,mtvec
  100258:	34202573          	csrr	a0,mcause
  10025c:	00000613          	li	a2,0
  100260:	00c50863          	beq	a0,a2,100270 <custom_trap_handler+0xa0>
  100264:	00100613          	li	a2,1
  100268:	00c50463          	beq	a0,a2,100270 <custom_trap_handler+0xa0>
  10026c:	341025f3          	csrr	a1,mepc
  100270:	00059603          	lh	a2,0(a1)
  100274:	00367613          	and	a2,a2,3
  100278:	00300293          	li	t0,3
  10027c:	00561663          	bne	a2,t0,100288 <inst16>

00100280 <inst32>:
  100280:	00458593          	add	a1,a1,4
  100284:	00000463          	beqz	zero,10028c <inst16+0x4>

00100288 <inst16>:
  100288:	00258593          	add	a1,a1,2
  10028c:	34159073          	csrw	mepc,a1
  100290:	00412083          	lw	ra,4(sp)
  100294:	00c12183          	lw	gp,12(sp)
  100298:	01012203          	lw	tp,16(sp)
  10029c:	01412283          	lw	t0,20(sp)
  1002a0:	01812303          	lw	t1,24(sp)
  1002a4:	01c12383          	lw	t2,28(sp)
  1002a8:	02012403          	lw	s0,32(sp)
  1002ac:	02412483          	lw	s1,36(sp)
  1002b0:	02812503          	lw	a0,40(sp)
  1002b4:	02c12583          	lw	a1,44(sp)
  1002b8:	03012603          	lw	a2,48(sp)
  1002bc:	03412683          	lw	a3,52(sp)
  1002c0:	03812703          	lw	a4,56(sp)
  1002c4:	03c12783          	lw	a5,60(sp)
  1002c8:	04012803          	lw	a6,64(sp)
  1002cc:	04412883          	lw	a7,68(sp)
  1002d0:	04812903          	lw	s2,72(sp)
  1002d4:	04c12983          	lw	s3,76(sp)
  1002d8:	05012a03          	lw	s4,80(sp)
  1002dc:	05412a83          	lw	s5,84(sp)
  1002e0:	05812b03          	lw	s6,88(sp)
  1002e4:	05c12b83          	lw	s7,92(sp)
  1002e8:	06012c03          	lw	s8,96(sp)
  1002ec:	06412c83          	lw	s9,100(sp)
  1002f0:	06812d03          	lw	s10,104(sp)
  1002f4:	06c12d83          	lw	s11,108(sp)
  1002f8:	07012e03          	lw	t3,112(sp)
  1002fc:	07412e83          	lw	t4,116(sp)
  100300:	07812f03          	lw	t5,120(sp)
  100304:	07c12f83          	lw	t6,124(sp)
  100308:	0a010113          	add	sp,sp,160
  10030c:	30200073          	mret

00100310 <func1>:
  100310:	00000033          	add	zero,zero,zero
  100314:	00008067          	ret
  100318:	00000013          	nop
  10031c:	00000013          	nop

00100320 <main>:
  100320:	00000033          	add	zero,zero,zero
  100324:	0000f117          	auipc	sp,0xf
  100328:	ddc10113          	add	sp,sp,-548 # 10f100 <mem>
  10032c:	00065337          	lui	t1,0x65
  100330:	7b030313          	add	t1,t1,1968 # 657b0 <tohost+0x457a8>
  100334:	00610133          	add	sp,sp,t1

00100338 <i0000000000>:
  100338:	00a00d13          	li	s10,10

0010033c <i0000000001>:
  10033c:	0044f633          	and	a2,s1,tp

00100340 <i0000000002>:
  100340:	0e234917          	auipc	s2,0xe234

00100344 <i0000000003>:
  100344:	a5411823          	sh	s4,-1456(sp)

00100348 <i0000000004>:
  100348:	016f0533          	add	a0,t5,s6

0010034c <i0000000005>:
  10034c:	495c7e97          	auipc	t4,0x495c7
  100350:	0000f117          	auipc	sp,0xf
  100354:	db010113          	add	sp,sp,-592 # 10f100 <mem>
  100358:	0002c337          	lui	t1,0x2c
  10035c:	e4030313          	add	t1,t1,-448 # 2be40 <tohost+0xbe38>
  100360:	00610133          	add	sp,sp,t1

00100364 <i0000000006>:
  100364:	31a11703          	lh	a4,794(sp)

00100368 <i0000000007>:
  100368:	00a70f33          	add	t5,a4,a0

0010036c <i0000000008>:
  10036c:	34810483          	lb	s1,840(sp)

00100370 <i0000000009>:
  100370:	f4615b03          	lhu	s6,-186(sp)

00100374 <i000000000a>:
  100374:	3a215203          	lhu	tp,930(sp)

00100378 <i000000000b>:
  100378:	13b12223          	sw	s11,292(sp)

0010037c <i000000000c>:
  10037c:	06211b03          	lh	s6,98(sp)

00100380 <i000000000d>:
  100380:	007d87b3          	add	a5,s11,t2

00100384 <i000000000e>:
  100384:	40a782b3          	sub	t0,a5,a0

00100388 <i000000000f>:
  100388:	15780d97          	auipc	s11,0x15780

0010038c <i0000000010>:
  10038c:	016658b3          	srl	a7,a2,s6

00100390 <i0000000011>:
  100390:	5ab12fb7          	lui	t6,0x5ab12

00100394 <i0000000012>:
  100394:	ff615783          	lhu	a5,-10(sp)

00100398 <i0000000013>:
  100398:	40d5df33          	sra	t5,a1,a3
  10039c:	00c00c93          	li	s9,12
  1003a0:	001d0d13          	add	s10,s10,1

001003a4 <b0000000014>:
  1003a4:	00000033          	add	zero,zero,zero
  1003a8:	fd9d40e3          	blt	s10,s9,100368 <i0000000007>
  1003ac:	00000033          	add	zero,zero,zero
  1003b0:	00a00d13          	li	s10,10

001003b4 <i0000000014>:
  1003b4:	01501b33          	sll	s6,zero,s5

001003b8 <i0000000015>:
  1003b8:	07914003          	lbu	zero,121(sp)

001003bc <i0000000016>:
  1003bc:	01df0033          	add	zero,t5,t4

001003c0 <i0000000017>:
  1003c0:	6ee15583          	lhu	a1,1774(sp)

001003c4 <i0000000018>:
  1003c4:	41b252b3          	sra	t0,tp,s11

001003c8 <i0000000019>:
  1003c8:	37614c03          	lbu	s8,886(sp)
  1003cc:	0000f117          	auipc	sp,0xf
  1003d0:	d3410113          	add	sp,sp,-716 # 10f100 <mem>
  1003d4:	00021337          	lui	t1,0x21
  1003d8:	6c030313          	add	t1,t1,1728 # 216c0 <tohost+0x16b8>
  1003dc:	00610133          	add	sp,sp,t1

001003e0 <i000000001a>:
  1003e0:	22b10b03          	lb	s6,555(sp)

001003e4 <i000000001b>:
  1003e4:	4e011723          	sh	zero,1262(sp)

001003e8 <i000000001c>:
  1003e8:	c2e10603          	lb	a2,-978(sp)

001003ec <i000000001d>:
  1003ec:	57710023          	sb	s7,1376(sp)

001003f0 <i000000001e>:
  1003f0:	015c9233          	sll	tp,s9,s5

001003f4 <i000000001f>:
  1003f4:	001b5513          	srl	a0,s6,0x1

001003f8 <i0000000020>:
  1003f8:	01602f33          	sgtz	t5,s6

001003fc <i0000000021>:
  1003fc:	41e05f33          	sra	t5,zero,t5

00100400 <i0000000022>:
  100400:	000b6f33          	or	t5,s6,zero

00100404 <i0000000023>:
  100404:	1d2da517          	auipc	a0,0x1d2da

00100408 <i0000000024>:
  100408:	41e787b3          	sub	a5,a5,t5

0010040c <i0000000025>:
  10040c:	00539393          	sll	t2,t2,0x5
  100410:	0000f117          	auipc	sp,0xf
  100414:	cf010113          	add	sp,sp,-784 # 10f100 <mem>
  100418:	00006337          	lui	t1,0x6
  10041c:	5d030313          	add	t1,t1,1488 # 65d0 <_min_stack+0x45d0>
  100420:	00610133          	add	sp,sp,t1

00100424 <i0000000026>:
  100424:	71611c23          	sh	s6,1816(sp)
  100428:	00c00c13          	li	s8,12
  10042c:	001d0d13          	add	s10,s10,1

00100430 <b0000000027>:
  100430:	018d0463          	beq	s10,s8,100438 <b0000000027+0x8>
  100434:	fb9ff56f          	jal	a0,1003ec <i000000001d>
  100438:	00a00d13          	li	s10,10

0010043c <i0000000027>:
  10043c:	56414a03          	lbu	s4,1380(sp)

00100440 <i0000000028>:
  100440:	005573b3          	and	t2,a0,t0

00100444 <i0000000029>:
  100444:	00a7cf33          	xor	t5,a5,a0
  100448:	0000f117          	auipc	sp,0xf
  10044c:	cb810113          	add	sp,sp,-840 # 10f100 <mem>
  100450:	0004c337          	lui	t1,0x4c
  100454:	d0830313          	add	t1,t1,-760 # 4bd08 <tohost+0x2bd00>
  100458:	00610133          	add	sp,sp,t1

0010045c <i000000002a>:
  10045c:	17c11823          	sh	t3,368(sp)

00100460 <i000000002b>:
  100460:	40ec89b3          	sub	s3,s9,a4

00100464 <i000000002c>:
  100464:	40cf0233          	sub	tp,t5,a2

00100468 <i000000002d>:
  100468:	3a4c3493          	sltiu	s1,s8,932

0010046c <i000000002e>:
  10046c:	27e11203          	lh	tp,638(sp)

00100470 <i000000002f>:
  100470:	40ff0233          	sub	tp,t5,a5

00100474 <i0000000030>:
  100474:	8a014f03          	lbu	t5,-1888(sp)

00100478 <i0000000031>:
  100478:	44dcdfb7          	lui	t6,0x44dcd

0010047c <i0000000032>:
  10047c:	c1d6a213          	slti	tp,a3,-995

00100480 <i0000000033>:
  100480:	01d49533          	sll	a0,s1,t4

00100484 <i0000000034>:
  100484:	01849413          	sll	s0,s1,0x18

00100488 <i0000000035>:
  100488:	019f5593          	srl	a1,t5,0x19

0010048c <i0000000036>:
  10048c:	4ca11623          	sh	a0,1228(sp)

00100490 <i0000000037>:
  100490:	e5011e23          	sh	a6,-420(sp)

00100494 <i0000000038>:
  100494:	d0812b03          	lw	s6,-760(sp)

00100498 <i0000000039>:
  100498:	4011db13          	sra	s6,gp,0x1
  10049c:	00900893          	li	a7,9

001004a0 <b000000003a>:
  1004a0:	00000033          	add	zero,zero,zero
  1004a4:	fda8dce3          	bge	a7,s10,10047c <i0000000032>
  1004a8:	00000033          	add	zero,zero,zero
  1004ac:	00a00d13          	li	s10,10

001004b0 <i000000003a>:
  1004b0:	48e10b83          	lb	s7,1166(sp)

001004b4 <i000000003b>:
  1004b4:	56222513          	slti	a0,tp,1378

001004b8 <i000000003c>:
  1004b8:	43012203          	lw	tp,1072(sp)

001004bc <i000000003d>:
  1004bc:	10411423          	sh	tp,264(sp)

001004c0 <i000000003e>:
  1004c0:	00689c93          	sll	s9,a7,0x6
  1004c4:	0000f117          	auipc	sp,0xf
  1004c8:	c3c10113          	add	sp,sp,-964 # 10f100 <mem>
  1004cc:	00034337          	lui	t1,0x34
  1004d0:	3e030313          	add	t1,t1,992 # 343e0 <tohost+0x143d8>
  1004d4:	00610133          	add	sp,sp,t1

001004d8 <i000000003f>:
  1004d8:	8f215f03          	lhu	t5,-1806(sp)

001004dc <i0000000040>:
  1004dc:	c3414f03          	lbu	t5,-972(sp)

001004e0 <i0000000041>:
  1004e0:	00456b33          	or	s6,a0,tp

001004e4 <i0000000042>:
  1004e4:	b32b4013          	xor	zero,s6,-1230

001004e8 <i0000000043>:
  1004e8:	0a9e9597          	auipc	a1,0xa9e9

001004ec <i0000000044>:
  1004ec:	84611503          	lh	a0,-1978(sp)

001004f0 <i0000000045>:
  1004f0:	00a7a533          	slt	a0,a5,a0

001004f4 <i0000000046>:
  1004f4:	25815f83          	lhu	t6,600(sp)

001004f8 <i0000000047>:
  1004f8:	4e211803          	lh	a6,1250(sp)

001004fc <i0000000048>:
  1004fc:	e8e33013          	sltiu	zero,t1,-370

00100500 <i0000000049>:
  100500:	4ea12a23          	sw	a0,1268(sp)

00100504 <i000000004a>:
  100504:	121b8f37          	lui	t5,0x121b8
  100508:	0000f117          	auipc	sp,0xf
  10050c:	bf810113          	add	sp,sp,-1032 # 10f100 <mem>
  100510:	00007337          	lui	t1,0x7
  100514:	e3030313          	add	t1,t1,-464 # 6e30 <_min_stack+0x4e30>
  100518:	00610133          	add	sp,sp,t1

0010051c <i000000004b>:
  10051c:	66614503          	lbu	a0,1638(sp)

00100520 <i000000004c>:
  100520:	0d4b6b13          	or	s6,s6,212
  100524:	00b00e13          	li	t3,11
  100528:	00a00d13          	li	s10,10

0010052c <b000000004d>:
  10052c:	00000033          	add	zero,zero,zero
  100530:	03ae5463          	bge	t3,s10,100558 <i0000000054>
  100534:	00000033          	add	zero,zero,zero
  100538:	00a00d13          	li	s10,10

0010053c <i000000004d>:
  10053c:	40450b33          	sub	s6,a0,tp

00100540 <i000000004e>:
  100540:	009b5693          	srl	a3,s6,0x9

00100544 <i000000004f>:
  100544:	eda11883          	lh	a7,-294(sp)

00100548 <i0000000050>:
  100548:	cc411f03          	lh	t5,-828(sp)

0010054c <i0000000051>:
  10054c:	b3c10f03          	lb	t5,-1220(sp)

00100550 <i0000000052>:
  100550:	b9f03213          	sltiu	tp,zero,-1121

00100554 <i0000000053>:
  100554:	99e14003          	lbu	zero,-1634(sp)

00100558 <i0000000054>:
  100558:	00d42533          	slt	a0,s0,a3

0010055c <i0000000055>:
  10055c:	008b1b13          	sll	s6,s6,0x8

00100560 <i0000000056>:
  100560:	37211003          	lh	zero,882(sp)

00100564 <i0000000057>:
  100564:	a0e11703          	lh	a4,-1522(sp)

00100568 <i0000000058>:
  100568:	8b110fa3          	sb	a7,-1857(sp)

0010056c <i0000000059>:
  10056c:	00fd8f33          	add	t5,s11,a5

00100570 <i000000005a>:
  100570:	e5412383          	lw	t2,-428(sp)

00100574 <i000000005b>:
  100574:	017c6933          	or	s2,s8,s7

00100578 <i000000005c>:
  100578:	7bc11223          	sh	t3,1956(sp)

0010057c <i000000005d>:
  10057c:	a374a513          	slti	a0,s1,-1481

00100580 <i000000005e>:
  100580:	06006e13          	or	t3,zero,96
  100584:	0000f117          	auipc	sp,0xf
  100588:	b7c10113          	add	sp,sp,-1156 # 10f100 <mem>
  10058c:	0000e337          	lui	t1,0xe
  100590:	67030313          	add	t1,t1,1648 # e670 <_stack_len+0x6670>
  100594:	00610133          	add	sp,sp,t1

00100598 <i000000005f>:
  100598:	03215583          	lhu	a1,50(sp)
  10059c:	00900f93          	li	t6,9

001005a0 <b0000000060>:
  1005a0:	00000033          	add	zero,zero,zero
  1005a4:	fbfd4ee3          	blt	s10,t6,100560 <i0000000056>
  1005a8:	00000033          	add	zero,zero,zero
  1005ac:	00a00d13          	li	s10,10

001005b0 <i0000000060>:
  1005b0:	8b1f2213          	slti	tp,t5,-1871
  1005b4:	0000f117          	auipc	sp,0xf
  1005b8:	b4c10113          	add	sp,sp,-1204 # 10f100 <mem>
  1005bc:	0004c337          	lui	t1,0x4c
  1005c0:	60030313          	add	t1,t1,1536 # 4c600 <tohost+0x2c5f8>
  1005c4:	00610133          	add	sp,sp,t1

001005c8 <i0000000061>:
  1005c8:	68e15f83          	lhu	t6,1678(sp)

001005cc <i0000000062>:
  1005cc:	fc7e8213          	add	tp,t4,-57 # 496c7313 <fromhost+0x4953f303>

001005d0 <i0000000063>:
  1005d0:	858b7c93          	and	s9,s6,-1960

001005d4 <i0000000064>:
  1005d4:	efe11a23          	sh	t5,-268(sp)

001005d8 <i0000000065>:
  1005d8:	1ae11b03          	lh	s6,430(sp)

001005dc <i0000000066>:
  1005dc:	1fc15b83          	lhu	s7,508(sp)

001005e0 <i0000000067>:
  1005e0:	01359233          	sll	tp,a1,s3
  1005e4:	0000f117          	auipc	sp,0xf
  1005e8:	b1c10113          	add	sp,sp,-1252 # 10f100 <mem>
  1005ec:	00056337          	lui	t1,0x56
  1005f0:	bf030313          	add	t1,t1,-1040 # 55bf0 <tohost+0x35be8>
  1005f4:	00610133          	add	sp,sp,t1

001005f8 <i0000000068>:
  1005f8:	1ce12823          	sw	a4,464(sp)

001005fc <i0000000069>:
  1005fc:	0f015483          	lhu	s1,240(sp)

00100600 <i000000006a>:
  100600:	dd922213          	slti	tp,tp,-551

00100604 <i000000006b>:
  100604:	0dc14203          	lbu	tp,220(sp)

00100608 <i000000006c>:
  100608:	40af0333          	sub	t1,t5,a0

0010060c <i000000006d>:
  10060c:	00785513          	srl	a0,a6,0x7

00100610 <i000000006e>:
  100610:	01fce033          	or	zero,s9,t6

00100614 <i000000006f>:
  100614:	78f0e017          	auipc	zero,0x78f0e

00100618 <i0000000070>:
  100618:	0de14903          	lbu	s2,222(sp)

0010061c <i0000000071>:
  10061c:	dbd10623          	sb	t4,-596(sp)

00100620 <i0000000072>:
  100620:	3f214a83          	lbu	s5,1010(sp)

00100624 <b0000000073>:
  100624:	00000817          	auipc	a6,0x0
  100628:	03080813          	add	a6,a6,48 # 100654 <i000000007c>
  10062c:	00080567          	jalr	a0,a6

00100630 <i0000000073>:
  100630:	7f912823          	sw	s9,2032(sp)

00100634 <i0000000074>:
  100634:	98612a23          	sw	t1,-1644(sp)

00100638 <i0000000075>:
  100638:	0e10e397          	auipc	t2,0xe10e

0010063c <i0000000076>:
  10063c:	00a52f33          	slt	t5,a0,a0

00100640 <i0000000077>:
  100640:	3b914b03          	lbu	s6,953(sp)

00100644 <i0000000078>:
  100644:	000b44b3          	xor	s1,s6,zero

00100648 <i0000000079>:
  100648:	2de11f03          	lh	t5,734(sp)

0010064c <i000000007a>:
  10064c:	dd812f83          	lw	t6,-552(sp)

00100650 <i000000007b>:
  100650:	41620333          	sub	t1,tp,s6

00100654 <i000000007c>:
  100654:	49e11f23          	sh	t5,1182(sp)

00100658 <i000000007d>:
  100658:	93e10fa3          	sb	t5,-1729(sp)

0010065c <i000000007e>:
  10065c:	c3b70993          	add	s3,a4,-965
  100660:	0000f117          	auipc	sp,0xf
  100664:	aa010113          	add	sp,sp,-1376 # 10f100 <mem>
  100668:	0000f337          	lui	t1,0xf
  10066c:	f3030313          	add	t1,t1,-208 # ef30 <_stack_len+0x6f30>
  100670:	00610133          	add	sp,sp,t1

00100674 <i000000007f>:
  100674:	6b615b83          	lhu	s7,1718(sp)

00100678 <i0000000080>:
  100678:	62a68893          	add	a7,a3,1578

0010067c <i0000000081>:
  10067c:	006bd013          	srl	zero,s7,0x6

00100680 <i0000000082>:
  100680:	13812503          	lw	a0,312(sp)

00100684 <i0000000083>:
  100684:	01e20f33          	add	t5,tp,t5

00100688 <i0000000084>:
  100688:	68a12023          	sw	a0,1664(sp)

0010068c <i0000000085>:
  10068c:	01275b33          	srl	s6,a4,s2
  100690:	00c00a13          	li	s4,12
  100694:	001d0d13          	add	s10,s10,1

00100698 <b0000000086>:
  100698:	00000033          	add	zero,zero,zero
  10069c:	fdaa50e3          	bge	s4,s10,10065c <i000000007e>
  1006a0:	00000033          	add	zero,zero,zero
  1006a4:	00a00d13          	li	s10,10

001006a8 <i0000000086>:
  1006a8:	2b010c03          	lb	s8,688(sp)

001006ac <i0000000087>:
  1006ac:	5e714503          	lbu	a0,1511(sp)

001006b0 <i0000000088>:
  1006b0:	124d0697          	auipc	a3,0x124d0

001006b4 <i0000000089>:
  1006b4:	9fe15c03          	lhu	s8,-1538(sp)

001006b8 <i000000008a>:
  1006b8:	a9611b23          	sh	s6,-1386(sp)

001006bc <i000000008b>:
  1006bc:	dcf30213          	add	tp,t1,-561

001006c0 <i000000008c>:
  1006c0:	16c12603          	lw	a2,364(sp)

001006c4 <i000000008d>:
  1006c4:	00e59513          	sll	a0,a1,0xe

001006c8 <i000000008e>:
  1006c8:	f021e893          	or	a7,gp,-254

001006cc <i000000008f>:
  1006cc:	41e002b3          	neg	t0,t5

001006d0 <i0000000090>:
  1006d0:	00021933          	sll	s2,tp,zero

001006d4 <i0000000091>:
  1006d4:	00a56933          	or	s2,a0,a0

001006d8 <i0000000092>:
  1006d8:	275d8893          	add	a7,s11,629 # 158805fd <fromhost+0x156f85ed>

001006dc <i0000000093>:
  1006dc:	00701013          	sll	zero,zero,0x7
  1006e0:	0000f117          	auipc	sp,0xf
  1006e4:	a2010113          	add	sp,sp,-1504 # 10f100 <mem>
  1006e8:	0003a337          	lui	t1,0x3a
  1006ec:	8d830313          	add	t1,t1,-1832 # 398d8 <tohost+0x198d0>
  1006f0:	00610133          	add	sp,sp,t1

001006f4 <i0000000094>:
  1006f4:	90011203          	lh	tp,-1792(sp)

001006f8 <i0000000095>:
  1006f8:	0175dc33          	srl	s8,a1,s7

001006fc <i0000000096>:
  1006fc:	05210623          	sb	s2,76(sp)

00100700 <i0000000097>:
  100700:	47e12623          	sw	t5,1132(sp)

00100704 <i0000000098>:
  100704:	03714503          	lbu	a0,55(sp)
  100708:	00c00893          	li	a7,12
  10070c:	001d0d13          	add	s10,s10,1

00100710 <b0000000099>:
  100710:	00000033          	add	zero,zero,zero
  100714:	fb1d44e3          	blt	s10,a7,1006bc <i000000008b>
  100718:	00000033          	add	zero,zero,zero
  10071c:	00a00d13          	li	s10,10

00100720 <i0000000099>:
  100720:	00405233          	srl	tp,zero,tp

00100724 <i000000009a>:
  100724:	01ef7733          	and	a4,t5,t5
  100728:	0000f117          	auipc	sp,0xf
  10072c:	9d810113          	add	sp,sp,-1576 # 10f100 <mem>
  100730:	00042337          	lui	t1,0x42
  100734:	34030313          	add	t1,t1,832 # 42340 <tohost+0x22338>
  100738:	00610133          	add	sp,sp,t1

0010073c <i000000009b>:
  10073c:	2cc15003          	lhu	zero,716(sp)

00100740 <i000000009c>:
  100740:	9dd14203          	lbu	tp,-1571(sp)

00100744 <i000000009d>:
  100744:	80c12783          	lw	a5,-2036(sp)

00100748 <i000000009e>:
  100748:	ff8103a3          	sb	s8,-25(sp)

0010074c <i000000009f>:
  10074c:	41600533          	neg	a0,s6

00100750 <i00000000a0>:
  100750:	3d58af13          	slti	t5,a7,981

00100754 <i00000000a1>:
  100754:	0ac3af37          	lui	t5,0xac3a

00100758 <i00000000a2>:
  100758:	cde10023          	sb	t5,-832(sp)

0010075c <i00000000a3>:
  10075c:	00b01513          	sll	a0,zero,0xb

00100760 <i00000000a4>:
  100760:	88e52013          	slti	zero,a0,-1906

00100764 <i00000000a5>:
  100764:	011ddcb3          	srl	s9,s11,a7
  100768:	0000f117          	auipc	sp,0xf
  10076c:	99810113          	add	sp,sp,-1640 # 10f100 <mem>
  100770:	0003c337          	lui	t1,0x3c
  100774:	04830313          	add	t1,t1,72 # 3c048 <tohost+0x1c040>
  100778:	00610133          	add	sp,sp,t1

0010077c <i00000000a6>:
  10077c:	43211283          	lh	t0,1074(sp)

00100780 <i00000000a7>:
  100780:	b1eb2913          	slti	s2,s6,-1250

00100784 <i00000000a8>:
  100784:	eca11223          	sh	a0,-316(sp)

00100788 <i00000000a9>:
  100788:	b3e11e23          	sh	t5,-1220(sp)

0010078c <i00000000aa>:
  10078c:	1a412823          	sw	tp,432(sp)

00100790 <i00000000ab>:
  100790:	70114703          	lbu	a4,1793(sp)
  100794:	00900813          	li	a6,9

00100798 <b00000000ac>:
  100798:	00000033          	add	zero,zero,zero
  10079c:	fb0d48e3          	blt	s10,a6,10074c <i000000009f>
  1007a0:	00000033          	add	zero,zero,zero
  1007a4:	00a00d13          	li	s10,10

001007a8 <i00000000ac>:
  1007a8:	00a54233          	xor	tp,a0,a0
  1007ac:	0000f117          	auipc	sp,0xf
  1007b0:	95410113          	add	sp,sp,-1708 # 10f100 <mem>
  1007b4:	00047337          	lui	t1,0x47
  1007b8:	14030313          	add	t1,t1,320 # 47140 <tohost+0x27138>
  1007bc:	00610133          	add	sp,sp,t1

001007c0 <i00000000ad>:
  1007c0:	29514003          	lbu	zero,661(sp)

001007c4 <i00000000ae>:
  1007c4:	9c412023          	sw	tp,-1600(sp)

001007c8 <i00000000af>:
  1007c8:	01364233          	xor	tp,a2,s3

001007cc <i00000000b0>:
  1007cc:	56411423          	sh	tp,1384(sp)

001007d0 <i00000000b1>:
  1007d0:	43450b13          	add	s6,a0,1076 # 1d3da838 <fromhost+0x1d252828>

001007d4 <i00000000b2>:
  1007d4:	5ea11223          	sh	a0,1508(sp)

001007d8 <i00000000b3>:
  1007d8:	f7815b03          	lhu	s6,-136(sp)

001007dc <i00000000b4>:
  1007dc:	016b0b33          	add	s6,s6,s6

001007e0 <i00000000b5>:
  1007e0:	41b9df33          	sra	t5,s3,s11

001007e4 <i00000000b6>:
  1007e4:	88611b03          	lh	s6,-1914(sp)

001007e8 <i00000000b7>:
  1007e8:	24215283          	lhu	t0,578(sp)

001007ec <i00000000b8>:
  1007ec:	416209b3          	sub	s3,tp,s6

001007f0 <i00000000b9>:
  1007f0:	3f39cd97          	auipc	s11,0x3f39c

001007f4 <i00000000ba>:
  1007f4:	37010f03          	lb	t5,880(sp)

001007f8 <i00000000bb>:
  1007f8:	05812423          	sw	s8,72(sp)

001007fc <i00000000bc>:
  1007fc:	bf310683          	lb	a3,-1037(sp)

00100800 <i00000000bd>:
  100800:	43e15f03          	lhu	t5,1086(sp)

00100804 <i00000000be>:
  100804:	01d9c5b3          	xor	a1,s3,t4

00100808 <b00000000bf>:
  100808:	0440056f          	jal	a0,10084c <i00000000ca>

0010080c <i00000000bf>:
  10080c:	295f6013          	or	zero,t5,661

00100810 <i00000000c0>:
  100810:	1ae15703          	lhu	a4,430(sp)

00100814 <i00000000c1>:
  100814:	002f1f13          	sll	t5,t5,0x2

00100818 <i00000000c2>:
  100818:	3dc54f13          	xor	t5,a0,988

0010081c <i00000000c3>:
  10081c:	00f1e9b3          	or	s3,gp,a5
  100820:	0000f117          	auipc	sp,0xf
  100824:	8e010113          	add	sp,sp,-1824 # 10f100 <mem>
  100828:	0003b337          	lui	t1,0x3b
  10082c:	30030313          	add	t1,t1,768 # 3b300 <tohost+0x1b2f8>
  100830:	00610133          	add	sp,sp,t1

00100834 <i00000000c4>:
  100834:	1cb10e03          	lb	t3,459(sp)

00100838 <i00000000c5>:
  100838:	00007533          	and	a0,zero,zero

0010083c <i00000000c6>:
  10083c:	7ca11523          	sh	a0,1994(sp)

00100840 <i00000000c7>:
  100840:	92215003          	lhu	zero,-1758(sp)

00100844 <i00000000c8>:
  100844:	f8b11f23          	sh	a1,-98(sp)

00100848 <i00000000c9>:
  100848:	b5012b03          	lw	s6,-1200(sp)

0010084c <i00000000ca>:
  10084c:	6ca11423          	sh	a0,1736(sp)

00100850 <i00000000cb>:
  100850:	3d612423          	sw	s6,968(sp)

00100854 <i00000000cc>:
  100854:	d8a11603          	lh	a2,-630(sp)
  100858:	0000f117          	auipc	sp,0xf
  10085c:	8a810113          	add	sp,sp,-1880 # 10f100 <mem>
  100860:	00014337          	lui	t1,0x14
  100864:	e8030313          	add	t1,t1,-384 # 13e80 <_stack_len+0xbe80>
  100868:	00610133          	add	sp,sp,t1

0010086c <i00000000cd>:
  10086c:	a5e11f03          	lh	t5,-1442(sp)

00100870 <i00000000ce>:
  100870:	15611023          	sh	s6,320(sp)

00100874 <i00000000cf>:
  100874:	20c15503          	lhu	a0,524(sp)
  100878:	0000f117          	auipc	sp,0xf
  10087c:	88810113          	add	sp,sp,-1912 # 10f100 <mem>
  100880:	00040337          	lui	t1,0x40
  100884:	2b030313          	add	t1,t1,688 # 402b0 <tohost+0x202a8>
  100888:	00610133          	add	sp,sp,t1

0010088c <i00000000d0>:
  10088c:	4e215b03          	lhu	s6,1250(sp)
  100890:	0000f117          	auipc	sp,0xf
  100894:	87010113          	add	sp,sp,-1936 # 10f100 <mem>
  100898:	0002b337          	lui	t1,0x2b
  10089c:	98830313          	add	t1,t1,-1656 # 2a988 <tohost+0xa980>
  1008a0:	00610133          	add	sp,sp,t1

001008a4 <i00000000d1>:
  1008a4:	3c411003          	lh	zero,964(sp)
  1008a8:	00c00c93          	li	s9,12
  1008ac:	001d0d13          	add	s10,s10,1

001008b0 <b00000000d2>:
  1008b0:	019d0463          	beq	s10,s9,1008b8 <b00000000d2+0x8>
  1008b4:	f9dff56f          	jal	a0,100850 <i00000000cb>
  1008b8:	00a00d13          	li	s10,10

001008bc <i00000000d2>:
  1008bc:	e7070013          	add	zero,a4,-400

001008c0 <i00000000d3>:
  1008c0:	e8412423          	sw	tp,-376(sp)

001008c4 <i00000000d4>:
  1008c4:	010fc033          	xor	zero,t6,a6

001008c8 <i00000000d5>:
  1008c8:	00052733          	sltz	a4,a0

001008cc <i00000000d6>:
  1008cc:	005c6233          	or	tp,s8,t0

001008d0 <i00000000d7>:
  1008d0:	70a60513          	add	a0,a2,1802

001008d4 <i00000000d8>:
  1008d4:	20810483          	lb	s1,520(sp)

001008d8 <i00000000d9>:
  1008d8:	bb812203          	lw	tp,-1096(sp)

001008dc <i00000000da>:
  1008dc:	013cb933          	sltu	s2,s9,s3

001008e0 <i00000000db>:
  1008e0:	4fe100a3          	sb	t5,1249(sp)

001008e4 <i00000000dc>:
  1008e4:	30675537          	lui	a0,0x30675

001008e8 <i00000000dd>:
  1008e8:	6e310403          	lb	s0,1763(sp)

001008ec <i00000000de>:
  1008ec:	94c14583          	lbu	a1,-1716(sp)
  1008f0:	0000f117          	auipc	sp,0xf
  1008f4:	81010113          	add	sp,sp,-2032 # 10f100 <mem>
  1008f8:	0002a337          	lui	t1,0x2a
  1008fc:	a9030313          	add	t1,t1,-1392 # 29a90 <tohost+0x9a88>
  100900:	00610133          	add	sp,sp,t1

00100904 <i00000000df>:
  100904:	aae15c83          	lhu	s9,-1362(sp)

00100908 <i00000000e0>:
  100908:	01979513          	sll	a0,a5,0x19

0010090c <i00000000e1>:
  10090c:	1298a893          	slti	a7,a7,297

00100910 <i00000000e2>:
  100910:	11e12c23          	sw	t5,280(sp)

00100914 <i00000000e3>:
  100914:	e9a15503          	lhu	a0,-358(sp)

00100918 <i00000000e4>:
  100918:	5d937813          	and	a6,t1,1497
  10091c:	00c00a13          	li	s4,12
  100920:	00a00d13          	li	s10,10

00100924 <b00000000e5>:
  100924:	00000033          	add	zero,zero,zero
  100928:	054d4263          	blt	s10,s4,10096c <i00000000f3>
  10092c:	00000033          	add	zero,zero,zero
  100930:	00a00d13          	li	s10,10

00100934 <i00000000e5>:
  100934:	7e711e23          	sh	t2,2044(sp)

00100938 <i00000000e6>:
  100938:	5f310903          	lb	s2,1523(sp)

0010093c <i00000000e7>:
  10093c:	01cc8f33          	add	t5,s9,t3

00100940 <i00000000e8>:
  100940:	40545213          	sra	tp,s0,0x5

00100944 <i00000000e9>:
  100944:	01785b13          	srl	s6,a6,0x17

00100948 <i00000000ea>:
  100948:	010af233          	and	tp,s5,a6

0010094c <i00000000eb>:
  10094c:	a63103a3          	sb	gp,-1433(sp)

00100950 <i00000000ec>:
  100950:	49552737          	lui	a4,0x49552

00100954 <i00000000ed>:
  100954:	00ab62b3          	or	t0,s6,a0

00100958 <i00000000ee>:
  100958:	01b8b433          	sltu	s0,a7,s11

0010095c <i00000000ef>:
  10095c:	6b014b03          	lbu	s6,1712(sp)

00100960 <i00000000f0>:
  100960:	c8910c23          	sb	s1,-872(sp)

00100964 <i00000000f1>:
  100964:	ce2f0b13          	add	s6,t5,-798 # ac39ce2 <fromhost+0xaab1cd2>

00100968 <i00000000f2>:
  100968:	a0b11f23          	sh	a1,-1506(sp)

0010096c <i00000000f3>:
  10096c:	40968b33          	sub	s6,a3,s1

00100970 <i00000000f4>:
  100970:	6e393f13          	sltiu	t5,s2,1763

00100974 <i00000000f5>:
  100974:	40420733          	sub	a4,tp,tp

00100978 <i00000000f6>:
  100978:	11612c23          	sw	s6,280(sp)

0010097c <i00000000f7>:
  10097c:	b42f0513          	add	a0,t5,-1214
  100980:	00000813          	li	a6,0

00100984 <b00000000f8>:
  100984:	00000033          	add	zero,zero,zero
  100988:	070d0663          	beq	s10,a6,1009f4 <i0000000106>
  10098c:	00000033          	add	zero,zero,zero
  100990:	00a00d13          	li	s10,10

00100994 <i00000000f8>:
  100994:	a9811303          	lh	t1,-1384(sp)
  100998:	0000e117          	auipc	sp,0xe
  10099c:	76810113          	add	sp,sp,1896 # 10f100 <mem>
  1009a0:	00053337          	lui	t1,0x53
  1009a4:	ef830313          	add	t1,t1,-264 # 52ef8 <tohost+0x32ef0>
  1009a8:	00610133          	add	sp,sp,t1

001009ac <i00000000f9>:
  1009ac:	e4410fa3          	sb	tp,-417(sp)

001009b0 <i00000000fa>:
  1009b0:	ffa15983          	lhu	s3,-6(sp)

001009b4 <i00000000fb>:
  1009b4:	00ab6b33          	or	s6,s6,a0

001009b8 <i00000000fc>:
  1009b8:	c4411223          	sh	tp,-956(sp)

001009bc <i00000000fd>:
  1009bc:	80011f23          	sh	zero,-2018(sp)

001009c0 <i00000000fe>:
  1009c0:	4175d493          	sra	s1,a1,0x17

001009c4 <i00000000ff>:
  1009c4:	009d9013          	sll	zero,s11,0x9

001009c8 <i0000000100>:
  1009c8:	3a8106a3          	sb	s0,941(sp)

001009cc <i0000000101>:
  1009cc:	fbe11623          	sh	t5,-84(sp)

001009d0 <i0000000102>:
  1009d0:	00b47233          	and	tp,s0,a1

001009d4 <i0000000103>:
  1009d4:	24412823          	sw	tp,592(sp)
  1009d8:	0000e117          	auipc	sp,0xe
  1009dc:	72810113          	add	sp,sp,1832 # 10f100 <mem>
  1009e0:	0004f337          	lui	t1,0x4f
  1009e4:	7a030313          	add	t1,t1,1952 # 4f7a0 <tohost+0x2f798>
  1009e8:	00610133          	add	sp,sp,t1

001009ec <i0000000104>:
  1009ec:	21611323          	sh	s6,518(sp)

001009f0 <i0000000105>:
  1009f0:	f12100a3          	sb	s2,-255(sp)

001009f4 <i0000000106>:
  1009f4:	00deae33          	slt	t3,t4,a3

001009f8 <i0000000107>:
  1009f8:	4185d513          	sra	a0,a1,0x18

001009fc <i0000000108>:
  1009fc:	00ff8833          	add	a6,t6,a5

00100a00 <i0000000109>:
  100a00:	005bb833          	sltu	a6,s7,t0

00100a04 <i000000010a>:
  100a04:	00f59c33          	sll	s8,a1,a5
  100a08:	00900e93          	li	t4,9

00100a0c <b000000010b>:
  100a0c:	00000033          	add	zero,zero,zero
  100a10:	ffdd40e3          	blt	s10,t4,1009f0 <i0000000105>
  100a14:	00000033          	add	zero,zero,zero
  100a18:	00a00d13          	li	s10,10

00100a1c <i000000010b>:
  100a1c:	63852593          	slti	a1,a0,1592

00100a20 <i000000010c>:
  100a20:	523c4b93          	xor	s7,s8,1315

00100a24 <i000000010d>:
  100a24:	403a5813          	sra	a6,s4,0x3

00100a28 <i000000010e>:
  100a28:	eb015f03          	lhu	t5,-336(sp)

00100a2c <i000000010f>:
  100a2c:	784e2537          	lui	a0,0x784e2

00100a30 <i0000000110>:
  100a30:	08015f83          	lhu	t6,128(sp)

00100a34 <i0000000111>:
  100a34:	a0211a83          	lh	s5,-1534(sp)

00100a38 <i0000000112>:
  100a38:	3e214003          	lbu	zero,994(sp)

00100a3c <i0000000113>:
  100a3c:	40b68f33          	sub	t5,a3,a1

00100a40 <i0000000114>:
  100a40:	4195dd93          	sra	s11,a1,0x19

00100a44 <i0000000115>:
  100a44:	017e6e33          	or	t3,t3,s7

00100a48 <i0000000116>:
  100a48:	41ff5513          	sra	a0,t5,0x1f

00100a4c <i0000000117>:
  100a4c:	1da15b03          	lhu	s6,474(sp)
  100a50:	0000e117          	auipc	sp,0xe
  100a54:	6b010113          	add	sp,sp,1712 # 10f100 <mem>
  100a58:	0003e337          	lui	t1,0x3e
  100a5c:	69030313          	add	t1,t1,1680 # 3e690 <tohost+0x1e688>
  100a60:	00610133          	add	sp,sp,t1

00100a64 <i0000000118>:
  100a64:	eb012f83          	lw	t6,-336(sp)

00100a68 <i0000000119>:
  100a68:	06011803          	lh	a6,96(sp)

00100a6c <i000000011a>:
  100a6c:	95012583          	lw	a1,-1712(sp)

00100a70 <i000000011b>:
  100a70:	5127b513          	sltiu	a0,a5,1298

00100a74 <i000000011c>:
  100a74:	c4010c23          	sb	zero,-936(sp)

00100a78 <i000000011d>:
  100a78:	4d011683          	lh	a3,1232(sp)

00100a7c <b000000011e>:
  100a7c:	0240056f          	jal	a0,100aa0 <i0000000126>

00100a80 <i000000011e>:
  100a80:	0188aeb3          	slt	t4,a7,s8

00100a84 <i000000011f>:
  100a84:	41411503          	lh	a0,1044(sp)

00100a88 <i0000000120>:
  100a88:	e5a14003          	lbu	zero,-422(sp)

00100a8c <i0000000121>:
  100a8c:	00002ab3          	sltz	s5,zero

00100a90 <i0000000122>:
  100a90:	384b8213          	add	tp,s7,900

00100a94 <i0000000123>:
  100a94:	8b607013          	and	zero,zero,-1866

00100a98 <i0000000124>:
  100a98:	000b7c33          	and	s8,s6,zero

00100a9c <i0000000125>:
  100a9c:	01ec9a93          	sll	s5,s9,0x1e

00100aa0 <i0000000126>:
  100aa0:	667a3217          	auipc	tp,0x667a3

00100aa4 <i0000000127>:
  100aa4:	ba712823          	sw	t2,-1104(sp)

00100aa8 <i0000000128>:
  100aa8:	6a012a23          	sw	zero,1716(sp)

00100aac <i0000000129>:
  100aac:	7b410123          	sb	s4,1954(sp)

00100ab0 <i000000012a>:
  100ab0:	b9211783          	lh	a5,-1134(sp)

00100ab4 <i000000012b>:
  100ab4:	f54c6f13          	or	t5,s8,-172

00100ab8 <i000000012c>:
  100ab8:	006a3b33          	sltu	s6,s4,t1

00100abc <i000000012d>:
  100abc:	008e9b33          	sll	s6,t4,s0

00100ac0 <i000000012e>:
  100ac0:	20310983          	lb	s3,515(sp)

00100ac4 <i000000012f>:
  100ac4:	a9012903          	lw	s2,-1392(sp)

00100ac8 <i0000000130>:
  100ac8:	a0714f03          	lbu	t5,-1529(sp)
  100acc:	00900813          	li	a6,9
  100ad0:	00a00d13          	li	s10,10

00100ad4 <b0000000131>:
  100ad4:	00000033          	add	zero,zero,zero
  100ad8:	05a85a63          	bge	a6,s10,100b2c <i0000000139>
  100adc:	00000033          	add	zero,zero,zero
  100ae0:	00a00d13          	li	s10,10

00100ae4 <i0000000131>:
  100ae4:	41548f33          	sub	t5,s1,s5
  100ae8:	0000e117          	auipc	sp,0xe
  100aec:	61810113          	add	sp,sp,1560 # 10f100 <mem>
  100af0:	00018337          	lui	t1,0x18
  100af4:	16030313          	add	t1,t1,352 # 18160 <_stack_len+0x10160>
  100af8:	00610133          	add	sp,sp,t1

00100afc <i0000000132>:
  100afc:	8d412f83          	lw	t6,-1836(sp)

00100b00 <i0000000133>:
  100b00:	01652c33          	slt	s8,a0,s6

00100b04 <i0000000134>:
  100b04:	5c110503          	lb	a0,1473(sp)

00100b08 <i0000000135>:
  100b08:	d3011c03          	lh	s8,-720(sp)

00100b0c <i0000000136>:
  100b0c:	76511923          	sh	t0,1906(sp)
  100b10:	0000e117          	auipc	sp,0xe
  100b14:	5f010113          	add	sp,sp,1520 # 10f100 <mem>
  100b18:	00029337          	lui	t1,0x29
  100b1c:	64030313          	add	t1,t1,1600 # 29640 <tohost+0x9638>
  100b20:	00610133          	add	sp,sp,t1

00100b24 <i0000000137>:
  100b24:	66014303          	lbu	t1,1632(sp)

00100b28 <i0000000138>:
  100b28:	00378033          	add	zero,a5,gp

00100b2c <i0000000139>:
  100b2c:	03e15b03          	lhu	s6,62(sp)

00100b30 <i000000013a>:
  100b30:	5e010323          	sb	zero,1510(sp)

00100b34 <i000000013b>:
  100b34:	40055b33          	sra	s6,a0,zero

00100b38 <i000000013c>:
  100b38:	72410d83          	lb	s11,1828(sp)
  100b3c:	0000e117          	auipc	sp,0xe
  100b40:	5c410113          	add	sp,sp,1476 # 10f100 <mem>
  100b44:	00011337          	lui	t1,0x11
  100b48:	47030313          	add	t1,t1,1136 # 11470 <_stack_len+0x9470>
  100b4c:	00610133          	add	sp,sp,t1

00100b50 <i000000013d>:
  100b50:	8b214f83          	lbu	t6,-1870(sp)
  100b54:	0000e117          	auipc	sp,0xe
  100b58:	5ac10113          	add	sp,sp,1452 # 10f100 <mem>
  100b5c:	00008337          	lui	t1,0x8
  100b60:	93830313          	add	t1,t1,-1736 # 7938 <_min_stack+0x5938>
  100b64:	00610133          	add	sp,sp,t1

00100b68 <i000000013e>:
  100b68:	de411683          	lh	a3,-540(sp)
  100b6c:	0000e117          	auipc	sp,0xe
  100b70:	59410113          	add	sp,sp,1428 # 10f100 <mem>
  100b74:	0004d337          	lui	t1,0x4d
  100b78:	01830313          	add	t1,t1,24 # 4d018 <tohost+0x2d010>
  100b7c:	00610133          	add	sp,sp,t1

00100b80 <i000000013f>:
  100b80:	5cc12223          	sw	a2,1476(sp)

00100b84 <i0000000140>:
  100b84:	83c12423          	sw	t3,-2008(sp)

00100b88 <i0000000141>:
  100b88:	94b56b93          	or	s7,a0,-1717

00100b8c <i0000000142>:
  100b8c:	e6592893          	slti	a7,s2,-411

00100b90 <i0000000143>:
  100b90:	4037d533          	sra	a0,a5,gp
  100b94:	00c00993          	li	s3,12
  100b98:	001d0d13          	add	s10,s10,1

00100b9c <b0000000144>:
  100b9c:	00000033          	add	zero,zero,zero
  100ba0:	ffa9d0e3          	bge	s3,s10,100b80 <i000000013f>
  100ba4:	00000033          	add	zero,zero,zero
  100ba8:	00a00d13          	li	s10,10

00100bac <i0000000144>:
  100bac:	e3015783          	lhu	a5,-464(sp)

00100bb0 <i0000000145>:
  100bb0:	be012c83          	lw	s9,-1056(sp)

00100bb4 <i0000000146>:
  100bb4:	62ff4813          	xor	a6,t5,1583

00100bb8 <i0000000147>:
  100bb8:	c9da7013          	and	zero,s4,-867

00100bbc <i0000000148>:
  100bbc:	0101ab33          	slt	s6,gp,a6

00100bc0 <i0000000149>:
  100bc0:	61403f13          	sltiu	t5,zero,1556

00100bc4 <i000000014a>:
  100bc4:	000f4033          	xor	zero,t5,zero

00100bc8 <i000000014b>:
  100bc8:	000f6533          	or	a0,t5,zero

00100bcc <i000000014c>:
  100bcc:	84c10ea3          	sb	a2,-1955(sp)
  100bd0:	0000e117          	auipc	sp,0xe
  100bd4:	53010113          	add	sp,sp,1328 # 10f100 <mem>
  100bd8:	00069337          	lui	t1,0x69
  100bdc:	09830313          	add	t1,t1,152 # 69098 <tohost+0x49090>
  100be0:	00610133          	add	sp,sp,t1

00100be4 <i000000014d>:
  100be4:	fc415503          	lhu	a0,-60(sp)

00100be8 <i000000014e>:
  100be8:	f5754413          	xor	s0,a0,-169

00100bec <i000000014f>:
  100bec:	28412c23          	sw	tp,664(sp)
  100bf0:	0000e117          	auipc	sp,0xe
  100bf4:	51010113          	add	sp,sp,1296 # 10f100 <mem>
  100bf8:	00013337          	lui	t1,0x13
  100bfc:	2c030313          	add	t1,t1,704 # 132c0 <_stack_len+0xb2c0>
  100c00:	00610133          	add	sp,sp,t1

00100c04 <i0000000150>:
  100c04:	d3015503          	lhu	a0,-720(sp)

00100c08 <i0000000151>:
  100c08:	004f2eb3          	slt	t4,t5,tp

00100c0c <i0000000152>:
  100c0c:	36a12e23          	sw	a0,892(sp)

00100c10 <i0000000153>:
  100c10:	9d011723          	sh	a6,-1586(sp)

00100c14 <i0000000154>:
  100c14:	6c906597          	auipc	a1,0x6c906

00100c18 <i0000000155>:
  100c18:	644108a3          	sb	tp,1617(sp)

00100c1c <i0000000156>:
  100c1c:	3efe4a93          	xor	s5,t3,1007

00100c20 <b0000000157>:
  100c20:	0580056f          	jal	a0,100c78 <i0000000162>

00100c24 <i0000000157>:
  100c24:	bc411403          	lh	s0,-1084(sp)

00100c28 <i0000000158>:
  100c28:	00fc9233          	sll	tp,s9,a5
  100c2c:	0000e117          	auipc	sp,0xe
  100c30:	4d410113          	add	sp,sp,1236 # 10f100 <mem>
  100c34:	00028337          	lui	t1,0x28
  100c38:	ba830313          	add	t1,t1,-1112 # 27ba8 <tohost+0x7ba0>
  100c3c:	00610133          	add	sp,sp,t1

00100c40 <i0000000159>:
  100c40:	ede11023          	sh	t5,-320(sp)

00100c44 <i000000015a>:
  100c44:	01ef6cb3          	or	s9,t5,t5

00100c48 <i000000015b>:
  100c48:	88410d23          	sb	tp,-1894(sp)

00100c4c <i000000015c>:
  100c4c:	e8d00193          	li	gp,-371

00100c50 <i000000015d>:
  100c50:	2538a213          	slti	tp,a7,595

00100c54 <i000000015e>:
  100c54:	0109b233          	sltu	tp,s3,a6
  100c58:	0000e117          	auipc	sp,0xe
  100c5c:	4a810113          	add	sp,sp,1192 # 10f100 <mem>
  100c60:	00010337          	lui	t1,0x10
  100c64:	d0030313          	add	t1,t1,-768 # fd00 <_stack_len+0x7d00>
  100c68:	00610133          	add	sp,sp,t1

00100c6c <i000000015f>:
  100c6c:	a8312023          	sw	gp,-1408(sp)

00100c70 <i0000000160>:
  100c70:	1e1ec037          	lui	zero,0x1e1ec

00100c74 <i0000000161>:
  100c74:	01620233          	add	tp,tp,s6

00100c78 <i0000000162>:
  100c78:	01e254b3          	srl	s1,tp,t5

00100c7c <i0000000163>:
  100c7c:	007cd533          	srl	a0,s9,t2

00100c80 <i0000000164>:
  100c80:	70cf6293          	or	t0,t5,1804

00100c84 <i0000000165>:
  100c84:	ea812203          	lw	tp,-344(sp)

00100c88 <i0000000166>:
  100c88:	6d812003          	lw	zero,1752(sp)
  100c8c:	0000e117          	auipc	sp,0xe
  100c90:	47410113          	add	sp,sp,1140 # 10f100 <mem>
  100c94:	00060337          	lui	t1,0x60
  100c98:	cf030313          	add	t1,t1,-784 # 5fcf0 <tohost+0x3fce8>
  100c9c:	00610133          	add	sp,sp,t1

00100ca0 <i0000000167>:
  100ca0:	f8811403          	lh	s0,-120(sp)

00100ca4 <i0000000168>:
  100ca4:	90812823          	sw	s0,-1776(sp)

00100ca8 <i0000000169>:
  100ca8:	01d79bb3          	sll	s7,a5,t4
  100cac:	00c00a13          	li	s4,12
  100cb0:	001d0d13          	add	s10,s10,1

00100cb4 <b000000016a>:
  100cb4:	00000033          	add	zero,zero,zero
  100cb8:	fdaa52e3          	bge	s4,s10,100c7c <i0000000163>
  100cbc:	00000033          	add	zero,zero,zero
  100cc0:	00a00d13          	li	s10,10

00100cc4 <i000000016a>:
  100cc4:	bb5f3f13          	sltiu	t5,t5,-1099
  100cc8:	0000e117          	auipc	sp,0xe
  100ccc:	43810113          	add	sp,sp,1080 # 10f100 <mem>
  100cd0:	0002d337          	lui	t1,0x2d
  100cd4:	f9830313          	add	t1,t1,-104 # 2cf98 <tohost+0xcf90>
  100cd8:	00610133          	add	sp,sp,t1

00100cdc <i000000016b>:
  100cdc:	7fe10aa3          	sb	t5,2037(sp)

00100ce0 <i000000016c>:
  100ce0:	35eb2f13          	slti	t5,s6,862
  100ce4:	0000e117          	auipc	sp,0xe
  100ce8:	41c10113          	add	sp,sp,1052 # 10f100 <mem>
  100cec:	0002d337          	lui	t1,0x2d
  100cf0:	9c830313          	add	t1,t1,-1592 # 2c9c8 <tohost+0xc9c0>
  100cf4:	00610133          	add	sp,sp,t1

00100cf8 <i000000016d>:
  100cf8:	94614503          	lbu	a0,-1722(sp)

00100cfc <i000000016e>:
  100cfc:	2ee14203          	lbu	tp,750(sp)

00100d00 <i000000016f>:
  100d00:	8ef101a3          	sb	a5,-1821(sp)

00100d04 <i0000000170>:
  100d04:	01dc0fb3          	add	t6,s8,t4

00100d08 <i0000000171>:
  100d08:	bd812003          	lw	zero,-1064(sp)

00100d0c <i0000000172>:
  100d0c:	d8c12003          	lw	zero,-628(sp)

00100d10 <i0000000173>:
  100d10:	e1211723          	sh	s2,-498(sp)

00100d14 <i0000000174>:
  100d14:	002dd513          	srl	a0,s11,0x2

00100d18 <i0000000175>:
  100d18:	0069ab33          	slt	s6,s3,t1

00100d1c <i0000000176>:
  100d1c:	651ea193          	slti	gp,t4,1617

00100d20 <i0000000177>:
  100d20:	8be10303          	lb	t1,-1858(sp)

00100d24 <i0000000178>:
  100d24:	00ab6f33          	or	t5,s6,a0
  100d28:	0000e117          	auipc	sp,0xe
  100d2c:	3d810113          	add	sp,sp,984 # 10f100 <mem>
  100d30:	0004b337          	lui	t1,0x4b
  100d34:	3c030313          	add	t1,t1,960 # 4b3c0 <tohost+0x2b3b8>
  100d38:	00610133          	add	sp,sp,t1

00100d3c <i0000000179>:
  100d3c:	10012623          	sw	zero,268(sp)

00100d40 <i000000017a>:
  100d40:	035a6993          	or	s3,s4,53

00100d44 <i000000017b>:
  100d44:	00d51f13          	sll	t5,a0,0xd

00100d48 <i000000017c>:
  100d48:	0175db13          	srl	s6,a1,0x17
  100d4c:	00000b93          	li	s7,0

00100d50 <b000000017d>:
  100d50:	00000033          	add	zero,zero,zero
  100d54:	fd7d02e3          	beq	s10,s7,100d18 <i0000000175>
  100d58:	00000033          	add	zero,zero,zero
  100d5c:	00a00d13          	li	s10,10

00100d60 <i000000017d>:
  100d60:	e4f10003          	lb	zero,-433(sp)

00100d64 <i000000017e>:
  100d64:	01ef3233          	sltu	tp,t5,t5

00100d68 <i000000017f>:
  100d68:	992f7013          	and	zero,t5,-1646

00100d6c <i0000000180>:
  100d6c:	596acb13          	xor	s6,s5,1430

00100d70 <i0000000181>:
  100d70:	cd411383          	lh	t2,-812(sp)

00100d74 <i0000000182>:
  100d74:	41735a13          	sra	s4,t1,0x17

00100d78 <i0000000183>:
  100d78:	41f48f33          	sub	t5,s1,t6

00100d7c <i0000000184>:
  100d7c:	88e11423          	sh	a4,-1912(sp)
  100d80:	0000e117          	auipc	sp,0xe
  100d84:	38010113          	add	sp,sp,896 # 10f100 <mem>
  100d88:	0002d337          	lui	t1,0x2d
  100d8c:	dd830313          	add	t1,t1,-552 # 2cdd8 <tohost+0xcdd0>
  100d90:	00610133          	add	sp,sp,t1

00100d94 <i0000000185>:
  100d94:	a4010c83          	lb	s9,-1472(sp)

00100d98 <i0000000186>:
  100d98:	50147713          	and	a4,s0,1281

00100d9c <i0000000187>:
  100d9c:	2b3e8237          	lui	tp,0x2b3e8

00100da0 <i0000000188>:
  100da0:	40005f33          	sra	t5,zero,zero

00100da4 <i0000000189>:
  100da4:	01b21b13          	sll	s6,tp,0x1b

00100da8 <i000000018a>:
  100da8:	4f412003          	lw	zero,1268(sp)
  100dac:	0000e117          	auipc	sp,0xe
  100db0:	35410113          	add	sp,sp,852 # 10f100 <mem>
  100db4:	00008337          	lui	t1,0x8
  100db8:	98830313          	add	t1,t1,-1656 # 7988 <_min_stack+0x5988>
  100dbc:	00610133          	add	sp,sp,t1

00100dc0 <i000000018b>:
  100dc0:	a0512a23          	sw	t0,-1516(sp)

00100dc4 <i000000018c>:
  100dc4:	b2412c23          	sw	tp,-1224(sp)

00100dc8 <i000000018d>:
  100dc8:	00a51bb3          	sll	s7,a0,a0

00100dcc <i000000018e>:
  100dcc:	016b0533          	add	a0,s6,s6

00100dd0 <i000000018f>:
  100dd0:	004b2b33          	slt	s6,s6,tp
  100dd4:	00c00b93          	li	s7,12
  100dd8:	001d0d13          	add	s10,s10,1

00100ddc <b0000000190>:
  100ddc:	00000033          	add	zero,zero,zero
  100de0:	fdabd2e3          	bge	s7,s10,100da4 <i0000000189>
  100de4:	00000033          	add	zero,zero,zero
  100de8:	00a00d13          	li	s10,10

00100dec <i0000000190>:
  100dec:	008a2533          	slt	a0,s4,s0

00100df0 <i0000000191>:
  100df0:	8f811423          	sh	s8,-1816(sp)

00100df4 <i0000000192>:
  100df4:	b6ffc613          	xor	a2,t6,-1169

00100df8 <i0000000193>:
  100df8:	41600533          	neg	a0,s6

00100dfc <i0000000194>:
  100dfc:	00024b33          	xor	s6,tp,zero

00100e00 <i0000000195>:
  100e00:	40d78fb3          	sub	t6,a5,a3

00100e04 <i0000000196>:
  100e04:	016b9193          	sll	gp,s7,0x16

00100e08 <i0000000197>:
  100e08:	38327f17          	auipc	t5,0x38327

00100e0c <i0000000198>:
  100e0c:	1ca12223          	sw	a0,452(sp)

00100e10 <i0000000199>:
  100e10:	00455233          	srl	tp,a0,tp

00100e14 <i000000019a>:
  100e14:	97437213          	and	tp,t1,-1676

00100e18 <i000000019b>:
  100e18:	74f14383          	lbu	t2,1871(sp)
  100e1c:	0000e117          	auipc	sp,0xe
  100e20:	2e410113          	add	sp,sp,740 # 10f100 <mem>
  100e24:	0001d337          	lui	t1,0x1d
  100e28:	53030313          	add	t1,t1,1328 # 1d530 <_stack_len+0x15530>
  100e2c:	00610133          	add	sp,sp,t1

00100e30 <i000000019c>:
  100e30:	c8815f83          	lhu	t6,-888(sp)

00100e34 <i000000019d>:
  100e34:	fbc15303          	lhu	t1,-68(sp)

00100e38 <i000000019e>:
  100e38:	019a5333          	srl	t1,s4,s9

00100e3c <i000000019f>:
  100e3c:	006c9fb3          	sll	t6,s9,t1

00100e40 <i00000001a0>:
  100e40:	017cbfb3          	sltu	t6,s9,s7

00100e44 <i00000001a1>:
  100e44:	fd896d93          	or	s11,s2,-40

00100e48 <i00000001a2>:
  100e48:	f2c12e23          	sw	a2,-196(sp)
  100e4c:	00c00a13          	li	s4,12
  100e50:	001d0d13          	add	s10,s10,1

00100e54 <b00000001a3>:
  100e54:	00000033          	add	zero,zero,zero
  100e58:	fd4d40e3          	blt	s10,s4,100e18 <i000000019b>
  100e5c:	00000033          	add	zero,zero,zero
  100e60:	00a00d13          	li	s10,10

00100e64 <i00000001a3>:
  100e64:	ef3b2213          	slti	tp,s6,-269

00100e68 <i00000001a4>:
  100e68:	0a361f37          	lui	t5,0xa361

00100e6c <i00000001a5>:
  100e6c:	7e611f03          	lh	t5,2022(sp)

00100e70 <i00000001a6>:
  100e70:	64d14b83          	lbu	s7,1613(sp)
  100e74:	0000e117          	auipc	sp,0xe
  100e78:	28c10113          	add	sp,sp,652 # 10f100 <mem>
  100e7c:	0003f337          	lui	t1,0x3f
  100e80:	bb830313          	add	t1,t1,-1096 # 3ebb8 <tohost+0x1ebb0>
  100e84:	00610133          	add	sp,sp,t1

00100e88 <i00000001a7>:
  100e88:	63a15283          	lhu	t0,1594(sp)

00100e8c <i00000001a8>:
  100e8c:	41eb0e33          	sub	t3,s6,t5

00100e90 <i00000001a9>:
  100e90:	400b0633          	sub	a2,s6,zero

00100e94 <i00000001aa>:
  100e94:	8f660213          	add	tp,a2,-1802
  100e98:	0000e117          	auipc	sp,0xe
  100e9c:	26810113          	add	sp,sp,616 # 10f100 <mem>
  100ea0:	00018337          	lui	t1,0x18
  100ea4:	67030313          	add	t1,t1,1648 # 18670 <_stack_len+0x10670>
  100ea8:	00610133          	add	sp,sp,t1

00100eac <i00000001ab>:
  100eac:	0d310003          	lb	zero,211(sp)

00100eb0 <i00000001ac>:
  100eb0:	0077e4b3          	or	s1,a5,t2

00100eb4 <i00000001ad>:
  100eb4:	6ac11423          	sh	a2,1704(sp)

00100eb8 <i00000001ae>:
  100eb8:	f3066c13          	or	s8,a2,-208

00100ebc <i00000001af>:
  100ebc:	01eb5933          	srl	s2,s6,t5

00100ec0 <i00000001b0>:
  100ec0:	f5810ba3          	sb	s8,-169(sp)

00100ec4 <i00000001b1>:
  100ec4:	99611d23          	sh	s6,-1638(sp)

00100ec8 <i00000001b2>:
  100ec8:	c3920593          	add	a1,tp,-967 # 2b3e7c39 <fromhost+0x2b25fc29>

00100ecc <i00000001b3>:
  100ecc:	0043d013          	srl	zero,t2,0x4

00100ed0 <i00000001b4>:
  100ed0:	f1511b23          	sh	s5,-234(sp)

00100ed4 <i00000001b5>:
  100ed4:	7c907193          	and	gp,zero,1993
  100ed8:	00b00b13          	li	s6,11
  100edc:	00a00d13          	li	s10,10

00100ee0 <b00000001b6>:
  100ee0:	00000033          	add	zero,zero,zero
  100ee4:	056d1063          	bne	s10,s6,100f24 <i00000001c3>
  100ee8:	00000033          	add	zero,zero,zero
  100eec:	00a00d13          	li	s10,10

00100ef0 <i00000001b6>:
  100ef0:	6c0602b7          	lui	t0,0x6c060

00100ef4 <i00000001b7>:
  100ef4:	00450f33          	add	t5,a0,tp

00100ef8 <i00000001b8>:
  100ef8:	3ca11223          	sh	a0,964(sp)

00100efc <i00000001b9>:
  100efc:	f2710203          	lb	tp,-217(sp)

00100f00 <i00000001ba>:
  100f00:	011f5393          	srl	t2,t5,0x11

00100f04 <i00000001bb>:
  100f04:	512108a3          	sb	s2,1297(sp)

00100f08 <i00000001bc>:
  100f08:	9e214c83          	lbu	s9,-1566(sp)

00100f0c <i00000001bd>:
  100f0c:	fbc12883          	lw	a7,-68(sp)

00100f10 <i00000001be>:
  100f10:	0194a6b3          	slt	a3,s1,s9

00100f14 <i00000001bf>:
  100f14:	238104a3          	sb	s8,553(sp)

00100f18 <i00000001c0>:
  100f18:	09714b83          	lbu	s7,151(sp)

00100f1c <i00000001c1>:
  100f1c:	74a11b03          	lh	s6,1866(sp)

00100f20 <i00000001c2>:
  100f20:	7ea9f237          	lui	tp,0x7ea9f

00100f24 <i00000001c3>:
  100f24:	01c7e033          	or	zero,a5,t3

00100f28 <i00000001c4>:
  100f28:	61788213          	add	tp,a7,1559

00100f2c <i00000001c5>:
  100f2c:	faa15503          	lhu	a0,-86(sp)

00100f30 <i00000001c6>:
  100f30:	ac211203          	lh	tp,-1342(sp)

00100f34 <i00000001c7>:
  100f34:	f0611503          	lh	a0,-250(sp)

00100f38 <i00000001c8>:
  100f38:	46811b03          	lh	s6,1128(sp)
  100f3c:	00c00c93          	li	s9,12
  100f40:	001d0d13          	add	s10,s10,1

00100f44 <b00000001c9>:
  100f44:	00000033          	add	zero,zero,zero
  100f48:	fbacdee3          	bge	s9,s10,100f04 <i00000001bb>
  100f4c:	00000033          	add	zero,zero,zero
  100f50:	00a00d13          	li	s10,10

00100f54 <i00000001c9>:
  100f54:	416b0233          	sub	tp,s6,s6

00100f58 <i00000001ca>:
  100f58:	754d4fb7          	lui	t6,0x754d4

00100f5c <i00000001cb>:
  100f5c:	41255493          	sra	s1,a0,0x12

00100f60 <i00000001cc>:
  100f60:	70911023          	sh	s1,1792(sp)

00100f64 <i00000001cd>:
  100f64:	38810003          	lb	zero,904(sp)

00100f68 <i00000001ce>:
  100f68:	41778f33          	sub	t5,a5,s7

00100f6c <i00000001cf>:
  100f6c:	2f510da3          	sb	s5,763(sp)

00100f70 <i00000001d0>:
  100f70:	4137d713          	sra	a4,a5,0x13

00100f74 <i00000001d1>:
  100f74:	010e1993          	sll	s3,t3,0x10

00100f78 <i00000001d2>:
  100f78:	5d9f0513          	add	a0,t5,1497 # a3615d9 <fromhost+0xa1d95c9>

00100f7c <i00000001d3>:
  100f7c:	19012e23          	sw	a6,412(sp)

00100f80 <i00000001d4>:
  100f80:	54d12023          	sw	a3,1344(sp)
  100f84:	0000e117          	auipc	sp,0xe
  100f88:	17c10113          	add	sp,sp,380 # 10f100 <mem>
  100f8c:	0006d337          	lui	t1,0x6d
  100f90:	37830313          	add	t1,t1,888 # 6d378 <tohost+0x4d370>
  100f94:	00610133          	add	sp,sp,t1

00100f98 <i00000001d5>:
  100f98:	b9015e03          	lhu	t3,-1136(sp)

00100f9c <i00000001d6>:
  100f9c:	f3eafb93          	and	s7,s5,-194

00100fa0 <i00000001d7>:
  100fa0:	7a1aba13          	sltiu	s4,s5,1953

00100fa4 <i00000001d8>:
  100fa4:	408907b3          	sub	a5,s2,s0

00100fa8 <i00000001d9>:
  100fa8:	00007f33          	and	t5,zero,zero

00100fac <i00000001da>:
  100fac:	53790017          	auipc	zero,0x53790

00100fb0 <i00000001db>:
  100fb0:	76d10303          	lb	t1,1901(sp)
  100fb4:	00b00b13          	li	s6,11
  100fb8:	00a00d13          	li	s10,10

00100fbc <b00000001dc>:
  100fbc:	00000033          	add	zero,zero,zero
  100fc0:	07ab5663          	bge	s6,s10,10102c <i00000001ea>
  100fc4:	00000033          	add	zero,zero,zero
  100fc8:	00a00d13          	li	s10,10

00100fcc <i00000001dc>:
  100fcc:	01ef78b3          	and	a7,t5,t5

00100fd0 <i00000001dd>:
  100fd0:	a1e10503          	lb	a0,-1506(sp)

00100fd4 <i00000001de>:
  100fd4:	01771a33          	sll	s4,a4,s7

00100fd8 <i00000001df>:
  100fd8:	018d9f33          	sll	t5,s11,s8

00100fdc <i00000001e0>:
  100fdc:	003c1f33          	sll	t5,s8,gp
  100fe0:	0000e117          	auipc	sp,0xe
  100fe4:	12010113          	add	sp,sp,288 # 10f100 <mem>
  100fe8:	0006c337          	lui	t1,0x6c
  100fec:	5a830313          	add	t1,t1,1448 # 6c5a8 <tohost+0x4c5a0>
  100ff0:	00610133          	add	sp,sp,t1

00100ff4 <i00000001e1>:
  100ff4:	7ec12983          	lw	s3,2028(sp)

00100ff8 <i00000001e2>:
  100ff8:	00af7533          	and	a0,t5,a0
  100ffc:	0000e117          	auipc	sp,0xe
  101000:	10410113          	add	sp,sp,260 # 10f100 <mem>
  101004:	00061337          	lui	t1,0x61
  101008:	e9830313          	add	t1,t1,-360 # 60e98 <tohost+0x40e90>
  10100c:	00610133          	add	sp,sp,t1

00101010 <i00000001e3>:
  101010:	1c314903          	lbu	s2,451(sp)

00101014 <i00000001e4>:
  101014:	dd012503          	lw	a0,-560(sp)

00101018 <i00000001e5>:
  101018:	74b10b03          	lb	s6,1867(sp)

0010101c <i00000001e6>:
  10101c:	57614c03          	lbu	s8,1398(sp)

00101020 <i00000001e7>:
  101020:	f8411303          	lh	t1,-124(sp)

00101024 <i00000001e8>:
  101024:	58710683          	lb	a3,1415(sp)

00101028 <i00000001e9>:
  101028:	5ee11623          	sh	a4,1516(sp)

0010102c <i00000001ea>:
  10102c:	d47e3513          	sltiu	a0,t3,-697

00101030 <i00000001eb>:
  101030:	73412b03          	lw	s6,1844(sp)

00101034 <i00000001ec>:
  101034:	ff110b03          	lb	s6,-15(sp)

00101038 <i00000001ed>:
  101038:	0102f333          	and	t1,t0,a6
  10103c:	0000e117          	auipc	sp,0xe
  101040:	0c410113          	add	sp,sp,196 # 10f100 <mem>
  101044:	0004d337          	lui	t1,0x4d
  101048:	94030313          	add	t1,t1,-1728 # 4c940 <tohost+0x2c938>
  10104c:	00610133          	add	sp,sp,t1

00101050 <i00000001ee>:
  101050:	b3212823          	sw	s2,-1232(sp)
  101054:	00900893          	li	a7,9

00101058 <b00000001ef>:
  101058:	00000033          	add	zero,zero,zero
  10105c:	f9a8dce3          	bge	a7,s10,100ff4 <i00000001e1>
  101060:	00000033          	add	zero,zero,zero
  101064:	00a00d13          	li	s10,10

00101068 <i00000001ef>:
  101068:	00721313          	sll	t1,tp,0x7

0010106c <i00000001f0>:
  10106c:	01e03233          	snez	tp,t5

00101070 <i00000001f1>:
  101070:	6aa11003          	lh	zero,1706(sp)

00101074 <i00000001f2>:
  101074:	ba411423          	sh	tp,-1112(sp)

00101078 <i00000001f3>:
  101078:	8d615983          	lhu	s3,-1834(sp)

0010107c <i00000001f4>:
  10107c:	00ec8b33          	add	s6,s9,a4

00101080 <i00000001f5>:
  101080:	e2412023          	sw	tp,-480(sp)

00101084 <i00000001f6>:
  101084:	b8a11723          	sh	a0,-1138(sp)

00101088 <i00000001f7>:
  101088:	09a15503          	lhu	a0,154(sp)

0010108c <i00000001f8>:
  10108c:	bc6c0513          	add	a0,s8,-1082

00101090 <i00000001f9>:
  101090:	d8e14b03          	lbu	s6,-626(sp)

00101094 <i00000001fa>:
  101094:	2ab10f23          	sb	a1,702(sp)

00101098 <i00000001fb>:
  101098:	c92cc393          	xor	t2,s9,-878

0010109c <i00000001fc>:
  10109c:	5c1a8017          	auipc	zero,0x5c1a8

001010a0 <i00000001fd>:
  1010a0:	bb252613          	slti	a2,a0,-1102

001010a4 <i00000001fe>:
  1010a4:	11e11523          	sh	t5,266(sp)

001010a8 <i00000001ff>:
  1010a8:	4177dbb3          	sra	s7,a5,s7

001010ac <i0000000200>:
  1010ac:	3d362397          	auipc	t2,0x3d362

001010b0 <i0000000201>:
  1010b0:	00829f33          	sll	t5,t0,s0
  1010b4:	00b00f93          	li	t6,11
  1010b8:	00a00d13          	li	s10,10

001010bc <b0000000202>:
  1010bc:	00000033          	add	zero,zero,zero
  1010c0:	07afd663          	bge	t6,s10,10112c <i0000000210>
  1010c4:	00000033          	add	zero,zero,zero
  1010c8:	00a00d13          	li	s10,10

001010cc <i0000000202>:
  1010cc:	40f85413          	sra	s0,a6,0xf
  1010d0:	0000e117          	auipc	sp,0xe
  1010d4:	03010113          	add	sp,sp,48 # 10f100 <mem>
  1010d8:	0001f337          	lui	t1,0x1f
  1010dc:	71830313          	add	t1,t1,1816 # 1f718 <_stack_len+0x17718>
  1010e0:	00610133          	add	sp,sp,t1

001010e4 <i0000000203>:
  1010e4:	ce411e23          	sh	tp,-772(sp)

001010e8 <i0000000204>:
  1010e8:	21ecbf13          	sltiu	t5,s9,542

001010ec <i0000000205>:
  1010ec:	40425033          	sra	zero,tp,tp

001010f0 <i0000000206>:
  1010f0:	21812503          	lw	a0,536(sp)

001010f4 <i0000000207>:
  1010f4:	74a03537          	lui	a0,0x74a03
  1010f8:	0000e117          	auipc	sp,0xe
  1010fc:	00810113          	add	sp,sp,8 # 10f100 <mem>
  101100:	0006d337          	lui	t1,0x6d
  101104:	ed030313          	add	t1,t1,-304 # 6ced0 <tohost+0x4cec8>
  101108:	00610133          	add	sp,sp,t1

0010110c <i0000000208>:
  10110c:	aa215b03          	lhu	s6,-1374(sp)

00101110 <i0000000209>:
  101110:	c9412e23          	sw	s4,-868(sp)

00101114 <i000000020a>:
  101114:	00a03933          	snez	s2,a0

00101118 <i000000020b>:
  101118:	46114b03          	lbu	s6,1121(sp)

0010111c <i000000020c>:
  10111c:	00a25e33          	srl	t3,tp,a0

00101120 <i000000020d>:
  101120:	6ae65b17          	auipc	s6,0x6ae65

00101124 <i000000020e>:
  101124:	40645033          	sra	zero,s0,t1

00101128 <i000000020f>:
  101128:	ec010203          	lb	tp,-320(sp)

0010112c <i0000000210>:
  10112c:	e5215c03          	lhu	s8,-430(sp)

00101130 <i0000000211>:
  101130:	40fe5533          	sra	a0,t3,a5

00101134 <i0000000212>:
  101134:	fc412403          	lw	s0,-60(sp)

00101138 <i0000000213>:
  101138:	40475693          	sra	a3,a4,0x4
  10113c:	0000e117          	auipc	sp,0xe
  101140:	fc410113          	add	sp,sp,-60 # 10f100 <mem>
  101144:	00010337          	lui	t1,0x10
  101148:	9c030313          	add	t1,t1,-1600 # f9c0 <_stack_len+0x79c0>
  10114c:	00610133          	add	sp,sp,t1

00101150 <i0000000214>:
  101150:	c8611203          	lh	tp,-890(sp)
  101154:	00a00f93          	li	t6,10

00101158 <b0000000215>:
  101158:	00000033          	add	zero,zero,zero
  10115c:	fbfd1ae3          	bne	s10,t6,101110 <i0000000209>
  101160:	00000033          	add	zero,zero,zero
  101164:	00a00d13          	li	s10,10

00101168 <i0000000215>:
  101168:	21c11583          	lh	a1,540(sp)

0010116c <i0000000216>:
  10116c:	416f5bb3          	sra	s7,t5,s6

00101170 <i0000000217>:
  101170:	fbc03013          	sltiu	zero,zero,-68

00101174 <i0000000218>:
  101174:	4011d513          	sra	a0,gp,0x1
  101178:	0000e117          	auipc	sp,0xe
  10117c:	f8810113          	add	sp,sp,-120 # 10f100 <mem>
  101180:	0005f337          	lui	t1,0x5f
  101184:	4e030313          	add	t1,t1,1248 # 5f4e0 <tohost+0x3f4d8>
  101188:	00610133          	add	sp,sp,t1

0010118c <i0000000219>:
  10118c:	f3e11223          	sh	t5,-220(sp)

00101190 <i000000021a>:
  101190:	01e203b3          	add	t2,tp,t5

00101194 <i000000021b>:
  101194:	a4812003          	lw	zero,-1464(sp)

00101198 <i000000021c>:
  101198:	bd611623          	sh	s6,-1076(sp)
  10119c:	0000e117          	auipc	sp,0xe
  1011a0:	f6410113          	add	sp,sp,-156 # 10f100 <mem>
  1011a4:	00036337          	lui	t1,0x36
  1011a8:	52830313          	add	t1,t1,1320 # 36528 <tohost+0x16520>
  1011ac:	00610133          	add	sp,sp,t1

001011b0 <i000000021d>:
  1011b0:	9a411923          	sh	tp,-1614(sp)

001011b4 <i000000021e>:
  1011b4:	41578233          	sub	tp,a5,s5

001011b8 <i000000021f>:
  1011b8:	41e05b33          	sra	s6,zero,t5

001011bc <i0000000220>:
  1011bc:	5ff10023          	sb	t6,1504(sp)

001011c0 <i0000000221>:
  1011c0:	10215783          	lhu	a5,258(sp)
  1011c4:	0000e117          	auipc	sp,0xe
  1011c8:	f3c10113          	add	sp,sp,-196 # 10f100 <mem>
  1011cc:	0003d337          	lui	t1,0x3d
  1011d0:	2c830313          	add	t1,t1,712 # 3d2c8 <tohost+0x1d2c0>
  1011d4:	00610133          	add	sp,sp,t1

001011d8 <i0000000222>:
  1011d8:	d2415503          	lhu	a0,-732(sp)

001011dc <i0000000223>:
  1011dc:	02810823          	sb	s0,48(sp)

001011e0 <i0000000224>:
  1011e0:	97011923          	sh	a6,-1678(sp)

001011e4 <i0000000225>:
  1011e4:	91411b83          	lh	s7,-1772(sp)

001011e8 <i0000000226>:
  1011e8:	50a14503          	lbu	a0,1290(sp)

001011ec <i0000000227>:
  1011ec:	4f6f3e13          	sltiu	t3,t5,1270
  1011f0:	00c00e13          	li	t3,12
  1011f4:	001d0d13          	add	s10,s10,1

001011f8 <b0000000228>:
  1011f8:	01cd0863          	beq	s10,t3,101208 <b0000000228+0x10>
  1011fc:	00000e17          	auipc	t3,0x0
  101200:	fc0e0e13          	add	t3,t3,-64 # 1011bc <i0000000220>
  101204:	000e0567          	jalr	a0,t3
  101208:	00a00d13          	li	s10,10

0010120c <i0000000228>:
  10120c:	014f9db3          	sll	s11,t6,s4

00101210 <i0000000229>:
  101210:	411dd913          	sra	s2,s11,0x11
  101214:	0000e117          	auipc	sp,0xe
  101218:	eec10113          	add	sp,sp,-276 # 10f100 <mem>
  10121c:	00034337          	lui	t1,0x34
  101220:	98030313          	add	t1,t1,-1664 # 33980 <tohost+0x13978>
  101224:	00610133          	add	sp,sp,t1

00101228 <i000000022a>:
  101228:	69710003          	lb	zero,1687(sp)

0010122c <i000000022b>:
  10122c:	fbc12003          	lw	zero,-68(sp)

00101230 <i000000022c>:
  101230:	00e5fb33          	and	s6,a1,a4

00101234 <i000000022d>:
  101234:	007b1213          	sll	tp,s6,0x7

00101238 <i000000022e>:
  101238:	c4c12503          	lw	a0,-948(sp)

0010123c <i000000022f>:
  10123c:	00e90033          	add	zero,s2,a4

00101240 <i0000000230>:
  101240:	01de4b33          	xor	s6,t3,t4

00101244 <i0000000231>:
  101244:	bee11c03          	lh	s8,-1042(sp)

00101248 <i0000000232>:
  101248:	a5c11d23          	sh	t3,-1446(sp)

0010124c <i0000000233>:
  10124c:	40405733          	sra	a4,zero,tp

00101250 <i0000000234>:
  101250:	9fd12823          	sw	t4,-1552(sp)

00101254 <i0000000235>:
  101254:	aa010183          	lb	gp,-1376(sp)
  101258:	0000e117          	auipc	sp,0xe
  10125c:	ea810113          	add	sp,sp,-344 # 10f100 <mem>
  101260:	00008337          	lui	t1,0x8
  101264:	6c030313          	add	t1,t1,1728 # 86c0 <_stack_len+0x6c0>
  101268:	00610133          	add	sp,sp,t1

0010126c <i0000000236>:
  10126c:	40611503          	lh	a0,1030(sp)

00101270 <i0000000237>:
  101270:	e2415e83          	lhu	t4,-476(sp)

00101274 <i0000000238>:
  101274:	407ad533          	sra	a0,s5,t2

00101278 <i0000000239>:
  101278:	2a6102a3          	sb	t1,677(sp)

0010127c <i000000023a>:
  10127c:	009fdf33          	srl	t5,t6,s1
  101280:	00c00d93          	li	s11,12
  101284:	001d0d13          	add	s10,s10,1

00101288 <b000000023b>:
  101288:	00000033          	add	zero,zero,zero
  10128c:	fbbd4ae3          	blt	s10,s11,101240 <i0000000230>
  101290:	00000033          	add	zero,zero,zero
  101294:	00a00d13          	li	s10,10

00101298 <i000000023b>:
  101298:	ad612a23          	sw	s6,-1324(sp)

0010129c <i000000023c>:
  10129c:	0d611003          	lh	zero,214(sp)

001012a0 <i000000023d>:
  1012a0:	400206b3          	sub	a3,tp,zero

001012a4 <i000000023e>:
  1012a4:	99a54f93          	xor	t6,a0,-1638
  1012a8:	0000e117          	auipc	sp,0xe
  1012ac:	e5810113          	add	sp,sp,-424 # 10f100 <mem>
  1012b0:	0005e337          	lui	t1,0x5e
  1012b4:	a3030313          	add	t1,t1,-1488 # 5da30 <tohost+0x3da28>
  1012b8:	00610133          	add	sp,sp,t1

001012bc <i000000023f>:
  1012bc:	65a14503          	lbu	a0,1626(sp)

001012c0 <i0000000240>:
  1012c0:	01e21e33          	sll	t3,tp,t5

001012c4 <i0000000241>:
  1012c4:	004b04b3          	add	s1,s6,tp

001012c8 <i0000000242>:
  1012c8:	019685b3          	add	a1,a3,s9

001012cc <i0000000243>:
  1012cc:	d2012023          	sw	zero,-736(sp)

001012d0 <i0000000244>:
  1012d0:	8bd11523          	sh	t4,-1878(sp)

001012d4 <i0000000245>:
  1012d4:	3fe42a13          	slti	s4,s0,1022

001012d8 <i0000000246>:
  1012d8:	41f45233          	sra	tp,s0,t6

001012dc <i0000000247>:
  1012dc:	1ce7ee93          	or	t4,a5,462

001012e0 <i0000000248>:
  1012e0:	00da6033          	or	zero,s4,a3
  1012e4:	0000e117          	auipc	sp,0xe
  1012e8:	e1c10113          	add	sp,sp,-484 # 10f100 <mem>
  1012ec:	00011337          	lui	t1,0x11
  1012f0:	4f830313          	add	t1,t1,1272 # 114f8 <_stack_len+0x94f8>
  1012f4:	00610133          	add	sp,sp,t1

001012f8 <i0000000249>:
  1012f8:	e6012a23          	sw	zero,-396(sp)

001012fc <i000000024a>:
  1012fc:	7ca11323          	sh	a0,1990(sp)

00101300 <i000000024b>:
  101300:	dab10203          	lb	tp,-597(sp)

00101304 <i000000024c>:
  101304:	41f98eb3          	sub	t4,s3,t6
  101308:	0000e117          	auipc	sp,0xe
  10130c:	df810113          	add	sp,sp,-520 # 10f100 <mem>
  101310:	0000b337          	lui	t1,0xb
  101314:	26830313          	add	t1,t1,616 # b268 <_stack_len+0x3268>
  101318:	00610133          	add	sp,sp,t1

0010131c <i000000024d>:
  10131c:	21910383          	lb	t2,537(sp)
  101320:	00900a93          	li	s5,9

00101324 <b000000024e>:
  101324:	00000033          	add	zero,zero,zero
  101328:	f95d4ee3          	blt	s10,s5,1012c4 <i0000000241>
  10132c:	00000033          	add	zero,zero,zero
  101330:	00a00d13          	li	s10,10

00101334 <i000000024e>:
  101334:	f1611223          	sh	s6,-252(sp)

00101338 <i000000024f>:
  101338:	52130213          	add	tp,t1,1313

0010133c <i0000000250>:
  10133c:	22914703          	lbu	a4,553(sp)

00101340 <i0000000251>:
  101340:	5b012a23          	sw	a6,1460(sp)
  101344:	0000e117          	auipc	sp,0xe
  101348:	dbc10113          	add	sp,sp,-580 # 10f100 <mem>
  10134c:	00019337          	lui	t1,0x19
  101350:	5a830313          	add	t1,t1,1448 # 195a8 <_stack_len+0x115a8>
  101354:	00610133          	add	sp,sp,t1

00101358 <i0000000252>:
  101358:	30011583          	lh	a1,768(sp)

0010135c <i0000000253>:
  10135c:	e9010183          	lb	gp,-368(sp)

00101360 <i0000000254>:
  101360:	7be12c23          	sw	t5,1976(sp)

00101364 <i0000000255>:
  101364:	6f810b03          	lb	s6,1784(sp)

00101368 <i0000000256>:
  101368:	414809b3          	sub	s3,a6,s4

0010136c <i0000000257>:
  10136c:	01655633          	srl	a2,a0,s6

00101370 <i0000000258>:
  101370:	07e11a23          	sh	t5,116(sp)

00101374 <i0000000259>:
  101374:	01650533          	add	a0,a0,s6

00101378 <i000000025a>:
  101378:	019ee9b3          	or	s3,t4,s9

0010137c <i000000025b>:
  10137c:	24a12023          	sw	a0,576(sp)

00101380 <i000000025c>:
  101380:	8aa12c23          	sw	a0,-1864(sp)
  101384:	0000e117          	auipc	sp,0xe
  101388:	d7c10113          	add	sp,sp,-644 # 10f100 <mem>
  10138c:	00068337          	lui	t1,0x68
  101390:	d9030313          	add	t1,t1,-624 # 67d90 <tohost+0x47d88>
  101394:	00610133          	add	sp,sp,t1

00101398 <i000000025d>:
  101398:	1ac12c83          	lw	s9,428(sp)

0010139c <i000000025e>:
  10139c:	408bd013          	sra	zero,s7,0x8

001013a0 <i000000025f>:
  1013a0:	52410ea3          	sb	tp,1341(sp)

001013a4 <i0000000260>:
  1013a4:	0103a833          	slt	a6,t2,a6

001013a8 <b0000000261>:
  1013a8:	00000e97          	auipc	t4,0x0
  1013ac:	068e8e93          	add	t4,t4,104 # 101410 <i000000026e>
  1013b0:	000e8567          	jalr	a0,t4

001013b4 <i0000000261>:
  1013b4:	40705f13          	sra	t5,zero,0x7
  1013b8:	0000e117          	auipc	sp,0xe
  1013bc:	d4810113          	add	sp,sp,-696 # 10f100 <mem>
  1013c0:	0000e337          	lui	t1,0xe
  1013c4:	1e830313          	add	t1,t1,488 # e1e8 <_stack_len+0x61e8>
  1013c8:	00610133          	add	sp,sp,t1

001013cc <i0000000262>:
  1013cc:	16010b23          	sb	zero,374(sp)

001013d0 <i0000000263>:
  1013d0:	b9f10603          	lb	a2,-1121(sp)

001013d4 <i0000000264>:
  1013d4:	40858cb3          	sub	s9,a1,s0

001013d8 <i0000000265>:
  1013d8:	40405f33          	sra	t5,zero,tp

001013dc <i0000000266>:
  1013dc:	410b5b13          	sra	s6,s6,0x10

001013e0 <i0000000267>:
  1013e0:	01af1593          	sll	a1,t5,0x1a

001013e4 <i0000000268>:
  1013e4:	01e054b3          	srl	s1,zero,t5

001013e8 <i0000000269>:
  1013e8:	f0e11f03          	lh	t5,-242(sp)

001013ec <i000000026a>:
  1013ec:	f6f11723          	sh	a5,-146(sp)
  1013f0:	0000e117          	auipc	sp,0xe
  1013f4:	d1010113          	add	sp,sp,-752 # 10f100 <mem>
  1013f8:	0006a337          	lui	t1,0x6a
  1013fc:	17030313          	add	t1,t1,368 # 6a170 <tohost+0x4a168>
  101400:	00610133          	add	sp,sp,t1

00101404 <i000000026b>:
  101404:	12310c23          	sb	gp,312(sp)

00101408 <i000000026c>:
  101408:	01c6c033          	xor	zero,a3,t3

0010140c <i000000026d>:
  10140c:	01604cb3          	xor	s9,zero,s6

00101410 <i000000026e>:
  101410:	008875b3          	and	a1,a6,s0

00101414 <i000000026f>:
  101414:	4e012683          	lw	a3,1248(sp)

00101418 <i0000000270>:
  101418:	e8520013          	add	zero,tp,-379 # 7ea9ee85 <fromhost+0x7e916e75>

0010141c <i0000000271>:
  10141c:	3dcfcf13          	xor	t5,t6,988

00101420 <i0000000272>:
  101420:	50710f03          	lb	t5,1287(sp)

00101424 <i0000000273>:
  101424:	b7c11483          	lh	s1,-1156(sp)
  101428:	00b00993          	li	s3,11
  10142c:	00a00d13          	li	s10,10

00101430 <b0000000274>:
  101430:	00000033          	add	zero,zero,zero
  101434:	073d1263          	bne	s10,s3,101498 <i0000000280>
  101438:	00000033          	add	zero,zero,zero
  10143c:	00a00d13          	li	s10,10

00101440 <i0000000274>:
  101440:	e7412003          	lw	zero,-396(sp)

00101444 <i0000000275>:
  101444:	7b1f3913          	sltiu	s2,t5,1969

00101448 <i0000000276>:
  101448:	29215003          	lhu	zero,658(sp)

0010144c <i0000000277>:
  10144c:	79c12823          	sw	t3,1936(sp)

00101450 <i0000000278>:
  101450:	4fe12a23          	sw	t5,1268(sp)

00101454 <i0000000279>:
  101454:	63612e23          	sw	s6,1596(sp)

00101458 <i000000027a>:
  101458:	00ce1033          	sll	zero,t3,a2

0010145c <i000000027b>:
  10145c:	281bf893          	and	a7,s7,641

00101460 <i000000027c>:
  101460:	fd211983          	lh	s3,-46(sp)

00101464 <i000000027d>:
  101464:	00615b03          	lhu	s6,6(sp)
  101468:	0000e117          	auipc	sp,0xe
  10146c:	c9810113          	add	sp,sp,-872 # 10f100 <mem>
  101470:	00007337          	lui	t1,0x7
  101474:	60830313          	add	t1,t1,1544 # 7608 <_min_stack+0x5608>
  101478:	00610133          	add	sp,sp,t1

0010147c <i000000027e>:
  10147c:	b9110e23          	sb	a7,-1124(sp)
  101480:	0000e117          	auipc	sp,0xe
  101484:	c8010113          	add	sp,sp,-896 # 10f100 <mem>
  101488:	0004b337          	lui	t1,0x4b
  10148c:	d4830313          	add	t1,t1,-696 # 4ad48 <tohost+0x2ad40>
  101490:	00610133          	add	sp,sp,t1

00101494 <i000000027f>:
  101494:	a8710003          	lb	zero,-1401(sp)

00101498 <i0000000280>:
  101498:	f8f57a13          	and	s4,a0,-113

0010149c <i0000000281>:
  10149c:	15c11a83          	lh	s5,348(sp)

001014a0 <i0000000282>:
  1014a0:	75082217          	auipc	tp,0x75082

001014a4 <i0000000283>:
  1014a4:	dac10003          	lb	zero,-596(sp)

001014a8 <i0000000284>:
  1014a8:	00424533          	xor	a0,tp,tp

001014ac <i0000000285>:
  1014ac:	9ca72213          	slti	tp,a4,-1590

001014b0 <i0000000286>:
  1014b0:	0f233f13          	sltiu	t5,t1,242
  1014b4:	00900a13          	li	s4,9

001014b8 <b0000000287>:
  1014b8:	00000033          	add	zero,zero,zero
  1014bc:	ffaa50e3          	bge	s4,s10,10149c <i0000000281>
  1014c0:	00000033          	add	zero,zero,zero
  1014c4:	00a00d13          	li	s10,10

001014c8 <i0000000287>:
  1014c8:	8ef14603          	lbu	a2,-1809(sp)

001014cc <i0000000288>:
  1014cc:	98b12e23          	sw	a1,-1636(sp)

001014d0 <i0000000289>:
  1014d0:	51127f37          	lui	t5,0x51127

001014d4 <i000000028a>:
  1014d4:	20411c03          	lh	s8,516(sp)

001014d8 <i000000028b>:
  1014d8:	8b322213          	slti	tp,tp,-1869

001014dc <i000000028c>:
  1014dc:	62637c93          	and	s9,t1,1574
  1014e0:	0000e117          	auipc	sp,0xe
  1014e4:	c2010113          	add	sp,sp,-992 # 10f100 <mem>
  1014e8:	00032337          	lui	t1,0x32
  1014ec:	87030313          	add	t1,t1,-1936 # 31870 <tohost+0x11868>
  1014f0:	00610133          	add	sp,sp,t1

001014f4 <i000000028d>:
  1014f4:	c7e10b03          	lb	s6,-898(sp)

001014f8 <i000000028e>:
  1014f8:	053b2f13          	slti	t5,s6,83

001014fc <i000000028f>:
  1014fc:	1f610ea3          	sb	s6,509(sp)

00101500 <i0000000290>:
  101500:	791f3e13          	sltiu	t3,t5,1937

00101504 <i0000000291>:
  101504:	16011e03          	lh	t3,352(sp)

00101508 <i0000000292>:
  101508:	c5b12623          	sw	s11,-948(sp)

0010150c <i0000000293>:
  10150c:	289a2013          	slti	zero,s4,649

00101510 <i0000000294>:
  101510:	009ae533          	or	a0,s5,s1

00101514 <i0000000295>:
  101514:	22711023          	sh	t2,544(sp)

00101518 <i0000000296>:
  101518:	a2d12e23          	sw	a3,-1476(sp)
  10151c:	0000e117          	auipc	sp,0xe
  101520:	be410113          	add	sp,sp,-1052 # 10f100 <mem>
  101524:	0005c337          	lui	t1,0x5c
  101528:	99830313          	add	t1,t1,-1640 # 5b998 <tohost+0x3b990>
  10152c:	00610133          	add	sp,sp,t1

00101530 <i0000000297>:
  101530:	9c510283          	lb	t0,-1595(sp)

00101534 <i0000000298>:
  101534:	1ec14203          	lbu	tp,492(sp)

00101538 <i0000000299>:
  101538:	00455b33          	srl	s6,a0,tp
  10153c:	00900a13          	li	s4,9

00101540 <b000000029a>:
  101540:	00000033          	add	zero,zero,zero
  101544:	fb4d48e3          	blt	s10,s4,1014f4 <i000000028d>
  101548:	00000033          	add	zero,zero,zero
  10154c:	00a00d13          	li	s10,10

00101550 <i000000029a>:
  101550:	48253b13          	sltiu	s6,a0,1154

00101554 <i000000029b>:
  101554:	00a00f33          	add	t5,zero,a0

00101558 <i000000029c>:
  101558:	a2512a23          	sw	t0,-1484(sp)

0010155c <i000000029d>:
  10155c:	01dc8033          	add	zero,s9,t4

00101560 <i000000029e>:
  101560:	1bc14483          	lbu	s1,444(sp)

00101564 <i000000029f>:
  101564:	c0053b93          	sltiu	s7,a0,-1024

00101568 <i00000002a0>:
  101568:	89f6f613          	and	a2,a3,-1889

0010156c <i00000002a1>:
  10156c:	a3402713          	slti	a4,zero,-1484
  101570:	0000e117          	auipc	sp,0xe
  101574:	b9010113          	add	sp,sp,-1136 # 10f100 <mem>
  101578:	00039337          	lui	t1,0x39
  10157c:	1a030313          	add	t1,t1,416 # 391a0 <tohost+0x19198>
  101580:	00610133          	add	sp,sp,t1

00101584 <i00000002a2>:
  101584:	ab615b03          	lhu	s6,-1354(sp)

00101588 <i00000002a3>:
  101588:	6ec12a83          	lw	s5,1772(sp)

0010158c <i00000002a4>:
  10158c:	e5811903          	lh	s2,-424(sp)

00101590 <i00000002a5>:
  101590:	d40b3513          	sltiu	a0,s6,-704

00101594 <i00000002a6>:
  101594:	1129b693          	sltiu	a3,s3,274

00101598 <i00000002a7>:
  101598:	008742b3          	xor	t0,a4,s0

0010159c <i00000002a8>:
  10159c:	8b511723          	sh	s5,-1874(sp)

001015a0 <i00000002a9>:
  1015a0:	6c811003          	lh	zero,1736(sp)

001015a4 <i00000002aa>:
  1015a4:	7b012583          	lw	a1,1968(sp)

001015a8 <i00000002ab>:
  1015a8:	7be11a23          	sh	t5,1972(sp)

001015ac <i00000002ac>:
  1015ac:	2ae11203          	lh	tp,686(sp)
  1015b0:	00c00b13          	li	s6,12
  1015b4:	00a00d13          	li	s10,10

001015b8 <b00000002ad>:
  1015b8:	00000033          	add	zero,zero,zero
  1015bc:	056d4c63          	blt	s10,s6,101614 <i00000002bb>
  1015c0:	00000033          	add	zero,zero,zero
  1015c4:	00a00d13          	li	s10,10

001015c8 <i00000002ad>:
  1015c8:	86b22413          	slti	s0,tp,-1941

001015cc <i00000002ae>:
  1015cc:	00b14403          	lbu	s0,11(sp)

001015d0 <i00000002af>:
  1015d0:	40835213          	sra	tp,t1,0x8

001015d4 <i00000002b0>:
  1015d4:	0d10f817          	auipc	a6,0xd10f

001015d8 <i00000002b1>:
  1015d8:	1fc104a3          	sb	t3,489(sp)

001015dc <i00000002b2>:
  1015dc:	9c012b03          	lw	s6,-1600(sp)

001015e0 <i00000002b3>:
  1015e0:	d0614f03          	lbu	t5,-762(sp)

001015e4 <i00000002b4>:
  1015e4:	60fa2f13          	slti	t5,s4,1551

001015e8 <i00000002b5>:
  1015e8:	40325513          	sra	a0,tp,0x3

001015ec <i00000002b6>:
  1015ec:	0af10f03          	lb	t5,175(sp)

001015f0 <i00000002b7>:
  1015f0:	f013fc93          	and	s9,t2,-255
  1015f4:	0000e117          	auipc	sp,0xe
  1015f8:	b0c10113          	add	sp,sp,-1268 # 10f100 <mem>
  1015fc:	00068337          	lui	t1,0x68
  101600:	3f030313          	add	t1,t1,1008 # 683f0 <tohost+0x483e8>
  101604:	00610133          	add	sp,sp,t1

00101608 <i00000002b8>:
  101608:	98012423          	sw	zero,-1656(sp)

0010160c <i00000002b9>:
  10160c:	8dc14a83          	lbu	s5,-1828(sp)

00101610 <i00000002ba>:
  101610:	c3e106a3          	sb	t5,-979(sp)

00101614 <i00000002bb>:
  101614:	40055333          	sra	t1,a0,zero

00101618 <i00000002bc>:
  101618:	4b1c4217          	auipc	tp,0x4b1c4

0010161c <i00000002bd>:
  10161c:	c2d14283          	lbu	t0,-979(sp)

00101620 <i00000002be>:
  101620:	db760013          	add	zero,a2,-585
  101624:	0000e117          	auipc	sp,0xe
  101628:	adc10113          	add	sp,sp,-1316 # 10f100 <mem>
  10162c:	00032337          	lui	t1,0x32
  101630:	4f030313          	add	t1,t1,1264 # 324f0 <tohost+0x124e8>
  101634:	00610133          	add	sp,sp,t1

00101638 <i00000002bf>:
  101638:	2ae15003          	lhu	zero,686(sp)
  10163c:	00a00c93          	li	s9,10

00101640 <b00000002c0>:
  101640:	00000033          	add	zero,zero,zero
  101644:	fb9d12e3          	bne	s10,s9,1015e8 <i00000002b5>
  101648:	00000033          	add	zero,zero,zero
  10164c:	00a00d13          	li	s10,10
  101650:	0000e117          	auipc	sp,0xe
  101654:	ab010113          	add	sp,sp,-1360 # 10f100 <mem>
  101658:	00022337          	lui	t1,0x22
  10165c:	3b830313          	add	t1,t1,952 # 223b8 <tohost+0x23b0>
  101660:	00610133          	add	sp,sp,t1

00101664 <i00000002c0>:
  101664:	b2811283          	lh	t0,-1240(sp)

00101668 <i00000002c1>:
  101668:	8fe11023          	sh	t5,-1824(sp)

0010166c <i00000002c2>:
  10166c:	2e012c03          	lw	s8,736(sp)

00101670 <i00000002c3>:
  101670:	7bd57513          	and	a0,a0,1981

00101674 <i00000002c4>:
  101674:	3c012623          	sw	zero,972(sp)
  101678:	0000e117          	auipc	sp,0xe
  10167c:	a8810113          	add	sp,sp,-1400 # 10f100 <mem>
  101680:	00022337          	lui	t1,0x22
  101684:	1d030313          	add	t1,t1,464 # 221d0 <tohost+0x21c8>
  101688:	00610133          	add	sp,sp,t1

0010168c <i00000002c5>:
  10168c:	fd810f03          	lb	t5,-40(sp)

00101690 <i00000002c6>:
  101690:	6213e9b7          	lui	s3,0x6213e

00101694 <i00000002c7>:
  101694:	40530033          	sub	zero,t1,t0

00101698 <i00000002c8>:
  101698:	ce415683          	lhu	a3,-796(sp)

0010169c <i00000002c9>:
  10169c:	01f25b13          	srl	s6,tp,0x1f

001016a0 <i00000002ca>:
  1016a0:	00525213          	srl	tp,tp,0x5

001016a4 <i00000002cb>:
  1016a4:	00012823          	sw	zero,16(sp)

001016a8 <i00000002cc>:
  1016a8:	59615b83          	lhu	s7,1430(sp)

001016ac <i00000002cd>:
  1016ac:	9bc10b83          	lb	s7,-1604(sp)

001016b0 <i00000002ce>:
  1016b0:	00969233          	sll	tp,a3,s1

001016b4 <i00000002cf>:
  1016b4:	4a012583          	lw	a1,1184(sp)

001016b8 <i00000002d0>:
  1016b8:	019bb233          	sltu	tp,s7,s9

001016bc <i00000002d1>:
  1016bc:	00001733          	sll	a4,zero,zero

001016c0 <i00000002d2>:
  1016c0:	da012e23          	sw	zero,-580(sp)
  1016c4:	00900f93          	li	t6,9
  1016c8:	00a00d13          	li	s10,10

001016cc <b00000002d3>:
  1016cc:	00000033          	add	zero,zero,zero
  1016d0:	03fd4463          	blt	s10,t6,1016f8 <i00000002da>
  1016d4:	00000033          	add	zero,zero,zero
  1016d8:	00a00d13          	li	s10,10

001016dc <i00000002d3>:
  1016dc:	81811503          	lh	a0,-2024(sp)

001016e0 <i00000002d4>:
  1016e0:	01c8e533          	or	a0,a7,t3

001016e4 <i00000002d5>:
  1016e4:	b0b11523          	sh	a1,-1270(sp)

001016e8 <i00000002d6>:
  1016e8:	3ae10a03          	lb	s4,942(sp)

001016ec <i00000002d7>:
  1016ec:	41e50033          	sub	zero,a0,t5

001016f0 <i00000002d8>:
  1016f0:	1dc2cb13          	xor	s6,t0,476

001016f4 <i00000002d9>:
  1016f4:	a1710b83          	lb	s7,-1513(sp)

001016f8 <i00000002da>:
  1016f8:	7d9a5f37          	lui	t5,0x7d9a5

001016fc <i00000002db>:
  1016fc:	01190f33          	add	t5,s2,a7

00101700 <i00000002dc>:
  101700:	0174f533          	and	a0,s1,s7

00101704 <i00000002dd>:
  101704:	63c12203          	lw	tp,1596(sp)

00101708 <i00000002de>:
  101708:	00452233          	slt	tp,a0,tp

0010170c <i00000002df>:
  10170c:	abf14003          	lbu	zero,-1345(sp)
  101710:	0000e117          	auipc	sp,0xe
  101714:	9f010113          	add	sp,sp,-1552 # 10f100 <mem>
  101718:	0002b337          	lui	t1,0x2b
  10171c:	ea030313          	add	t1,t1,-352 # 2aea0 <tohost+0xae98>
  101720:	00610133          	add	sp,sp,t1

00101724 <i00000002e0>:
  101724:	91112823          	sw	a7,-1776(sp)

00101728 <i00000002e1>:
  101728:	01b31513          	sll	a0,t1,0x1b

0010172c <i00000002e2>:
  10172c:	51e15683          	lhu	a3,1310(sp)

00101730 <i00000002e3>:
  101730:	18f11b23          	sh	a5,406(sp)

00101734 <i00000002e4>:
  101734:	558b3f13          	sltiu	t5,s6,1368

00101738 <i00000002e5>:
  101738:	01941193          	sll	gp,s0,0x19
  10173c:	00b00a93          	li	s5,11
  101740:	00a00d13          	li	s10,10

00101744 <b00000002e6>:
  101744:	00000033          	add	zero,zero,zero
  101748:	055d1663          	bne	s10,s5,101794 <i00000002ec>
  10174c:	00000033          	add	zero,zero,zero
  101750:	00a00d13          	li	s10,10

00101754 <i00000002e6>:
  101754:	00f2eb33          	or	s6,t0,a5

00101758 <i00000002e7>:
  101758:	7c811003          	lh	zero,1992(sp)

0010175c <i00000002e8>:
  10175c:	0058dfb3          	srl	t6,a7,t0

00101760 <i00000002e9>:
  101760:	a2e11203          	lh	tp,-1490(sp)
  101764:	0000e117          	auipc	sp,0xe
  101768:	99c10113          	add	sp,sp,-1636 # 10f100 <mem>
  10176c:	0001f337          	lui	t1,0x1f
  101770:	85830313          	add	t1,t1,-1960 # 1e858 <_stack_len+0x16858>
  101774:	00610133          	add	sp,sp,t1

00101778 <i00000002ea>:
  101778:	4aa11683          	lh	a3,1194(sp)

0010177c <i00000002eb>:
  10177c:	6eb40017          	auipc	zero,0x6eb40
  101780:	0000e117          	auipc	sp,0xe
  101784:	98010113          	add	sp,sp,-1664 # 10f100 <mem>
  101788:	0000a337          	lui	t1,0xa
  10178c:	79030313          	add	t1,t1,1936 # a790 <_stack_len+0x2790>
  101790:	00610133          	add	sp,sp,t1

00101794 <i00000002ec>:
  101794:	53710503          	lb	a0,1335(sp)

00101798 <i00000002ed>:
  101798:	41825013          	sra	zero,tp,0x18

0010179c <i00000002ee>:
  10179c:	a5cbef13          	or	t5,s7,-1444

001017a0 <i00000002ef>:
  1017a0:	c3211203          	lh	tp,-974(sp)
  1017a4:	0000e117          	auipc	sp,0xe
  1017a8:	95c10113          	add	sp,sp,-1700 # 10f100 <mem>
  1017ac:	00025337          	lui	t1,0x25
  1017b0:	04830313          	add	t1,t1,72 # 25048 <tohost+0x5040>
  1017b4:	00610133          	add	sp,sp,t1

001017b8 <i00000002f0>:
  1017b8:	43611d23          	sh	s6,1082(sp)
  1017bc:	0000e117          	auipc	sp,0xe
  1017c0:	94410113          	add	sp,sp,-1724 # 10f100 <mem>
  1017c4:	0005c337          	lui	t1,0x5c
  1017c8:	e9830313          	add	t1,t1,-360 # 5be98 <tohost+0x3be90>
  1017cc:	00610133          	add	sp,sp,t1

001017d0 <i00000002f1>:
  1017d0:	0dc106a3          	sb	t3,205(sp)
  1017d4:	0000e117          	auipc	sp,0xe
  1017d8:	92c10113          	add	sp,sp,-1748 # 10f100 <mem>
  1017dc:	0000d337          	lui	t1,0xd
  1017e0:	71830313          	add	t1,t1,1816 # d718 <_stack_len+0x5718>
  1017e4:	00610133          	add	sp,sp,t1

001017e8 <i00000002f2>:
  1017e8:	d2411583          	lh	a1,-732(sp)

001017ec <i00000002f3>:
  1017ec:	f31fce93          	xor	t4,t6,-207

001017f0 <i00000002f4>:
  1017f0:	40ab5033          	sra	zero,s6,a0

001017f4 <i00000002f5>:
  1017f4:	dbd94013          	xor	zero,s2,-579

001017f8 <i00000002f6>:
  1017f8:	41eb5f33          	sra	t5,s6,t5

001017fc <i00000002f7>:
  1017fc:	01f8d033          	srl	zero,a7,t6
  101800:	0000e117          	auipc	sp,0xe
  101804:	90010113          	add	sp,sp,-1792 # 10f100 <mem>
  101808:	0001c337          	lui	t1,0x1c
  10180c:	e1830313          	add	t1,t1,-488 # 1be18 <_stack_len+0x13e18>
  101810:	00610133          	add	sp,sp,t1

00101814 <i00000002f8>:
  101814:	ae412203          	lw	tp,-1308(sp)
  101818:	00c00b13          	li	s6,12
  10181c:	001d0d13          	add	s10,s10,1

00101820 <b00000002f9>:
  101820:	00000033          	add	zero,zero,zero
  101824:	f96d4ae3          	blt	s10,s6,1017b8 <i00000002f0>
  101828:	00000033          	add	zero,zero,zero
  10182c:	00a00d13          	li	s10,10

00101830 <i00000002f9>:
  101830:	73e107a3          	sb	t5,1839(sp)

00101834 <i00000002fa>:
  101834:	00235b13          	srl	s6,t1,0x2

00101838 <i00000002fb>:
  101838:	7ff22313          	slti	t1,tp,2047

0010183c <i00000002fc>:
  10183c:	5d412223          	sw	s4,1476(sp)

00101840 <i00000002fd>:
  101840:	2472cc93          	xor	s9,t0,583

00101844 <i00000002fe>:
  101844:	00020233          	add	tp,tp,zero

00101848 <i00000002ff>:
  101848:	8c812b83          	lw	s7,-1848(sp)

0010184c <i0000000300>:
  10184c:	012aef33          	or	t5,s5,s2

00101850 <i0000000301>:
  101850:	012e9233          	sll	tp,t4,s2

00101854 <i0000000302>:
  101854:	0066ef33          	or	t5,a3,t1

00101858 <i0000000303>:
  101858:	17db2d93          	slti	s11,s6,381

0010185c <i0000000304>:
  10185c:	00b1a533          	slt	a0,gp,a1

00101860 <i0000000305>:
  101860:	41e008b3          	neg	a7,t5

00101864 <i0000000306>:
  101864:	9ba14383          	lbu	t2,-1606(sp)

00101868 <i0000000307>:
  101868:	01c7ec33          	or	s8,a5,t3
  10186c:	0000e117          	auipc	sp,0xe
  101870:	89410113          	add	sp,sp,-1900 # 10f100 <mem>
  101874:	00004337          	lui	t1,0x4
  101878:	c5030313          	add	t1,t1,-944 # 3c50 <_min_stack+0x1c50>
  10187c:	00610133          	add	sp,sp,t1

00101880 <i0000000308>:
  101880:	1fb10f03          	lb	t5,507(sp)

00101884 <i0000000309>:
  101884:	40a55233          	sra	tp,a0,a0

00101888 <i000000030a>:
  101888:	7d012b83          	lw	s7,2000(sp)

0010188c <i000000030b>:
  10188c:	0032e8b3          	or	a7,t0,gp
  101890:	00900c13          	li	s8,9

00101894 <b000000030c>:
  101894:	00000033          	add	zero,zero,zero
  101898:	fdac50e3          	bge	s8,s10,101858 <i0000000303>
  10189c:	00000033          	add	zero,zero,zero
  1018a0:	00a00d13          	li	s10,10

001018a4 <i000000030c>:
  1018a4:	9276c013          	xor	zero,a3,-1753

001018a8 <i000000030d>:
  1018a8:	6d812c03          	lw	s8,1752(sp)

001018ac <i000000030e>:
  1018ac:	016b2a33          	slt	s4,s6,s6

001018b0 <i000000030f>:
  1018b0:	392e6513          	or	a0,t3,914

001018b4 <i0000000310>:
  1018b4:	b3876693          	or	a3,a4,-1224

001018b8 <i0000000311>:
  1018b8:	0147cb33          	xor	s6,a5,s4

001018bc <i0000000312>:
  1018bc:	00fa0f33          	add	t5,s4,a5

001018c0 <i0000000313>:
  1018c0:	01da4533          	xor	a0,s4,t4

001018c4 <i0000000314>:
  1018c4:	0143df13          	srl	t5,t2,0x14

001018c8 <i0000000315>:
  1018c8:	40e409b3          	sub	s3,s0,a4

001018cc <i0000000316>:
  1018cc:	7a4b29b7          	lui	s3,0x7a4b2

001018d0 <i0000000317>:
  1018d0:	aac15003          	lhu	zero,-1364(sp)

001018d4 <i0000000318>:
  1018d4:	f9812603          	lw	a2,-104(sp)

001018d8 <i0000000319>:
  1018d8:	9bf14003          	lbu	zero,-1601(sp)
  1018dc:	0000e117          	auipc	sp,0xe
  1018e0:	82410113          	add	sp,sp,-2012 # 10f100 <mem>
  1018e4:	0005e337          	lui	t1,0x5e
  1018e8:	15830313          	add	t1,t1,344 # 5e158 <tohost+0x3e150>
  1018ec:	00610133          	add	sp,sp,t1

001018f0 <i000000031a>:
  1018f0:	52d10683          	lb	a3,1325(sp)

001018f4 <i000000031b>:
  1018f4:	00779e13          	sll	t3,a5,0x7

001018f8 <i000000031c>:
  1018f8:	016f4633          	xor	a2,t5,s6

001018fc <i000000031d>:
  1018fc:	f4211b03          	lh	s6,-190(sp)

00101900 <i000000031e>:
  101900:	00000f33          	add	t5,zero,zero
  101904:	00900c13          	li	s8,9

00101908 <b000000031f>:
  101908:	00000033          	add	zero,zero,zero
  10190c:	fbac5ce3          	bge	s8,s10,1018c4 <i0000000314>
  101910:	00000033          	add	zero,zero,zero
  101914:	00a00d13          	li	s10,10

00101918 <i000000031f>:
  101918:	00a222b3          	slt	t0,tp,a0

0010191c <i0000000320>:
  10191c:	41168633          	sub	a2,a3,a7

00101920 <i0000000321>:
  101920:	013e2f33          	slt	t5,t3,s3

00101924 <i0000000322>:
  101924:	4139d593          	sra	a1,s3,0x13

00101928 <i0000000323>:
  101928:	01656e33          	or	t3,a0,s6

0010192c <i0000000324>:
  10192c:	ba211003          	lh	zero,-1118(sp)

00101930 <i0000000325>:
  101930:	f1107f13          	and	t5,zero,-239

00101934 <i0000000326>:
  101934:	55810f03          	lb	t5,1368(sp)

00101938 <i0000000327>:
  101938:	6f211003          	lh	zero,1778(sp)

0010193c <i0000000328>:
  10193c:	b30c2b93          	slti	s7,s8,-1232

00101940 <i0000000329>:
  101940:	9bf11923          	sh	t6,-1614(sp)

00101944 <i000000032a>:
  101944:	d3215a83          	lhu	s5,-718(sp)

00101948 <i000000032b>:
  101948:	01489033          	sll	zero,a7,s4

0010194c <i000000032c>:
  10194c:	016f4ab3          	xor	s5,t5,s6

00101950 <i000000032d>:
  101950:	5e010503          	lb	a0,1504(sp)

00101954 <i000000032e>:
  101954:	192101a3          	sb	s2,387(sp)

00101958 <i000000032f>:
  101958:	016b0fb3          	add	t6,s6,s6

0010195c <i0000000330>:
  10195c:	016f0bb3          	add	s7,t5,s6

00101960 <i0000000331>:
  101960:	a9c14503          	lbu	a0,-1380(sp)
  101964:	00c00993          	li	s3,12
  101968:	001d0d13          	add	s10,s10,1

0010196c <b0000000332>:
  10196c:	013d0463          	beq	s10,s3,101974 <b0000000332+0x8>
  101970:	fd1ff56f          	jal	a0,101940 <i0000000329>
  101974:	00a00d13          	li	s10,10

00101978 <i0000000332>:
  101978:	00af37b3          	sltu	a5,t5,a0
  10197c:	0000d117          	auipc	sp,0xd
  101980:	78410113          	add	sp,sp,1924 # 10f100 <mem>
  101984:	00066337          	lui	t1,0x66
  101988:	58830313          	add	t1,t1,1416 # 66588 <tohost+0x46580>
  10198c:	00610133          	add	sp,sp,t1

00101990 <i0000000333>:
  101990:	d6c10f03          	lb	t5,-660(sp)

00101994 <i0000000334>:
  101994:	db215503          	lhu	a0,-590(sp)

00101998 <i0000000335>:
  101998:	40660f33          	sub	t5,a2,t1

0010199c <i0000000336>:
  10199c:	fc415a03          	lhu	s4,-60(sp)

001019a0 <i0000000337>:
  1019a0:	7d210923          	sb	s2,2002(sp)
  1019a4:	0000d117          	auipc	sp,0xd
  1019a8:	75c10113          	add	sp,sp,1884 # 10f100 <mem>
  1019ac:	0006c337          	lui	t1,0x6c
  1019b0:	c5830313          	add	t1,t1,-936 # 6bc58 <tohost+0x4bc50>
  1019b4:	00610133          	add	sp,sp,t1

001019b8 <i0000000338>:
  1019b8:	12214f03          	lbu	t5,290(sp)

001019bc <i0000000339>:
  1019bc:	c9714203          	lbu	tp,-873(sp)
  1019c0:	0000d117          	auipc	sp,0xd
  1019c4:	74010113          	add	sp,sp,1856 # 10f100 <mem>
  1019c8:	0006a337          	lui	t1,0x6a
  1019cc:	83030313          	add	t1,t1,-2000 # 69830 <tohost+0x49828>
  1019d0:	00610133          	add	sp,sp,t1

001019d4 <i000000033a>:
  1019d4:	fa011d83          	lh	s11,-96(sp)

001019d8 <i000000033b>:
  1019d8:	004f6533          	or	a0,t5,tp

001019dc <i000000033c>:
  1019dc:	19612423          	sw	s6,392(sp)

001019e0 <i000000033d>:
  1019e0:	73243c13          	sltiu	s8,s0,1842

001019e4 <i000000033e>:
  1019e4:	dd114f03          	lbu	t5,-559(sp)

001019e8 <i000000033f>:
  1019e8:	01728533          	add	a0,t0,s7

001019ec <i0000000340>:
  1019ec:	419b5e93          	sra	t4,s6,0x19
  1019f0:	0000d117          	auipc	sp,0xd
  1019f4:	71010113          	add	sp,sp,1808 # 10f100 <mem>
  1019f8:	00016337          	lui	t1,0x16
  1019fc:	fd030313          	add	t1,t1,-48 # 15fd0 <_stack_len+0xdfd0>
  101a00:	00610133          	add	sp,sp,t1

00101a04 <i0000000341>:
  101a04:	36411b03          	lh	s6,868(sp)

00101a08 <i0000000342>:
  101a08:	550f6813          	or	a6,t5,1360
  101a0c:	0000d117          	auipc	sp,0xd
  101a10:	6f410113          	add	sp,sp,1780 # 10f100 <mem>
  101a14:	00051337          	lui	t1,0x51
  101a18:	fa830313          	add	t1,t1,-88 # 50fa8 <tohost+0x30fa0>
  101a1c:	00610133          	add	sp,sp,t1

00101a20 <i0000000343>:
  101a20:	55e12423          	sw	t5,1352(sp)

00101a24 <i0000000344>:
  101a24:	0ca10ca3          	sb	a0,217(sp)
  101a28:	00900e93          	li	t4,9

00101a2c <b0000000345>:
  101a2c:	00000033          	add	zero,zero,zero
  101a30:	fbdd48e3          	blt	s10,t4,1019e0 <i000000033d>
  101a34:	00000033          	add	zero,zero,zero
  101a38:	00a00d13          	li	s10,10

00101a3c <i0000000345>:
  101a3c:	d9210e03          	lb	t3,-622(sp)

00101a40 <i0000000346>:
  101a40:	52114903          	lbu	s2,1313(sp)
  101a44:	0000d117          	auipc	sp,0xd
  101a48:	6bc10113          	add	sp,sp,1724 # 10f100 <mem>
  101a4c:	00056337          	lui	t1,0x56
  101a50:	83030313          	add	t1,t1,-2000 # 55830 <tohost+0x35828>
  101a54:	00610133          	add	sp,sp,t1

00101a58 <i0000000347>:
  101a58:	56710c83          	lb	s9,1383(sp)

00101a5c <i0000000348>:
  101a5c:	013ce233          	or	tp,s9,s3
  101a60:	0000d117          	auipc	sp,0xd
  101a64:	6a010113          	add	sp,sp,1696 # 10f100 <mem>
  101a68:	0005c337          	lui	t1,0x5c
  101a6c:	80830313          	add	t1,t1,-2040 # 5b808 <tohost+0x3b800>
  101a70:	00610133          	add	sp,sp,t1

00101a74 <i0000000349>:
  101a74:	25b14d83          	lbu	s11,603(sp)

00101a78 <i000000034a>:
  101a78:	145f3793          	sltiu	a5,t5,325

00101a7c <i000000034b>:
  101a7c:	68e26013          	or	zero,tp,1678

00101a80 <i000000034c>:
  101a80:	408bd533          	sra	a0,s7,s0

00101a84 <i000000034d>:
  101a84:	93d14003          	lbu	zero,-1731(sp)

00101a88 <i000000034e>:
  101a88:	85c10803          	lb	a6,-1956(sp)
  101a8c:	0000d117          	auipc	sp,0xd
  101a90:	67410113          	add	sp,sp,1652 # 10f100 <mem>
  101a94:	00019337          	lui	t1,0x19
  101a98:	7d830313          	add	t1,t1,2008 # 197d8 <_stack_len+0x117d8>
  101a9c:	00610133          	add	sp,sp,t1

00101aa0 <i000000034f>:
  101aa0:	b8810f83          	lb	t6,-1144(sp)

00101aa4 <i0000000350>:
  101aa4:	41b486b3          	sub	a3,s1,s11

00101aa8 <i0000000351>:
  101aa8:	69c12503          	lw	a0,1692(sp)

00101aac <i0000000352>:
  101aac:	30812d83          	lw	s11,776(sp)

00101ab0 <i0000000353>:
  101ab0:	01cfaf33          	slt	t5,t6,t3
  101ab4:	0000d117          	auipc	sp,0xd
  101ab8:	64c10113          	add	sp,sp,1612 # 10f100 <mem>
  101abc:	00064337          	lui	t1,0x64
  101ac0:	bd030313          	add	t1,t1,-1072 # 63bd0 <tohost+0x43bc8>
  101ac4:	00610133          	add	sp,sp,t1

00101ac8 <i0000000354>:
  101ac8:	5bc10303          	lb	t1,1468(sp)

00101acc <i0000000355>:
  101acc:	01627b33          	and	s6,tp,s6

00101ad0 <i0000000356>:
  101ad0:	0cf10da3          	sb	a5,219(sp)

00101ad4 <i0000000357>:
  101ad4:	45612c23          	sw	s6,1112(sp)
  101ad8:	00b00b13          	li	s6,11
  101adc:	001d0d13          	add	s10,s10,1

00101ae0 <b0000000358>:
  101ae0:	00000033          	add	zero,zero,zero
  101ae4:	fd6d06e3          	beq	s10,s6,101ab0 <i0000000353>
  101ae8:	00000033          	add	zero,zero,zero
  101aec:	00a00d13          	li	s10,10

00101af0 <i0000000358>:
  101af0:	42710603          	lb	a2,1063(sp)

00101af4 <i0000000359>:
  101af4:	39912823          	sw	s9,912(sp)

00101af8 <i000000035a>:
  101af8:	00456233          	or	tp,a0,tp

00101afc <i000000035b>:
  101afc:	00f314b3          	sll	s1,t1,a5

00101b00 <i000000035c>:
  101b00:	40738b33          	sub	s6,t2,t2

00101b04 <i000000035d>:
  101b04:	87c12623          	sw	t3,-1940(sp)

00101b08 <i000000035e>:
  101b08:	0a615c03          	lhu	s8,166(sp)

00101b0c <i000000035f>:
  101b0c:	173f6513          	or	a0,t5,371

00101b10 <i0000000360>:
  101b10:	26114b83          	lbu	s7,609(sp)

00101b14 <i0000000361>:
  101b14:	942b7b13          	and	s6,s6,-1726

00101b18 <i0000000362>:
  101b18:	00eaadb3          	slt	s11,s5,a4

00101b1c <i0000000363>:
  101b1c:	7080e537          	lui	a0,0x7080e

00101b20 <i0000000364>:
  101b20:	63314b03          	lbu	s6,1587(sp)

00101b24 <i0000000365>:
  101b24:	01652033          	slt	zero,a0,s6

00101b28 <i0000000366>:
  101b28:	da6f3993          	sltiu	s3,t5,-602

00101b2c <i0000000367>:
  101b2c:	ba514b03          	lbu	s6,-1115(sp)

00101b30 <i0000000368>:
  101b30:	00a526b3          	slt	a3,a0,a0

00101b34 <i0000000369>:
  101b34:	00422cb3          	slt	s9,tp,tp

00101b38 <i000000036a>:
  101b38:	71611623          	sh	s6,1804(sp)
  101b3c:	00c00b93          	li	s7,12
  101b40:	001d0d13          	add	s10,s10,1

00101b44 <b000000036b>:
  101b44:	00000033          	add	zero,zero,zero
  101b48:	fdabd8e3          	bge	s7,s10,101b18 <i0000000362>
  101b4c:	00000033          	add	zero,zero,zero
  101b50:	00a00d13          	li	s10,10

00101b54 <i000000036b>:
  101b54:	07e14503          	lbu	a0,126(sp)

00101b58 <i000000036c>:
  101b58:	2a010c23          	sb	zero,696(sp)

00101b5c <i000000036d>:
  101b5c:	d5012b83          	lw	s7,-688(sp)

00101b60 <i000000036e>:
  101b60:	00a237b3          	sltu	a5,tp,a0

00101b64 <i000000036f>:
  101b64:	a4615a83          	lhu	s5,-1466(sp)

00101b68 <i0000000370>:
  101b68:	fb410503          	lb	a0,-76(sp)

00101b6c <i0000000371>:
  101b6c:	ba910b03          	lb	s6,-1111(sp)

00101b70 <i0000000372>:
  101b70:	c4211f83          	lh	t6,-958(sp)

00101b74 <i0000000373>:
  101b74:	0116c033          	xor	zero,a3,a7

00101b78 <i0000000374>:
  101b78:	26614003          	lbu	zero,614(sp)

00101b7c <i0000000375>:
  101b7c:	b6211403          	lh	s0,-1182(sp)

00101b80 <i0000000376>:
  101b80:	0a012e23          	sw	zero,188(sp)

00101b84 <i0000000377>:
  101b84:	c2615f03          	lhu	t5,-986(sp)

00101b88 <i0000000378>:
  101b88:	7169a413          	slti	s0,s3,1814

00101b8c <i0000000379>:
  101b8c:	b4e106a3          	sb	a4,-1203(sp)

00101b90 <i000000037a>:
  101b90:	00001e33          	sll	t3,zero,zero

00101b94 <i000000037b>:
  101b94:	0197b7b3          	sltu	a5,a5,s9

00101b98 <i000000037c>:
  101b98:	01cc3b33          	sltu	s6,s8,t3

00101b9c <i000000037d>:
  101b9c:	005a6233          	or	tp,s4,t0
  101ba0:	00900b93          	li	s7,9

00101ba4 <b000000037e>:
  101ba4:	00000033          	add	zero,zero,zero
  101ba8:	ff7d42e3          	blt	s10,s7,101b8c <i0000000379>
  101bac:	00000033          	add	zero,zero,zero
  101bb0:	00a00d13          	li	s10,10
  101bb4:	0000d117          	auipc	sp,0xd
  101bb8:	54c10113          	add	sp,sp,1356 # 10f100 <mem>
  101bbc:	00024337          	lui	t1,0x24
  101bc0:	16030313          	add	t1,t1,352 # 24160 <tohost+0x4158>
  101bc4:	00610133          	add	sp,sp,t1

00101bc8 <i000000037e>:
  101bc8:	96610d23          	sb	t1,-1670(sp)

00101bcc <i000000037f>:
  101bcc:	2d4aeb17          	auipc	s6,0x2d4ae

00101bd0 <i0000000380>:
  101bd0:	0c314f03          	lbu	t5,195(sp)

00101bd4 <i0000000381>:
  101bd4:	f7210903          	lb	s2,-142(sp)

00101bd8 <i0000000382>:
  101bd8:	689b6393          	or	t2,s6,1673

00101bdc <i0000000383>:
  101bdc:	0141ae33          	slt	t3,gp,s4

00101be0 <i0000000384>:
  101be0:	2c8b8537          	lui	a0,0x2c8b8

00101be4 <i0000000385>:
  101be4:	40c55a13          	sra	s4,a0,0xc

00101be8 <i0000000386>:
  101be8:	36012823          	sw	zero,880(sp)

00101bec <i0000000387>:
  101bec:	404b0333          	sub	t1,s6,tp

00101bf0 <i0000000388>:
  101bf0:	22d10183          	lb	gp,557(sp)
  101bf4:	0000d117          	auipc	sp,0xd
  101bf8:	50c10113          	add	sp,sp,1292 # 10f100 <mem>
  101bfc:	0004a337          	lui	t1,0x4a
  101c00:	84030313          	add	t1,t1,-1984 # 49840 <tohost+0x29838>
  101c04:	00610133          	add	sp,sp,t1

00101c08 <i0000000389>:
  101c08:	49110803          	lb	a6,1169(sp)

00101c0c <i000000038a>:
  101c0c:	c8fdc393          	xor	t2,s11,-881

00101c10 <i000000038b>:
  101c10:	0de12e23          	sw	t5,220(sp)

00101c14 <i000000038c>:
  101c14:	bd111023          	sh	a7,-1088(sp)

00101c18 <i000000038d>:
  101c18:	2d107993          	and	s3,zero,721

00101c1c <i000000038e>:
  101c1c:	cc714203          	lbu	tp,-825(sp)

00101c20 <i000000038f>:
  101c20:	87014b03          	lbu	s6,-1936(sp)

00101c24 <i0000000390>:
  101c24:	52011a23          	sh	zero,1332(sp)

00101c28 <b0000000391>:
  101c28:	00000e97          	auipc	t4,0x0
  101c2c:	034e8e93          	add	t4,t4,52 # 101c5c <i000000039b>
  101c30:	000e8567          	jalr	a0,t4

00101c34 <i0000000391>:
  101c34:	b1a10f83          	lb	t6,-1254(sp)

00101c38 <i0000000392>:
  101c38:	005592b3          	sll	t0,a1,t0

00101c3c <i0000000393>:
  101c3c:	a3610c83          	lb	s9,-1482(sp)

00101c40 <i0000000394>:
  101c40:	05412b03          	lw	s6,84(sp)

00101c44 <i0000000395>:
  101c44:	aea12e23          	sw	a0,-1284(sp)

00101c48 <i0000000396>:
  101c48:	00881a33          	sll	s4,a6,s0

00101c4c <i0000000397>:
  101c4c:	642a1537          	lui	a0,0x642a1

00101c50 <i0000000398>:
  101c50:	06012a23          	sw	zero,116(sp)

00101c54 <i0000000399>:
  101c54:	a3311823          	sh	s3,-1488(sp)

00101c58 <i000000039a>:
  101c58:	01d89013          	sll	zero,a7,0x1d

00101c5c <i000000039b>:
  101c5c:	67810d23          	sb	s8,1658(sp)

00101c60 <i000000039c>:
  101c60:	19714a03          	lbu	s4,407(sp)

00101c64 <i000000039d>:
  101c64:	df015003          	lhu	zero,-528(sp)

00101c68 <i000000039e>:
  101c68:	c5a87913          	and	s2,a6,-934

00101c6c <i000000039f>:
  101c6c:	623f8017          	auipc	zero,0x623f8

00101c70 <i00000003a0>:
  101c70:	6b311223          	sh	s3,1700(sp)

00101c74 <i00000003a1>:
  101c74:	8f612823          	sw	s6,-1808(sp)

00101c78 <i00000003a2>:
  101c78:	08c10503          	lb	a0,140(sp)

00101c7c <i00000003a3>:
  101c7c:	41130033          	sub	zero,t1,a7
  101c80:	00a00a13          	li	s4,10

00101c84 <b00000003a4>:
  101c84:	00000033          	add	zero,zero,zero
  101c88:	074d0e63          	beq	s10,s4,101d04 <i00000003b1>
  101c8c:	00000033          	add	zero,zero,zero
  101c90:	00a00d13          	li	s10,10

00101c94 <i00000003a4>:
  101c94:	00049f13          	sll	t5,s1,0x0
  101c98:	0000d117          	auipc	sp,0xd
  101c9c:	46810113          	add	sp,sp,1128 # 10f100 <mem>
  101ca0:	0000c337          	lui	t1,0xc
  101ca4:	f5830313          	add	t1,t1,-168 # bf58 <_stack_len+0x3f58>
  101ca8:	00610133          	add	sp,sp,t1

00101cac <i00000003a5>:
  101cac:	f2611503          	lh	a0,-218(sp)

00101cb0 <i00000003a6>:
  101cb0:	d39b3b13          	sltiu	s6,s6,-711

00101cb4 <i00000003a7>:
  101cb4:	50f10283          	lb	t0,1295(sp)

00101cb8 <i00000003a8>:
  101cb8:	bae14003          	lbu	zero,-1106(sp)

00101cbc <i00000003a9>:
  101cbc:	7f714203          	lbu	tp,2039(sp)

00101cc0 <i00000003aa>:
  101cc0:	24410223          	sb	tp,580(sp)

00101cc4 <i00000003ab>:
  101cc4:	0540cb37          	lui	s6,0x540c

00101cc8 <i00000003ac>:
  101cc8:	c5e11223          	sh	t5,-956(sp)

00101ccc <i00000003ad>:
  101ccc:	013c8b33          	add	s6,s9,s3
  101cd0:	0000d117          	auipc	sp,0xd
  101cd4:	43010113          	add	sp,sp,1072 # 10f100 <mem>
  101cd8:	0006e337          	lui	t1,0x6e
  101cdc:	37030313          	add	t1,t1,880 # 6e370 <tohost+0x4e368>
  101ce0:	00610133          	add	sp,sp,t1

00101ce4 <i00000003ae>:
  101ce4:	4c611903          	lh	s2,1222(sp)

00101ce8 <i00000003af>:
  101ce8:	0182bdb3          	sltu	s11,t0,s8
  101cec:	0000d117          	auipc	sp,0xd
  101cf0:	41410113          	add	sp,sp,1044 # 10f100 <mem>
  101cf4:	0004a337          	lui	t1,0x4a
  101cf8:	3b830313          	add	t1,t1,952 # 4a3b8 <tohost+0x2a3b0>
  101cfc:	00610133          	add	sp,sp,t1

00101d00 <i00000003b0>:
  101d00:	98611c03          	lh	s8,-1658(sp)

00101d04 <i00000003b1>:
  101d04:	83e107a3          	sb	t5,-2001(sp)

00101d08 <i00000003b2>:
  101d08:	22de6537          	lui	a0,0x22de6

00101d0c <i00000003b3>:
  101d0c:	003ab533          	sltu	a0,s5,gp

00101d10 <i00000003b4>:
  101d10:	c64f4013          	xor	zero,t5,-924

00101d14 <i00000003b5>:
  101d14:	fc411823          	sh	tp,-48(sp)

00101d18 <i00000003b6>:
  101d18:	fe412a23          	sw	tp,-12(sp)
  101d1c:	00c00a93          	li	s5,12
  101d20:	001d0d13          	add	s10,s10,1

00101d24 <b00000003b7>:
  101d24:	00000033          	add	zero,zero,zero
  101d28:	fd5d4ce3          	blt	s10,s5,101d00 <i00000003b0>
  101d2c:	00000033          	add	zero,zero,zero
  101d30:	00a00d13          	li	s10,10

00101d34 <i00000003b7>:
  101d34:	0f112423          	sw	a7,232(sp)

00101d38 <i00000003b8>:
  101d38:	ca003193          	sltiu	gp,zero,-864

00101d3c <i00000003b9>:
  101d3c:	56815203          	lhu	tp,1384(sp)

00101d40 <i00000003ba>:
  101d40:	00cbadb3          	slt	s11,s7,a2

00101d44 <i00000003bb>:
  101d44:	be324393          	xor	t2,tp,-1053

00101d48 <i00000003bc>:
  101d48:	014cc733          	xor	a4,s9,s4

00101d4c <i00000003bd>:
  101d4c:	80a15503          	lhu	a0,-2038(sp)

00101d50 <i00000003be>:
  101d50:	015801b3          	add	gp,a6,s5

00101d54 <i00000003bf>:
  101d54:	c027c613          	xor	a2,a5,-1022

00101d58 <i00000003c0>:
  101d58:	e2bf6b13          	or	s6,t5,-469

00101d5c <i00000003c1>:
  101d5c:	01f9a233          	slt	tp,s3,t6
  101d60:	0000d117          	auipc	sp,0xd
  101d64:	3a010113          	add	sp,sp,928 # 10f100 <mem>
  101d68:	00005337          	lui	t1,0x5
  101d6c:	3c830313          	add	t1,t1,968 # 53c8 <_min_stack+0x33c8>
  101d70:	00610133          	add	sp,sp,t1

00101d74 <i00000003c2>:
  101d74:	36811523          	sh	s0,874(sp)

00101d78 <i00000003c3>:
  101d78:	94714183          	lbu	gp,-1721(sp)
  101d7c:	0000d117          	auipc	sp,0xd
  101d80:	38410113          	add	sp,sp,900 # 10f100 <mem>
  101d84:	00040337          	lui	t1,0x40
  101d88:	eb830313          	add	t1,t1,-328 # 3feb8 <tohost+0x1feb0>
  101d8c:	00610133          	add	sp,sp,t1

00101d90 <i00000003c4>:
  101d90:	46e10123          	sb	a4,1122(sp)
  101d94:	0000d117          	auipc	sp,0xd
  101d98:	36c10113          	add	sp,sp,876 # 10f100 <mem>
  101d9c:	0001f337          	lui	t1,0x1f
  101da0:	a4830313          	add	t1,t1,-1464 # 1ea48 <_stack_len+0x16a48>
  101da4:	00610133          	add	sp,sp,t1

00101da8 <i00000003c5>:
  101da8:	67811703          	lh	a4,1656(sp)

00101dac <i00000003c6>:
  101dac:	e9e11583          	lh	a1,-354(sp)

00101db0 <i00000003c7>:
  101db0:	ae412c23          	sw	tp,-1288(sp)

00101db4 <i00000003c8>:
  101db4:	fef10b03          	lb	s6,-17(sp)

00101db8 <i00000003c9>:
  101db8:	29011c23          	sh	a6,664(sp)
  101dbc:	00a00b93          	li	s7,10
  101dc0:	00a00d13          	li	s10,10

00101dc4 <b00000003ca>:
  101dc4:	00000033          	add	zero,zero,zero
  101dc8:	057d1863          	bne	s10,s7,101e18 <i00000003d6>
  101dcc:	00000033          	add	zero,zero,zero
  101dd0:	00a00d13          	li	s10,10

00101dd4 <i00000003ca>:
  101dd4:	c7e10003          	lb	zero,-898(sp)

00101dd8 <i00000003cb>:
  101dd8:	45cf5f37          	lui	t5,0x45cf5

00101ddc <i00000003cc>:
  101ddc:	01651b33          	sll	s6,a0,s6

00101de0 <i00000003cd>:
  101de0:	2a47a537          	lui	a0,0x2a47a

00101de4 <i00000003ce>:
  101de4:	003e9033          	sll	zero,t4,gp
  101de8:	0000d117          	auipc	sp,0xd
  101dec:	31810113          	add	sp,sp,792 # 10f100 <mem>
  101df0:	00052337          	lui	t1,0x52
  101df4:	e3030313          	add	t1,t1,-464 # 51e30 <tohost+0x31e28>
  101df8:	00610133          	add	sp,sp,t1

00101dfc <i00000003cf>:
  101dfc:	b2310b03          	lb	s6,-1245(sp)

00101e00 <i00000003d0>:
  101e00:	00301613          	sll	a2,zero,0x3

00101e04 <i00000003d1>:
  101e04:	51c11b03          	lh	s6,1308(sp)

00101e08 <i00000003d2>:
  101e08:	b92f3b93          	sltiu	s7,t5,-1134

00101e0c <i00000003d3>:
  101e0c:	57026893          	or	a7,tp,1392

00101e10 <i00000003d4>:
  101e10:	00420033          	add	zero,tp,tp

00101e14 <i00000003d5>:
  101e14:	39c10003          	lb	zero,924(sp)

00101e18 <i00000003d6>:
  101e18:	9c6109a3          	sb	t1,-1581(sp)

00101e1c <i00000003d7>:
  101e1c:	6a012f03          	lw	t5,1696(sp)

00101e20 <i00000003d8>:
  101e20:	dae11403          	lh	s0,-594(sp)

00101e24 <i00000003d9>:
  101e24:	41ec5a93          	sra	s5,s8,0x1e

00101e28 <i00000003da>:
  101e28:	07215883          	lhu	a7,114(sp)

00101e2c <i00000003db>:
  101e2c:	004b1c33          	sll	s8,s6,tp

00101e30 <i00000003dc>:
  101e30:	ab7a7a93          	and	s5,s4,-1353
  101e34:	00c00913          	li	s2,12
  101e38:	001d0d13          	add	s10,s10,1

00101e3c <b00000003dd>:
  101e3c:	00000033          	add	zero,zero,zero
  101e40:	fd2d40e3          	blt	s10,s2,101e00 <i00000003d0>
  101e44:	00000033          	add	zero,zero,zero
  101e48:	00a00d13          	li	s10,10

00101e4c <i00000003dd>:
  101e4c:	2c410003          	lb	zero,708(sp)

00101e50 <i00000003de>:
  101e50:	01e07033          	and	zero,zero,t5

00101e54 <i00000003df>:
  101e54:	40a05533          	sra	a0,zero,a0

00101e58 <i00000003e0>:
  101e58:	e2c11c23          	sh	a2,-456(sp)

00101e5c <i00000003e1>:
  101e5c:	6b9f0537          	lui	a0,0x6b9f0

00101e60 <i00000003e2>:
  101e60:	df110203          	lb	tp,-527(sp)

00101e64 <i00000003e3>:
  101e64:	e0914f83          	lbu	t6,-503(sp)

00101e68 <i00000003e4>:
  101e68:	1f812623          	sw	s8,492(sp)

00101e6c <i00000003e5>:
  101e6c:	012feb33          	or	s6,t6,s2

00101e70 <i00000003e6>:
  101e70:	6d1e6017          	auipc	zero,0x6d1e6

00101e74 <i00000003e7>:
  101e74:	04012a23          	sw	zero,84(sp)

00101e78 <i00000003e8>:
  101e78:	00561533          	sll	a0,a2,t0

00101e7c <i00000003e9>:
  101e7c:	b5a15b03          	lhu	s6,-1190(sp)

00101e80 <i00000003ea>:
  101e80:	f7a50513          	add	a0,a0,-134 # 6b9eff7a <fromhost+0x6b867f6a>

00101e84 <i00000003eb>:
  101e84:	71a03537          	lui	a0,0x71a03

00101e88 <i00000003ec>:
  101e88:	00bc6233          	or	tp,s8,a1

00101e8c <i00000003ed>:
  101e8c:	0a312823          	sw	gp,176(sp)

00101e90 <i00000003ee>:
  101e90:	c6012c23          	sw	zero,-904(sp)

00101e94 <i00000003ef>:
  101e94:	d3c11e03          	lh	t3,-708(sp)
  101e98:	00900a93          	li	s5,9

00101e9c <b00000003f0>:
  101e9c:	00000033          	add	zero,zero,zero
  101ea0:	fd5d4ae3          	blt	s10,s5,101e74 <i00000003e7>
  101ea4:	00000033          	add	zero,zero,zero
  101ea8:	00a00d13          	li	s10,10

00101eac <i00000003f0>:
  101eac:	01da9f13          	sll	t5,s5,0x1d

00101eb0 <i00000003f1>:
  101eb0:	f1611203          	lh	tp,-234(sp)

00101eb4 <i00000003f2>:
  101eb4:	018b5b93          	srl	s7,s6,0x18

00101eb8 <i00000003f3>:
  101eb8:	84614f83          	lbu	t6,-1978(sp)

00101ebc <i00000003f4>:
  101ebc:	5cc69a17          	auipc	s4,0x5cc69

00101ec0 <i00000003f5>:
  101ec0:	36cf3513          	sltiu	a0,t5,876

00101ec4 <i00000003f6>:
  101ec4:	74452c93          	slti	s9,a0,1860

00101ec8 <i00000003f7>:
  101ec8:	00d6ca33          	xor	s4,a3,a3

00101ecc <i00000003f8>:
  101ecc:	004b0fb3          	add	t6,s6,tp

00101ed0 <i00000003f9>:
  101ed0:	21815f03          	lhu	t5,536(sp)

00101ed4 <i00000003fa>:
  101ed4:	416054b3          	sra	s1,zero,s6

00101ed8 <i00000003fb>:
  101ed8:	c7610203          	lb	tp,-906(sp)

00101edc <i00000003fc>:
  101edc:	017eff33          	and	t5,t4,s7

00101ee0 <i00000003fd>:
  101ee0:	3f412a83          	lw	s5,1012(sp)

00101ee4 <i00000003fe>:
  101ee4:	005b5813          	srl	a6,s6,0x5

00101ee8 <i00000003ff>:
  101ee8:	01305893          	srl	a7,zero,0x13

00101eec <i0000000400>:
  101eec:	ee703513          	sltiu	a0,zero,-281

00101ef0 <i0000000401>:
  101ef0:	01eb5eb3          	srl	t4,s6,t5

00101ef4 <i0000000402>:
  101ef4:	d3511223          	sh	s5,-732(sp)
  101ef8:	00b00913          	li	s2,11
  101efc:	00a00d13          	li	s10,10

00101f00 <b0000000403>:
  101f00:	00000033          	add	zero,zero,zero
  101f04:	03a95c63          	bge	s2,s10,101f3c <i0000000409>
  101f08:	00000033          	add	zero,zero,zero
  101f0c:	00a00d13          	li	s10,10

00101f10 <i0000000403>:
  101f10:	41c8d693          	sra	a3,a7,0x1c

00101f14 <i0000000404>:
  101f14:	13812283          	lw	t0,312(sp)

00101f18 <i0000000405>:
  101f18:	016b0033          	add	zero,s6,s6
  101f1c:	0000d117          	auipc	sp,0xd
  101f20:	1e410113          	add	sp,sp,484 # 10f100 <mem>
  101f24:	0004d337          	lui	t1,0x4d
  101f28:	5e030313          	add	t1,t1,1504 # 4d5e0 <tohost+0x2d5d8>
  101f2c:	00610133          	add	sp,sp,t1

00101f30 <i0000000406>:
  101f30:	92810b23          	sb	s0,-1738(sp)

00101f34 <i0000000407>:
  101f34:	3384ee17          	auipc	t3,0x3384e

00101f38 <i0000000408>:
  101f38:	a3c15583          	lhu	a1,-1476(sp)

00101f3c <i0000000409>:
  101f3c:	935ce713          	or	a4,s9,-1739

00101f40 <i000000040a>:
  101f40:	93ab3213          	sltiu	tp,s6,-1734

00101f44 <i000000040b>:
  101f44:	cfc12f03          	lw	t5,-772(sp)

00101f48 <i000000040c>:
  101f48:	67610003          	lb	zero,1654(sp)

00101f4c <i000000040d>:
  101f4c:	61f10c83          	lb	s9,1567(sp)

00101f50 <i000000040e>:
  101f50:	e352a513          	slti	a0,t0,-459

00101f54 <i000000040f>:
  101f54:	5fa15d83          	lhu	s11,1530(sp)

00101f58 <i0000000410>:
  101f58:	01191033          	sll	zero,s2,a7

00101f5c <i0000000411>:
  101f5c:	67c15e83          	lhu	t4,1660(sp)

00101f60 <i0000000412>:
  101f60:	017ba033          	slt	zero,s7,s7

00101f64 <i0000000413>:
  101f64:	3aa105a3          	sb	a0,939(sp)

00101f68 <i0000000414>:
  101f68:	33e36b13          	or	s6,t1,830

00101f6c <i0000000415>:
  101f6c:	00cadcb3          	srl	s9,s5,a2
  101f70:	00b00c93          	li	s9,11
  101f74:	00a00d13          	li	s10,10

00101f78 <b0000000416>:
  101f78:	00000033          	add	zero,zero,zero
  101f7c:	059d1c63          	bne	s10,s9,101fd4 <i0000000424>
  101f80:	00000033          	add	zero,zero,zero
  101f84:	00a00d13          	li	s10,10

00101f88 <i0000000416>:
  101f88:	97d83213          	sltiu	tp,a6,-1667

00101f8c <i0000000417>:
  101f8c:	01ef5f13          	srl	t5,t5,0x1e

00101f90 <i0000000418>:
  101f90:	de84e513          	or	a0,s1,-536

00101f94 <i0000000419>:
  101f94:	00af5f33          	srl	t5,t5,a0

00101f98 <i000000041a>:
  101f98:	bf211483          	lh	s1,-1038(sp)

00101f9c <i000000041b>:
  101f9c:	d3015b03          	lhu	s6,-720(sp)

00101fa0 <i000000041c>:
  101fa0:	01cff4b3          	and	s1,t6,t3

00101fa4 <i000000041d>:
  101fa4:	46d14203          	lbu	tp,1133(sp)

00101fa8 <i000000041e>:
  101fa8:	5814c217          	auipc	tp,0x5814c
  101fac:	0000d117          	auipc	sp,0xd
  101fb0:	15410113          	add	sp,sp,340 # 10f100 <mem>
  101fb4:	00026337          	lui	t1,0x26
  101fb8:	ba030313          	add	t1,t1,-1120 # 25ba0 <tohost+0x5b98>
  101fbc:	00610133          	add	sp,sp,t1

00101fc0 <i000000041f>:
  101fc0:	c8a10aa3          	sb	a0,-875(sp)

00101fc4 <i0000000420>:
  101fc4:	f1911723          	sh	s9,-242(sp)

00101fc8 <i0000000421>:
  101fc8:	01d30233          	add	tp,t1,t4

00101fcc <i0000000422>:
  101fcc:	016f6b33          	or	s6,t5,s6

00101fd0 <i0000000423>:
  101fd0:	01c25913          	srl	s2,tp,0x1c

00101fd4 <i0000000424>:
  101fd4:	e8f14203          	lbu	tp,-369(sp)

00101fd8 <i0000000425>:
  101fd8:	00af34b3          	sltu	s1,t5,a0

00101fdc <i0000000426>:
  101fdc:	045a2237          	lui	tp,0x45a2

00101fe0 <i0000000427>:
  101fe0:	45a10b03          	lb	s6,1114(sp)

00101fe4 <i0000000428>:
  101fe4:	71e107a3          	sb	t5,1807(sp)
  101fe8:	00c00c93          	li	s9,12
  101fec:	00a00d13          	li	s10,10

00101ff0 <b0000000429>:
  101ff0:	00000033          	add	zero,zero,zero
  101ff4:	059d4663          	blt	s10,s9,102040 <i0000000434>
  101ff8:	00000033          	add	zero,zero,zero
  101ffc:	00a00d13          	li	s10,10

00102000 <i0000000429>:
  102000:	25710703          	lb	a4,599(sp)

00102004 <i000000042a>:
  102004:	11611823          	sh	s6,272(sp)

00102008 <i000000042b>:
  102008:	4189dc93          	sra	s9,s3,0x18

0010200c <i000000042c>:
  10200c:	38c14303          	lbu	t1,908(sp)

00102010 <i000000042d>:
  102010:	00ab2eb3          	slt	t4,s6,a0

00102014 <i000000042e>:
  102014:	416b5c33          	sra	s8,s6,s6

00102018 <i000000042f>:
  102018:	41e31217          	auipc	tp,0x41e31

0010201c <i0000000430>:
  10201c:	01eb6c33          	or	s8,s6,t5

00102020 <i0000000431>:
  102020:	00b28033          	add	zero,t0,a1

00102024 <i0000000432>:
  102024:	3ca57237          	lui	tp,0x3ca57
  102028:	0000d117          	auipc	sp,0xd
  10202c:	0d810113          	add	sp,sp,216 # 10f100 <mem>
  102030:	00050337          	lui	t1,0x50
  102034:	40830313          	add	t1,t1,1032 # 50408 <tohost+0x30400>
  102038:	00610133          	add	sp,sp,t1

0010203c <i0000000433>:
  10203c:	d4614303          	lbu	t1,-698(sp)

00102040 <i0000000434>:
  102040:	51210f03          	lb	t5,1298(sp)

00102044 <i0000000435>:
  102044:	06012023          	sw	zero,96(sp)

00102048 <i0000000436>:
  102048:	41e50f33          	sub	t5,a0,t5

0010204c <i0000000437>:
  10204c:	e6511623          	sh	t0,-404(sp)

00102050 <i0000000438>:
  102050:	7edc8217          	auipc	tp,0x7edc8

00102054 <i0000000439>:
  102054:	df412383          	lw	t2,-524(sp)

00102058 <i000000043a>:
  102058:	1c056813          	or	a6,a0,448

0010205c <i000000043b>:
  10205c:	bf114f83          	lbu	t6,-1039(sp)

00102060 <b000000043c>:
  102060:	01c0056f          	jal	a0,10207c <i0000000442>

00102064 <i000000043c>:
  102064:	9f010003          	lb	zero,-1552(sp)

00102068 <i000000043d>:
  102068:	49710c23          	sb	s7,1176(sp)

0010206c <i000000043e>:
  10206c:	416f5233          	sra	tp,t5,s6

00102070 <i000000043f>:
  102070:	73a11203          	lh	tp,1850(sp)

00102074 <i0000000440>:
  102074:	fa211203          	lh	tp,-94(sp)

00102078 <i0000000441>:
  102078:	cce15883          	lhu	a7,-818(sp)

0010207c <i0000000442>:
  10207c:	0c6d0017          	auipc	zero,0xc6d0

00102080 <i0000000443>:
  102080:	21810423          	sb	s8,520(sp)

00102084 <i0000000444>:
  102084:	00a04c33          	xor	s8,zero,a0

00102088 <i0000000445>:
  102088:	415a5eb3          	sra	t4,s4,s5

0010208c <i0000000446>:
  10208c:	41325213          	sra	tp,tp,0x13

00102090 <i0000000447>:
  102090:	f7e04793          	xor	a5,zero,-130

00102094 <i0000000448>:
  102094:	acc12683          	lw	a3,-1332(sp)

00102098 <i0000000449>:
  102098:	7ec11523          	sh	a2,2026(sp)

0010209c <i000000044a>:
  10209c:	00e6ebb3          	or	s7,a3,a4

001020a0 <i000000044b>:
  1020a0:	eae8ba13          	sltiu	s4,a7,-338

001020a4 <i000000044c>:
  1020a4:	007dd8b3          	srl	a7,s11,t2

001020a8 <i000000044d>:
  1020a8:	dc714383          	lbu	t2,-569(sp)

001020ac <i000000044e>:
  1020ac:	78410423          	sb	tp,1928(sp)

001020b0 <b000000044f>:
  1020b0:	0500056f          	jal	a0,102100 <i000000045d>

001020b4 <i000000044f>:
  1020b4:	8e411a03          	lh	s4,-1820(sp)

001020b8 <i0000000450>:
  1020b8:	00a00033          	add	zero,zero,a0

001020bc <i0000000451>:
  1020bc:	30012003          	lw	zero,768(sp)

001020c0 <i0000000452>:
  1020c0:	01eb1b33          	sll	s6,s6,t5
  1020c4:	0000d117          	auipc	sp,0xd
  1020c8:	03c10113          	add	sp,sp,60 # 10f100 <mem>
  1020cc:	00029337          	lui	t1,0x29
  1020d0:	b4030313          	add	t1,t1,-1216 # 28b40 <tohost+0x8b38>
  1020d4:	00610133          	add	sp,sp,t1

001020d8 <i0000000453>:
  1020d8:	e4011623          	sh	zero,-436(sp)

001020dc <i0000000454>:
  1020dc:	0087eb33          	or	s6,a5,s0

001020e0 <i0000000455>:
  1020e0:	82611e03          	lh	t3,-2010(sp)

001020e4 <i0000000456>:
  1020e4:	410adf33          	sra	t5,s5,a6

001020e8 <i0000000457>:
  1020e8:	5b912e23          	sw	s9,1468(sp)

001020ec <i0000000458>:
  1020ec:	00055733          	srl	a4,a0,zero

001020f0 <i0000000459>:
  1020f0:	b4214503          	lbu	a0,-1214(sp)

001020f4 <i000000045a>:
  1020f4:	e0512c23          	sw	t0,-488(sp)

001020f8 <i000000045b>:
  1020f8:	01602533          	sgtz	a0,s6

001020fc <i000000045c>:
  1020fc:	ea510603          	lb	a2,-347(sp)

00102100 <i000000045d>:
  102100:	74214a03          	lbu	s4,1858(sp)

00102104 <i000000045e>:
  102104:	015ca233          	slt	tp,s9,s5

00102108 <i000000045f>:
  102108:	62411203          	lh	tp,1572(sp)

0010210c <i0000000460>:
  10210c:	c3b14b03          	lbu	s6,-965(sp)

00102110 <i0000000461>:
  102110:	004b7233          	and	tp,s6,tp
  102114:	00900f93          	li	t6,9
  102118:	00a00d13          	li	s10,10

0010211c <b0000000462>:
  10211c:	00000033          	add	zero,zero,zero
  102120:	03afde63          	bge	t6,s10,10215c <i0000000469>
  102124:	00000033          	add	zero,zero,zero
  102128:	00a00d13          	li	s10,10

0010212c <i0000000462>:
  10212c:	0aa12823          	sw	a0,176(sp)

00102130 <i0000000463>:
  102130:	60912423          	sw	s1,1544(sp)
  102134:	0000d117          	auipc	sp,0xd
  102138:	fcc10113          	add	sp,sp,-52 # 10f100 <mem>
  10213c:	00027337          	lui	t1,0x27
  102140:	6a030313          	add	t1,t1,1696 # 276a0 <tohost+0x7698>
  102144:	00610133          	add	sp,sp,t1

00102148 <i0000000464>:
  102148:	a2411023          	sh	tp,-1504(sp)

0010214c <i0000000465>:
  10214c:	147108a3          	sb	t2,337(sp)

00102150 <i0000000466>:
  102150:	72412823          	sw	tp,1840(sp)

00102154 <i0000000467>:
  102154:	3d5a3c93          	sltiu	s9,s4,981

00102158 <i0000000468>:
  102158:	2f623413          	sltiu	s0,tp,758

0010215c <i0000000469>:
  10215c:	f5610403          	lb	s0,-170(sp)

00102160 <i000000046a>:
  102160:	01760933          	add	s2,a2,s7

00102164 <i000000046b>:
  102164:	7de12c23          	sw	t5,2008(sp)

00102168 <i000000046c>:
  102168:	74c3e017          	auipc	zero,0x74c3e

0010216c <i000000046d>:
  10216c:	f6777e13          	and	t3,a4,-153

00102170 <i000000046e>:
  102170:	0c011323          	sh	zero,198(sp)

00102174 <i000000046f>:
  102174:	000254b3          	srl	s1,tp,zero

00102178 <i0000000470>:
  102178:	0075f233          	and	tp,a1,t2

0010217c <i0000000471>:
  10217c:	00457b33          	and	s6,a0,tp

00102180 <i0000000472>:
  102180:	01269413          	sll	s0,a3,0x12

00102184 <i0000000473>:
  102184:	f04f2193          	slti	gp,t5,-252

00102188 <i0000000474>:
  102188:	a5414f03          	lbu	t5,-1452(sp)
  10218c:	00900813          	li	a6,9
  102190:	00a00d13          	li	s10,10

00102194 <b0000000475>:
  102194:	00000033          	add	zero,zero,zero
  102198:	070d4c63          	blt	s10,a6,102210 <i0000000481>
  10219c:	00000033          	add	zero,zero,zero
  1021a0:	00a00d13          	li	s10,10

001021a4 <i0000000475>:
  1021a4:	05e12423          	sw	t5,72(sp)

001021a8 <i0000000476>:
  1021a8:	00ab55b3          	srl	a1,s6,a0

001021ac <i0000000477>:
  1021ac:	b1c11423          	sh	t3,-1272(sp)

001021b0 <i0000000478>:
  1021b0:	e2012c23          	sw	zero,-456(sp)
  1021b4:	0000d117          	auipc	sp,0xd
  1021b8:	f4c10113          	add	sp,sp,-180 # 10f100 <mem>
  1021bc:	00032337          	lui	t1,0x32
  1021c0:	3d030313          	add	t1,t1,976 # 323d0 <tohost+0x123c8>
  1021c4:	00610133          	add	sp,sp,t1

001021c8 <i0000000479>:
  1021c8:	b2110b03          	lb	s6,-1247(sp)

001021cc <i000000047a>:
  1021cc:	09510f03          	lb	t5,149(sp)

001021d0 <i000000047b>:
  1021d0:	13215503          	lhu	a0,306(sp)

001021d4 <i000000047c>:
  1021d4:	408b5813          	sra	a6,s6,0x8
  1021d8:	0000d117          	auipc	sp,0xd
  1021dc:	f2810113          	add	sp,sp,-216 # 10f100 <mem>
  1021e0:	00015337          	lui	t1,0x15
  1021e4:	32830313          	add	t1,t1,808 # 15328 <_stack_len+0xd328>
  1021e8:	00610133          	add	sp,sp,t1

001021ec <i000000047d>:
  1021ec:	81412b03          	lw	s6,-2028(sp)
  1021f0:	0000d117          	auipc	sp,0xd
  1021f4:	f1010113          	add	sp,sp,-240 # 10f100 <mem>
  1021f8:	00059337          	lui	t1,0x59
  1021fc:	02030313          	add	t1,t1,32 # 59020 <tohost+0x39018>
  102200:	00610133          	add	sp,sp,t1

00102204 <i000000047e>:
  102204:	376109a3          	sb	s6,883(sp)

00102208 <i000000047f>:
  102208:	90c10b03          	lb	s6,-1780(sp)

0010220c <i0000000480>:
  10220c:	01242b33          	slt	s6,s0,s2

00102210 <i0000000481>:
  102210:	64a10223          	sb	a0,1604(sp)

00102214 <i0000000482>:
  102214:	a9611223          	sh	s6,-1404(sp)

00102218 <i0000000483>:
  102218:	d3dc2813          	slti	a6,s8,-707

0010221c <i0000000484>:
  10221c:	000241b3          	xor	gp,tp,zero

00102220 <i0000000485>:
  102220:	26b10d23          	sb	a1,634(sp)

00102224 <i0000000486>:
  102224:	402a5793          	sra	a5,s4,0x2

00102228 <i0000000487>:
  102228:	01e57533          	and	a0,a0,t5
  10222c:	00b00913          	li	s2,11
  102230:	00a00d13          	li	s10,10

00102234 <b0000000488>:
  102234:	00000033          	add	zero,zero,zero
  102238:	03a95863          	bge	s2,s10,102268 <i0000000491>
  10223c:	00000033          	add	zero,zero,zero
  102240:	00a00d13          	li	s10,10

00102244 <i0000000488>:
  102244:	f8011223          	sh	zero,-124(sp)

00102248 <i0000000489>:
  102248:	bd415b03          	lhu	s6,-1068(sp)

0010224c <i000000048a>:
  10224c:	016256b3          	srl	a3,tp,s6

00102250 <i000000048b>:
  102250:	a8710323          	sb	t2,-1402(sp)

00102254 <i000000048c>:
  102254:	41e00b33          	neg	s6,t5

00102258 <i000000048d>:
  102258:	00349213          	sll	tp,s1,0x3

0010225c <i000000048e>:
  10225c:	2eacfb17          	auipc	s6,0x2eacf

00102260 <i000000048f>:
  102260:	3c7b3393          	sltiu	t2,s6,967

00102264 <i0000000490>:
  102264:	57b86493          	or	s1,a6,1403

00102268 <i0000000491>:
  102268:	00af54b3          	srl	s1,t5,a0

0010226c <i0000000492>:
  10226c:	015924b3          	slt	s1,s2,s5

00102270 <i0000000493>:
  102270:	000b3333          	sltu	t1,s6,zero

00102274 <i0000000494>:
  102274:	ca2f0993          	add	s3,t5,-862 # 45cf4ca2 <fromhost+0x45b6cc92>

00102278 <i0000000495>:
  102278:	1d611723          	sh	s6,462(sp)

0010227c <i0000000496>:
  10227c:	2554df17          	auipc	t5,0x2554d

00102280 <i0000000497>:
  102280:	02c12683          	lw	a3,44(sp)

00102284 <i0000000498>:
  102284:	3c494513          	xor	a0,s2,964

00102288 <i0000000499>:
  102288:	b6f11323          	sh	a5,-1178(sp)
  10228c:	0000d117          	auipc	sp,0xd
  102290:	e7410113          	add	sp,sp,-396 # 10f100 <mem>
  102294:	0004b337          	lui	t1,0x4b
  102298:	b4030313          	add	t1,t1,-1216 # 4ab40 <tohost+0x2ab38>
  10229c:	00610133          	add	sp,sp,t1

001022a0 <i000000049a>:
  1022a0:	2e010f23          	sb	zero,766(sp)
  1022a4:	00000993          	li	s3,0

001022a8 <b000000049b>:
  1022a8:	00000033          	add	zero,zero,zero
  1022ac:	fb3d08e3          	beq	s10,s3,10225c <i000000048e>
  1022b0:	00000033          	add	zero,zero,zero
  1022b4:	00a00d13          	li	s10,10

001022b8 <i000000049b>:
  1022b8:	1f69ed93          	or	s11,s3,502

001022bc <i000000049c>:
  1022bc:	71d12623          	sw	t4,1804(sp)

001022c0 <i000000049d>:
  1022c0:	f9814183          	lbu	gp,-104(sp)

001022c4 <i000000049e>:
  1022c4:	a1214883          	lbu	a7,-1518(sp)

001022c8 <i000000049f>:
  1022c8:	41f35233          	sra	tp,t1,t6

001022cc <i00000004a0>:
  1022cc:	5f951e97          	auipc	t4,0x5f951

001022d0 <i00000004a1>:
  1022d0:	016f66b3          	or	a3,t5,s6

001022d4 <i00000004a2>:
  1022d4:	32b14003          	lbu	zero,811(sp)

001022d8 <i00000004a3>:
  1022d8:	40005a33          	sra	s4,zero,zero

001022dc <i00000004a4>:
  1022dc:	018f1a13          	sll	s4,t5,0x18

001022e0 <i00000004a5>:
  1022e0:	28714e83          	lbu	t4,647(sp)

001022e4 <i00000004a6>:
  1022e4:	00b05513          	srl	a0,zero,0xb

001022e8 <i00000004a7>:
  1022e8:	02011503          	lh	a0,32(sp)

001022ec <i00000004a8>:
  1022ec:	9864fb13          	and	s6,s1,-1658

001022f0 <i00000004a9>:
  1022f0:	f9712e23          	sw	s7,-100(sp)

001022f4 <i00000004aa>:
  1022f4:	004b6233          	or	tp,s6,tp

001022f8 <i00000004ab>:
  1022f8:	4128df33          	sra	t5,a7,s2
  1022fc:	0000d117          	auipc	sp,0xd
  102300:	e0410113          	add	sp,sp,-508 # 10f100 <mem>
  102304:	00033337          	lui	t1,0x33
  102308:	a1030313          	add	t1,t1,-1520 # 32a10 <tohost+0x12a08>
  10230c:	00610133          	add	sp,sp,t1

00102310 <i00000004ac>:
  102310:	cae15c03          	lhu	s8,-850(sp)

00102314 <i00000004ad>:
  102314:	d9412203          	lw	tp,-620(sp)
  102318:	00900893          	li	a7,9
  10231c:	00a00d13          	li	s10,10

00102320 <b00000004ae>:
  102320:	00000033          	add	zero,zero,zero
  102324:	071d4463          	blt	s10,a7,10238c <i00000004bb>
  102328:	00000033          	add	zero,zero,zero
  10232c:	00a00d13          	li	s10,10

00102330 <i00000004ae>:
  102330:	016f3533          	sltu	a0,t5,s6

00102334 <i00000004af>:
  102334:	3bcb3593          	sltiu	a1,s6,956

00102338 <i00000004b0>:
  102338:	00c25d93          	srl	s11,tp,0xc

0010233c <i00000004b1>:
  10233c:	11c12683          	lw	a3,284(sp)

00102340 <i00000004b2>:
  102340:	c5015203          	lhu	tp,-944(sp)

00102344 <i00000004b3>:
  102344:	e18fcf13          	xor	t5,t6,-488
  102348:	0000d117          	auipc	sp,0xd
  10234c:	db810113          	add	sp,sp,-584 # 10f100 <mem>
  102350:	0000b337          	lui	t1,0xb
  102354:	62830313          	add	t1,t1,1576 # b628 <_stack_len+0x3628>
  102358:	00610133          	add	sp,sp,t1

0010235c <i00000004b4>:
  10235c:	84a14283          	lbu	t0,-1974(sp)

00102360 <i00000004b5>:
  102360:	10014203          	lbu	tp,256(sp)

00102364 <i00000004b6>:
  102364:	00c55993          	srl	s3,a0,0xc

00102368 <i00000004b7>:
  102368:	bdd11a23          	sh	t4,-1068(sp)

0010236c <i00000004b8>:
  10236c:	40f10523          	sb	a5,1034(sp)

00102370 <i00000004b9>:
  102370:	1d211623          	sh	s2,460(sp)
  102374:	0000d117          	auipc	sp,0xd
  102378:	d8c10113          	add	sp,sp,-628 # 10f100 <mem>
  10237c:	0005f337          	lui	t1,0x5f
  102380:	d3830313          	add	t1,t1,-712 # 5ed38 <tohost+0x3ed30>
  102384:	00610133          	add	sp,sp,t1

00102388 <i00000004ba>:
  102388:	55611f23          	sh	s6,1374(sp)

0010238c <i00000004bb>:
  10238c:	82812b03          	lw	s6,-2008(sp)

00102390 <i00000004bc>:
  102390:	9ad2fb13          	and	s6,t0,-1619

00102394 <i00000004bd>:
  102394:	21412903          	lw	s2,532(sp)

00102398 <i00000004be>:
  102398:	615b3513          	sltiu	a0,s6,1557
  10239c:	0000d117          	auipc	sp,0xd
  1023a0:	d6410113          	add	sp,sp,-668 # 10f100 <mem>
  1023a4:	00009337          	lui	t1,0x9
  1023a8:	c7030313          	add	t1,t1,-912 # 8c70 <_stack_len+0xc70>
  1023ac:	00610133          	add	sp,sp,t1

001023b0 <i00000004bf>:
  1023b0:	91810b03          	lb	s6,-1768(sp)

001023b4 <i00000004c0>:
  1023b4:	26d80913          	add	s2,a6,621 # d210841 <fromhost+0xd088831>
  1023b8:	00900b93          	li	s7,9

001023bc <b00000004c1>:
  1023bc:	00000033          	add	zero,zero,zero
  1023c0:	f9abd2e3          	bge	s7,s10,102344 <i00000004b3>
  1023c4:	00000033          	add	zero,zero,zero
  1023c8:	00a00d13          	li	s10,10

001023cc <i00000004c1>:
  1023cc:	00d21393          	sll	t2,tp,0xd

001023d0 <i00000004c2>:
  1023d0:	fa411a23          	sh	tp,-76(sp)

001023d4 <i00000004c3>:
  1023d4:	83c15203          	lhu	tp,-1988(sp)

001023d8 <i00000004c4>:
  1023d8:	404053b3          	sra	t2,zero,tp

001023dc <i00000004c5>:
  1023dc:	01da2b33          	slt	s6,s4,t4

001023e0 <i00000004c6>:
  1023e0:	00055f13          	srl	t5,a0,0x0

001023e4 <i00000004c7>:
  1023e4:	eb3104a3          	sb	s3,-343(sp)
  1023e8:	0000d117          	auipc	sp,0xd
  1023ec:	d1810113          	add	sp,sp,-744 # 10f100 <mem>
  1023f0:	0001f337          	lui	t1,0x1f
  1023f4:	dd830313          	add	t1,t1,-552 # 1edd8 <_stack_len+0x16dd8>
  1023f8:	00610133          	add	sp,sp,t1

001023fc <i00000004c8>:
  1023fc:	fca11f23          	sh	a0,-34(sp)

00102400 <i00000004c9>:
  102400:	00025033          	srl	zero,tp,zero

00102404 <i00000004ca>:
  102404:	0ec15503          	lhu	a0,236(sp)

00102408 <i00000004cb>:
  102408:	00003533          	snez	a0,zero

0010240c <i00000004cc>:
  10240c:	40425b13          	sra	s6,tp,0x4

00102410 <i00000004cd>:
  102410:	a3812b03          	lw	s6,-1480(sp)

00102414 <i00000004ce>:
  102414:	767a0037          	lui	zero,0x767a0

00102418 <i00000004cf>:
  102418:	58bb0213          	add	tp,s6,1419 # 2ebd17e7 <fromhost+0x2ea497d7>

0010241c <i00000004d0>:
  10241c:	ec611023          	sh	t1,-320(sp)

00102420 <i00000004d1>:
  102420:	1a815403          	lhu	s0,424(sp)

00102424 <i00000004d2>:
  102424:	62411123          	sh	tp,1570(sp)

00102428 <i00000004d3>:
  102428:	ff3e6213          	or	tp,t3,-13
  10242c:	00900993          	li	s3,9
  102430:	00a00d13          	li	s10,10

00102434 <b00000004d4>:
  102434:	00000033          	add	zero,zero,zero
  102438:	073d4463          	blt	s10,s3,1024a0 <i00000004e1>
  10243c:	00000033          	add	zero,zero,zero
  102440:	00a00d13          	li	s10,10

00102444 <i00000004d4>:
  102444:	01fc5bb3          	srl	s7,s8,t6

00102448 <i00000004d5>:
  102448:	6d310223          	sb	s3,1732(sp)

0010244c <i00000004d6>:
  10244c:	006e74b3          	and	s1,t3,t1

00102450 <i00000004d7>:
  102450:	399105a3          	sb	s9,907(sp)

00102454 <i00000004d8>:
  102454:	41f6d233          	sra	tp,a3,t6
  102458:	0000d117          	auipc	sp,0xd
  10245c:	ca810113          	add	sp,sp,-856 # 10f100 <mem>
  102460:	0004f337          	lui	t1,0x4f
  102464:	d4830313          	add	t1,t1,-696 # 4ed48 <tohost+0x2ed40>
  102468:	00610133          	add	sp,sp,t1

0010246c <i00000004d9>:
  10246c:	b9f11823          	sh	t6,-1136(sp)
  102470:	0000d117          	auipc	sp,0xd
  102474:	c9010113          	add	sp,sp,-880 # 10f100 <mem>
  102478:	0005d337          	lui	t1,0x5d
  10247c:	3d030313          	add	t1,t1,976 # 5d3d0 <tohost+0x3d3c8>
  102480:	00610133          	add	sp,sp,t1

00102484 <i00000004da>:
  102484:	8e510883          	lb	a7,-1819(sp)

00102488 <i00000004db>:
  102488:	404b0db3          	sub	s11,s6,tp

0010248c <i00000004dc>:
  10248c:	ebc14903          	lbu	s2,-324(sp)

00102490 <i00000004dd>:
  102490:	2c5c4413          	xor	s0,s8,709

00102494 <i00000004de>:
  102494:	86607213          	and	tp,zero,-1946

00102498 <i00000004df>:
  102498:	37a11903          	lh	s2,890(sp)

0010249c <i00000004e0>:
  10249c:	98310d83          	lb	s11,-1661(sp)

001024a0 <i00000004e1>:
  1024a0:	01ef1013          	sll	zero,t5,0x1e

001024a4 <i00000004e2>:
  1024a4:	01620033          	add	zero,tp,s6

001024a8 <i00000004e3>:
  1024a8:	4f4ca213          	slti	tp,s9,1268

001024ac <i00000004e4>:
  1024ac:	7ba11503          	lh	a0,1978(sp)

001024b0 <i00000004e5>:
  1024b0:	40e11403          	lh	s0,1038(sp)

001024b4 <i00000004e6>:
  1024b4:	ef611b03          	lh	s6,-266(sp)
  1024b8:	00a00813          	li	a6,10

001024bc <b00000004e7>:
  1024bc:	00000033          	add	zero,zero,zero
  1024c0:	070d0063          	beq	s10,a6,102520 <i00000004f2>
  1024c4:	00000033          	add	zero,zero,zero
  1024c8:	00a00d13          	li	s10,10

001024cc <i00000004e7>:
  1024cc:	015839b3          	sltu	s3,a6,s5
  1024d0:	0000d117          	auipc	sp,0xd
  1024d4:	c3010113          	add	sp,sp,-976 # 10f100 <mem>
  1024d8:	00053337          	lui	t1,0x53
  1024dc:	41030313          	add	t1,t1,1040 # 53410 <tohost+0x33408>
  1024e0:	00610133          	add	sp,sp,t1

001024e4 <i00000004e8>:
  1024e4:	59f12023          	sw	t6,1408(sp)
  1024e8:	0000d117          	auipc	sp,0xd
  1024ec:	c1810113          	add	sp,sp,-1000 # 10f100 <mem>
  1024f0:	00015337          	lui	t1,0x15
  1024f4:	10030313          	add	t1,t1,256 # 15100 <_stack_len+0xd100>
  1024f8:	00610133          	add	sp,sp,t1

001024fc <i00000004e9>:
  1024fc:	b6015f03          	lhu	t5,-1184(sp)

00102500 <i00000004ea>:
  102500:	01deaf33          	slt	t5,t4,t4

00102504 <i00000004eb>:
  102504:	00bfcab3          	xor	s5,t6,a1

00102508 <i00000004ec>:
  102508:	1a0b3b13          	sltiu	s6,s6,416

0010250c <i00000004ed>:
  10250c:	00e29f93          	sll	t6,t0,0xe

00102510 <i00000004ee>:
  102510:	411e0933          	sub	s2,t3,a7

00102514 <i00000004ef>:
  102514:	f7814f03          	lbu	t5,-136(sp)

00102518 <i00000004f0>:
  102518:	bf3a4493          	xor	s1,s4,-1037

0010251c <i00000004f1>:
  10251c:	4175dc13          	sra	s8,a1,0x17

00102520 <i00000004f2>:
  102520:	5f815003          	lhu	zero,1528(sp)

00102524 <i00000004f3>:
  102524:	00ab5b33          	srl	s6,s6,a0

00102528 <i00000004f4>:
  102528:	540107a3          	sb	zero,1359(sp)

0010252c <i00000004f5>:
  10252c:	00968233          	add	tp,a3,s1

00102530 <i00000004f6>:
  102530:	60014b03          	lbu	s6,1536(sp)

00102534 <i00000004f7>:
  102534:	00195c93          	srl	s9,s2,0x1

00102538 <i00000004f8>:
  102538:	b4054f13          	xor	t5,a0,-1216

0010253c <i00000004f9>:
  10253c:	76a11003          	lh	zero,1898(sp)
  102540:	00000813          	li	a6,0

00102544 <b00000004fa>:
  102544:	00000033          	add	zero,zero,zero
  102548:	fd0d02e3          	beq	s10,a6,10250c <i00000004ed>
  10254c:	00000033          	add	zero,zero,zero
  102550:	00a00d13          	li	s10,10

00102554 <i00000004fa>:
  102554:	2fe11f03          	lh	t5,766(sp)

00102558 <i00000004fb>:
  102558:	2d010a03          	lb	s4,720(sp)

0010255c <i00000004fc>:
  10255c:	01eb6f33          	or	t5,s6,t5

00102560 <i00000004fd>:
  102560:	7db10c83          	lb	s9,2011(sp)

00102564 <i00000004fe>:
  102564:	46011523          	sh	zero,1130(sp)

00102568 <i00000004ff>:
  102568:	6f6ee413          	or	s0,t4,1782
  10256c:	0000d117          	auipc	sp,0xd
  102570:	b9410113          	add	sp,sp,-1132 # 10f100 <mem>
  102574:	00040337          	lui	t1,0x40
  102578:	8d030313          	add	t1,t1,-1840 # 3f8d0 <tohost+0x1f8c8>
  10257c:	00610133          	add	sp,sp,t1

00102580 <i0000000500>:
  102580:	f3912423          	sw	s9,-216(sp)

00102584 <i0000000501>:
  102584:	01360b33          	add	s6,a2,s3

00102588 <i0000000502>:
  102588:	01025e93          	srl	t4,tp,0x10

0010258c <i0000000503>:
  10258c:	00457533          	and	a0,a0,tp

00102590 <i0000000504>:
  102590:	80914883          	lbu	a7,-2039(sp)

00102594 <i0000000505>:
  102594:	405f5193          	sra	gp,t5,0x5

00102598 <i0000000506>:
  102598:	d4a10723          	sb	a0,-690(sp)

0010259c <i0000000507>:
  10259c:	00ece533          	or	a0,s9,a4

001025a0 <i0000000508>:
  1025a0:	70dbb993          	sltiu	s3,s7,1805

001025a4 <i0000000509>:
  1025a4:	01ef1033          	sll	zero,t5,t5

001025a8 <i000000050a>:
  1025a8:	27710b23          	sb	s7,630(sp)

001025ac <i000000050b>:
  1025ac:	49714403          	lbu	s0,1175(sp)

001025b0 <i000000050c>:
  1025b0:	409905b3          	sub	a1,s2,s1
  1025b4:	00b00f93          	li	t6,11
  1025b8:	00a00d13          	li	s10,10

001025bc <b000000050d>:
  1025bc:	00000033          	add	zero,zero,zero
  1025c0:	07afd263          	bge	t6,s10,102624 <i0000000519>
  1025c4:	00000033          	add	zero,zero,zero
  1025c8:	00a00d13          	li	s10,10

001025cc <i000000050d>:
  1025cc:	92012f03          	lw	t5,-1760(sp)

001025d0 <i000000050e>:
  1025d0:	29215203          	lhu	tp,658(sp)

001025d4 <i000000050f>:
  1025d4:	40a20b33          	sub	s6,tp,a0
  1025d8:	0000d117          	auipc	sp,0xd
  1025dc:	b2810113          	add	sp,sp,-1240 # 10f100 <mem>
  1025e0:	0002c337          	lui	t1,0x2c
  1025e4:	ac030313          	add	t1,t1,-1344 # 2bac0 <tohost+0xbab8>
  1025e8:	00610133          	add	sp,sp,t1

001025ec <i0000000510>:
  1025ec:	e8012b03          	lw	s6,-384(sp)

001025f0 <i0000000511>:
  1025f0:	417b5293          	sra	t0,s6,0x17
  1025f4:	0000d117          	auipc	sp,0xd
  1025f8:	b0c10113          	add	sp,sp,-1268 # 10f100 <mem>
  1025fc:	00018337          	lui	t1,0x18
  102600:	06830313          	add	t1,t1,104 # 18068 <_stack_len+0x10068>
  102604:	00610133          	add	sp,sp,t1

00102608 <i0000000512>:
  102608:	8de11603          	lh	a2,-1826(sp)

0010260c <i0000000513>:
  10260c:	01121f13          	sll	t5,tp,0x11

00102610 <i0000000514>:
  102610:	ad412503          	lw	a0,-1324(sp)

00102614 <i0000000515>:
  102614:	01623b33          	sltu	s6,tp,s6

00102618 <i0000000516>:
  102618:	00f03513          	sltiu	a0,zero,15

0010261c <i0000000517>:
  10261c:	00d8e4b3          	or	s1,a7,a3

00102620 <i0000000518>:
  102620:	196105a3          	sb	s6,395(sp)

00102624 <i0000000519>:
  102624:	01762233          	slt	tp,a2,s7

00102628 <i000000051a>:
  102628:	01eb0fb3          	add	t6,s6,t5

0010262c <i000000051b>:
  10262c:	45010203          	lb	tp,1104(sp)

00102630 <i000000051c>:
  102630:	01ef6233          	or	tp,t5,t5

00102634 <i000000051d>:
  102634:	5bc12703          	lw	a4,1468(sp)
  102638:	0000d117          	auipc	sp,0xd
  10263c:	ac810113          	add	sp,sp,-1336 # 10f100 <mem>
  102640:	00061337          	lui	t1,0x61
  102644:	c0030313          	add	t1,t1,-1024 # 60c00 <tohost+0x40bf8>
  102648:	00610133          	add	sp,sp,t1

0010264c <i000000051e>:
  10264c:	7ea10203          	lb	tp,2026(sp)

00102650 <i000000051f>:
  102650:	002df237          	lui	tp,0x2df
  102654:	00c00e13          	li	t3,12
  102658:	001d0d13          	add	s10,s10,1

0010265c <b0000000520>:
  10265c:	01cd0863          	beq	s10,t3,10266c <b0000000520+0x10>
  102660:	00000e17          	auipc	t3,0x0
  102664:	face0e13          	add	t3,t3,-84 # 10260c <i0000000513>
  102668:	000e0567          	jalr	a0,t3
  10266c:	00a00d13          	li	s10,10

00102670 <i0000000520>:
  102670:	00f49533          	sll	a0,s1,a5

00102674 <i0000000521>:
  102674:	95f14203          	lbu	tp,-1697(sp)

00102678 <i0000000522>:
  102678:	eff11123          	sh	t6,-286(sp)

0010267c <i0000000523>:
  10267c:	01e20b33          	add	s6,tp,t5

00102680 <i0000000524>:
  102680:	0199d233          	srl	tp,s3,s9

00102684 <i0000000525>:
  102684:	85e12c23          	sw	t5,-1960(sp)

00102688 <i0000000526>:
  102688:	40450b33          	sub	s6,a0,tp

0010268c <i0000000527>:
  10268c:	68a4b013          	sltiu	zero,s1,1674
  102690:	0000d117          	auipc	sp,0xd
  102694:	a7010113          	add	sp,sp,-1424 # 10f100 <mem>
  102698:	00044337          	lui	t1,0x44
  10269c:	0e030313          	add	t1,t1,224 # 440e0 <tohost+0x240d8>
  1026a0:	00610133          	add	sp,sp,t1

001026a4 <i0000000528>:
  1026a4:	66415803          	lhu	a6,1636(sp)

001026a8 <i0000000529>:
  1026a8:	25114b03          	lbu	s6,593(sp)
  1026ac:	0000d117          	auipc	sp,0xd
  1026b0:	a5410113          	add	sp,sp,-1452 # 10f100 <mem>
  1026b4:	0002d337          	lui	t1,0x2d
  1026b8:	42030313          	add	t1,t1,1056 # 2d420 <tohost+0xd418>
  1026bc:	00610133          	add	sp,sp,t1

001026c0 <i000000052a>:
  1026c0:	40011623          	sh	zero,1036(sp)

001026c4 <i000000052b>:
  1026c4:	00a20233          	add	tp,tp,a0

001026c8 <i000000052c>:
  1026c8:	00f8c533          	xor	a0,a7,a5

001026cc <i000000052d>:
  1026cc:	f1b98f13          	add	t5,s3,-229 # 7a4b1f1b <fromhost+0x7a329f0b>

001026d0 <i000000052e>:
  1026d0:	e29fa913          	slti	s2,t6,-471
  1026d4:	0000d117          	auipc	sp,0xd
  1026d8:	a2c10113          	add	sp,sp,-1492 # 10f100 <mem>
  1026dc:	00040337          	lui	t1,0x40
  1026e0:	2e830313          	add	t1,t1,744 # 402e8 <tohost+0x202e0>
  1026e4:	00610133          	add	sp,sp,t1

001026e8 <i000000052f>:
  1026e8:	07810f03          	lb	t5,120(sp)

001026ec <i0000000530>:
  1026ec:	66753517          	auipc	a0,0x66753

001026f0 <i0000000531>:
  1026f0:	000f6f33          	or	t5,t5,zero

001026f4 <i0000000532>:
  1026f4:	7fe11423          	sh	t5,2024(sp)
  1026f8:	00900b13          	li	s6,9

001026fc <b0000000533>:
  1026fc:	00000033          	add	zero,zero,zero
  102700:	fbab54e3          	bge	s6,s10,1026a8 <i0000000529>
  102704:	00000033          	add	zero,zero,zero
  102708:	00a00d13          	li	s10,10

0010270c <i0000000533>:
  10270c:	c8914e83          	lbu	t4,-887(sp)

00102710 <i0000000534>:
  102710:	30e66997          	auipc	s3,0x30e66

00102714 <i0000000535>:
  102714:	296e6013          	or	zero,t3,662
  102718:	0000d117          	auipc	sp,0xd
  10271c:	9e810113          	add	sp,sp,-1560 # 10f100 <mem>
  102720:	00042337          	lui	t1,0x42
  102724:	e2030313          	add	t1,t1,-480 # 41e20 <tohost+0x21e18>
  102728:	00610133          	add	sp,sp,t1

0010272c <i0000000536>:
  10272c:	95612e23          	sw	s6,-1700(sp)

00102730 <i0000000537>:
  102730:	e8a15503          	lhu	a0,-374(sp)

00102734 <i0000000538>:
  102734:	00b31013          	sll	zero,t1,0xb
  102738:	0000d117          	auipc	sp,0xd
  10273c:	9c810113          	add	sp,sp,-1592 # 10f100 <mem>
  102740:	0005f337          	lui	t1,0x5f
  102744:	a1830313          	add	t1,t1,-1512 # 5ea18 <tohost+0x3ea10>
  102748:	00610133          	add	sp,sp,t1

0010274c <i0000000539>:
  10274c:	24c15483          	lhu	s1,588(sp)

00102750 <i000000053a>:
  102750:	dd7c0213          	add	tp,s8,-553

00102754 <i000000053b>:
  102754:	db012e03          	lw	t3,-592(sp)

00102758 <i000000053c>:
  102758:	60412c23          	sw	tp,1560(sp)

0010275c <i000000053d>:
  10275c:	2b012a83          	lw	s5,688(sp)

00102760 <i000000053e>:
  102760:	85314783          	lbu	a5,-1965(sp)

00102764 <i000000053f>:
  102764:	004241b3          	xor	gp,tp,tp

00102768 <i0000000540>:
  102768:	b0c10b23          	sb	a2,-1258(sp)

0010276c <i0000000541>:
  10276c:	01623b33          	sltu	s6,tp,s6

00102770 <i0000000542>:
  102770:	cd215f83          	lhu	t6,-814(sp)

00102774 <i0000000543>:
  102774:	63314303          	lbu	t1,1587(sp)

00102778 <i0000000544>:
  102778:	fd414003          	lbu	zero,-44(sp)

0010277c <i0000000545>:
  10277c:	400001b3          	neg	gp,zero
  102780:	00c00913          	li	s2,12
  102784:	001d0d13          	add	s10,s10,1

00102788 <b0000000546>:
  102788:	00000033          	add	zero,zero,zero
  10278c:	fd2d48e3          	blt	s10,s2,10275c <i000000053d>
  102790:	00000033          	add	zero,zero,zero
  102794:	00a00d13          	li	s10,10

00102798 <i0000000546>:
  102798:	e185bf13          	sltiu	t5,a1,-488

0010279c <i0000000547>:
  10279c:	01555513          	srl	a0,a0,0x15

001027a0 <i0000000548>:
  1027a0:	41afd693          	sra	a3,t6,0x1a

001027a4 <i0000000549>:
  1027a4:	b6012303          	lw	t1,-1184(sp)

001027a8 <i000000054a>:
  1027a8:	a9412503          	lw	a0,-1388(sp)

001027ac <i000000054b>:
  1027ac:	06fcb6b7          	lui	a3,0x6fcb

001027b0 <i000000054c>:
  1027b0:	00d81b33          	sll	s6,a6,a3

001027b4 <i000000054d>:
  1027b4:	00003433          	snez	s0,zero
  1027b8:	0000d117          	auipc	sp,0xd
  1027bc:	94810113          	add	sp,sp,-1720 # 10f100 <mem>
  1027c0:	00024337          	lui	t1,0x24
  1027c4:	64030313          	add	t1,t1,1600 # 24640 <tohost+0x4638>
  1027c8:	00610133          	add	sp,sp,t1

001027cc <i000000054e>:
  1027cc:	b9a10283          	lb	t0,-1126(sp)

001027d0 <i000000054f>:
  1027d0:	3f526b13          	or	s6,tp,1013

001027d4 <i0000000550>:
  1027d4:	76415683          	lhu	a3,1892(sp)

001027d8 <i0000000551>:
  1027d8:	bf5f8513          	add	a0,t6,-1035 # 754d3bf5 <fromhost+0x7534bbe5>
  1027dc:	0000d117          	auipc	sp,0xd
  1027e0:	92410113          	add	sp,sp,-1756 # 10f100 <mem>
  1027e4:	00063337          	lui	t1,0x63
  1027e8:	bf830313          	add	t1,t1,-1032 # 62bf8 <tohost+0x42bf0>
  1027ec:	00610133          	add	sp,sp,t1

001027f0 <i0000000552>:
  1027f0:	f8412583          	lw	a1,-124(sp)

001027f4 <i0000000553>:
  1027f4:	27510c23          	sb	s5,632(sp)

001027f8 <i0000000554>:
  1027f8:	8a010623          	sb	zero,-1876(sp)

001027fc <i0000000555>:
  1027fc:	017c62b3          	or	t0,s8,s7

00102800 <i0000000556>:
  102800:	b6a06f13          	or	t5,zero,-1174

00102804 <i0000000557>:
  102804:	29c64e93          	xor	t4,a2,668

00102808 <i0000000558>:
  102808:	01c74f33          	xor	t5,a4,t3
  10280c:	00a00813          	li	a6,10
  102810:	00a00d13          	li	s10,10

00102814 <b0000000559>:
  102814:	00000033          	add	zero,zero,zero
  102818:	070d1e63          	bne	s10,a6,102894 <i0000000566>
  10281c:	00000033          	add	zero,zero,zero
  102820:	00a00d13          	li	s10,10
  102824:	0000d117          	auipc	sp,0xd
  102828:	8dc10113          	add	sp,sp,-1828 # 10f100 <mem>
  10282c:	00026337          	lui	t1,0x26
  102830:	a8830313          	add	t1,t1,-1400 # 25a88 <tohost+0x5a80>
  102834:	00610133          	add	sp,sp,t1

00102838 <i0000000559>:
  102838:	1b412003          	lw	zero,436(sp)

0010283c <i000000055a>:
  10283c:	30e62217          	auipc	tp,0x30e62

00102840 <i000000055b>:
  102840:	a87aeb13          	or	s6,s5,-1401

00102844 <i000000055c>:
  102844:	00f01413          	sll	s0,zero,0xf

00102848 <i000000055d>:
  102848:	37e1ab13          	slti	s6,gp,894
  10284c:	0000d117          	auipc	sp,0xd
  102850:	8b410113          	add	sp,sp,-1868 # 10f100 <mem>
  102854:	00027337          	lui	t1,0x27
  102858:	3c830313          	add	t1,t1,968 # 273c8 <tohost+0x73c0>
  10285c:	00610133          	add	sp,sp,t1

00102860 <i000000055e>:
  102860:	7bd12c23          	sw	t4,1976(sp)

00102864 <i000000055f>:
  102864:	a076b993          	sltiu	s3,a3,-1529

00102868 <i0000000560>:
  102868:	00af0033          	add	zero,t5,a0

0010286c <i0000000561>:
  10286c:	7d411f03          	lh	t5,2004(sp)

00102870 <i0000000562>:
  102870:	71c11e23          	sh	t3,1820(sp)

00102874 <i0000000563>:
  102874:	66815b03          	lhu	s6,1640(sp)
  102878:	0000d117          	auipc	sp,0xd
  10287c:	88810113          	add	sp,sp,-1912 # 10f100 <mem>
  102880:	00063337          	lui	t1,0x63
  102884:	bb830313          	add	t1,t1,-1096 # 62bb8 <tohost+0x42bb0>
  102888:	00610133          	add	sp,sp,t1

0010288c <i0000000564>:
  10288c:	6ba14b03          	lbu	s6,1722(sp)

00102890 <i0000000565>:
  102890:	40400f33          	neg	t5,tp

00102894 <i0000000566>:
  102894:	a7614503          	lbu	a0,-1418(sp)

00102898 <i0000000567>:
  102898:	9ae04193          	xor	gp,zero,-1618

0010289c <i0000000568>:
  10289c:	0133a733          	slt	a4,t2,s3

001028a0 <i0000000569>:
  1028a0:	41c10f83          	lb	t6,1052(sp)
  1028a4:	0000d117          	auipc	sp,0xd
  1028a8:	85c10113          	add	sp,sp,-1956 # 10f100 <mem>
  1028ac:	0006b337          	lui	t1,0x6b
  1028b0:	7b030313          	add	t1,t1,1968 # 6b7b0 <tohost+0x4b7a8>
  1028b4:	00610133          	add	sp,sp,t1

001028b8 <i000000056a>:
  1028b8:	8ec11323          	sh	a2,-1818(sp)

001028bc <i000000056b>:
  1028bc:	37acf593          	and	a1,s9,890
  1028c0:	00a00d93          	li	s11,10

001028c4 <b000000056c>:
  1028c4:	00000033          	add	zero,zero,zero
  1028c8:	05bd0063          	beq	s10,s11,102908 <i0000000579>
  1028cc:	00000033          	add	zero,zero,zero
  1028d0:	00a00d13          	li	s10,10

001028d4 <i000000056c>:
  1028d4:	73811423          	sh	s8,1832(sp)

001028d8 <i000000056d>:
  1028d8:	1f714383          	lbu	t2,503(sp)

001028dc <i000000056e>:
  1028dc:	01d5f333          	and	t1,a1,t4

001028e0 <i000000056f>:
  1028e0:	8a414f03          	lbu	t5,-1884(sp)

001028e4 <i0000000570>:
  1028e4:	11e11723          	sh	t5,270(sp)

001028e8 <i0000000571>:
  1028e8:	204f2513          	slti	a0,t5,516

001028ec <i0000000572>:
  1028ec:	00f81693          	sll	a3,a6,0xf

001028f0 <i0000000573>:
  1028f0:	d1010123          	sb	a6,-766(sp)

001028f4 <i0000000574>:
  1028f4:	55e11f03          	lh	t5,1374(sp)

001028f8 <i0000000575>:
  1028f8:	b31ac313          	xor	t1,s5,-1231

001028fc <i0000000576>:
  1028fc:	2db07513          	and	a0,zero,731

00102900 <i0000000577>:
  102900:	00ce7b33          	and	s6,t3,a2

00102904 <i0000000578>:
  102904:	23e11123          	sh	t5,546(sp)

00102908 <i0000000579>:
  102908:	017b1f13          	sll	t5,s6,0x17

0010290c <i000000057a>:
  10290c:	85e14203          	lbu	tp,-1954(sp)

00102910 <i000000057b>:
  102910:	d527c013          	xor	zero,a5,-686

00102914 <i000000057c>:
  102914:	0085ebb3          	or	s7,a1,s0
  102918:	0000c117          	auipc	sp,0xc
  10291c:	7e810113          	add	sp,sp,2024 # 10f100 <mem>
  102920:	00030337          	lui	t1,0x30
  102924:	22830313          	add	t1,t1,552 # 30228 <tohost+0x10220>
  102928:	00610133          	add	sp,sp,t1

0010292c <i000000057d>:
  10292c:	6c014f03          	lbu	t5,1728(sp)
  102930:	0000c117          	auipc	sp,0xc
  102934:	7d010113          	add	sp,sp,2000 # 10f100 <mem>
  102938:	00036337          	lui	t1,0x36
  10293c:	fc030313          	add	t1,t1,-64 # 35fc0 <tohost+0x15fb8>
  102940:	00610133          	add	sp,sp,t1

00102944 <i000000057e>:
  102944:	43d12623          	sw	t4,1068(sp)
  102948:	00a00c13          	li	s8,10
  10294c:	00a00d13          	li	s10,10

00102950 <b000000057f>:
  102950:	00000033          	add	zero,zero,zero
  102954:	038d1a63          	bne	s10,s8,102988 <i0000000584>
  102958:	00000033          	add	zero,zero,zero
  10295c:	00a00d13          	li	s10,10

00102960 <i000000057f>:
  102960:	0075d2b3          	srl	t0,a1,t2

00102964 <i0000000580>:
  102964:	aae10ca3          	sb	a4,-1351(sp)
  102968:	0000c117          	auipc	sp,0xc
  10296c:	79810113          	add	sp,sp,1944 # 10f100 <mem>
  102970:	00041337          	lui	t1,0x41
  102974:	0a030313          	add	t1,t1,160 # 410a0 <tohost+0x21098>
  102978:	00610133          	add	sp,sp,t1

0010297c <i0000000581>:
  10297c:	6ca15003          	lhu	zero,1738(sp)

00102980 <i0000000582>:
  102980:	000213b3          	sll	t2,tp,zero

00102984 <i0000000583>:
  102984:	25e12823          	sw	t5,592(sp)

00102988 <i0000000584>:
  102988:	55011423          	sh	a6,1352(sp)

0010298c <i0000000585>:
  10298c:	75410923          	sb	s4,1874(sp)

00102990 <i0000000586>:
  102990:	109c8593          	add	a1,s9,265

00102994 <i0000000587>:
  102994:	a1812003          	lw	zero,-1512(sp)

00102998 <i0000000588>:
  102998:	00c4b533          	sltu	a0,s1,a2

0010299c <i0000000589>:
  10299c:	32014b83          	lbu	s7,800(sp)

001029a0 <i000000058a>:
  1029a0:	5c2b3217          	auipc	tp,0x5c2b3

001029a4 <i000000058b>:
  1029a4:	407adbb3          	sra	s7,s5,t2
  1029a8:	0000c117          	auipc	sp,0xc
  1029ac:	75810113          	add	sp,sp,1880 # 10f100 <mem>
  1029b0:	0003b337          	lui	t1,0x3b
  1029b4:	a6830313          	add	t1,t1,-1432 # 3aa68 <tohost+0x1aa60>
  1029b8:	00610133          	add	sp,sp,t1

001029bc <i000000058c>:
  1029bc:	7e012603          	lw	a2,2016(sp)

001029c0 <i000000058d>:
  1029c0:	ffd101a3          	sb	t4,-29(sp)

001029c4 <i000000058e>:
  1029c4:	0ac12183          	lw	gp,172(sp)

001029c8 <i000000058f>:
  1029c8:	b3cc0f13          	add	t5,s8,-1220

001029cc <i0000000590>:
  1029cc:	2f913017          	auipc	zero,0x2f913
  1029d0:	0000c117          	auipc	sp,0xc
  1029d4:	73010113          	add	sp,sp,1840 # 10f100 <mem>
  1029d8:	00054337          	lui	t1,0x54
  1029dc:	d8030313          	add	t1,t1,-640 # 53d80 <tohost+0x33d78>
  1029e0:	00610133          	add	sp,sp,t1

001029e4 <i0000000591>:
  1029e4:	a1c15d83          	lhu	s11,-1508(sp)
  1029e8:	00c00d93          	li	s11,12
  1029ec:	001d0d13          	add	s10,s10,1

001029f0 <b0000000592>:
  1029f0:	00000033          	add	zero,zero,zero
  1029f4:	fdadd4e3          	bge	s11,s10,1029bc <i000000058c>
  1029f8:	00000033          	add	zero,zero,zero
  1029fc:	00a00d13          	li	s10,10

00102a00 <i0000000592>:
  102a00:	19512823          	sw	s5,400(sp)

00102a04 <i0000000593>:
  102a04:	6a2b3f93          	sltiu	t6,s6,1698

00102a08 <i0000000594>:
  102a08:	90a14e83          	lbu	t4,-1782(sp)

00102a0c <i0000000595>:
  102a0c:	00b30033          	add	zero,t1,a1

00102a10 <i0000000596>:
  102a10:	00241e93          	sll	t4,s0,0x2

00102a14 <i0000000597>:
  102a14:	7f680017          	auipc	zero,0x7f680

00102a18 <i0000000598>:
  102a18:	63610623          	sb	s6,1580(sp)

00102a1c <i0000000599>:
  102a1c:	00255193          	srl	gp,a0,0x2

00102a20 <i000000059a>:
  102a20:	5d411b03          	lh	s6,1492(sp)

00102a24 <i000000059b>:
  102a24:	46de28b7          	lui	a7,0x46de2

00102a28 <i000000059c>:
  102a28:	74614003          	lbu	zero,1862(sp)

00102a2c <i000000059d>:
  102a2c:	5c714b03          	lbu	s6,1479(sp)

00102a30 <i000000059e>:
  102a30:	eb270f13          	add	t5,a4,-334 # 49551eb2 <fromhost+0x493c9ea2>
  102a34:	0000c117          	auipc	sp,0xc
  102a38:	6cc10113          	add	sp,sp,1740 # 10f100 <mem>
  102a3c:	0000c337          	lui	t1,0xc
  102a40:	63830313          	add	t1,t1,1592 # c638 <_stack_len+0x4638>
  102a44:	00610133          	add	sp,sp,t1

00102a48 <i000000059f>:
  102a48:	1c614403          	lbu	s0,454(sp)

00102a4c <i00000005a0>:
  102a4c:	41eb0c33          	sub	s8,s6,t5

00102a50 <i00000005a1>:
  102a50:	013adc93          	srl	s9,s5,0x13

00102a54 <i00000005a2>:
  102a54:	18914503          	lbu	a0,393(sp)

00102a58 <i00000005a3>:
  102a58:	b2f14783          	lbu	a5,-1233(sp)

00102a5c <i00000005a4>:
  102a5c:	de811003          	lh	zero,-536(sp)
  102a60:	00900e13          	li	t3,9
  102a64:	00a00d13          	li	s10,10

00102a68 <b00000005a5>:
  102a68:	00000033          	add	zero,zero,zero
  102a6c:	03cd4e63          	blt	s10,t3,102aa8 <i00000005ac>
  102a70:	00000033          	add	zero,zero,zero
  102a74:	00a00d13          	li	s10,10

00102a78 <i00000005a5>:
  102a78:	416204b3          	sub	s1,tp,s6

00102a7c <i00000005a6>:
  102a7c:	0147d213          	srl	tp,a5,0x14

00102a80 <i00000005a7>:
  102a80:	d3c12423          	sw	t3,-728(sp)

00102a84 <i00000005a8>:
  102a84:	0c412603          	lw	a2,196(sp)

00102a88 <i00000005a9>:
  102a88:	60411503          	lh	a0,1540(sp)

00102a8c <i00000005aa>:
  102a8c:	00003a33          	snez	s4,zero
  102a90:	0000c117          	auipc	sp,0xc
  102a94:	67010113          	add	sp,sp,1648 # 10f100 <mem>
  102a98:	0006c337          	lui	t1,0x6c
  102a9c:	66030313          	add	t1,t1,1632 # 6c660 <tohost+0x4c658>
  102aa0:	00610133          	add	sp,sp,t1

00102aa4 <i00000005ab>:
  102aa4:	0ca10aa3          	sb	a0,213(sp)

00102aa8 <i00000005ac>:
  102aa8:	1d812b03          	lw	s6,472(sp)

00102aac <i00000005ad>:
  102aac:	f7611123          	sh	s6,-158(sp)

00102ab0 <i00000005ae>:
  102ab0:	2c215383          	lhu	t2,706(sp)
  102ab4:	0000c117          	auipc	sp,0xc
  102ab8:	64c10113          	add	sp,sp,1612 # 10f100 <mem>
  102abc:	0006e337          	lui	t1,0x6e
  102ac0:	92030313          	add	t1,t1,-1760 # 6d920 <tohost+0x4d918>
  102ac4:	00610133          	add	sp,sp,t1

00102ac8 <i00000005af>:
  102ac8:	38411823          	sh	tp,912(sp)

00102acc <i00000005b0>:
  102acc:	93f14003          	lbu	zero,-1729(sp)

00102ad0 <i00000005b1>:
  102ad0:	08114203          	lbu	tp,129(sp)

00102ad4 <i00000005b2>:
  102ad4:	00f7db13          	srl	s6,a5,0xf

00102ad8 <i00000005b3>:
  102ad8:	00407e33          	and	t3,zero,tp

00102adc <i00000005b4>:
  102adc:	00a23433          	sltu	s0,tp,a0

00102ae0 <i00000005b5>:
  102ae0:	001b5f13          	srl	t5,s6,0x1

00102ae4 <i00000005b6>:
  102ae4:	dec12903          	lw	s2,-532(sp)

00102ae8 <i00000005b7>:
  102ae8:	a7e12223          	sw	t5,-1436(sp)

00102aec <b00000005b8>:
  102aec:	00000917          	auipc	s2,0x0
  102af0:	05890913          	add	s2,s2,88 # 102b44 <i00000005c6>
  102af4:	00090567          	jalr	a0,s2

00102af8 <i00000005b8>:
  102af8:	00ca4233          	xor	tp,s4,a2

00102afc <i00000005b9>:
  102afc:	017991b3          	sll	gp,s3,s7

00102b00 <i00000005ba>:
  102b00:	a2710003          	lb	zero,-1497(sp)

00102b04 <i00000005bb>:
  102b04:	c4910d83          	lb	s11,-951(sp)

00102b08 <i00000005bc>:
  102b08:	90314e83          	lbu	t4,-1789(sp)

00102b0c <i00000005bd>:
  102b0c:	011eeeb3          	or	t4,t4,a7

00102b10 <i00000005be>:
  102b10:	fc912a23          	sw	s1,-44(sp)

00102b14 <i00000005bf>:
  102b14:	2f5ba697          	auipc	a3,0x2f5ba

00102b18 <i00000005c0>:
  102b18:	3759ab17          	auipc	s6,0x3759a

00102b1c <i00000005c1>:
  102b1c:	fb812483          	lw	s1,-72(sp)

00102b20 <i00000005c2>:
  102b20:	ff510fa3          	sb	s5,-1(sp)

00102b24 <i00000005c3>:
  102b24:	01653033          	sltu	zero,a0,s6
  102b28:	0000c117          	auipc	sp,0xc
  102b2c:	5d810113          	add	sp,sp,1496 # 10f100 <mem>
  102b30:	00029337          	lui	t1,0x29
  102b34:	68030313          	add	t1,t1,1664 # 29680 <tohost+0x9678>
  102b38:	00610133          	add	sp,sp,t1

00102b3c <i00000005c4>:
  102b3c:	5e415203          	lhu	tp,1508(sp)

00102b40 <i00000005c5>:
  102b40:	d7c10203          	lb	tp,-644(sp)

00102b44 <i00000005c6>:
  102b44:	01167233          	and	tp,a2,a7

00102b48 <i00000005c7>:
  102b48:	3f612223          	sw	s6,996(sp)

00102b4c <i00000005c8>:
  102b4c:	1ad11e23          	sh	a3,444(sp)

00102b50 <i00000005c9>:
  102b50:	00b25e13          	srl	t3,tp,0xb

00102b54 <i00000005ca>:
  102b54:	a6211f03          	lh	t5,-1438(sp)
  102b58:	00a00813          	li	a6,10

00102b5c <b00000005cb>:
  102b5c:	00000033          	add	zero,zero,zero
  102b60:	ff0d10e3          	bne	s10,a6,102b40 <i00000005c5>
  102b64:	00000033          	add	zero,zero,zero
  102b68:	00a00d13          	li	s10,10

00102b6c <i00000005cb>:
  102b6c:	70014503          	lbu	a0,1792(sp)

00102b70 <i00000005cc>:
  102b70:	0105da33          	srl	s4,a1,a6

00102b74 <i00000005cd>:
  102b74:	99eccf13          	xor	t5,s9,-1634

00102b78 <i00000005ce>:
  102b78:	018b5b13          	srl	s6,s6,0x18

00102b7c <i00000005cf>:
  102b7c:	46214c83          	lbu	s9,1122(sp)

00102b80 <i00000005d0>:
  102b80:	00055033          	srl	zero,a0,zero

00102b84 <i00000005d1>:
  102b84:	00f4dc13          	srl	s8,s1,0xf

00102b88 <i00000005d2>:
  102b88:	00053233          	sltu	tp,a0,zero

00102b8c <i00000005d3>:
  102b8c:	37c12383          	lw	t2,892(sp)

00102b90 <i00000005d4>:
  102b90:	ba610ea3          	sb	t1,-1091(sp)

00102b94 <i00000005d5>:
  102b94:	9a011723          	sh	zero,-1618(sp)

00102b98 <i00000005d6>:
  102b98:	9ca11d23          	sh	a0,-1574(sp)

00102b9c <i00000005d7>:
  102b9c:	861ce613          	or	a2,s9,-1951

00102ba0 <i00000005d8>:
  102ba0:	2bc12003          	lw	zero,700(sp)

00102ba4 <i00000005d9>:
  102ba4:	41e12e23          	sw	t5,1052(sp)

00102ba8 <i00000005da>:
  102ba8:	418c5033          	sra	zero,s8,s8

00102bac <i00000005db>:
  102bac:	1f214203          	lbu	tp,498(sp)

00102bb0 <i00000005dc>:
  102bb0:	56512c23          	sw	t0,1400(sp)

00102bb4 <i00000005dd>:
  102bb4:	dac12d83          	lw	s11,-596(sp)
  102bb8:	00c00b13          	li	s6,12
  102bbc:	001d0d13          	add	s10,s10,1

00102bc0 <b00000005de>:
  102bc0:	00000033          	add	zero,zero,zero
  102bc4:	fd6d18e3          	bne	s10,s6,102b94 <i00000005d5>
  102bc8:	00000033          	add	zero,zero,zero
  102bcc:	00a00d13          	li	s10,10

00102bd0 <i00000005de>:
  102bd0:	3ec12483          	lw	s1,1004(sp)

00102bd4 <i00000005df>:
  102bd4:	015abeb3          	sltu	t4,s5,s5

00102bd8 <i00000005e0>:
  102bd8:	404f0033          	sub	zero,t5,tp

00102bdc <i00000005e1>:
  102bdc:	41e25e33          	sra	t3,tp,t5

00102be0 <i00000005e2>:
  102be0:	00da5a33          	srl	s4,s4,a3

00102be4 <i00000005e3>:
  102be4:	00e9a3b3          	slt	t2,s3,a4

00102be8 <i00000005e4>:
  102be8:	df310223          	sb	s3,-540(sp)

00102bec <i00000005e5>:
  102bec:	9cdf3e13          	sltiu	t3,t5,-1587

00102bf0 <i00000005e6>:
  102bf0:	005c7f33          	and	t5,s8,t0

00102bf4 <i00000005e7>:
  102bf4:	e0012e23          	sw	zero,-484(sp)

00102bf8 <i00000005e8>:
  102bf8:	14010d23          	sb	zero,346(sp)

00102bfc <i00000005e9>:
  102bfc:	f1912023          	sw	s9,-256(sp)

00102c00 <i00000005ea>:
  102c00:	1b112a23          	sw	a7,436(sp)

00102c04 <i00000005eb>:
  102c04:	e9015b83          	lhu	s7,-368(sp)

00102c08 <i00000005ec>:
  102c08:	2afb6013          	or	zero,s6,687
  102c0c:	0000c117          	auipc	sp,0xc
  102c10:	4f410113          	add	sp,sp,1268 # 10f100 <mem>
  102c14:	00043337          	lui	t1,0x43
  102c18:	57030313          	add	t1,t1,1392 # 43570 <tohost+0x23568>
  102c1c:	00610133          	add	sp,sp,t1

00102c20 <i00000005ed>:
  102c20:	23e10323          	sb	t5,550(sp)

00102c24 <i00000005ee>:
  102c24:	01f1dab3          	srl	s5,gp,t6

00102c28 <i00000005ef>:
  102c28:	cca10a03          	lb	s4,-822(sp)

00102c2c <i00000005f0>:
  102c2c:	41525813          	sra	a6,tp,0x15
  102c30:	00b00913          	li	s2,11
  102c34:	00a00d13          	li	s10,10

00102c38 <b00000005f1>:
  102c38:	00000033          	add	zero,zero,zero
  102c3c:	072d1463          	bne	s10,s2,102ca4 <i00000005f9>
  102c40:	00000033          	add	zero,zero,zero
  102c44:	00a00d13          	li	s10,10

00102c48 <i00000005f1>:
  102c48:	01b2bc33          	sltu	s8,t0,s11

00102c4c <i00000005f2>:
  102c4c:	01711d23          	sh	s7,26(sp)
  102c50:	0000c117          	auipc	sp,0xc
  102c54:	4b010113          	add	sp,sp,1200 # 10f100 <mem>
  102c58:	00051337          	lui	t1,0x51
  102c5c:	87030313          	add	t1,t1,-1936 # 50870 <tohost+0x30868>
  102c60:	00610133          	add	sp,sp,t1

00102c64 <i00000005f3>:
  102c64:	7e710003          	lb	zero,2023(sp)

00102c68 <i00000005f4>:
  102c68:	5c727993          	and	s3,tp,1479

00102c6c <i00000005f5>:
  102c6c:	53914203          	lbu	tp,1337(sp)
  102c70:	0000c117          	auipc	sp,0xc
  102c74:	49010113          	add	sp,sp,1168 # 10f100 <mem>
  102c78:	0004e337          	lui	t1,0x4e
  102c7c:	a4830313          	add	t1,t1,-1464 # 4da48 <tohost+0x2da40>
  102c80:	00610133          	add	sp,sp,t1

00102c84 <i00000005f6>:
  102c84:	feb109a3          	sb	a1,-13(sp)
  102c88:	0000c117          	auipc	sp,0xc
  102c8c:	47810113          	add	sp,sp,1144 # 10f100 <mem>
  102c90:	00067337          	lui	t1,0x67
  102c94:	59830313          	add	t1,t1,1432 # 67598 <tohost+0x47590>
  102c98:	00610133          	add	sp,sp,t1

00102c9c <i00000005f7>:
  102c9c:	2b414503          	lbu	a0,692(sp)

00102ca0 <i00000005f8>:
  102ca0:	006c2233          	slt	tp,s8,t1

00102ca4 <i00000005f9>:
  102ca4:	62012623          	sw	zero,1580(sp)
  102ca8:	0000c117          	auipc	sp,0xc
  102cac:	45810113          	add	sp,sp,1112 # 10f100 <mem>
  102cb0:	0005b337          	lui	t1,0x5b
  102cb4:	80030313          	add	t1,t1,-2048 # 5a800 <tohost+0x3a7f8>
  102cb8:	00610133          	add	sp,sp,t1

00102cbc <i00000005fa>:
  102cbc:	4e014883          	lbu	a7,1248(sp)

00102cc0 <i00000005fb>:
  102cc0:	ca012203          	lw	tp,-864(sp)

00102cc4 <i00000005fc>:
  102cc4:	bb615f03          	lhu	t5,-1098(sp)

00102cc8 <i00000005fd>:
  102cc8:	00505893          	srl	a7,zero,0x5

00102ccc <i00000005fe>:
  102ccc:	0005d913          	srl	s2,a1,0x0

00102cd0 <i00000005ff>:
  102cd0:	03cf6d93          	or	s11,t5,60

00102cd4 <i0000000600>:
  102cd4:	00349e13          	sll	t3,s1,0x3

00102cd8 <i0000000601>:
  102cd8:	00a71013          	sll	zero,a4,0xa
  102cdc:	0000c117          	auipc	sp,0xc
  102ce0:	42410113          	add	sp,sp,1060 # 10f100 <mem>
  102ce4:	0004a337          	lui	t1,0x4a
  102ce8:	a8030313          	add	t1,t1,-1408 # 49a80 <tohost+0x29a78>
  102cec:	00610133          	add	sp,sp,t1

00102cf0 <i0000000602>:
  102cf0:	a1211583          	lh	a1,-1518(sp)
  102cf4:	0000c117          	auipc	sp,0xc
  102cf8:	40c10113          	add	sp,sp,1036 # 10f100 <mem>
  102cfc:	00019337          	lui	t1,0x19
  102d00:	6d030313          	add	t1,t1,1744 # 196d0 <_stack_len+0x116d0>
  102d04:	00610133          	add	sp,sp,t1

00102d08 <i0000000603>:
  102d08:	f5211923          	sh	s2,-174(sp)
  102d0c:	00a00e13          	li	t3,10

00102d10 <b0000000604>:
  102d10:	00000033          	add	zero,zero,zero
  102d14:	fbcd14e3          	bne	s10,t3,102cbc <i00000005fa>
  102d18:	00000033          	add	zero,zero,zero
  102d1c:	00a00d13          	li	s10,10

00102d20 <i0000000604>:
  102d20:	64010ca3          	sb	zero,1625(sp)

00102d24 <i0000000605>:
  102d24:	403c0933          	sub	s2,s8,gp

00102d28 <i0000000606>:
  102d28:	9f015503          	lhu	a0,-1552(sp)

00102d2c <i0000000607>:
  102d2c:	00649ab3          	sll	s5,s1,t1

00102d30 <i0000000608>:
  102d30:	55814303          	lbu	t1,1368(sp)
  102d34:	0000c117          	auipc	sp,0xc
  102d38:	3cc10113          	add	sp,sp,972 # 10f100 <mem>
  102d3c:	0000e337          	lui	t1,0xe
  102d40:	7a830313          	add	t1,t1,1960 # e7a8 <_stack_len+0x67a8>
  102d44:	00610133          	add	sp,sp,t1

00102d48 <i0000000609>:
  102d48:	7ce14503          	lbu	a0,1998(sp)

00102d4c <i000000060a>:
  102d4c:	ad011c83          	lh	s9,-1328(sp)

00102d50 <i000000060b>:
  102d50:	00405233          	srl	tp,zero,tp

00102d54 <i000000060c>:
  102d54:	6af5a613          	slti	a2,a1,1711

00102d58 <i000000060d>:
  102d58:	00585f13          	srl	t5,a6,0x5

00102d5c <i000000060e>:
  102d5c:	940f4f13          	xor	t5,t5,-1728
  102d60:	0000c117          	auipc	sp,0xc
  102d64:	3a010113          	add	sp,sp,928 # 10f100 <mem>
  102d68:	00020337          	lui	t1,0x20
  102d6c:	68030313          	add	t1,t1,1664 # 20680 <tohost+0x678>
  102d70:	00610133          	add	sp,sp,t1

00102d74 <i000000060f>:
  102d74:	fd714703          	lbu	a4,-41(sp)

00102d78 <i0000000610>:
  102d78:	68812783          	lw	a5,1672(sp)

00102d7c <i0000000611>:
  102d7c:	06d58297          	auipc	t0,0x6d58

00102d80 <i0000000612>:
  102d80:	dd353513          	sltiu	a0,a0,-557

00102d84 <i0000000613>:
  102d84:	00401033          	sll	zero,zero,tp

00102d88 <i0000000614>:
  102d88:	67411223          	sh	s4,1636(sp)

00102d8c <i0000000615>:
  102d8c:	d8af3313          	sltiu	t1,t5,-630

00102d90 <i0000000616>:
  102d90:	00022b33          	sltz	s6,tp
  102d94:	00c00a93          	li	s5,12
  102d98:	00a00d13          	li	s10,10

00102d9c <b0000000617>:
  102d9c:	00000033          	add	zero,zero,zero
  102da0:	075d4063          	blt	s10,s5,102e00 <i0000000622>
  102da4:	00000033          	add	zero,zero,zero
  102da8:	00a00d13          	li	s10,10

00102dac <i0000000617>:
  102dac:	e7411f03          	lh	t5,-396(sp)

00102db0 <i0000000618>:
  102db0:	f2c11283          	lh	t0,-212(sp)

00102db4 <i0000000619>:
  102db4:	1ed11023          	sh	a3,480(sp)

00102db8 <i000000061a>:
  102db8:	52a14f03          	lbu	t5,1322(sp)

00102dbc <i000000061b>:
  102dbc:	da710ba3          	sb	t2,-585(sp)

00102dc0 <i000000061c>:
  102dc0:	6c311423          	sh	gp,1736(sp)

00102dc4 <i000000061d>:
  102dc4:	52545d97          	auipc	s11,0x52545

00102dc8 <i000000061e>:
  102dc8:	413c5c93          	sra	s9,s8,0x13

00102dcc <i000000061f>:
  102dcc:	ca411923          	sh	tp,-846(sp)

00102dd0 <i0000000620>:
  102dd0:	87810fa3          	sb	s8,-1921(sp)
  102dd4:	0000c117          	auipc	sp,0xc
  102dd8:	32c10113          	add	sp,sp,812 # 10f100 <mem>
  102ddc:	00017337          	lui	t1,0x17
  102de0:	73030313          	add	t1,t1,1840 # 17730 <_stack_len+0xf730>
  102de4:	00610133          	add	sp,sp,t1

00102de8 <i0000000621>:
  102de8:	70211703          	lh	a4,1794(sp)
  102dec:	0000c117          	auipc	sp,0xc
  102df0:	31410113          	add	sp,sp,788 # 10f100 <mem>
  102df4:	00021337          	lui	t1,0x21
  102df8:	f4030313          	add	t1,t1,-192 # 20f40 <tohost+0xf38>
  102dfc:	00610133          	add	sp,sp,t1

00102e00 <i0000000622>:
  102e00:	9b810303          	lb	t1,-1608(sp)

00102e04 <i0000000623>:
  102e04:	c2812b03          	lw	s6,-984(sp)

00102e08 <i0000000624>:
  102e08:	2b3fb297          	auipc	t0,0x2b3fb

00102e0c <i0000000625>:
  102e0c:	6ebfd217          	auipc	tp,0x6ebfd

00102e10 <i0000000626>:
  102e10:	1a614303          	lbu	t1,422(sp)

00102e14 <i0000000627>:
  102e14:	a5e11f03          	lh	t5,-1442(sp)

00102e18 <i0000000628>:
  102e18:	a0a12423          	sw	a0,-1528(sp)

00102e1c <i0000000629>:
  102e1c:	016542b3          	xor	t0,a0,s6

00102e20 <b000000062a>:
  102e20:	00000a17          	auipc	s4,0x0
  102e24:	02ca0a13          	add	s4,s4,44 # 102e4c <i0000000632>
  102e28:	000a0567          	jalr	a0,s4

00102e2c <i000000062a>:
  102e2c:	01b21513          	sll	a0,tp,0x1b

00102e30 <i000000062b>:
  102e30:	01c4e033          	or	zero,s1,t3

00102e34 <i000000062c>:
  102e34:	016f1513          	sll	a0,t5,0x16

00102e38 <i000000062d>:
  102e38:	09811683          	lh	a3,152(sp)

00102e3c <i000000062e>:
  102e3c:	68454213          	xor	tp,a0,1668

00102e40 <i000000062f>:
  102e40:	caa12023          	sw	a0,-864(sp)

00102e44 <i0000000630>:
  102e44:	68b10b03          	lb	s6,1675(sp)

00102e48 <i0000000631>:
  102e48:	00c3ecb3          	or	s9,t2,a2

00102e4c <i0000000632>:
  102e4c:	415eddb3          	sra	s11,t4,s5

00102e50 <i0000000633>:
  102e50:	00719b93          	sll	s7,gp,0x7

00102e54 <i0000000634>:
  102e54:	22c27013          	and	zero,tp,556

00102e58 <i0000000635>:
  102e58:	2d611e23          	sh	s6,732(sp)

00102e5c <i0000000636>:
  102e5c:	28215503          	lhu	a0,642(sp)
  102e60:	0000c117          	auipc	sp,0xc
  102e64:	2a010113          	add	sp,sp,672 # 10f100 <mem>
  102e68:	00024337          	lui	t1,0x24
  102e6c:	eb830313          	add	t1,t1,-328 # 23eb8 <tohost+0x3eb0>
  102e70:	00610133          	add	sp,sp,t1

00102e74 <i0000000637>:
  102e74:	ad610583          	lb	a1,-1322(sp)

00102e78 <i0000000638>:
  102e78:	0103cf33          	xor	t5,t2,a6

00102e7c <i0000000639>:
  102e7c:	05ccfb37          	lui	s6,0x5ccf

00102e80 <i000000063a>:
  102e80:	e24105a3          	sb	tp,-469(sp)

00102e84 <i000000063b>:
  102e84:	a4e12e23          	sw	a4,-1444(sp)

00102e88 <i000000063c>:
  102e88:	d14eb213          	sltiu	tp,t4,-748
  102e8c:	00b00d93          	li	s11,11
  102e90:	001d0d13          	add	s10,s10,1

00102e94 <b000000063d>:
  102e94:	00000033          	add	zero,zero,zero
  102e98:	fbbd0ae3          	beq	s10,s11,102e4c <i0000000632>
  102e9c:	00000033          	add	zero,zero,zero
  102ea0:	00a00d13          	li	s10,10

00102ea4 <i000000063d>:
  102ea4:	646eeb13          	or	s6,t4,1606

00102ea8 <i000000063e>:
  102ea8:	7095fe13          	and	t3,a1,1801

00102eac <i000000063f>:
  102eac:	95e06c93          	or	s9,zero,-1698

00102eb0 <i0000000640>:
  102eb0:	56306993          	or	s3,zero,1379

00102eb4 <i0000000641>:
  102eb4:	61c8bf13          	sltiu	t5,a7,1564

00102eb8 <i0000000642>:
  102eb8:	4097d9b3          	sra	s3,a5,s1
  102ebc:	0000c117          	auipc	sp,0xc
  102ec0:	24410113          	add	sp,sp,580 # 10f100 <mem>
  102ec4:	0003d337          	lui	t1,0x3d
  102ec8:	cb830313          	add	t1,t1,-840 # 3ccb8 <tohost+0x1ccb0>
  102ecc:	00610133          	add	sp,sp,t1

00102ed0 <i0000000643>:
  102ed0:	46d10603          	lb	a2,1133(sp)

00102ed4 <i0000000644>:
  102ed4:	01621cb3          	sll	s9,tp,s6

00102ed8 <i0000000645>:
  102ed8:	01955b13          	srl	s6,a0,0x19

00102edc <i0000000646>:
  102edc:	60336013          	or	zero,t1,1539

00102ee0 <i0000000647>:
  102ee0:	5cf11b23          	sh	a5,1494(sp)

00102ee4 <i0000000648>:
  102ee4:	47815f03          	lhu	t5,1144(sp)

00102ee8 <i0000000649>:
  102ee8:	4198d513          	sra	a0,a7,0x19
  102eec:	0000c117          	auipc	sp,0xc
  102ef0:	21410113          	add	sp,sp,532 # 10f100 <mem>
  102ef4:	0002f337          	lui	t1,0x2f
  102ef8:	a8830313          	add	t1,t1,-1400 # 2ea88 <tohost+0xea80>
  102efc:	00610133          	add	sp,sp,t1

00102f00 <i000000064a>:
  102f00:	0ac10623          	sb	a2,172(sp)

00102f04 <i000000064b>:
  102f04:	0b710623          	sb	s7,172(sp)

00102f08 <i000000064c>:
  102f08:	e5392b13          	slti	s6,s2,-429

00102f0c <i000000064d>:
  102f0c:	4c6f9717          	auipc	a4,0x4c6f9

00102f10 <i000000064e>:
  102f10:	00452cb3          	slt	s9,a0,tp

00102f14 <i000000064f>:
  102f14:	01972833          	slt	a6,a4,s9
  102f18:	00a00a13          	li	s4,10

00102f1c <b0000000650>:
  102f1c:	014d0463          	beq	s10,s4,102f24 <b0000000650+0x8>
  102f20:	fb9ff56f          	jal	a0,102ed8 <i0000000645>
  102f24:	00a00d13          	li	s10,10
  102f28:	0000c117          	auipc	sp,0xc
  102f2c:	1d810113          	add	sp,sp,472 # 10f100 <mem>
  102f30:	00044337          	lui	t1,0x44
  102f34:	b9030313          	add	t1,t1,-1136 # 43b90 <tohost+0x23b88>
  102f38:	00610133          	add	sp,sp,t1

00102f3c <i0000000650>:
  102f3c:	1d512023          	sw	s5,448(sp)

00102f40 <i0000000651>:
  102f40:	00ef1213          	sll	tp,t5,0xe

00102f44 <i0000000652>:
  102f44:	cfbb6e13          	or	t3,s6,-773

00102f48 <i0000000653>:
  102f48:	95812003          	lw	zero,-1704(sp)

00102f4c <i0000000654>:
  102f4c:	da011003          	lh	zero,-608(sp)

00102f50 <i0000000655>:
  102f50:	83e11c03          	lh	s8,-1986(sp)

00102f54 <i0000000656>:
  102f54:	13610b03          	lb	s6,310(sp)

00102f58 <i0000000657>:
  102f58:	41255593          	sra	a1,a0,0x12

00102f5c <i0000000658>:
  102f5c:	2d8b6bb7          	lui	s7,0x2d8b6

00102f60 <i0000000659>:
  102f60:	41df8933          	sub	s2,t6,t4

00102f64 <i000000065a>:
  102f64:	6e015183          	lhu	gp,1760(sp)
  102f68:	0000c117          	auipc	sp,0xc
  102f6c:	19810113          	add	sp,sp,408 # 10f100 <mem>
  102f70:	00064337          	lui	t1,0x64
  102f74:	78830313          	add	t1,t1,1928 # 64788 <tohost+0x44780>
  102f78:	00610133          	add	sp,sp,t1

00102f7c <i000000065b>:
  102f7c:	f6f12a23          	sw	a5,-140(sp)

00102f80 <i000000065c>:
  102f80:	1de11823          	sh	t5,464(sp)

00102f84 <i000000065d>:
  102f84:	c9812183          	lw	gp,-872(sp)
  102f88:	0000c117          	auipc	sp,0xc
  102f8c:	17810113          	add	sp,sp,376 # 10f100 <mem>
  102f90:	0000d337          	lui	t1,0xd
  102f94:	77830313          	add	t1,t1,1912 # d778 <_stack_len+0x5778>
  102f98:	00610133          	add	sp,sp,t1

00102f9c <i000000065e>:
  102f9c:	13c12623          	sw	t3,300(sp)

00102fa0 <i000000065f>:
  102fa0:	bdc11803          	lh	a6,-1060(sp)
  102fa4:	0000c117          	auipc	sp,0xc
  102fa8:	15c10113          	add	sp,sp,348 # 10f100 <mem>
  102fac:	0002d337          	lui	t1,0x2d
  102fb0:	9e030313          	add	t1,t1,-1568 # 2c9e0 <tohost+0xc9d8>
  102fb4:	00610133          	add	sp,sp,t1

00102fb8 <i0000000660>:
  102fb8:	1e011003          	lh	zero,480(sp)

00102fbc <i0000000661>:
  102fbc:	316f7f13          	and	t5,t5,790

00102fc0 <i0000000662>:
  102fc0:	39a11583          	lh	a1,922(sp)
  102fc4:	00900893          	li	a7,9
  102fc8:	00a00d13          	li	s10,10

00102fcc <b0000000663>:
  102fcc:	00000033          	add	zero,zero,zero
  102fd0:	071d4663          	blt	s10,a7,10303c <i0000000671>
  102fd4:	00000033          	add	zero,zero,zero
  102fd8:	00a00d13          	li	s10,10

00102fdc <i0000000663>:
  102fdc:	40a55233          	sra	tp,a0,a0

00102fe0 <i0000000664>:
  102fe0:	486af397          	auipc	t2,0x486af

00102fe4 <i0000000665>:
  102fe4:	01eb5f33          	srl	t5,s6,t5

00102fe8 <i0000000666>:
  102fe8:	01297933          	and	s2,s2,s2

00102fec <i0000000667>:
  102fec:	b9412803          	lw	a6,-1132(sp)

00102ff0 <i0000000668>:
  102ff0:	48414f03          	lbu	t5,1156(sp)

00102ff4 <i0000000669>:
  102ff4:	6d012883          	lw	a7,1744(sp)

00102ff8 <i000000066a>:
  102ff8:	01e54f33          	xor	t5,a0,t5

00102ffc <i000000066b>:
  102ffc:	40505e93          	sra	t4,zero,0x5
  103000:	0000c117          	auipc	sp,0xc
  103004:	10010113          	add	sp,sp,256 # 10f100 <mem>
  103008:	00032337          	lui	t1,0x32
  10300c:	53030313          	add	t1,t1,1328 # 32530 <tohost+0x12528>
  103010:	00610133          	add	sp,sp,t1

00103014 <i000000066c>:
  103014:	88415483          	lhu	s1,-1916(sp)

00103018 <i000000066d>:
  103018:	6e211b03          	lh	s6,1762(sp)

0010301c <i000000066e>:
  10301c:	40105213          	sra	tp,zero,0x1

00103020 <i000000066f>:
  103020:	9e2ba213          	slti	tp,s7,-1566
  103024:	0000c117          	auipc	sp,0xc
  103028:	0dc10113          	add	sp,sp,220 # 10f100 <mem>
  10302c:	00043337          	lui	t1,0x43
  103030:	07830313          	add	t1,t1,120 # 43078 <tohost+0x23070>
  103034:	00610133          	add	sp,sp,t1

00103038 <i0000000670>:
  103038:	2de15583          	lhu	a1,734(sp)

0010303c <i0000000671>:
  10303c:	00003bb3          	snez	s7,zero

00103040 <i0000000672>:
  103040:	88a104a3          	sb	a0,-1911(sp)

00103044 <i0000000673>:
  103044:	40a50233          	sub	tp,a0,a0

00103048 <i0000000674>:
  103048:	d9c15003          	lhu	zero,-612(sp)

0010304c <i0000000675>:
  10304c:	41eb5f33          	sra	t5,s6,t5
  103050:	00900d93          	li	s11,9
  103054:	00a00d13          	li	s10,10

00103058 <b0000000676>:
  103058:	00000033          	add	zero,zero,zero
  10305c:	05bd4c63          	blt	s10,s11,1030b4 <i0000000684>
  103060:	00000033          	add	zero,zero,zero
  103064:	00a00d13          	li	s10,10

00103068 <i0000000676>:
  103068:	7f611f23          	sh	s6,2046(sp)

0010306c <i0000000677>:
  10306c:	cd411623          	sh	s4,-820(sp)

00103070 <i0000000678>:
  103070:	01e27eb3          	and	t4,tp,t5
  103074:	0000c117          	auipc	sp,0xc
  103078:	08c10113          	add	sp,sp,140 # 10f100 <mem>
  10307c:	00005337          	lui	t1,0x5
  103080:	2a830313          	add	t1,t1,680 # 52a8 <_min_stack+0x32a8>
  103084:	00610133          	add	sp,sp,t1

00103088 <i0000000679>:
  103088:	5b514683          	lbu	a3,1461(sp)

0010308c <i000000067a>:
  10308c:	77240537          	lui	a0,0x77240

00103090 <i000000067b>:
  103090:	00ef5b13          	srl	s6,t5,0xe

00103094 <i000000067c>:
  103094:	a3814f03          	lbu	t5,-1480(sp)

00103098 <i000000067d>:
  103098:	004b38b3          	sltu	a7,s6,tp

0010309c <i000000067e>:
  10309c:	39122013          	slti	zero,tp,913

001030a0 <i000000067f>:
  1030a0:	5aa11a23          	sh	a0,1460(sp)

001030a4 <i0000000680>:
  1030a4:	01e25333          	srl	t1,tp,t5

001030a8 <i0000000681>:
  1030a8:	65415a03          	lhu	s4,1620(sp)

001030ac <i0000000682>:
  1030ac:	07752b37          	lui	s6,0x7752

001030b0 <i0000000683>:
  1030b0:	2f2b0f13          	add	t5,s6,754 # 77522f2 <fromhost+0x75ca2e2>

001030b4 <i0000000684>:
  1030b4:	6a010e23          	sb	zero,1724(sp)

001030b8 <i0000000685>:
  1030b8:	a7611423          	sh	s6,-1432(sp)

001030bc <i0000000686>:
  1030bc:	950b0d93          	add	s11,s6,-1712

001030c0 <i0000000687>:
  1030c0:	01e00733          	add	a4,zero,t5

001030c4 <i0000000688>:
  1030c4:	40825a93          	sra	s5,tp,0x8
  1030c8:	00a00913          	li	s2,10

001030cc <b0000000689>:
  1030cc:	00000033          	add	zero,zero,zero
  1030d0:	052d0463          	beq	s10,s2,103118 <i0000000693>
  1030d4:	00000033          	add	zero,zero,zero
  1030d8:	00a00d13          	li	s10,10

001030dc <i0000000689>:
  1030dc:	bc0b0013          	add	zero,s6,-1088

001030e0 <i000000068a>:
  1030e0:	2f498b17          	auipc	s6,0x2f498

001030e4 <i000000068b>:
  1030e4:	54a11323          	sh	a0,1350(sp)

001030e8 <i000000068c>:
  1030e8:	0e411503          	lh	a0,228(sp)

001030ec <i000000068d>:
  1030ec:	8c8105a3          	sb	s0,-1845(sp)

001030f0 <i000000068e>:
  1030f0:	019d8233          	add	tp,s11,s9

001030f4 <i000000068f>:
  1030f4:	00425b13          	srl	s6,tp,0x4

001030f8 <i0000000690>:
  1030f8:	1ca70b13          	add	s6,a4,458 # 4c7fc0d6 <fromhost+0x4c6740c6>
  1030fc:	0000c117          	auipc	sp,0xc
  103100:	00410113          	add	sp,sp,4 # 10f100 <mem>
  103104:	00052337          	lui	t1,0x52
  103108:	c0830313          	add	t1,t1,-1016 # 51c08 <tohost+0x31c00>
  10310c:	00610133          	add	sp,sp,t1

00103110 <i0000000691>:
  103110:	6d610e23          	sb	s6,1756(sp)

00103114 <i0000000692>:
  103114:	b8157513          	and	a0,a0,-1151

00103118 <i0000000693>:
  103118:	cd615d83          	lhu	s11,-810(sp)

0010311c <i0000000694>:
  10311c:	00efdb33          	srl	s6,t6,a4

00103120 <i0000000695>:
  103120:	bb227b13          	and	s6,tp,-1102

00103124 <i0000000696>:
  103124:	007a6b33          	or	s6,s4,t2

00103128 <i0000000697>:
  103128:	01e11e23          	sh	t5,28(sp)

0010312c <i0000000698>:
  10312c:	015cdab3          	srl	s5,s9,s5

00103130 <i0000000699>:
  103130:	3ec14f03          	lbu	t5,1004(sp)

00103134 <i000000069a>:
  103134:	01c51793          	sll	a5,a0,0x1c

00103138 <i000000069b>:
  103138:	33db0013          	add	zero,s6,829 # 2f59b41d <fromhost+0x2f41340d>
  10313c:	00b00d93          	li	s11,11
  103140:	00a00d13          	li	s10,10

00103144 <b000000069c>:
  103144:	00000033          	add	zero,zero,zero
  103148:	05addc63          	bge	s11,s10,1031a0 <i00000006a5>
  10314c:	00000033          	add	zero,zero,zero
  103150:	00a00d13          	li	s10,10

00103154 <i000000069c>:
  103154:	01521513          	sll	a0,tp,0x15
  103158:	0000c117          	auipc	sp,0xc
  10315c:	fa810113          	add	sp,sp,-88 # 10f100 <mem>
  103160:	0001e337          	lui	t1,0x1e
  103164:	3f830313          	add	t1,t1,1016 # 1e3f8 <_stack_len+0x163f8>
  103168:	00610133          	add	sp,sp,t1

0010316c <i000000069d>:
  10316c:	31012f03          	lw	t5,784(sp)
  103170:	0000c117          	auipc	sp,0xc
  103174:	f9010113          	add	sp,sp,-112 # 10f100 <mem>
  103178:	0006a337          	lui	t1,0x6a
  10317c:	14830313          	add	t1,t1,328 # 6a148 <tohost+0x4a140>
  103180:	00610133          	add	sp,sp,t1

00103184 <i000000069e>:
  103184:	6ed11823          	sh	a3,1776(sp)

00103188 <i000000069f>:
  103188:	01be4ab3          	xor	s5,t3,s11

0010318c <i00000006a0>:
  10318c:	01d25c93          	srl	s9,tp,0x1d

00103190 <i00000006a1>:
  103190:	e2104893          	xor	a7,zero,-479

00103194 <i00000006a2>:
  103194:	2c022293          	slti	t0,tp,704

00103198 <i00000006a3>:
  103198:	10310703          	lb	a4,259(sp)

0010319c <i00000006a4>:
  10319c:	01f21d93          	sll	s11,tp,0x1f

001031a0 <i00000006a5>:
  1031a0:	67a11203          	lh	tp,1658(sp)

001031a4 <i00000006a6>:
  1031a4:	014f5793          	srl	a5,t5,0x14

001031a8 <i00000006a7>:
  1031a8:	40a15c03          	lhu	s8,1034(sp)

001031ac <i00000006a8>:
  1031ac:	41968933          	sub	s2,a3,s9
  1031b0:	0000c117          	auipc	sp,0xc
  1031b4:	f5010113          	add	sp,sp,-176 # 10f100 <mem>
  1031b8:	0001c337          	lui	t1,0x1c
  1031bc:	31030313          	add	t1,t1,784 # 1c310 <_stack_len+0x14310>
  1031c0:	00610133          	add	sp,sp,t1

001031c4 <i00000006a9>:
  1031c4:	bf411003          	lh	zero,-1036(sp)

001031c8 <i00000006aa>:
  1031c8:	e1e07693          	and	a3,zero,-482

001031cc <i00000006ab>:
  1031cc:	4b410e83          	lb	t4,1204(sp)

001031d0 <i00000006ac>:
  1031d0:	af412c83          	lw	s9,-1292(sp)

001031d4 <i00000006ad>:
  1031d4:	56c12b03          	lw	s6,1388(sp)

001031d8 <i00000006ae>:
  1031d8:	77e12823          	sw	t5,1904(sp)
  1031dc:	00000893          	li	a7,0

001031e0 <b00000006af>:
  1031e0:	00000033          	add	zero,zero,zero
  1031e4:	fb1d06e3          	beq	s10,a7,103190 <i00000006a1>
  1031e8:	00000033          	add	zero,zero,zero
  1031ec:	00a00d13          	li	s10,10

001031f0 <i00000006af>:
  1031f0:	52d52213          	slti	tp,a0,1325

001031f4 <i00000006b0>:
  1031f4:	13998c93          	add	s9,s3,313 # 30f68849 <fromhost+0x30de0839>

001031f8 <i00000006b1>:
  1031f8:	00f36f17          	auipc	t5,0xf36

001031fc <i00000006b2>:
  1031fc:	e196e213          	or	tp,a3,-487

00103200 <i00000006b3>:
  103200:	016532b3          	sltu	t0,a0,s6

00103204 <i00000006b4>:
  103204:	40025013          	sra	zero,tp,0x0

00103208 <i00000006b5>:
  103208:	01655033          	srl	zero,a0,s6

0010320c <i00000006b6>:
  10320c:	00af5033          	srl	zero,t5,a0
  103210:	0000c117          	auipc	sp,0xc
  103214:	ef010113          	add	sp,sp,-272 # 10f100 <mem>
  103218:	0002e337          	lui	t1,0x2e
  10321c:	dc830313          	add	t1,t1,-568 # 2ddc8 <tohost+0xddc0>
  103220:	00610133          	add	sp,sp,t1

00103224 <i00000006b7>:
  103224:	33411823          	sh	s4,816(sp)

00103228 <i00000006b8>:
  103228:	00b05513          	srl	a0,zero,0xb

0010322c <i00000006b9>:
  10322c:	ebc11003          	lh	zero,-324(sp)

00103230 <i00000006ba>:
  103230:	28804313          	xor	t1,zero,648

00103234 <i00000006bb>:
  103234:	58a11203          	lh	tp,1418(sp)

00103238 <i00000006bc>:
  103238:	00530233          	add	tp,t1,t0

0010323c <i00000006bd>:
  10323c:	d3c108a3          	sb	t3,-719(sp)

00103240 <i00000006be>:
  103240:	40eb5513          	sra	a0,s6,0xe

00103244 <i00000006bf>:
  103244:	00b3cfb3          	xor	t6,t2,a1

00103248 <i00000006c0>:
  103248:	9f350513          	add	a0,a0,-1549 # 7723f9f3 <fromhost+0x770b79e3>

0010324c <i00000006c1>:
  10324c:	00ab6533          	or	a0,s6,a0
  103250:	00900f93          	li	t6,9
  103254:	00a00d13          	li	s10,10

00103258 <b00000006c2>:
  103258:	00000033          	add	zero,zero,zero
  10325c:	05afd263          	bge	t6,s10,1032a0 <i00000006d0>
  103260:	00000033          	add	zero,zero,zero
  103264:	00a00d13          	li	s10,10

00103268 <i00000006c2>:
  103268:	82012c23          	sw	zero,-1992(sp)

0010326c <i00000006c3>:
  10326c:	e3214c83          	lbu	s9,-462(sp)

00103270 <i00000006c4>:
  103270:	26411e23          	sh	tp,636(sp)

00103274 <i00000006c5>:
  103274:	c6827b13          	and	s6,tp,-920

00103278 <i00000006c6>:
  103278:	8a012483          	lw	s1,-1888(sp)

0010327c <i00000006c7>:
  10327c:	efb12423          	sw	s11,-280(sp)

00103280 <i00000006c8>:
  103280:	7c624513          	xor	a0,tp,1990

00103284 <i00000006c9>:
  103284:	01147033          	and	zero,s0,a7

00103288 <i00000006ca>:
  103288:	5dc58013          	add	zero,a1,1500 # 6ca071f0 <fromhost+0x6c87f1e0>

0010328c <i00000006cb>:
  10328c:	e1df4d93          	xor	s11,t5,-483

00103290 <i00000006cc>:
  103290:	70012023          	sw	zero,1792(sp)

00103294 <i00000006cd>:
  103294:	c88c7013          	and	zero,s8,-888

00103298 <i00000006ce>:
  103298:	33614903          	lbu	s2,822(sp)

0010329c <i00000006cf>:
  10329c:	004b6c33          	or	s8,s6,tp

001032a0 <i00000006d0>:
  1032a0:	aa611b83          	lh	s7,-1370(sp)

001032a4 <i00000006d1>:
  1032a4:	fa750293          	add	t0,a0,-89
  1032a8:	0000c117          	auipc	sp,0xc
  1032ac:	e5810113          	add	sp,sp,-424 # 10f100 <mem>
  1032b0:	0001e337          	lui	t1,0x1e
  1032b4:	37030313          	add	t1,t1,880 # 1e370 <_stack_len+0x16370>
  1032b8:	00610133          	add	sp,sp,t1

001032bc <i00000006d2>:
  1032bc:	2e811f03          	lh	t5,744(sp)

001032c0 <i00000006d3>:
  1032c0:	2b746793          	or	a5,s0,695

001032c4 <i00000006d4>:
  1032c4:	e3412003          	lw	zero,-460(sp)
  1032c8:	00900c93          	li	s9,9
  1032cc:	00a00d13          	li	s10,10

001032d0 <b00000006d5>:
  1032d0:	00000033          	add	zero,zero,zero
  1032d4:	09acd063          	bge	s9,s10,103354 <i00000006e3>
  1032d8:	00000033          	add	zero,zero,zero
  1032dc:	00a00d13          	li	s10,10

001032e0 <i00000006d5>:
  1032e0:	00f81333          	sll	t1,a6,a5

001032e4 <i00000006d6>:
  1032e4:	4091dc13          	sra	s8,gp,0x9
  1032e8:	0000c117          	auipc	sp,0xc
  1032ec:	e1810113          	add	sp,sp,-488 # 10f100 <mem>
  1032f0:	00044337          	lui	t1,0x44
  1032f4:	b8830313          	add	t1,t1,-1144 # 43b88 <tohost+0x23b80>
  1032f8:	00610133          	add	sp,sp,t1

001032fc <i00000006d7>:
  1032fc:	78b14503          	lbu	a0,1931(sp)

00103300 <i00000006d8>:
  103300:	26812003          	lw	zero,616(sp)

00103304 <i00000006d9>:
  103304:	f4010d23          	sb	zero,-166(sp)

00103308 <i00000006da>:
  103308:	f52b2c93          	slti	s9,s6,-174

0010330c <i00000006db>:
  10330c:	59357b13          	and	s6,a0,1427

00103310 <i00000006dc>:
  103310:	26e00513          	li	a0,622

00103314 <i00000006dd>:
  103314:	401f6a93          	or	s5,t5,1025

00103318 <i00000006de>:
  103318:	41855d93          	sra	s11,a0,0x18

0010331c <i00000006df>:
  10331c:	57412503          	lw	a0,1396(sp)
  103320:	0000c117          	auipc	sp,0xc
  103324:	de010113          	add	sp,sp,-544 # 10f100 <mem>
  103328:	00069337          	lui	t1,0x69
  10332c:	4b030313          	add	t1,t1,1200 # 694b0 <tohost+0x494a8>
  103330:	00610133          	add	sp,sp,t1

00103334 <i00000006e0>:
  103334:	41c15f03          	lhu	t5,1052(sp)
  103338:	0000c117          	auipc	sp,0xc
  10333c:	dc810113          	add	sp,sp,-568 # 10f100 <mem>
  103340:	00043337          	lui	t1,0x43
  103344:	f7030313          	add	t1,t1,-144 # 42f70 <tohost+0x22f68>
  103348:	00610133          	add	sp,sp,t1

0010334c <i00000006e1>:
  10334c:	77412183          	lw	gp,1908(sp)

00103350 <i00000006e2>:
  103350:	41e254b3          	sra	s1,tp,t5

00103354 <i00000006e3>:
  103354:	0181f1b3          	and	gp,gp,s8

00103358 <i00000006e4>:
  103358:	2ec15583          	lhu	a1,748(sp)

0010335c <i00000006e5>:
  10335c:	3c412583          	lw	a1,964(sp)

00103360 <i00000006e6>:
  103360:	01761c13          	sll	s8,a2,0x17

00103364 <i00000006e7>:
  103364:	010dc733          	xor	a4,s11,a6
  103368:	00900993          	li	s3,9

0010336c <b00000006e8>:
  10336c:	00000033          	add	zero,zero,zero
  103370:	fb3d42e3          	blt	s10,s3,103314 <i00000006dd>
  103374:	00000033          	add	zero,zero,zero
  103378:	00a00d13          	li	s10,10

0010337c <i00000006e8>:
  10337c:	2f2b6b13          	or	s6,s6,754

00103380 <i00000006e9>:
  103380:	01001013          	sll	zero,zero,0x10
  103384:	0000c117          	auipc	sp,0xc
  103388:	d7c10113          	add	sp,sp,-644 # 10f100 <mem>
  10338c:	00039337          	lui	t1,0x39
  103390:	70030313          	add	t1,t1,1792 # 39700 <tohost+0x196f8>
  103394:	00610133          	add	sp,sp,t1

00103398 <i00000006ea>:
  103398:	02412303          	lw	t1,36(sp)

0010339c <i00000006eb>:
  10339c:	66415b03          	lhu	s6,1636(sp)

001033a0 <i00000006ec>:
  1033a0:	7aa12423          	sw	a0,1960(sp)

001033a4 <i00000006ed>:
  1033a4:	37302513          	slti	a0,zero,883

001033a8 <i00000006ee>:
  1033a8:	51214503          	lbu	a0,1298(sp)

001033ac <i00000006ef>:
  1033ac:	fb011b03          	lh	s6,-80(sp)

001033b0 <i00000006f0>:
  1033b0:	bcb14503          	lbu	a0,-1077(sp)

001033b4 <i00000006f1>:
  1033b4:	40718a33          	sub	s4,gp,t2

001033b8 <i00000006f2>:
  1033b8:	a8815203          	lhu	tp,-1400(sp)

001033bc <i00000006f3>:
  1033bc:	6a910c83          	lb	s9,1705(sp)

001033c0 <i00000006f4>:
  1033c0:	40ab5f33          	sra	t5,s6,a0

001033c4 <i00000006f5>:
  1033c4:	14815283          	lhu	t0,328(sp)

001033c8 <i00000006f6>:
  1033c8:	41ba5b13          	sra	s6,s4,0x1b

001033cc <i00000006f7>:
  1033cc:	24012003          	lw	zero,576(sp)

001033d0 <i00000006f8>:
  1033d0:	01d85f13          	srl	t5,a6,0x1d

001033d4 <i00000006f9>:
  1033d4:	419bdf13          	sra	t5,s7,0x19
  1033d8:	0000c117          	auipc	sp,0xc
  1033dc:	d2810113          	add	sp,sp,-728 # 10f100 <mem>
  1033e0:	00007337          	lui	t1,0x7
  1033e4:	cb830313          	add	t1,t1,-840 # 6cb8 <_min_stack+0x4cb8>
  1033e8:	00610133          	add	sp,sp,t1

001033ec <i00000006fa>:
  1033ec:	6db11b23          	sh	s11,1750(sp)
  1033f0:	00c00a93          	li	s5,12
  1033f4:	001d0d13          	add	s10,s10,1

001033f8 <b00000006fb>:
  1033f8:	00000033          	add	zero,zero,zero
  1033fc:	fdaad4e3          	bge	s5,s10,1033c4 <i00000006f5>
  103400:	00000033          	add	zero,zero,zero
  103404:	00a00d13          	li	s10,10
  103408:	0000c117          	auipc	sp,0xc
  10340c:	cf810113          	add	sp,sp,-776 # 10f100 <mem>
  103410:	0000a337          	lui	t1,0xa
  103414:	e4830313          	add	t1,t1,-440 # 9e48 <_stack_len+0x1e48>
  103418:	00610133          	add	sp,sp,t1

0010341c <i00000006fb>:
  10341c:	c2a11b23          	sh	a0,-970(sp)

00103420 <i00000006fc>:
  103420:	d51f0c93          	add	s9,t5,-687 # 1038f49 <fromhost+0xeb0f39>

00103424 <i00000006fd>:
  103424:	94a12023          	sw	a0,-1728(sp)

00103428 <i00000006fe>:
  103428:	406c59b3          	sra	s3,s8,t1

0010342c <i00000006ff>:
  10342c:	e2722213          	slti	tp,tp,-473

00103430 <i0000000700>:
  103430:	bf5f2613          	slti	a2,t5,-1035

00103434 <i0000000701>:
  103434:	40b609b3          	sub	s3,a2,a1

00103438 <i0000000702>:
  103438:	c1811503          	lh	a0,-1000(sp)

0010343c <i0000000703>:
  10343c:	409f5913          	sra	s2,t5,0x9

00103440 <i0000000704>:
  103440:	017e3b33          	sltu	s6,t3,s7

00103444 <i0000000705>:
  103444:	1d411e23          	sh	s4,476(sp)

00103448 <i0000000706>:
  103448:	40a20f33          	sub	t5,tp,a0

0010344c <i0000000707>:
  10344c:	412e8033          	sub	zero,t4,s2

00103450 <i0000000708>:
  103450:	01eb7233          	and	tp,s6,t5

00103454 <i0000000709>:
  103454:	54793913          	sltiu	s2,s2,1351

00103458 <i000000070a>:
  103458:	93311823          	sh	s3,-1744(sp)

0010345c <i000000070b>:
  10345c:	9c611283          	lh	t0,-1594(sp)

00103460 <i000000070c>:
  103460:	41dedbb3          	sra	s7,t4,t4

00103464 <i000000070d>:
  103464:	01b11923          	sh	s11,18(sp)
  103468:	00b00993          	li	s3,11
  10346c:	00a00d13          	li	s10,10

00103470 <b000000070e>:
  103470:	00000033          	add	zero,zero,zero
  103474:	05a9d063          	bge	s3,s10,1034b4 <i0000000716>
  103478:	00000033          	add	zero,zero,zero
  10347c:	00a00d13          	li	s10,10
  103480:	0000c117          	auipc	sp,0xc
  103484:	c8010113          	add	sp,sp,-896 # 10f100 <mem>
  103488:	00007337          	lui	t1,0x7
  10348c:	e5030313          	add	t1,t1,-432 # 6e50 <_min_stack+0x4e50>
  103490:	00610133          	add	sp,sp,t1

00103494 <i000000070e>:
  103494:	7d611723          	sh	s6,1998(sp)

00103498 <i000000070f>:
  103498:	3c066e97          	auipc	t4,0x3c066

0010349c <i0000000710>:
  10349c:	13a11b83          	lh	s7,314(sp)

001034a0 <i0000000711>:
  1034a0:	f7f50613          	add	a2,a0,-129

001034a4 <i0000000712>:
  1034a4:	004f3b33          	sltu	s6,t5,tp

001034a8 <i0000000713>:
  1034a8:	f5914883          	lbu	a7,-167(sp)

001034ac <i0000000714>:
  1034ac:	009b5513          	srl	a0,s6,0x9

001034b0 <i0000000715>:
  1034b0:	e4a12e23          	sw	a0,-420(sp)

001034b4 <i0000000716>:
  1034b4:	1a3a3513          	sltiu	a0,s4,419

001034b8 <i0000000717>:
  1034b8:	01d11123          	sh	t4,2(sp)

001034bc <i0000000718>:
  1034bc:	23680f37          	lui	t5,0x23680
  1034c0:	0000c117          	auipc	sp,0xc
  1034c4:	c4010113          	add	sp,sp,-960 # 10f100 <mem>
  1034c8:	0000a337          	lui	t1,0xa
  1034cc:	f4830313          	add	t1,t1,-184 # 9f48 <_stack_len+0x1f48>
  1034d0:	00610133          	add	sp,sp,t1

001034d4 <i0000000719>:
  1034d4:	76a14203          	lbu	tp,1898(sp)

001034d8 <i000000071a>:
  1034d8:	5c012503          	lw	a0,1472(sp)

001034dc <i000000071b>:
  1034dc:	60214883          	lbu	a7,1538(sp)

001034e0 <i000000071c>:
  1034e0:	5bc10f83          	lb	t6,1468(sp)

001034e4 <i000000071d>:
  1034e4:	01039513          	sll	a0,t2,0x10

001034e8 <i000000071e>:
  1034e8:	407f5513          	sra	a0,t5,0x7
  1034ec:	0000c117          	auipc	sp,0xc
  1034f0:	c1410113          	add	sp,sp,-1004 # 10f100 <mem>
  1034f4:	00028337          	lui	t1,0x28
  1034f8:	48030313          	add	t1,t1,1152 # 28480 <tohost+0x8478>
  1034fc:	00610133          	add	sp,sp,t1

00103500 <i000000071f>:
  103500:	91811323          	sh	s8,-1786(sp)

00103504 <i0000000720>:
  103504:	01d11923          	sh	t4,18(sp)

00103508 <b0000000721>:
  103508:	00000c97          	auipc	s9,0x0
  10350c:	02cc8c93          	add	s9,s9,44 # 103534 <i0000000729>
  103510:	000c8567          	jalr	a0,s9

00103514 <i0000000721>:
  103514:	06b10a83          	lb	s5,107(sp)

00103518 <i0000000722>:
  103518:	5de15003          	lhu	zero,1502(sp)

0010351c <i0000000723>:
  10351c:	01155f13          	srl	t5,a0,0x11

00103520 <i0000000724>:
  103520:	46c15f03          	lhu	t5,1132(sp)

00103524 <i0000000725>:
  103524:	c7611c83          	lh	s9,-906(sp)

00103528 <i0000000726>:
  103528:	40415b03          	lhu	s6,1028(sp)

0010352c <i0000000727>:
  10352c:	4197d033          	sra	zero,a5,s9

00103530 <i0000000728>:
  103530:	3fc11723          	sh	t3,1006(sp)

00103534 <i0000000729>:
  103534:	2b9d8913          	add	s2,s11,697 # 5264807d <fromhost+0x524c006d>

00103538 <i000000072a>:
  103538:	017928b3          	slt	a7,s2,s7

0010353c <i000000072b>:
  10353c:	fe811983          	lh	s3,-24(sp)

00103540 <i000000072c>:
  103540:	2fe102a3          	sb	t5,741(sp)

00103544 <i000000072d>:
  103544:	a4a11623          	sh	a0,-1460(sp)

00103548 <i000000072e>:
  103548:	4086da33          	sra	s4,a3,s0

0010354c <i000000072f>:
  10354c:	01c19533          	sll	a0,gp,t3
  103550:	0000c117          	auipc	sp,0xc
  103554:	bb010113          	add	sp,sp,-1104 # 10f100 <mem>
  103558:	00020337          	lui	t1,0x20
  10355c:	cb030313          	add	t1,t1,-848 # 1fcb0 <_stack_len+0x17cb0>
  103560:	00610133          	add	sp,sp,t1

00103564 <i0000000730>:
  103564:	d0010223          	sb	zero,-764(sp)

00103568 <i0000000731>:
  103568:	403c5f33          	sra	t5,s8,gp

0010356c <i0000000732>:
  10356c:	4fc12503          	lw	a0,1276(sp)

00103570 <i0000000733>:
  103570:	01f43f33          	sltu	t5,s0,t6
  103574:	00c00a93          	li	s5,12
  103578:	00a00d13          	li	s10,10

0010357c <b0000000734>:
  10357c:	00000033          	add	zero,zero,zero
  103580:	075d4263          	blt	s10,s5,1035e4 <i0000000740>
  103584:	00000033          	add	zero,zero,zero
  103588:	00a00d13          	li	s10,10

0010358c <i0000000734>:
  10358c:	78e11f03          	lh	t5,1934(sp)

00103590 <i0000000735>:
  103590:	8bf105a3          	sb	t6,-1877(sp)

00103594 <i0000000736>:
  103594:	b2f11f23          	sh	a5,-1218(sp)

00103598 <i0000000737>:
  103598:	0d027993          	and	s3,tp,208
  10359c:	0000c117          	auipc	sp,0xc
  1035a0:	b6410113          	add	sp,sp,-1180 # 10f100 <mem>
  1035a4:	00019337          	lui	t1,0x19
  1035a8:	75030313          	add	t1,t1,1872 # 19750 <_stack_len+0x11750>
  1035ac:	00610133          	add	sp,sp,t1

001035b0 <i0000000738>:
  1035b0:	ead12623          	sw	a3,-340(sp)

001035b4 <i0000000739>:
  1035b4:	30d14903          	lbu	s2,781(sp)

001035b8 <i000000073a>:
  1035b8:	6e814f03          	lbu	t5,1768(sp)

001035bc <i000000073b>:
  1035bc:	fa012f03          	lw	t5,-96(sp)

001035c0 <i000000073c>:
  1035c0:	bc054b13          	xor	s6,a0,-1088

001035c4 <i000000073d>:
  1035c4:	31c54793          	xor	a5,a0,796
  1035c8:	0000c117          	auipc	sp,0xc
  1035cc:	b3810113          	add	sp,sp,-1224 # 10f100 <mem>
  1035d0:	00038337          	lui	t1,0x38
  1035d4:	4c830313          	add	t1,t1,1224 # 384c8 <tohost+0x184c0>
  1035d8:	00610133          	add	sp,sp,t1

001035dc <i000000073e>:
  1035dc:	7c614b03          	lbu	s6,1990(sp)

001035e0 <i000000073f>:
  1035e0:	13e10d23          	sb	t5,314(sp)

001035e4 <i0000000740>:
  1035e4:	00f05013          	srl	zero,zero,0xf
  1035e8:	0000c117          	auipc	sp,0xc
  1035ec:	b1810113          	add	sp,sp,-1256 # 10f100 <mem>
  1035f0:	0002d337          	lui	t1,0x2d
  1035f4:	89830313          	add	t1,t1,-1896 # 2c898 <tohost+0xc890>
  1035f8:	00610133          	add	sp,sp,t1

001035fc <i0000000741>:
  1035fc:	74015a83          	lhu	s5,1856(sp)

00103600 <i0000000742>:
  103600:	55a11203          	lh	tp,1370(sp)

00103604 <i0000000743>:
  103604:	8c812903          	lw	s2,-1848(sp)

00103608 <i0000000744>:
  103608:	be712823          	sw	t2,-1040(sp)

0010360c <i0000000745>:
  10360c:	ec714503          	lbu	a0,-313(sp)

00103610 <i0000000746>:
  103610:	01e22b33          	slt	s6,tp,t5
  103614:	00900993          	li	s3,9

00103618 <b0000000747>:
  103618:	00000033          	add	zero,zero,zero
  10361c:	fda9d2e3          	bge	s3,s10,1035e0 <i000000073f>
  103620:	00000033          	add	zero,zero,zero
  103624:	00a00d13          	li	s10,10

00103628 <i0000000747>:
  103628:	f1c70913          	add	s2,a4,-228

0010362c <i0000000748>:
  10362c:	bfc12b03          	lw	s6,-1028(sp)

00103630 <i0000000749>:
  103630:	016b1b33          	sll	s6,s6,s6

00103634 <i000000074a>:
  103634:	00420b33          	add	s6,tp,tp

00103638 <i000000074b>:
  103638:	129396b7          	lui	a3,0x12939

0010363c <i000000074c>:
  10363c:	4f812f03          	lw	t5,1272(sp)

00103640 <i000000074d>:
  103640:	68e10903          	lb	s2,1678(sp)

00103644 <i000000074e>:
  103644:	b7011483          	lh	s1,-1168(sp)

00103648 <i000000074f>:
  103648:	a1615b03          	lhu	s6,-1514(sp)

0010364c <i0000000750>:
  10364c:	ea15cb13          	xor	s6,a1,-351

00103650 <i0000000751>:
  103650:	0d56f313          	and	t1,a3,213

00103654 <i0000000752>:
  103654:	000f0033          	add	zero,t5,zero

00103658 <i0000000753>:
  103658:	17f12223          	sw	t6,356(sp)
  10365c:	0000c117          	auipc	sp,0xc
  103660:	aa410113          	add	sp,sp,-1372 # 10f100 <mem>
  103664:	00064337          	lui	t1,0x64
  103668:	ab830313          	add	t1,t1,-1352 # 63ab8 <tohost+0x43ab0>
  10366c:	00610133          	add	sp,sp,t1

00103670 <i0000000754>:
  103670:	62514503          	lbu	a0,1573(sp)

00103674 <i0000000755>:
  103674:	59449037          	lui	zero,0x59449

00103678 <i0000000756>:
  103678:	01e57bb3          	and	s7,a0,t5

0010367c <i0000000757>:
  10367c:	e5b14b03          	lbu	s6,-421(sp)

00103680 <i0000000758>:
  103680:	33310383          	lb	t2,819(sp)

00103684 <i0000000759>:
  103684:	5a810d83          	lb	s11,1448(sp)

00103688 <b000000075a>:
  103688:	00000c97          	auipc	s9,0x0
  10368c:	04cc8c93          	add	s9,s9,76 # 1036d4 <i0000000765>
  103690:	000c8567          	jalr	a0,s9

00103694 <i000000075a>:
  103694:	87e12823          	sw	t5,-1936(sp)

00103698 <i000000075b>:
  103698:	41e55a33          	sra	s4,a0,t5

0010369c <i000000075c>:
  10369c:	01f41db3          	sll	s11,s0,t6

001036a0 <i000000075d>:
  1036a0:	004f1533          	sll	a0,t5,tp
  1036a4:	0000c117          	auipc	sp,0xc
  1036a8:	a5c10113          	add	sp,sp,-1444 # 10f100 <mem>
  1036ac:	00035337          	lui	t1,0x35
  1036b0:	76830313          	add	t1,t1,1896 # 35768 <tohost+0x15760>
  1036b4:	00610133          	add	sp,sp,t1

001036b8 <i000000075e>:
  1036b8:	83e11623          	sh	t5,-2004(sp)

001036bc <i000000075f>:
  1036bc:	54c8cf93          	xor	t6,a7,1356

001036c0 <i0000000760>:
  1036c0:	395e4f13          	xor	t5,t3,917

001036c4 <i0000000761>:
  1036c4:	625b4b13          	xor	s6,s6,1573

001036c8 <i0000000762>:
  1036c8:	3b012783          	lw	a5,944(sp)

001036cc <i0000000763>:
  1036cc:	41eb09b3          	sub	s3,s6,t5

001036d0 <i0000000764>:
  1036d0:	5ba10b03          	lb	s6,1466(sp)

001036d4 <i0000000765>:
  1036d4:	39e10123          	sb	t5,898(sp)

001036d8 <i0000000766>:
  1036d8:	6b812983          	lw	s3,1720(sp)
  1036dc:	0000c117          	auipc	sp,0xc
  1036e0:	a2410113          	add	sp,sp,-1500 # 10f100 <mem>
  1036e4:	00047337          	lui	t1,0x47
  1036e8:	25830313          	add	t1,t1,600 # 47258 <tohost+0x27250>
  1036ec:	00610133          	add	sp,sp,t1

001036f0 <i0000000767>:
  1036f0:	29110203          	lb	tp,657(sp)

001036f4 <i0000000768>:
  1036f4:	ec412223          	sw	tp,-316(sp)

001036f8 <i0000000769>:
  1036f8:	00310c03          	lb	s8,3(sp)

001036fc <i000000076a>:
  1036fc:	18e105a3          	sb	a4,395(sp)
  103700:	0000c117          	auipc	sp,0xc
  103704:	a0010113          	add	sp,sp,-1536 # 10f100 <mem>
  103708:	0003b337          	lui	t1,0x3b
  10370c:	fe830313          	add	t1,t1,-24 # 3afe8 <tohost+0x1afe0>
  103710:	00610133          	add	sp,sp,t1

00103714 <i000000076b>:
  103714:	5ec14883          	lbu	a7,1516(sp)

00103718 <i000000076c>:
  103718:	8be11223          	sh	t5,-1884(sp)

0010371c <b000000076d>:
  10371c:	00000a17          	auipc	s4,0x0
  103720:	058a0a13          	add	s4,s4,88 # 103774 <i0000000776>
  103724:	000a0567          	jalr	a0,s4

00103728 <i000000076d>:
  103728:	00602493          	slti	s1,zero,6

0010372c <i000000076e>:
  10372c:	61612423          	sw	s6,1544(sp)

00103730 <i000000076f>:
  103730:	2e910a03          	lb	s4,745(sp)

00103734 <i0000000770>:
  103734:	20cc72b7          	lui	t0,0x20cc7

00103738 <i0000000771>:
  103738:	77917597          	auipc	a1,0x77917

0010373c <i0000000772>:
  10373c:	719104a3          	sb	s9,1801(sp)

00103740 <i0000000773>:
  103740:	2df82513          	slti	a0,a6,735

00103744 <i0000000774>:
  103744:	6c4ca4b7          	lui	s1,0x6c4ca
  103748:	0000c117          	auipc	sp,0xc
  10374c:	9b810113          	add	sp,sp,-1608 # 10f100 <mem>
  103750:	00018337          	lui	t1,0x18
  103754:	e2830313          	add	t1,t1,-472 # 17e28 <_stack_len+0xfe28>
  103758:	00610133          	add	sp,sp,t1

0010375c <i0000000775>:
  10375c:	a5010183          	lb	gp,-1456(sp)
  103760:	0000c117          	auipc	sp,0xc
  103764:	9a010113          	add	sp,sp,-1632 # 10f100 <mem>
  103768:	00001337          	lui	t1,0x1
  10376c:	13030313          	add	t1,t1,304 # 1130 <_min_stack-0xed0>
  103770:	00610133          	add	sp,sp,t1

00103774 <i0000000776>:
  103774:	b7e12e23          	sw	t5,-1156(sp)

00103778 <i0000000777>:
  103778:	ce811f03          	lh	t5,-792(sp)

0010377c <i0000000778>:
  10377c:	0138f033          	and	zero,a7,s3

00103780 <i0000000779>:
  103780:	3da11a83          	lh	s5,986(sp)

00103784 <i000000077a>:
  103784:	25011e23          	sh	a6,604(sp)

00103788 <i000000077b>:
  103788:	64615b03          	lhu	s6,1606(sp)
  10378c:	0000c117          	auipc	sp,0xc
  103790:	97410113          	add	sp,sp,-1676 # 10f100 <mem>
  103794:	00041337          	lui	t1,0x41
  103798:	5d830313          	add	t1,t1,1496 # 415d8 <tohost+0x215d0>
  10379c:	00610133          	add	sp,sp,t1

001037a0 <i000000077c>:
  1037a0:	6b414b03          	lbu	s6,1716(sp)

001037a4 <i000000077d>:
  1037a4:	90711c23          	sh	t2,-1768(sp)

001037a8 <i000000077e>:
  1037a8:	2ae19037          	lui	zero,0x2ae19

001037ac <i000000077f>:
  1037ac:	37a14483          	lbu	s1,890(sp)
  1037b0:	00a00813          	li	a6,10
  1037b4:	00a00d13          	li	s10,10

001037b8 <b0000000780>:
  1037b8:	00000033          	add	zero,zero,zero
  1037bc:	070d1263          	bne	s10,a6,103820 <i000000078c>
  1037c0:	00000033          	add	zero,zero,zero
  1037c4:	00a00d13          	li	s10,10

001037c8 <i0000000780>:
  1037c8:	81f6ab13          	slti	s6,a3,-2017

001037cc <i0000000781>:
  1037cc:	f9c15003          	lhu	zero,-100(sp)

001037d0 <i0000000782>:
  1037d0:	b7110003          	lb	zero,-1167(sp)

001037d4 <i0000000783>:
  1037d4:	76412e23          	sw	tp,1916(sp)

001037d8 <i0000000784>:
  1037d8:	b4812003          	lw	zero,-1208(sp)

001037dc <i0000000785>:
  1037dc:	01f2b6b3          	sltu	a3,t0,t6

001037e0 <i0000000786>:
  1037e0:	52912023          	sw	s1,1312(sp)

001037e4 <i0000000787>:
  1037e4:	dee24193          	xor	gp,tp,-530

001037e8 <i0000000788>:
  1037e8:	01b78433          	add	s0,a5,s11

001037ec <i0000000789>:
  1037ec:	22346513          	or	a0,s0,547
  1037f0:	0000c117          	auipc	sp,0xc
  1037f4:	91010113          	add	sp,sp,-1776 # 10f100 <mem>
  1037f8:	00041337          	lui	t1,0x41
  1037fc:	9d830313          	add	t1,t1,-1576 # 409d8 <tohost+0x209d0>
  103800:	00610133          	add	sp,sp,t1

00103804 <i000000078a>:
  103804:	a9e10323          	sb	t5,-1402(sp)

00103808 <i000000078b>:
  103808:	b2304b13          	xor	s6,zero,-1245
  10380c:	0000c117          	auipc	sp,0xc
  103810:	8f410113          	add	sp,sp,-1804 # 10f100 <mem>
  103814:	0004c337          	lui	t1,0x4c
  103818:	7e830313          	add	t1,t1,2024 # 4c7e8 <tohost+0x2c7e0>
  10381c:	00610133          	add	sp,sp,t1

00103820 <i000000078c>:
  103820:	f4012b03          	lw	s6,-192(sp)

00103824 <i000000078d>:
  103824:	64a10523          	sb	a0,1610(sp)

00103828 <i000000078e>:
  103828:	1c514a83          	lbu	s5,453(sp)

0010382c <i000000078f>:
  10382c:	c23a7f93          	and	t6,s4,-989

00103830 <i0000000790>:
  103830:	005ba533          	slt	a0,s7,t0

00103834 <i0000000791>:
  103834:	13815203          	lhu	tp,312(sp)

00103838 <i0000000792>:
  103838:	16adda37          	lui	s4,0x16add
  10383c:	00b00913          	li	s2,11
  103840:	00a00d13          	li	s10,10

00103844 <b0000000793>:
  103844:	00000033          	add	zero,zero,zero
  103848:	072d1663          	bne	s10,s2,1038b4 <i00000007a1>
  10384c:	00000033          	add	zero,zero,zero
  103850:	00a00d13          	li	s10,10

00103854 <i0000000793>:
  103854:	40a00b33          	neg	s6,a0

00103858 <i0000000794>:
  103858:	40e25013          	sra	zero,tp,0xe
  10385c:	0000c117          	auipc	sp,0xc
  103860:	8a410113          	add	sp,sp,-1884 # 10f100 <mem>
  103864:	00004337          	lui	t1,0x4
  103868:	be030313          	add	t1,t1,-1056 # 3be0 <_min_stack+0x1be0>
  10386c:	00610133          	add	sp,sp,t1

00103870 <i0000000795>:
  103870:	f2911723          	sh	s1,-210(sp)

00103874 <i0000000796>:
  103874:	66602417          	auipc	s0,0x66602

00103878 <i0000000797>:
  103878:	29e38c13          	add	s8,t2,670 # 487b227e <fromhost+0x4862a26e>

0010387c <i0000000798>:
  10387c:	01fa6533          	or	a0,s4,t6

00103880 <i0000000799>:
  103880:	00ab7f33          	and	t5,s6,a0

00103884 <i000000079a>:
  103884:	bf1b6d93          	or	s11,s6,-1039

00103888 <i000000079b>:
  103888:	451105a3          	sb	a7,1099(sp)

0010388c <i000000079c>:
  10388c:	010b5213          	srl	tp,s6,0x10
  103890:	0000c117          	auipc	sp,0xc
  103894:	87010113          	add	sp,sp,-1936 # 10f100 <mem>
  103898:	00037337          	lui	t1,0x37
  10389c:	06030313          	add	t1,t1,96 # 37060 <tohost+0x17058>
  1038a0:	00610133          	add	sp,sp,t1

001038a4 <i000000079d>:
  1038a4:	03610ca3          	sb	s6,57(sp)

001038a8 <i000000079e>:
  1038a8:	71312823          	sw	s3,1808(sp)

001038ac <i000000079f>:
  1038ac:	87514003          	lbu	zero,-1931(sp)

001038b0 <i00000007a0>:
  1038b0:	4eab6b13          	or	s6,s6,1258

001038b4 <i00000007a1>:
  1038b4:	cbe12e23          	sw	t5,-836(sp)

001038b8 <i00000007a2>:
  1038b8:	015d9f33          	sll	t5,s11,s5

001038bc <i00000007a3>:
  1038bc:	40da8233          	sub	tp,s5,a3

001038c0 <i00000007a4>:
  1038c0:	403c0533          	sub	a0,s8,gp
  1038c4:	0000c117          	auipc	sp,0xc
  1038c8:	83c10113          	add	sp,sp,-1988 # 10f100 <mem>
  1038cc:	00033337          	lui	t1,0x33
  1038d0:	ca030313          	add	t1,t1,-864 # 32ca0 <tohost+0x12c98>
  1038d4:	00610133          	add	sp,sp,t1

001038d8 <i00000007a5>:
  1038d8:	d7911123          	sh	s9,-670(sp)
  1038dc:	00a00e93          	li	t4,10

001038e0 <b00000007a6>:
  1038e0:	00000033          	add	zero,zero,zero
  1038e4:	fbdd12e3          	bne	s10,t4,103888 <i000000079b>
  1038e8:	00000033          	add	zero,zero,zero
  1038ec:	00a00d13          	li	s10,10

001038f0 <i00000007a6>:
  1038f0:	01605333          	srl	t1,zero,s6

001038f4 <i00000007a7>:
  1038f4:	65c76037          	lui	zero,0x65c76

001038f8 <i00000007a8>:
  1038f8:	93c11703          	lh	a4,-1732(sp)

001038fc <i00000007a9>:
  1038fc:	81f11d23          	sh	t6,-2022(sp)
  103900:	0000c117          	auipc	sp,0xc
  103904:	80010113          	add	sp,sp,-2048 # 10f100 <mem>
  103908:	00052337          	lui	t1,0x52
  10390c:	71830313          	add	t1,t1,1816 # 52718 <tohost+0x32710>
  103910:	00610133          	add	sp,sp,t1

00103914 <i00000007aa>:
  103914:	3a012423          	sw	zero,936(sp)

00103918 <i00000007ab>:
  103918:	44a11623          	sh	a0,1100(sp)

0010391c <i00000007ac>:
  10391c:	47d80213          	add	tp,a6,1149

00103920 <i00000007ad>:
  103920:	fb114483          	lbu	s1,-79(sp)

00103924 <i00000007ae>:
  103924:	8451bf13          	sltiu	t5,gp,-1979

00103928 <i00000007af>:
  103928:	016f0033          	add	zero,t5,s6

0010392c <i00000007b0>:
  10392c:	010d9213          	sll	tp,s11,0x10

00103930 <i00000007b1>:
  103930:	f3b10c83          	lb	s9,-197(sp)
  103934:	0000b117          	auipc	sp,0xb
  103938:	7cc10113          	add	sp,sp,1996 # 10f100 <mem>
  10393c:	0003c337          	lui	t1,0x3c
  103940:	2e830313          	add	t1,t1,744 # 3c2e8 <tohost+0x1c2e0>
  103944:	00610133          	add	sp,sp,t1

00103948 <i00000007b2>:
  103948:	5b412f03          	lw	t5,1460(sp)

0010394c <i00000007b3>:
  10394c:	53f14b03          	lbu	s6,1343(sp)

00103950 <i00000007b4>:
  103950:	76c4ff13          	and	t5,s1,1900

00103954 <i00000007b5>:
  103954:	00301a13          	sll	s4,zero,0x3

00103958 <i00000007b6>:
  103958:	00ab38b3          	sltu	a7,s6,a0

0010395c <i00000007b7>:
  10395c:	01105b13          	srl	s6,zero,0x11

00103960 <i00000007b8>:
  103960:	63d11d23          	sh	t4,1594(sp)
  103964:	00a00c13          	li	s8,10

00103968 <b00000007b9>:
  103968:	018d0463          	beq	s10,s8,103970 <b00000007b9+0x8>
  10396c:	fbdff56f          	jal	a0,103928 <i00000007af>
  103970:	00a00d13          	li	s10,10
  103974:	0000b117          	auipc	sp,0xb
  103978:	78c10113          	add	sp,sp,1932 # 10f100 <mem>
  10397c:	00046337          	lui	t1,0x46
  103980:	f3830313          	add	t1,t1,-200 # 45f38 <tohost+0x25f30>
  103984:	00610133          	add	sp,sp,t1

00103988 <i00000007b9>:
  103988:	56a10003          	lb	zero,1386(sp)

0010398c <i00000007ba>:
  10398c:	94611003          	lh	zero,-1722(sp)

00103990 <i00000007bb>:
  103990:	418f5d93          	sra	s11,t5,0x18

00103994 <i00000007bc>:
  103994:	1a014b83          	lbu	s7,416(sp)

00103998 <i00000007bd>:
  103998:	00405c33          	srl	s8,zero,tp

0010399c <i00000007be>:
  10399c:	4ca10a23          	sb	a0,1236(sp)

001039a0 <i00000007bf>:
  1039a0:	009289b3          	add	s3,t0,s1

001039a4 <i00000007c0>:
  1039a4:	ae011f03          	lh	t5,-1312(sp)
  1039a8:	0000b117          	auipc	sp,0xb
  1039ac:	75810113          	add	sp,sp,1880 # 10f100 <mem>
  1039b0:	0000f337          	lui	t1,0xf
  1039b4:	41830313          	add	t1,t1,1048 # f418 <_stack_len+0x7418>
  1039b8:	00610133          	add	sp,sp,t1

001039bc <i00000007c1>:
  1039bc:	66b10883          	lb	a7,1643(sp)

001039c0 <i00000007c2>:
  1039c0:	01105b13          	srl	s6,zero,0x11

001039c4 <i00000007c3>:
  1039c4:	01e53cb3          	sltu	s9,a0,t5

001039c8 <i00000007c4>:
  1039c8:	5e415503          	lhu	a0,1508(sp)

001039cc <i00000007c5>:
  1039cc:	404f54b3          	sra	s1,t5,tp

001039d0 <i00000007c6>:
  1039d0:	00659013          	sll	zero,a1,0x6
  1039d4:	0000b117          	auipc	sp,0xb
  1039d8:	72c10113          	add	sp,sp,1836 # 10f100 <mem>
  1039dc:	00002337          	lui	t1,0x2
  1039e0:	3a030313          	add	t1,t1,928 # 23a0 <_min_stack+0x3a0>
  1039e4:	00610133          	add	sp,sp,t1

001039e8 <i00000007c7>:
  1039e8:	5de11923          	sh	t5,1490(sp)

001039ec <i00000007c8>:
  1039ec:	716bbf17          	auipc	t5,0x716bb

001039f0 <i00000007c9>:
  1039f0:	00427eb3          	and	t4,tp,tp

001039f4 <i00000007ca>:
  1039f4:	01dee033          	or	zero,t4,t4

001039f8 <i00000007cb>:
  1039f8:	0071ea33          	or	s4,gp,t2
  1039fc:	00900993          	li	s3,9
  103a00:	00a00d13          	li	s10,10

00103a04 <b00000007cc>:
  103a04:	00000033          	add	zero,zero,zero
  103a08:	073d4e63          	blt	s10,s3,103a84 <i00000007d9>
  103a0c:	00000033          	add	zero,zero,zero
  103a10:	00a00d13          	li	s10,10

00103a14 <i00000007cc>:
  103a14:	9a011003          	lh	zero,-1632(sp)

00103a18 <i00000007cd>:
  103a18:	40025233          	sra	tp,tp,zero

00103a1c <i00000007ce>:
  103a1c:	01583633          	sltu	a2,a6,s5

00103a20 <i00000007cf>:
  103a20:	004f3533          	sltu	a0,t5,tp

00103a24 <i00000007d0>:
  103a24:	016b08b3          	add	a7,s6,s6

00103a28 <i00000007d1>:
  103a28:	dd610703          	lb	a4,-554(sp)

00103a2c <i00000007d2>:
  103a2c:	33d10b03          	lb	s6,829(sp)
  103a30:	0000b117          	auipc	sp,0xb
  103a34:	6d010113          	add	sp,sp,1744 # 10f100 <mem>
  103a38:	00040337          	lui	t1,0x40
  103a3c:	53830313          	add	t1,t1,1336 # 40538 <tohost+0x20530>
  103a40:	00610133          	add	sp,sp,t1

00103a44 <i00000007d3>:
  103a44:	33911423          	sh	s9,808(sp)

00103a48 <i00000007d4>:
  103a48:	c9e10123          	sb	t5,-894(sp)

00103a4c <i00000007d5>:
  103a4c:	3f827b13          	and	s6,tp,1016
  103a50:	0000b117          	auipc	sp,0xb
  103a54:	6b010113          	add	sp,sp,1712 # 10f100 <mem>
  103a58:	0000c337          	lui	t1,0xc
  103a5c:	41830313          	add	t1,t1,1048 # c418 <_stack_len+0x4418>
  103a60:	00610133          	add	sp,sp,t1

00103a64 <i00000007d6>:
  103a64:	fa011003          	lh	zero,-96(sp)

00103a68 <i00000007d7>:
  103a68:	98012823          	sw	zero,-1648(sp)

00103a6c <i00000007d8>:
  103a6c:	a8c11c83          	lh	s9,-1396(sp)
  103a70:	0000b117          	auipc	sp,0xb
  103a74:	69010113          	add	sp,sp,1680 # 10f100 <mem>
  103a78:	00068337          	lui	t1,0x68
  103a7c:	fb830313          	add	t1,t1,-72 # 67fb8 <tohost+0x47fb0>
  103a80:	00610133          	add	sp,sp,t1

00103a84 <i00000007d9>:
  103a84:	29610323          	sb	s6,646(sp)

00103a88 <i00000007da>:
  103a88:	121b4e97          	auipc	t4,0x121b4
  103a8c:	0000b117          	auipc	sp,0xb
  103a90:	67410113          	add	sp,sp,1652 # 10f100 <mem>
  103a94:	0002d337          	lui	t1,0x2d
  103a98:	90030313          	add	t1,t1,-1792 # 2c900 <tohost+0xc8f8>
  103a9c:	00610133          	add	sp,sp,t1

00103aa0 <i00000007db>:
  103aa0:	84015f03          	lhu	t5,-1984(sp)

00103aa4 <i00000007dc>:
  103aa4:	a164ab13          	slti	s6,s1,-1514

00103aa8 <i00000007dd>:
  103aa8:	9f510603          	lb	a2,-1547(sp)

00103aac <i00000007de>:
  103aac:	83411023          	sh	s4,-2016(sp)
  103ab0:	00c00913          	li	s2,12
  103ab4:	00a00d13          	li	s10,10

00103ab8 <b00000007df>:
  103ab8:	00000033          	add	zero,zero,zero
  103abc:	052d4a63          	blt	s10,s2,103b10 <i00000007e7>
  103ac0:	00000033          	add	zero,zero,zero
  103ac4:	00a00d13          	li	s10,10

00103ac8 <i00000007df>:
  103ac8:	d5cf6193          	or	gp,t5,-676

00103acc <i00000007e0>:
  103acc:	62611b03          	lh	s6,1574(sp)

00103ad0 <i00000007e1>:
  103ad0:	007aefb3          	or	t6,s5,t2

00103ad4 <i00000007e2>:
  103ad4:	e2d73213          	sltiu	tp,a4,-467

00103ad8 <i00000007e3>:
  103ad8:	337ba413          	slti	s0,s7,823
  103adc:	0000b117          	auipc	sp,0xb
  103ae0:	62410113          	add	sp,sp,1572 # 10f100 <mem>
  103ae4:	00038337          	lui	t1,0x38
  103ae8:	a6830313          	add	t1,t1,-1432 # 37a68 <tohost+0x17a60>
  103aec:	00610133          	add	sp,sp,t1

00103af0 <i00000007e4>:
  103af0:	c9911523          	sh	s9,-886(sp)
  103af4:	0000b117          	auipc	sp,0xb
  103af8:	60c10113          	add	sp,sp,1548 # 10f100 <mem>
  103afc:	00028337          	lui	t1,0x28
  103b00:	52030313          	add	t1,t1,1312 # 28520 <tohost+0x8518>
  103b04:	00610133          	add	sp,sp,t1

00103b08 <i00000007e5>:
  103b08:	85610f03          	lb	t5,-1962(sp)

00103b0c <i00000007e6>:
  103b0c:	00785033          	srl	zero,a6,t2

00103b10 <i00000007e7>:
  103b10:	e6812003          	lw	zero,-408(sp)

00103b14 <i00000007e8>:
  103b14:	61411423          	sh	s4,1544(sp)

00103b18 <i00000007e9>:
  103b18:	be411823          	sh	tp,-1040(sp)

00103b1c <i00000007ea>:
  103b1c:	ad710a83          	lb	s5,-1321(sp)

00103b20 <i00000007eb>:
  103b20:	0d058897          	auipc	a7,0xd058

00103b24 <i00000007ec>:
  103b24:	9de15603          	lhu	a2,-1570(sp)

00103b28 <i00000007ed>:
  103b28:	01641693          	sll	a3,s0,0x16

00103b2c <i00000007ee>:
  103b2c:	016f0333          	add	t1,t5,s6

00103b30 <i00000007ef>:
  103b30:	01f76633          	or	a2,a4,t6

00103b34 <i00000007f0>:
  103b34:	35806413          	or	s0,zero,856

00103b38 <i00000007f1>:
  103b38:	d0012b03          	lw	s6,-768(sp)
  103b3c:	00900d93          	li	s11,9

00103b40 <b00000007f2>:
  103b40:	00000033          	add	zero,zero,zero
  103b44:	fbbd46e3          	blt	s10,s11,103af0 <i00000007e4>
  103b48:	00000033          	add	zero,zero,zero
  103b4c:	00a00d13          	li	s10,10

00103b50 <i00000007f2>:
  103b50:	40ab0533          	sub	a0,s6,a0

00103b54 <i00000007f3>:
  103b54:	008faf33          	slt	t5,t6,s0

00103b58 <i00000007f4>:
  103b58:	dc010f83          	lb	t6,-576(sp)

00103b5c <i00000007f5>:
  103b5c:	d4012223          	sw	zero,-700(sp)

00103b60 <i00000007f6>:
  103b60:	40a25f33          	sra	t5,tp,a0

00103b64 <i00000007f7>:
  103b64:	00269493          	sll	s1,a3,0x2

00103b68 <i00000007f8>:
  103b68:	c717ab13          	slti	s6,a5,-911

00103b6c <i00000007f9>:
  103b6c:	7be11503          	lh	a0,1982(sp)

00103b70 <i00000007fa>:
  103b70:	15112a23          	sw	a7,340(sp)

00103b74 <i00000007fb>:
  103b74:	40c12703          	lw	a4,1036(sp)

00103b78 <i00000007fc>:
  103b78:	f4414b03          	lbu	s6,-188(sp)

00103b7c <i00000007fd>:
  103b7c:	007e9fb3          	sll	t6,t4,t2

00103b80 <i00000007fe>:
  103b80:	0adc7213          	and	tp,s8,173

00103b84 <i00000007ff>:
  103b84:	0072b733          	sltu	a4,t0,t2

00103b88 <i0000000800>:
  103b88:	c05f2a93          	slti	s5,t5,-1019
  103b8c:	0000b117          	auipc	sp,0xb
  103b90:	57410113          	add	sp,sp,1396 # 10f100 <mem>
  103b94:	0005b337          	lui	t1,0x5b
  103b98:	a4830313          	add	t1,t1,-1464 # 5aa48 <tohost+0x3aa40>
  103b9c:	00610133          	add	sp,sp,t1

00103ba0 <i0000000801>:
  103ba0:	f4011503          	lh	a0,-192(sp)

00103ba4 <i0000000802>:
  103ba4:	0131dc13          	srl	s8,gp,0x13

00103ba8 <i0000000803>:
  103ba8:	f7411f03          	lh	t5,-140(sp)

00103bac <i0000000804>:
  103bac:	6af12223          	sw	a5,1700(sp)
  103bb0:	00b00b93          	li	s7,11
  103bb4:	00a00d13          	li	s10,10

00103bb8 <b0000000805>:
  103bb8:	00000033          	add	zero,zero,zero
  103bbc:	057d1863          	bne	s10,s7,103c0c <i0000000811>
  103bc0:	00000033          	add	zero,zero,zero
  103bc4:	00a00d13          	li	s10,10

00103bc8 <i0000000805>:
  103bc8:	6b611123          	sh	s6,1698(sp)

00103bcc <i0000000806>:
  103bcc:	f4011783          	lh	a5,-192(sp)

00103bd0 <i0000000807>:
  103bd0:	06914483          	lbu	s1,105(sp)

00103bd4 <i0000000808>:
  103bd4:	40ab5033          	sra	zero,s6,a0

00103bd8 <i0000000809>:
  103bd8:	e0012223          	sw	zero,-508(sp)

00103bdc <i000000080a>:
  103bdc:	b4610323          	sb	t1,-1210(sp)

00103be0 <i000000080b>:
  103be0:	84414283          	lbu	t0,-1980(sp)
  103be4:	0000b117          	auipc	sp,0xb
  103be8:	51c10113          	add	sp,sp,1308 # 10f100 <mem>
  103bec:	00062337          	lui	t1,0x62
  103bf0:	47030313          	add	t1,t1,1136 # 62470 <tohost+0x42468>
  103bf4:	00610133          	add	sp,sp,t1

00103bf8 <i000000080c>:
  103bf8:	51015b03          	lhu	s6,1296(sp)

00103bfc <i000000080d>:
  103bfc:	00834db3          	xor	s11,t1,s0

00103c00 <i000000080e>:
  103c00:	016b3333          	sltu	t1,s6,s6

00103c04 <i000000080f>:
  103c04:	50215f03          	lhu	t5,1282(sp)

00103c08 <i0000000810>:
  103c08:	54510683          	lb	a3,1349(sp)

00103c0c <i0000000811>:
  103c0c:	00a57033          	and	zero,a0,a0

00103c10 <i0000000812>:
  103c10:	24e11683          	lh	a3,590(sp)

00103c14 <i0000000813>:
  103c14:	01581b33          	sll	s6,a6,s5

00103c18 <i0000000814>:
  103c18:	77e11503          	lh	a0,1918(sp)

00103c1c <i0000000815>:
  103c1c:	01961213          	sll	tp,a2,0x19

00103c20 <i0000000816>:
  103c20:	4c114303          	lbu	t1,1217(sp)

00103c24 <i0000000817>:
  103c24:	12368f37          	lui	t5,0x12368

00103c28 <b0000000818>:
  103c28:	0380056f          	jal	a0,103c60 <i0000000825>

00103c2c <i0000000818>:
  103c2c:	0da14e03          	lbu	t3,218(sp)

00103c30 <i0000000819>:
  103c30:	d7612223          	sw	s6,-668(sp)

00103c34 <i000000081a>:
  103c34:	7f920413          	add	s0,tp,2041 # 6ed00605 <fromhost+0x6eb785f5>

00103c38 <i000000081b>:
  103c38:	00425cb3          	srl	s9,tp,tp

00103c3c <i000000081c>:
  103c3c:	01e243b3          	xor	t2,tp,t5

00103c40 <i000000081d>:
  103c40:	01eb6b33          	or	s6,s6,t5

00103c44 <i000000081e>:
  103c44:	4143d5b3          	sra	a1,t2,s4

00103c48 <i000000081f>:
  103c48:	63761a37          	lui	s4,0x63761

00103c4c <i0000000820>:
  103c4c:	1d615e03          	lhu	t3,470(sp)

00103c50 <i0000000821>:
  103c50:	ce924213          	xor	tp,tp,-791

00103c54 <i0000000822>:
  103c54:	00c9df13          	srl	t5,s3,0xc

00103c58 <i0000000823>:
  103c58:	35911623          	sh	s9,844(sp)

00103c5c <i0000000824>:
  103c5c:	009e6533          	or	a0,t3,s1

00103c60 <i0000000825>:
  103c60:	afd12623          	sw	t4,-1300(sp)

00103c64 <i0000000826>:
  103c64:	41e252b3          	sra	t0,tp,t5

00103c68 <i0000000827>:
  103c68:	d2810503          	lb	a0,-728(sp)

00103c6c <i0000000828>:
  103c6c:	50a10ea3          	sb	a0,1309(sp)

00103c70 <i0000000829>:
  103c70:	d0f10f03          	lb	t5,-753(sp)

00103c74 <i000000082a>:
  103c74:	d1612e23          	sw	s6,-740(sp)
  103c78:	00c00993          	li	s3,12
  103c7c:	001d0d13          	add	s10,s10,1

00103c80 <b000000082b>:
  103c80:	00000033          	add	zero,zero,zero
  103c84:	fba9dee3          	bge	s3,s10,103c40 <i000000081d>
  103c88:	00000033          	add	zero,zero,zero
  103c8c:	00a00d13          	li	s10,10

00103c90 <i000000082b>:
  103c90:	e9d77393          	and	t2,a4,-355

00103c94 <i000000082c>:
  103c94:	a9710503          	lb	a0,-1385(sp)

00103c98 <i000000082d>:
  103c98:	98615483          	lhu	s1,-1658(sp)
  103c9c:	0000b117          	auipc	sp,0xb
  103ca0:	46410113          	add	sp,sp,1124 # 10f100 <mem>
  103ca4:	00011337          	lui	t1,0x11
  103ca8:	63830313          	add	t1,t1,1592 # 11638 <_stack_len+0x9638>
  103cac:	00610133          	add	sp,sp,t1

00103cb0 <i000000082e>:
  103cb0:	8e510d83          	lb	s11,-1819(sp)

00103cb4 <i000000082f>:
  103cb4:	01650b33          	add	s6,a0,s6

00103cb8 <i0000000830>:
  103cb8:	0035a533          	slt	a0,a1,gp

00103cbc <i0000000831>:
  103cbc:	00991e93          	sll	t4,s2,0x9

00103cc0 <i0000000832>:
  103cc0:	11514003          	lbu	zero,277(sp)

00103cc4 <i0000000833>:
  103cc4:	9504c513          	xor	a0,s1,-1712

00103cc8 <i0000000834>:
  103cc8:	7cf103a3          	sb	a5,1991(sp)

00103ccc <i0000000835>:
  103ccc:	48e20513          	add	a0,tp,1166 # 48e <_min_stack-0x1b72>

00103cd0 <i0000000836>:
  103cd0:	7a611503          	lh	a0,1958(sp)

00103cd4 <i0000000837>:
  103cd4:	411f8eb3          	sub	t4,t6,a7

00103cd8 <i0000000838>:
  103cd8:	9c811a23          	sh	s0,-1580(sp)

00103cdc <i0000000839>:
  103cdc:	77e10323          	sb	t5,1894(sp)

00103ce0 <i000000083a>:
  103ce0:	3c610823          	sb	t1,976(sp)

00103ce4 <i000000083b>:
  103ce4:	c6b12e23          	sw	a1,-900(sp)

00103ce8 <i000000083c>:
  103ce8:	9b412183          	lw	gp,-1612(sp)

00103cec <i000000083d>:
  103cec:	be011f23          	sh	zero,-1026(sp)
  103cf0:	00900b93          	li	s7,9

00103cf4 <b000000083e>:
  103cf4:	00000033          	add	zero,zero,zero
  103cf8:	fd7d4ce3          	blt	s10,s7,103cd0 <i0000000836>
  103cfc:	00000033          	add	zero,zero,zero
  103d00:	00a00d13          	li	s10,10

00103d04 <i000000083e>:
  103d04:	016212b3          	sll	t0,tp,s6

00103d08 <i000000083f>:
  103d08:	41780cb3          	sub	s9,a6,s7

00103d0c <i0000000840>:
  103d0c:	47110323          	sb	a7,1126(sp)

00103d10 <i0000000841>:
  103d10:	2441f893          	and	a7,gp,580

00103d14 <i0000000842>:
  103d14:	ed412823          	sw	s4,-304(sp)
  103d18:	0000b117          	auipc	sp,0xb
  103d1c:	3e810113          	add	sp,sp,1000 # 10f100 <mem>
  103d20:	0002a337          	lui	t1,0x2a
  103d24:	1c830313          	add	t1,t1,456 # 2a1c8 <tohost+0xa1c0>
  103d28:	00610133          	add	sp,sp,t1

00103d2c <i0000000843>:
  103d2c:	dc010683          	lb	a3,-576(sp)
  103d30:	0000b117          	auipc	sp,0xb
  103d34:	3d010113          	add	sp,sp,976 # 10f100 <mem>
  103d38:	00062337          	lui	t1,0x62
  103d3c:	98030313          	add	t1,t1,-1664 # 61980 <tohost+0x41978>
  103d40:	00610133          	add	sp,sp,t1

00103d44 <i0000000844>:
  103d44:	93412903          	lw	s2,-1740(sp)

00103d48 <i0000000845>:
  103d48:	e7412f03          	lw	t5,-396(sp)

00103d4c <i0000000846>:
  103d4c:	98611f83          	lh	t6,-1658(sp)

00103d50 <i0000000847>:
  103d50:	9bd103a3          	sb	t4,-1625(sp)

00103d54 <i0000000848>:
  103d54:	25e4f413          	and	s0,s1,606

00103d58 <i0000000849>:
  103d58:	00d6c233          	xor	tp,a3,a3

00103d5c <i000000084a>:
  103d5c:	1d77b513          	sltiu	a0,a5,471

00103d60 <i000000084b>:
  103d60:	00022833          	sltz	a6,tp
  103d64:	0000b117          	auipc	sp,0xb
  103d68:	39c10113          	add	sp,sp,924 # 10f100 <mem>
  103d6c:	00017337          	lui	t1,0x17
  103d70:	47030313          	add	t1,t1,1136 # 17470 <_stack_len+0xf470>
  103d74:	00610133          	add	sp,sp,t1

00103d78 <i000000084c>:
  103d78:	ecc11603          	lh	a2,-308(sp)

00103d7c <i000000084d>:
  103d7c:	00e41513          	sll	a0,s0,0xe

00103d80 <i000000084e>:
  103d80:	20622637          	lui	a2,0x20622
  103d84:	0000b117          	auipc	sp,0xb
  103d88:	37c10113          	add	sp,sp,892 # 10f100 <mem>
  103d8c:	00003337          	lui	t1,0x3
  103d90:	10830313          	add	t1,t1,264 # 3108 <_min_stack+0x1108>
  103d94:	00610133          	add	sp,sp,t1

00103d98 <i000000084f>:
  103d98:	e9610f83          	lb	t6,-362(sp)

00103d9c <i0000000850>:
  103d9c:	40af55b3          	sra	a1,t5,a0
  103da0:	00b00c13          	li	s8,11
  103da4:	00a00d13          	li	s10,10

00103da8 <b0000000851>:
  103da8:	00000033          	add	zero,zero,zero
  103dac:	058d1863          	bne	s10,s8,103dfc <i000000085d>
  103db0:	00000033          	add	zero,zero,zero
  103db4:	00a00d13          	li	s10,10

00103db8 <i0000000851>:
  103db8:	00ab1f13          	sll	t5,s6,0xa

00103dbc <i0000000852>:
  103dbc:	414657b3          	sra	a5,a2,s4

00103dc0 <i0000000853>:
  103dc0:	01620533          	add	a0,tp,s6

00103dc4 <i0000000854>:
  103dc4:	40c48533          	sub	a0,s1,a2
  103dc8:	0000b117          	auipc	sp,0xb
  103dcc:	33810113          	add	sp,sp,824 # 10f100 <mem>
  103dd0:	0004c337          	lui	t1,0x4c
  103dd4:	0f830313          	add	t1,t1,248 # 4c0f8 <tohost+0x2c0f0>
  103dd8:	00610133          	add	sp,sp,t1

00103ddc <i0000000855>:
  103ddc:	85211a03          	lh	s4,-1966(sp)

00103de0 <i0000000856>:
  103de0:	d8411f83          	lh	t6,-636(sp)

00103de4 <i0000000857>:
  103de4:	23e10923          	sb	t5,562(sp)

00103de8 <i0000000858>:
  103de8:	f2110003          	lb	zero,-223(sp)

00103dec <i0000000859>:
  103dec:	a3512423          	sw	s5,-1496(sp)

00103df0 <i000000085a>:
  103df0:	6f01aa13          	slti	s4,gp,1776

00103df4 <i000000085b>:
  103df4:	d2610303          	lb	t1,-730(sp)

00103df8 <i000000085c>:
  103df8:	00655713          	srl	a4,a0,0x6

00103dfc <i000000085d>:
  103dfc:	94c15b03          	lhu	s6,-1716(sp)

00103e00 <i000000085e>:
  103e00:	93215f83          	lhu	t6,-1742(sp)

00103e04 <i000000085f>:
  103e04:	9dd10523          	sb	t4,-1590(sp)

00103e08 <i0000000860>:
  103e08:	33106913          	or	s2,zero,817

00103e0c <i0000000861>:
  103e0c:	f8c12983          	lw	s3,-116(sp)

00103e10 <i0000000862>:
  103e10:	c8011983          	lh	s3,-896(sp)
  103e14:	0000b117          	auipc	sp,0xb
  103e18:	2ec10113          	add	sp,sp,748 # 10f100 <mem>
  103e1c:	00025337          	lui	t1,0x25
  103e20:	ea030313          	add	t1,t1,-352 # 24ea0 <tohost+0x4e98>
  103e24:	00610133          	add	sp,sp,t1

00103e28 <i0000000863>:
  103e28:	55910503          	lb	a0,1369(sp)
  103e2c:	00900d93          	li	s11,9
  103e30:	00a00d13          	li	s10,10

00103e34 <b0000000864>:
  103e34:	00000033          	add	zero,zero,zero
  103e38:	05addc63          	bge	s11,s10,103e90 <i000000086d>
  103e3c:	00000033          	add	zero,zero,zero
  103e40:	00a00d13          	li	s10,10
  103e44:	0000b117          	auipc	sp,0xb
  103e48:	2bc10113          	add	sp,sp,700 # 10f100 <mem>
  103e4c:	00031337          	lui	t1,0x31
  103e50:	91030313          	add	t1,t1,-1776 # 30910 <tohost+0x10908>
  103e54:	00610133          	add	sp,sp,t1

00103e58 <i0000000864>:
  103e58:	65812b03          	lw	s6,1624(sp)
  103e5c:	0000b117          	auipc	sp,0xb
  103e60:	2a410113          	add	sp,sp,676 # 10f100 <mem>
  103e64:	00003337          	lui	t1,0x3
  103e68:	04030313          	add	t1,t1,64 # 3040 <_min_stack+0x1040>
  103e6c:	00610133          	add	sp,sp,t1

00103e70 <i0000000865>:
  103e70:	de611223          	sh	t1,-540(sp)

00103e74 <i0000000866>:
  103e74:	55553213          	sltiu	tp,a0,1365

00103e78 <i0000000867>:
  103e78:	2b014203          	lbu	tp,688(sp)

00103e7c <i0000000868>:
  103e7c:	9b612623          	sw	s6,-1620(sp)

00103e80 <i0000000869>:
  103e80:	9555b593          	sltiu	a1,a1,-1707

00103e84 <i000000086a>:
  103e84:	41525d93          	sra	s11,tp,0x15

00103e88 <i000000086b>:
  103e88:	32014503          	lbu	a0,800(sp)

00103e8c <i000000086c>:
  103e8c:	cb5109a3          	sb	s5,-845(sp)

00103e90 <i000000086d>:
  103e90:	530f4293          	xor	t0,t5,1328

00103e94 <i000000086e>:
  103e94:	afa15003          	lhu	zero,-1286(sp)

00103e98 <i000000086f>:
  103e98:	67215203          	lhu	tp,1650(sp)

00103e9c <i0000000870>:
  103e9c:	9db66f93          	or	t6,a2,-1573

00103ea0 <i0000000871>:
  103ea0:	b8c12503          	lw	a0,-1140(sp)

00103ea4 <i0000000872>:
  103ea4:	000b35b3          	sltu	a1,s6,zero

00103ea8 <i0000000873>:
  103ea8:	20710283          	lb	t0,519(sp)

00103eac <i0000000874>:
  103eac:	3e0e25b7          	lui	a1,0x3e0e2

00103eb0 <i0000000875>:
  103eb0:	01bebf33          	sltu	t5,t4,s11

00103eb4 <i0000000876>:
  103eb4:	a1b2fb13          	and	s6,t0,-1509
  103eb8:	00c00a13          	li	s4,12
  103ebc:	001d0d13          	add	s10,s10,1

00103ec0 <b0000000877>:
  103ec0:	00000033          	add	zero,zero,zero
  103ec4:	fd4d46e3          	blt	s10,s4,103e90 <i000000086d>
  103ec8:	00000033          	add	zero,zero,zero
  103ecc:	00a00d13          	li	s10,10

00103ed0 <i0000000877>:
  103ed0:	35812a83          	lw	s5,856(sp)

00103ed4 <i0000000878>:
  103ed4:	a1612623          	sw	s6,-1524(sp)

00103ed8 <i0000000879>:
  103ed8:	4b910203          	lb	tp,1209(sp)

00103edc <i000000087a>:
  103edc:	43c14203          	lbu	tp,1084(sp)

00103ee0 <i000000087b>:
  103ee0:	62310b03          	lb	s6,1571(sp)

00103ee4 <i000000087c>:
  103ee4:	1c07f713          	and	a4,a5,448

00103ee8 <i000000087d>:
  103ee8:	4fba4f37          	lui	t5,0x4fba4

00103eec <i000000087e>:
  103eec:	5a410823          	sb	tp,1456(sp)

00103ef0 <i000000087f>:
  103ef0:	a7412503          	lw	a0,-1420(sp)

00103ef4 <i0000000880>:
  103ef4:	017cdc33          	srl	s8,s9,s7

00103ef8 <i0000000881>:
  103ef8:	94512e23          	sw	t0,-1700(sp)

00103efc <i0000000882>:
  103efc:	58912e23          	sw	s1,1436(sp)

00103f00 <i0000000883>:
  103f00:	00c1a233          	slt	tp,gp,a2

00103f04 <i0000000884>:
  103f04:	e9a15203          	lhu	tp,-358(sp)

00103f08 <i0000000885>:
  103f08:	00a23bb3          	sltu	s7,tp,a0

00103f0c <i0000000886>:
  103f0c:	c1610303          	lb	t1,-1002(sp)

00103f10 <i0000000887>:
  103f10:	04910b03          	lb	s6,73(sp)

00103f14 <i0000000888>:
  103f14:	39812e83          	lw	t4,920(sp)

00103f18 <i0000000889>:
  103f18:	43bd5637          	lui	a2,0x43bd5
  103f1c:	00900e93          	li	t4,9
  103f20:	00a00d13          	li	s10,10

00103f24 <b000000088a>:
  103f24:	00000033          	add	zero,zero,zero
  103f28:	05aed063          	bge	t4,s10,103f68 <i0000000892>
  103f2c:	00000033          	add	zero,zero,zero
  103f30:	00a00d13          	li	s10,10

00103f34 <i000000088a>:
  103f34:	01e07f33          	and	t5,zero,t5
  103f38:	0000b117          	auipc	sp,0xb
  103f3c:	1c810113          	add	sp,sp,456 # 10f100 <mem>
  103f40:	00058337          	lui	t1,0x58
  103f44:	54030313          	add	t1,t1,1344 # 58540 <tohost+0x38538>
  103f48:	00610133          	add	sp,sp,t1

00103f4c <i000000088b>:
  103f4c:	ea110b03          	lb	s6,-351(sp)

00103f50 <i000000088c>:
  103f50:	01649b13          	sll	s6,s1,0x16

00103f54 <i000000088d>:
  103f54:	86a53d93          	sltiu	s11,a0,-1942

00103f58 <i000000088e>:
  103f58:	00057f33          	and	t5,a0,zero

00103f5c <i000000088f>:
  103f5c:	41c6d333          	sra	t1,a3,t3

00103f60 <i0000000890>:
  103f60:	07643b37          	lui	s6,0x7643

00103f64 <i0000000891>:
  103f64:	35411b03          	lh	s6,852(sp)

00103f68 <i0000000892>:
  103f68:	d2363f13          	sltiu	t5,a2,-733

00103f6c <i0000000893>:
  103f6c:	01e05b33          	srl	s6,zero,t5

00103f70 <i0000000894>:
  103f70:	5aa15803          	lhu	a6,1450(sp)

00103f74 <i0000000895>:
  103f74:	df415f03          	lhu	t5,-524(sp)

00103f78 <i0000000896>:
  103f78:	056104a3          	sb	s6,73(sp)

00103f7c <i0000000897>:
  103f7c:	0d384f13          	xor	t5,a6,211

00103f80 <i0000000898>:
  103f80:	000b5b33          	srl	s6,s6,zero

00103f84 <i0000000899>:
  103f84:	efc11483          	lh	s1,-260(sp)

00103f88 <i000000089a>:
  103f88:	47614f03          	lbu	t5,1142(sp)

00103f8c <i000000089b>:
  103f8c:	13812203          	lw	tp,312(sp)

00103f90 <i000000089c>:
  103f90:	eca10d23          	sb	a0,-294(sp)

00103f94 <b000000089d>:
  103f94:	00000c97          	auipc	s9,0x0
  103f98:	054c8c93          	add	s9,s9,84 # 103fe8 <i00000008aa>
  103f9c:	000c8567          	jalr	a0,s9

00103fa0 <i000000089d>:
  103fa0:	a7110323          	sb	a7,-1434(sp)

00103fa4 <i000000089e>:
  103fa4:	4176db33          	sra	s6,a3,s7

00103fa8 <i000000089f>:
  103fa8:	41b85a93          	sra	s5,a6,0x1b

00103fac <i00000008a0>:
  103fac:	5df007b7          	lui	a5,0x5df00

00103fb0 <i00000008a1>:
  103fb0:	4103dcb3          	sra	s9,t2,a6

00103fb4 <i00000008a2>:
  103fb4:	01951013          	sll	zero,a0,0x19

00103fb8 <i00000008a3>:
  103fb8:	0143a033          	slt	zero,t2,s4

00103fbc <i00000008a4>:
  103fbc:	392012b7          	lui	t0,0x39201
  103fc0:	0000b117          	auipc	sp,0xb
  103fc4:	14010113          	add	sp,sp,320 # 10f100 <mem>
  103fc8:	0004a337          	lui	t1,0x4a
  103fcc:	91830313          	add	t1,t1,-1768 # 49918 <tohost+0x29910>
  103fd0:	00610133          	add	sp,sp,t1

00103fd4 <i00000008a5>:
  103fd4:	ae810823          	sb	s0,-1296(sp)

00103fd8 <i00000008a6>:
  103fd8:	40305b13          	sra	s6,zero,0x3

00103fdc <i00000008a7>:
  103fdc:	8ff53b13          	sltiu	s6,a0,-1793

00103fe0 <i00000008a8>:
  103fe0:	400b5633          	sra	a2,s6,zero

00103fe4 <i00000008a9>:
  103fe4:	0032cb33          	xor	s6,t0,gp

00103fe8 <i00000008aa>:
  103fe8:	5c1e2b93          	slti	s7,t3,1473

00103fec <i00000008ab>:
  103fec:	c88b6013          	or	zero,s6,-888

00103ff0 <i00000008ac>:
  103ff0:	35d12c23          	sw	t4,856(sp)

00103ff4 <i00000008ad>:
  103ff4:	000f68b3          	or	a7,t5,zero
  103ff8:	0000b117          	auipc	sp,0xb
  103ffc:	10810113          	add	sp,sp,264 # 10f100 <mem>
  104000:	00011337          	lui	t1,0x11
  104004:	b6030313          	add	t1,t1,-1184 # 10b60 <_stack_len+0x8b60>
  104008:	00610133          	add	sp,sp,t1

0010400c <i00000008ae>:
  10400c:	30812483          	lw	s1,776(sp)

00104010 <i00000008af>:
  104010:	33006b17          	auipc	s6,0x33006

00104014 <b00000008b0>:
  104014:	0340056f          	jal	a0,104048 <i00000008b7>
  104018:	0000b117          	auipc	sp,0xb
  10401c:	0e810113          	add	sp,sp,232 # 10f100 <mem>
  104020:	00021337          	lui	t1,0x21
  104024:	6e830313          	add	t1,t1,1768 # 216e8 <tohost+0x16e0>
  104028:	00610133          	add	sp,sp,t1

0010402c <i00000008b0>:
  10402c:	16010b03          	lb	s6,352(sp)

00104030 <i00000008b1>:
  104030:	bbf02593          	slti	a1,zero,-1089

00104034 <i00000008b2>:
  104034:	005ab233          	sltu	tp,s5,t0

00104038 <i00000008b3>:
  104038:	40368ab3          	sub	s5,a3,gp

0010403c <i00000008b4>:
  10403c:	87c12623          	sw	t3,-1940(sp)

00104040 <i00000008b5>:
  104040:	c7814003          	lbu	zero,-904(sp)

00104044 <i00000008b6>:
  104044:	016b6333          	or	t1,s6,s6

00104048 <i00000008b7>:
  104048:	011bd2b3          	srl	t0,s7,a7

0010404c <i00000008b8>:
  10404c:	010cb233          	sltu	tp,s9,a6

00104050 <i00000008b9>:
