
ibex/examples/sw/simple_system/custom/aapg_test.elf:     file format elf32-littleriscv


Disassembly of section .vectors:

00100000 <_vectors_start>:
  100000:	43d0e06f          	j	10ec3c <default_exc_handler>
  100004:	4390e06f          	j	10ec3c <default_exc_handler>
  100008:	4350e06f          	j	10ec3c <default_exc_handler>
  10000c:	4310e06f          	j	10ec3c <default_exc_handler>
  100010:	42d0e06f          	j	10ec3c <default_exc_handler>
  100014:	4290e06f          	j	10ec3c <default_exc_handler>
  100018:	4250e06f          	j	10ec3c <default_exc_handler>
  10001c:	4250e06f          	j	10ec40 <timer_handler>
  100020:	41d0e06f          	j	10ec3c <default_exc_handler>
  100024:	4190e06f          	j	10ec3c <default_exc_handler>
  100028:	4150e06f          	j	10ec3c <default_exc_handler>
  10002c:	4110e06f          	j	10ec3c <default_exc_handler>
  100030:	40d0e06f          	j	10ec3c <default_exc_handler>
  100034:	4090e06f          	j	10ec3c <default_exc_handler>
  100038:	4050e06f          	j	10ec3c <default_exc_handler>
  10003c:	4010e06f          	j	10ec3c <default_exc_handler>
  100040:	3fd0e06f          	j	10ec3c <default_exc_handler>
  100044:	3f90e06f          	j	10ec3c <default_exc_handler>
  100048:	3f50e06f          	j	10ec3c <default_exc_handler>
  10004c:	3f10e06f          	j	10ec3c <default_exc_handler>
  100050:	3ed0e06f          	j	10ec3c <default_exc_handler>
  100054:	3e90e06f          	j	10ec3c <default_exc_handler>
  100058:	3e50e06f          	j	10ec3c <default_exc_handler>
  10005c:	3e10e06f          	j	10ec3c <default_exc_handler>
  100060:	3dd0e06f          	j	10ec3c <default_exc_handler>
  100064:	3d90e06f          	j	10ec3c <default_exc_handler>
  100068:	3d50e06f          	j	10ec3c <default_exc_handler>
  10006c:	3d10e06f          	j	10ec3c <default_exc_handler>
  100070:	3cd0e06f          	j	10ec3c <default_exc_handler>
  100074:	3c90e06f          	j	10ec3c <default_exc_handler>
  100078:	3c50e06f          	j	10ec3c <default_exc_handler>
  10007c:	0000                	.2byte	0x0
  10007e:	0000                	.2byte	0x0
  100080:	3c50e06f          	j	10ec44 <reset_handler>

Disassembly of section .text:

00100090 <custom_trap_handler_s>:
  100090:	f6010113          	add	sp,sp,-160
  100094:	00112223          	sw	ra,4(sp)
  100098:	00312623          	sw	gp,12(sp)
  10009c:	00412823          	sw	tp,16(sp)
  1000a0:	00512a23          	sw	t0,20(sp)
  1000a4:	00612c23          	sw	t1,24(sp)
  1000a8:	00712e23          	sw	t2,28(sp)
  1000ac:	02812023          	sw	s0,32(sp)
  1000b0:	02912223          	sw	s1,36(sp)
  1000b4:	02a12423          	sw	a0,40(sp)
  1000b8:	02b12623          	sw	a1,44(sp)
  1000bc:	02c12823          	sw	a2,48(sp)
  1000c0:	02d12a23          	sw	a3,52(sp)
  1000c4:	02e12c23          	sw	a4,56(sp)
  1000c8:	02f12e23          	sw	a5,60(sp)
  1000cc:	05012023          	sw	a6,64(sp)
  1000d0:	05112223          	sw	a7,68(sp)
  1000d4:	05212423          	sw	s2,72(sp)
  1000d8:	05312623          	sw	s3,76(sp)
  1000dc:	05412823          	sw	s4,80(sp)
  1000e0:	05512a23          	sw	s5,84(sp)
  1000e4:	05612c23          	sw	s6,88(sp)
  1000e8:	05712e23          	sw	s7,92(sp)
  1000ec:	07812023          	sw	s8,96(sp)
  1000f0:	07912223          	sw	s9,100(sp)
  1000f4:	07a12423          	sw	s10,104(sp)
  1000f8:	07b12623          	sw	s11,108(sp)
  1000fc:	07c12823          	sw	t3,112(sp)
  100100:	07d12a23          	sw	t4,116(sp)
  100104:	07e12c23          	sw	t5,120(sp)
  100108:	07f12e23          	sw	t6,124(sp)
  10010c:	10002573          	csrr	a0,sstatus
  100110:	14102573          	csrr	a0,sepc
  100114:	10502573          	csrr	a0,stvec
  100118:	14202573          	csrr	a0,scause
  10011c:	00000613          	li	a2,0
  100120:	00c50863          	beq	a0,a2,100130 <custom_trap_handler_s+0xa0>
  100124:	00100613          	li	a2,1
  100128:	00c50463          	beq	a0,a2,100130 <custom_trap_handler_s+0xa0>
  10012c:	141025f3          	csrr	a1,sepc
  100130:	00059603          	lh	a2,0(a1)
  100134:	00367613          	and	a2,a2,3
  100138:	00300293          	li	t0,3
  10013c:	00561663          	bne	a2,t0,100148 <inst16_s>

00100140 <inst32_s>:
  100140:	00458593          	add	a1,a1,4
  100144:	00000463          	beqz	zero,10014c <inst16_s+0x4>

00100148 <inst16_s>:
  100148:	00258593          	add	a1,a1,2
  10014c:	14159073          	csrw	sepc,a1
  100150:	00412083          	lw	ra,4(sp)
  100154:	00c12183          	lw	gp,12(sp)
  100158:	01012203          	lw	tp,16(sp)
  10015c:	01412283          	lw	t0,20(sp)
  100160:	01812303          	lw	t1,24(sp)
  100164:	01c12383          	lw	t2,28(sp)
  100168:	02012403          	lw	s0,32(sp)
  10016c:	02412483          	lw	s1,36(sp)
  100170:	02812503          	lw	a0,40(sp)
  100174:	02c12583          	lw	a1,44(sp)
  100178:	03012603          	lw	a2,48(sp)
  10017c:	03412683          	lw	a3,52(sp)
  100180:	03812703          	lw	a4,56(sp)
  100184:	03c12783          	lw	a5,60(sp)
  100188:	04012803          	lw	a6,64(sp)
  10018c:	04412883          	lw	a7,68(sp)
  100190:	04812903          	lw	s2,72(sp)
  100194:	04c12983          	lw	s3,76(sp)
  100198:	05012a03          	lw	s4,80(sp)
  10019c:	05412a83          	lw	s5,84(sp)
  1001a0:	05812b03          	lw	s6,88(sp)
  1001a4:	05c12b83          	lw	s7,92(sp)
  1001a8:	06012c03          	lw	s8,96(sp)
  1001ac:	06412c83          	lw	s9,100(sp)
  1001b0:	06812d03          	lw	s10,104(sp)
  1001b4:	06c12d83          	lw	s11,108(sp)
  1001b8:	07012e03          	lw	t3,112(sp)
  1001bc:	07412e83          	lw	t4,116(sp)
  1001c0:	07812f03          	lw	t5,120(sp)
  1001c4:	07c12f83          	lw	t6,124(sp)
  1001c8:	0a010113          	add	sp,sp,160
  1001cc:	10200073          	sret

001001d0 <custom_trap_handler>:
  1001d0:	f6010113          	add	sp,sp,-160
  1001d4:	00112223          	sw	ra,4(sp)
  1001d8:	00312623          	sw	gp,12(sp)
  1001dc:	00412823          	sw	tp,16(sp)
  1001e0:	00512a23          	sw	t0,20(sp)
  1001e4:	00612c23          	sw	t1,24(sp)
  1001e8:	00712e23          	sw	t2,28(sp)
  1001ec:	02812023          	sw	s0,32(sp)
  1001f0:	02912223          	sw	s1,36(sp)
  1001f4:	02a12423          	sw	a0,40(sp)
  1001f8:	02b12623          	sw	a1,44(sp)
  1001fc:	02c12823          	sw	a2,48(sp)
  100200:	02d12a23          	sw	a3,52(sp)
  100204:	02e12c23          	sw	a4,56(sp)
  100208:	02f12e23          	sw	a5,60(sp)
  10020c:	05012023          	sw	a6,64(sp)
  100210:	05112223          	sw	a7,68(sp)
  100214:	05212423          	sw	s2,72(sp)
  100218:	05312623          	sw	s3,76(sp)
  10021c:	05412823          	sw	s4,80(sp)
  100220:	05512a23          	sw	s5,84(sp)
  100224:	05612c23          	sw	s6,88(sp)
  100228:	05712e23          	sw	s7,92(sp)
  10022c:	07812023          	sw	s8,96(sp)
  100230:	07912223          	sw	s9,100(sp)
  100234:	07a12423          	sw	s10,104(sp)
  100238:	07b12623          	sw	s11,108(sp)
  10023c:	07c12823          	sw	t3,112(sp)
  100240:	07d12a23          	sw	t4,116(sp)
  100244:	07e12c23          	sw	t5,120(sp)
  100248:	07f12e23          	sw	t6,124(sp)
  10024c:	30002573          	csrr	a0,mstatus
  100250:	34102573          	csrr	a0,mepc
  100254:	30502573          	csrr	a0,mtvec
  100258:	34202573          	csrr	a0,mcause
  10025c:	00000613          	li	a2,0
  100260:	00c50863          	beq	a0,a2,100270 <custom_trap_handler+0xa0>
  100264:	00100613          	li	a2,1
  100268:	00c50463          	beq	a0,a2,100270 <custom_trap_handler+0xa0>
  10026c:	341025f3          	csrr	a1,mepc
  100270:	00059603          	lh	a2,0(a1)
  100274:	00367613          	and	a2,a2,3
  100278:	00300293          	li	t0,3
  10027c:	00561663          	bne	a2,t0,100288 <inst16>

00100280 <inst32>:
  100280:	00458593          	add	a1,a1,4
  100284:	00000463          	beqz	zero,10028c <inst16+0x4>

00100288 <inst16>:
  100288:	00258593          	add	a1,a1,2
  10028c:	34159073          	csrw	mepc,a1
  100290:	00412083          	lw	ra,4(sp)
  100294:	00c12183          	lw	gp,12(sp)
  100298:	01012203          	lw	tp,16(sp)
  10029c:	01412283          	lw	t0,20(sp)
  1002a0:	01812303          	lw	t1,24(sp)
  1002a4:	01c12383          	lw	t2,28(sp)
  1002a8:	02012403          	lw	s0,32(sp)
  1002ac:	02412483          	lw	s1,36(sp)
  1002b0:	02812503          	lw	a0,40(sp)
  1002b4:	02c12583          	lw	a1,44(sp)
  1002b8:	03012603          	lw	a2,48(sp)
  1002bc:	03412683          	lw	a3,52(sp)
  1002c0:	03812703          	lw	a4,56(sp)
  1002c4:	03c12783          	lw	a5,60(sp)
  1002c8:	04012803          	lw	a6,64(sp)
  1002cc:	04412883          	lw	a7,68(sp)
  1002d0:	04812903          	lw	s2,72(sp)
  1002d4:	04c12983          	lw	s3,76(sp)
  1002d8:	05012a03          	lw	s4,80(sp)
  1002dc:	05412a83          	lw	s5,84(sp)
  1002e0:	05812b03          	lw	s6,88(sp)
  1002e4:	05c12b83          	lw	s7,92(sp)
  1002e8:	06012c03          	lw	s8,96(sp)
  1002ec:	06412c83          	lw	s9,100(sp)
  1002f0:	06812d03          	lw	s10,104(sp)
  1002f4:	06c12d83          	lw	s11,108(sp)
  1002f8:	07012e03          	lw	t3,112(sp)
  1002fc:	07412e83          	lw	t4,116(sp)
  100300:	07812f03          	lw	t5,120(sp)
  100304:	07c12f83          	lw	t6,124(sp)
  100308:	0a010113          	add	sp,sp,160
  10030c:	30200073          	mret

00100310 <func1>:
  100310:	00000033          	add	zero,zero,zero
  100314:	00008067          	ret
  100318:	00000013          	nop
  10031c:	00000013          	nop

00100320 <main>:
  100320:	00000033          	add	zero,zero,zero
  100324:	0000f117          	auipc	sp,0xf
  100328:	ddc10113          	add	sp,sp,-548 # 10f100 <mem>
  10032c:	00065337          	lui	t1,0x65
  100330:	7b030313          	add	t1,t1,1968 # 657b0 <tohost+0x457a8>
  100334:	00610133          	add	sp,sp,t1

00100338 <i0000000000>:
  100338:	00a00d13          	li	s10,10

0010033c <i0000000001>:
  10033c:	0044f633          	and	a2,s1,tp

00100340 <i0000000002>:
  100340:	0e234917          	auipc	s2,0xe234

00100344 <i0000000003>:
  100344:	a5411823          	sh	s4,-1456(sp)

00100348 <i0000000004>:
  100348:	016f0533          	add	a0,t5,s6

0010034c <i0000000005>:
  10034c:	495c7e97          	auipc	t4,0x495c7
  100350:	0000f117          	auipc	sp,0xf
  100354:	db010113          	add	sp,sp,-592 # 10f100 <mem>
  100358:	0002c337          	lui	t1,0x2c
  10035c:	e4030313          	add	t1,t1,-448 # 2be40 <tohost+0xbe38>
  100360:	00610133          	add	sp,sp,t1

00100364 <i0000000006>:
  100364:	31a11703          	lh	a4,794(sp)

00100368 <i0000000007>:
  100368:	00a70f33          	add	t5,a4,a0

0010036c <i0000000008>:
  10036c:	34810483          	lb	s1,840(sp)

00100370 <i0000000009>:
  100370:	f4615b03          	lhu	s6,-186(sp)

00100374 <i000000000a>:
  100374:	3a215203          	lhu	tp,930(sp)

00100378 <i000000000b>:
  100378:	13b12223          	sw	s11,292(sp)

0010037c <i000000000c>:
  10037c:	06211b03          	lh	s6,98(sp)

00100380 <i000000000d>:
  100380:	007d87b3          	add	a5,s11,t2

00100384 <i000000000e>:
  100384:	40a782b3          	sub	t0,a5,a0

00100388 <i000000000f>:
  100388:	15780d97          	auipc	s11,0x15780

0010038c <i0000000010>:
  10038c:	016658b3          	srl	a7,a2,s6

00100390 <i0000000011>:
  100390:	5ab12fb7          	lui	t6,0x5ab12

00100394 <i0000000012>:
  100394:	ff615783          	lhu	a5,-10(sp)

00100398 <i0000000013>:
  100398:	40d5df33          	sra	t5,a1,a3
  10039c:	00c00c93          	li	s9,12
  1003a0:	001d0d13          	add	s10,s10,1

001003a4 <b0000000014>:
  1003a4:	00000033          	add	zero,zero,zero
  1003a8:	fd9d40e3          	blt	s10,s9,100368 <i0000000007>
  1003ac:	00000033          	add	zero,zero,zero
  1003b0:	00a00d13          	li	s10,10

001003b4 <i0000000014>:
  1003b4:	01501b33          	sll	s6,zero,s5

001003b8 <i0000000015>:
  1003b8:	07914003          	lbu	zero,121(sp)

001003bc <i0000000016>:
  1003bc:	01df0033          	add	zero,t5,t4

001003c0 <i0000000017>:
  1003c0:	6ee15583          	lhu	a1,1774(sp)

001003c4 <i0000000018>:
  1003c4:	41b252b3          	sra	t0,tp,s11

001003c8 <i0000000019>:
  1003c8:	37614c03          	lbu	s8,886(sp)
  1003cc:	0000f117          	auipc	sp,0xf
  1003d0:	d3410113          	add	sp,sp,-716 # 10f100 <mem>
  1003d4:	00021337          	lui	t1,0x21
  1003d8:	6c030313          	add	t1,t1,1728 # 216c0 <tohost+0x16b8>
  1003dc:	00610133          	add	sp,sp,t1

001003e0 <i000000001a>:
  1003e0:	22b10b03          	lb	s6,555(sp)

001003e4 <i000000001b>:
  1003e4:	4e011723          	sh	zero,1262(sp)

001003e8 <i000000001c>:
  1003e8:	c2e10603          	lb	a2,-978(sp)

001003ec <i000000001d>:
  1003ec:	57710023          	sb	s7,1376(sp)

001003f0 <i000000001e>:
  1003f0:	015c9233          	sll	tp,s9,s5

001003f4 <i000000001f>:
  1003f4:	001b5513          	srl	a0,s6,0x1

001003f8 <i0000000020>:
  1003f8:	01602f33          	sgtz	t5,s6

001003fc <i0000000021>:
  1003fc:	41e05f33          	sra	t5,zero,t5

00100400 <i0000000022>:
  100400:	000b6f33          	or	t5,s6,zero

00100404 <i0000000023>:
  100404:	1d2da517          	auipc	a0,0x1d2da

00100408 <i0000000024>:
  100408:	41e787b3          	sub	a5,a5,t5

0010040c <i0000000025>:
  10040c:	00539393          	sll	t2,t2,0x5
  100410:	0000f117          	auipc	sp,0xf
  100414:	cf010113          	add	sp,sp,-784 # 10f100 <mem>
  100418:	00006337          	lui	t1,0x6
  10041c:	5d030313          	add	t1,t1,1488 # 65d0 <_min_stack+0x45d0>
  100420:	00610133          	add	sp,sp,t1

00100424 <i0000000026>:
  100424:	71611c23          	sh	s6,1816(sp)
  100428:	00c00c13          	li	s8,12
  10042c:	001d0d13          	add	s10,s10,1

00100430 <b0000000027>:
  100430:	018d0463          	beq	s10,s8,100438 <b0000000027+0x8>
  100434:	fb9ff56f          	jal	a0,1003ec <i000000001d>
  100438:	00a00d13          	li	s10,10

0010043c <i0000000027>:
  10043c:	56414a03          	lbu	s4,1380(sp)

00100440 <i0000000028>:
  100440:	005573b3          	and	t2,a0,t0

00100444 <i0000000029>:
  100444:	00a7cf33          	xor	t5,a5,a0
  100448:	0000f117          	auipc	sp,0xf
  10044c:	cb810113          	add	sp,sp,-840 # 10f100 <mem>
  100450:	0004c337          	lui	t1,0x4c
  100454:	d0830313          	add	t1,t1,-760 # 4bd08 <tohost+0x2bd00>
  100458:	00610133          	add	sp,sp,t1

0010045c <i000000002a>:
  10045c:	17c11823          	sh	t3,368(sp)

00100460 <i000000002b>:
  100460:	40ec89b3          	sub	s3,s9,a4

00100464 <i000000002c>:
  100464:	40cf0233          	sub	tp,t5,a2

00100468 <i000000002d>:
  100468:	3a4c3493          	sltiu	s1,s8,932

0010046c <i000000002e>:
  10046c:	27e11203          	lh	tp,638(sp)

00100470 <i000000002f>:
  100470:	40ff0233          	sub	tp,t5,a5

00100474 <i0000000030>:
  100474:	8a014f03          	lbu	t5,-1888(sp)

00100478 <i0000000031>:
  100478:	44dcdfb7          	lui	t6,0x44dcd

0010047c <i0000000032>:
  10047c:	c1d6a213          	slti	tp,a3,-995

00100480 <i0000000033>:
  100480:	01d49533          	sll	a0,s1,t4

00100484 <i0000000034>:
  100484:	01849413          	sll	s0,s1,0x18

00100488 <i0000000035>:
  100488:	019f5593          	srl	a1,t5,0x19

0010048c <i0000000036>:
  10048c:	4ca11623          	sh	a0,1228(sp)

00100490 <i0000000037>:
  100490:	e5011e23          	sh	a6,-420(sp)

00100494 <i0000000038>:
  100494:	d0812b03          	lw	s6,-760(sp)

00100498 <i0000000039>:
  100498:	4011db13          	sra	s6,gp,0x1
  10049c:	00900893          	li	a7,9

001004a0 <b000000003a>:
  1004a0:	00000033          	add	zero,zero,zero
  1004a4:	fda8dce3          	bge	a7,s10,10047c <i0000000032>
  1004a8:	00000033          	add	zero,zero,zero
  1004ac:	00a00d13          	li	s10,10

001004b0 <i000000003a>:
  1004b0:	48e10b83          	lb	s7,1166(sp)

001004b4 <i000000003b>:
  1004b4:	56222513          	slti	a0,tp,1378

001004b8 <i000000003c>:
  1004b8:	43012203          	lw	tp,1072(sp)

001004bc <i000000003d>:
  1004bc:	10411423          	sh	tp,264(sp)

001004c0 <i000000003e>:
  1004c0:	00689c93          	sll	s9,a7,0x6
  1004c4:	0000f117          	auipc	sp,0xf
  1004c8:	c3c10113          	add	sp,sp,-964 # 10f100 <mem>
  1004cc:	00034337          	lui	t1,0x34
  1004d0:	3e030313          	add	t1,t1,992 # 343e0 <tohost+0x143d8>
  1004d4:	00610133          	add	sp,sp,t1

001004d8 <i000000003f>:
  1004d8:	8f215f03          	lhu	t5,-1806(sp)

001004dc <i0000000040>:
  1004dc:	c3414f03          	lbu	t5,-972(sp)

001004e0 <i0000000041>:
  1004e0:	00456b33          	or	s6,a0,tp

001004e4 <i0000000042>:
  1004e4:	b32b4013          	xor	zero,s6,-1230

001004e8 <i0000000043>:
  1004e8:	0a9e9597          	auipc	a1,0xa9e9

001004ec <i0000000044>:
  1004ec:	84611503          	lh	a0,-1978(sp)

001004f0 <i0000000045>:
  1004f0:	00a7a533          	slt	a0,a5,a0

001004f4 <i0000000046>:
  1004f4:	25815f83          	lhu	t6,600(sp)

001004f8 <i0000000047>:
  1004f8:	4e211803          	lh	a6,1250(sp)

001004fc <i0000000048>:
  1004fc:	e8e33013          	sltiu	zero,t1,-370

00100500 <i0000000049>:
  100500:	4ea12a23          	sw	a0,1268(sp)

00100504 <i000000004a>:
  100504:	121b8f37          	lui	t5,0x121b8
  100508:	0000f117          	auipc	sp,0xf
  10050c:	bf810113          	add	sp,sp,-1032 # 10f100 <mem>
  100510:	00007337          	lui	t1,0x7
  100514:	e3030313          	add	t1,t1,-464 # 6e30 <_min_stack+0x4e30>
  100518:	00610133          	add	sp,sp,t1

0010051c <i000000004b>:
  10051c:	66614503          	lbu	a0,1638(sp)

00100520 <i000000004c>:
  100520:	0d4b6b13          	or	s6,s6,212
  100524:	00b00e13          	li	t3,11
  100528:	00a00d13          	li	s10,10

0010052c <b000000004d>:
  10052c:	00000033          	add	zero,zero,zero
  100530:	03ae5463          	bge	t3,s10,100558 <i0000000054>
  100534:	00000033          	add	zero,zero,zero
  100538:	00a00d13          	li	s10,10

0010053c <i000000004d>:
  10053c:	40450b33          	sub	s6,a0,tp

00100540 <i000000004e>:
  100540:	009b5693          	srl	a3,s6,0x9

00100544 <i000000004f>:
  100544:	eda11883          	lh	a7,-294(sp)

00100548 <i0000000050>:
  100548:	cc411f03          	lh	t5,-828(sp)

0010054c <i0000000051>:
  10054c:	b3c10f03          	lb	t5,-1220(sp)

00100550 <i0000000052>:
  100550:	b9f03213          	sltiu	tp,zero,-1121

00100554 <i0000000053>:
  100554:	99e14003          	lbu	zero,-1634(sp)

00100558 <i0000000054>:
  100558:	00d42533          	slt	a0,s0,a3

0010055c <i0000000055>:
  10055c:	008b1b13          	sll	s6,s6,0x8

00100560 <i0000000056>:
  100560:	37211003          	lh	zero,882(sp)

00100564 <i0000000057>:
  100564:	a0e11703          	lh	a4,-1522(sp)

00100568 <i0000000058>:
  100568:	8b110fa3          	sb	a7,-1857(sp)

0010056c <i0000000059>:
  10056c:	00fd8f33          	add	t5,s11,a5

00100570 <i000000005a>:
  100570:	e5412383          	lw	t2,-428(sp)

00100574 <i000000005b>:
  100574:	017c6933          	or	s2,s8,s7

00100578 <i000000005c>:
  100578:	7bc11223          	sh	t3,1956(sp)

0010057c <i000000005d>:
  10057c:	a374a513          	slti	a0,s1,-1481

00100580 <i000000005e>:
  100580:	06006e13          	or	t3,zero,96
  100584:	0000f117          	auipc	sp,0xf
  100588:	b7c10113          	add	sp,sp,-1156 # 10f100 <mem>
  10058c:	0000e337          	lui	t1,0xe
  100590:	67030313          	add	t1,t1,1648 # e670 <_stack_len+0x6670>
  100594:	00610133          	add	sp,sp,t1

00100598 <i000000005f>:
  100598:	03215583          	lhu	a1,50(sp)
  10059c:	00900f93          	li	t6,9

001005a0 <b0000000060>:
  1005a0:	00000033          	add	zero,zero,zero
  1005a4:	fbfd4ee3          	blt	s10,t6,100560 <i0000000056>
  1005a8:	00000033          	add	zero,zero,zero
  1005ac:	00a00d13          	li	s10,10

001005b0 <i0000000060>:
  1005b0:	8b1f2213          	slti	tp,t5,-1871
  1005b4:	0000f117          	auipc	sp,0xf
  1005b8:	b4c10113          	add	sp,sp,-1204 # 10f100 <mem>
  1005bc:	0004c337          	lui	t1,0x4c
  1005c0:	60030313          	add	t1,t1,1536 # 4c600 <tohost+0x2c5f8>
  1005c4:	00610133          	add	sp,sp,t1

001005c8 <i0000000061>:
  1005c8:	68e15f83          	lhu	t6,1678(sp)

001005cc <i0000000062>:
  1005cc:	fc7e8213          	add	tp,t4,-57 # 496c7313 <fromhost+0x4953f303>

001005d0 <i0000000063>:
  1005d0:	858b7c93          	and	s9,s6,-1960

001005d4 <i0000000064>:
  1005d4:	efe11a23          	sh	t5,-268(sp)

001005d8 <i0000000065>:
  1005d8:	1ae11b03          	lh	s6,430(sp)

001005dc <i0000000066>:
  1005dc:	1fc15b83          	lhu	s7,508(sp)

001005e0 <i0000000067>:
  1005e0:	01359233          	sll	tp,a1,s3
  1005e4:	0000f117          	auipc	sp,0xf
  1005e8:	b1c10113          	add	sp,sp,-1252 # 10f100 <mem>
  1005ec:	00056337          	lui	t1,0x56
  1005f0:	bf030313          	add	t1,t1,-1040 # 55bf0 <tohost+0x35be8>
  1005f4:	00610133          	add	sp,sp,t1

001005f8 <i0000000068>:
  1005f8:	1ce12823          	sw	a4,464(sp)

001005fc <i0000000069>:
  1005fc:	0f015483          	lhu	s1,240(sp)

00100600 <i000000006a>:
  100600:	dd922213          	slti	tp,tp,-551

00100604 <i000000006b>:
  100604:	0dc14203          	lbu	tp,220(sp)

00100608 <i000000006c>:
  100608:	40af0333          	sub	t1,t5,a0

0010060c <i000000006d>:
  10060c:	00785513          	srl	a0,a6,0x7

00100610 <i000000006e>:
  100610:	01fce033          	or	zero,s9,t6

00100614 <i000000006f>:
  100614:	78f0e017          	auipc	zero,0x78f0e

00100618 <i0000000070>:
  100618:	0de14903          	lbu	s2,222(sp)

0010061c <i0000000071>:
  10061c:	dbd10623          	sb	t4,-596(sp)

00100620 <i0000000072>:
  100620:	3f214a83          	lbu	s5,1010(sp)

00100624 <b0000000073>:
  100624:	00000817          	auipc	a6,0x0
  100628:	03080813          	add	a6,a6,48 # 100654 <i000000007c>
  10062c:	00080567          	jalr	a0,a6

00100630 <i0000000073>:
  100630:	7f912823          	sw	s9,2032(sp)

00100634 <i0000000074>:
  100634:	98612a23          	sw	t1,-1644(sp)

00100638 <i0000000075>:
  100638:	0e10e397          	auipc	t2,0xe10e

0010063c <i0000000076>:
  10063c:	00a52f33          	slt	t5,a0,a0

00100640 <i0000000077>:
  100640:	3b914b03          	lbu	s6,953(sp)

00100644 <i0000000078>:
  100644:	000b44b3          	xor	s1,s6,zero

00100648 <i0000000079>:
  100648:	2de11f03          	lh	t5,734(sp)

0010064c <i000000007a>:
  10064c:	dd812f83          	lw	t6,-552(sp)

00100650 <i000000007b>:
  100650:	41620333          	sub	t1,tp,s6

00100654 <i000000007c>:
  100654:	49e11f23          	sh	t5,1182(sp)

00100658 <i000000007d>:
  100658:	93e10fa3          	sb	t5,-1729(sp)

0010065c <i000000007e>:
  10065c:	c3b70993          	add	s3,a4,-965
  100660:	0000f117          	auipc	sp,0xf
  100664:	aa010113          	add	sp,sp,-1376 # 10f100 <mem>
  100668:	0000f337          	lui	t1,0xf
  10066c:	f3030313          	add	t1,t1,-208 # ef30 <_stack_len+0x6f30>
  100670:	00610133          	add	sp,sp,t1

00100674 <i000000007f>:
  100674:	6b615b83          	lhu	s7,1718(sp)

00100678 <i0000000080>:
  100678:	62a68893          	add	a7,a3,1578

0010067c <i0000000081>:
  10067c:	006bd013          	srl	zero,s7,0x6

00100680 <i0000000082>:
  100680:	13812503          	lw	a0,312(sp)

00100684 <i0000000083>:
  100684:	01e20f33          	add	t5,tp,t5

00100688 <i0000000084>:
  100688:	68a12023          	sw	a0,1664(sp)

0010068c <i0000000085>:
  10068c:	01275b33          	srl	s6,a4,s2
  100690:	00c00a13          	li	s4,12
  100694:	001d0d13          	add	s10,s10,1

00100698 <b0000000086>:
  100698:	00000033          	add	zero,zero,zero
  10069c:	fdaa50e3          	bge	s4,s10,10065c <i000000007e>
  1006a0:	00000033          	add	zero,zero,zero
  1006a4:	00a00d13          	li	s10,10

001006a8 <i0000000086>:
  1006a8:	2b010c03          	lb	s8,688(sp)

001006ac <i0000000087>:
  1006ac:	5e714503          	lbu	a0,1511(sp)

001006b0 <i0000000088>:
  1006b0:	124d0697          	auipc	a3,0x124d0

001006b4 <i0000000089>:
  1006b4:	9fe15c03          	lhu	s8,-1538(sp)

001006b8 <i000000008a>:
  1006b8:	a9611b23          	sh	s6,-1386(sp)

001006bc <i000000008b>:
  1006bc:	dcf30213          	add	tp,t1,-561

001006c0 <i000000008c>:
  1006c0:	16c12603          	lw	a2,364(sp)

001006c4 <i000000008d>:
  1006c4:	00e59513          	sll	a0,a1,0xe

001006c8 <i000000008e>:
  1006c8:	f021e893          	or	a7,gp,-254

001006cc <i000000008f>:
  1006cc:	41e002b3          	neg	t0,t5

001006d0 <i0000000090>:
  1006d0:	00021933          	sll	s2,tp,zero

001006d4 <i0000000091>:
  1006d4:	00a56933          	or	s2,a0,a0

001006d8 <i0000000092>:
  1006d8:	275d8893          	add	a7,s11,629 # 158805fd <fromhost+0x156f85ed>

001006dc <i0000000093>:
  1006dc:	00701013          	sll	zero,zero,0x7
  1006e0:	0000f117          	auipc	sp,0xf
  1006e4:	a2010113          	add	sp,sp,-1504 # 10f100 <mem>
  1006e8:	0003a337          	lui	t1,0x3a
  1006ec:	8d830313          	add	t1,t1,-1832 # 398d8 <tohost+0x198d0>
  1006f0:	00610133          	add	sp,sp,t1

001006f4 <i0000000094>:
  1006f4:	90011203          	lh	tp,-1792(sp)

001006f8 <i0000000095>:
  1006f8:	0175dc33          	srl	s8,a1,s7

001006fc <i0000000096>:
  1006fc:	05210623          	sb	s2,76(sp)

00100700 <i0000000097>:
  100700:	47e12623          	sw	t5,1132(sp)

00100704 <i0000000098>:
  100704:	03714503          	lbu	a0,55(sp)
  100708:	00c00893          	li	a7,12
  10070c:	001d0d13          	add	s10,s10,1

00100710 <b0000000099>:
  100710:	00000033          	add	zero,zero,zero
  100714:	fb1d44e3          	blt	s10,a7,1006bc <i000000008b>
  100718:	00000033          	add	zero,zero,zero
  10071c:	00a00d13          	li	s10,10

00100720 <i0000000099>:
  100720:	00405233          	srl	tp,zero,tp

00100724 <i000000009a>:
  100724:	01ef7733          	and	a4,t5,t5
  100728:	0000f117          	auipc	sp,0xf
  10072c:	9d810113          	add	sp,sp,-1576 # 10f100 <mem>
  100730:	00042337          	lui	t1,0x42
  100734:	34030313          	add	t1,t1,832 # 42340 <tohost+0x22338>
  100738:	00610133          	add	sp,sp,t1

0010073c <i000000009b>:
  10073c:	2cc15003          	lhu	zero,716(sp)

00100740 <i000000009c>:
  100740:	9dd14203          	lbu	tp,-1571(sp)

00100744 <i000000009d>:
  100744:	80c12783          	lw	a5,-2036(sp)

00100748 <i000000009e>:
  100748:	ff8103a3          	sb	s8,-25(sp)

0010074c <i000000009f>:
  10074c:	41600533          	neg	a0,s6

00100750 <i00000000a0>:
  100750:	3d58af13          	slti	t5,a7,981

00100754 <i00000000a1>:
  100754:	0ac3af37          	lui	t5,0xac3a

00100758 <i00000000a2>:
  100758:	cde10023          	sb	t5,-832(sp)

0010075c <i00000000a3>:
  10075c:	00b01513          	sll	a0,zero,0xb

00100760 <i00000000a4>:
  100760:	88e52013          	slti	zero,a0,-1906

00100764 <i00000000a5>:
  100764:	011ddcb3          	srl	s9,s11,a7
  100768:	0000f117          	auipc	sp,0xf
  10076c:	99810113          	add	sp,sp,-1640 # 10f100 <mem>
  100770:	0003c337          	lui	t1,0x3c
  100774:	04830313          	add	t1,t1,72 # 3c048 <tohost+0x1c040>
  100778:	00610133          	add	sp,sp,t1

0010077c <i00000000a6>:
  10077c:	43211283          	lh	t0,1074(sp)

00100780 <i00000000a7>:
  100780:	b1eb2913          	slti	s2,s6,-1250

00100784 <i00000000a8>:
  100784:	eca11223          	sh	a0,-316(sp)

00100788 <i00000000a9>:
  100788:	b3e11e23          	sh	t5,-1220(sp)

0010078c <i00000000aa>:
  10078c:	1a412823          	sw	tp,432(sp)

00100790 <i00000000ab>:
  100790:	70114703          	lbu	a4,1793(sp)
  100794:	00900813          	li	a6,9

00100798 <b00000000ac>:
  100798:	00000033          	add	zero,zero,zero
  10079c:	fb0d48e3          	blt	s10,a6,10074c <i000000009f>
  1007a0:	00000033          	add	zero,zero,zero
  1007a4:	00a00d13          	li	s10,10

001007a8 <i00000000ac>:
  1007a8:	00a54233          	xor	tp,a0,a0
  1007ac:	0000f117          	auipc	sp,0xf
  1007b0:	95410113          	add	sp,sp,-1708 # 10f100 <mem>
  1007b4:	00047337          	lui	t1,0x47
  1007b8:	14030313          	add	t1,t1,320 # 47140 <tohost+0x27138>
  1007bc:	00610133          	add	sp,sp,t1

001007c0 <i00000000ad>:
  1007c0:	29514003          	lbu	zero,661(sp)

001007c4 <i00000000ae>:
  1007c4:	9c412023          	sw	tp,-1600(sp)

001007c8 <i00000000af>:
  1007c8:	01364233          	xor	tp,a2,s3

001007cc <i00000000b0>:
  1007cc:	56411423          	sh	tp,1384(sp)

001007d0 <i00000000b1>:
  1007d0:	43450b13          	add	s6,a0,1076 # 1d3da838 <fromhost+0x1d252828>

001007d4 <i00000000b2>:
  1007d4:	5ea11223          	sh	a0,1508(sp)

001007d8 <i00000000b3>:
  1007d8:	f7815b03          	lhu	s6,-136(sp)

001007dc <i00000000b4>:
  1007dc:	016b0b33          	add	s6,s6,s6

001007e0 <i00000000b5>:
  1007e0:	41b9df33          	sra	t5,s3,s11

001007e4 <i00000000b6>:
  1007e4:	88611b03          	lh	s6,-1914(sp)

001007e8 <i00000000b7>:
  1007e8:	24215283          	lhu	t0,578(sp)

001007ec <i00000000b8>:
  1007ec:	416209b3          	sub	s3,tp,s6

001007f0 <i00000000b9>:
  1007f0:	3f39cd97          	auipc	s11,0x3f39c

001007f4 <i00000000ba>:
  1007f4:	37010f03          	lb	t5,880(sp)

001007f8 <i00000000bb>:
  1007f8:	05812423          	sw	s8,72(sp)

001007fc <i00000000bc>:
  1007fc:	bf310683          	lb	a3,-1037(sp)

00100800 <i00000000bd>:
  100800:	43e15f03          	lhu	t5,1086(sp)

00100804 <i00000000be>:
  100804:	01d9c5b3          	xor	a1,s3,t4

00100808 <b00000000bf>:
  100808:	0440056f          	jal	a0,10084c <i00000000ca>

0010080c <i00000000bf>:
  10080c:	295f6013          	or	zero,t5,661

00100810 <i00000000c0>:
  100810:	1ae15703          	lhu	a4,430(sp)

00100814 <i00000000c1>:
  100814:	002f1f13          	sll	t5,t5,0x2

00100818 <i00000000c2>:
  100818:	3dc54f13          	xor	t5,a0,988

0010081c <i00000000c3>:
  10081c:	00f1e9b3          	or	s3,gp,a5
  100820:	0000f117          	auipc	sp,0xf
  100824:	8e010113          	add	sp,sp,-1824 # 10f100 <mem>
  100828:	0003b337          	lui	t1,0x3b
  10082c:	30030313          	add	t1,t1,768 # 3b300 <tohost+0x1b2f8>
  100830:	00610133          	add	sp,sp,t1

00100834 <i00000000c4>:
  100834:	1cb10e03          	lb	t3,459(sp)

00100838 <i00000000c5>:
  100838:	00007533          	and	a0,zero,zero

0010083c <i00000000c6>:
  10083c:	7ca11523          	sh	a0,1994(sp)

00100840 <i00000000c7>:
  100840:	92215003          	lhu	zero,-1758(sp)

00100844 <i00000000c8>:
  100844:	f8b11f23          	sh	a1,-98(sp)

00100848 <i00000000c9>:
  100848:	b5012b03          	lw	s6,-1200(sp)

0010084c <i00000000ca>:
  10084c:	6ca11423          	sh	a0,1736(sp)

00100850 <i00000000cb>:
  100850:	3d612423          	sw	s6,968(sp)

00100854 <i00000000cc>:
  100854:	d8a11603          	lh	a2,-630(sp)
  100858:	0000f117          	auipc	sp,0xf
  10085c:	8a810113          	add	sp,sp,-1880 # 10f100 <mem>
  100860:	00014337          	lui	t1,0x14
  100864:	e8030313          	add	t1,t1,-384 # 13e80 <_stack_len+0xbe80>
  100868:	00610133          	add	sp,sp,t1

0010086c <i00000000cd>:
  10086c:	a5e11f03          	lh	t5,-1442(sp)

00100870 <i00000000ce>:
  100870:	15611023          	sh	s6,320(sp)

00100874 <i00000000cf>:
  100874:	20c15503          	lhu	a0,524(sp)
  100878:	0000f117          	auipc	sp,0xf
  10087c:	88810113          	add	sp,sp,-1912 # 10f100 <mem>
  100880:	00040337          	lui	t1,0x40
  100884:	2b030313          	add	t1,t1,688 # 402b0 <tohost+0x202a8>
  100888:	00610133          	add	sp,sp,t1

0010088c <i00000000d0>:
  10088c:	4e215b03          	lhu	s6,1250(sp)
  100890:	0000f117          	auipc	sp,0xf
  100894:	87010113          	add	sp,sp,-1936 # 10f100 <mem>
  100898:	0002b337          	lui	t1,0x2b
  10089c:	98830313          	add	t1,t1,-1656 # 2a988 <tohost+0xa980>
  1008a0:	00610133          	add	sp,sp,t1

001008a4 <i00000000d1>:
  1008a4:	3c411003          	lh	zero,964(sp)
  1008a8:	00c00c93          	li	s9,12
  1008ac:	001d0d13          	add	s10,s10,1

001008b0 <b00000000d2>:
  1008b0:	019d0463          	beq	s10,s9,1008b8 <b00000000d2+0x8>
  1008b4:	f9dff56f          	jal	a0,100850 <i00000000cb>
  1008b8:	00a00d13          	li	s10,10

001008bc <i00000000d2>:
  1008bc:	e7070013          	add	zero,a4,-400

001008c0 <i00000000d3>:
  1008c0:	e8412423          	sw	tp,-376(sp)

001008c4 <i00000000d4>:
  1008c4:	010fc033          	xor	zero,t6,a6

001008c8 <i00000000d5>:
  1008c8:	00052733          	sltz	a4,a0

001008cc <i00000000d6>:
  1008cc:	005c6233          	or	tp,s8,t0

001008d0 <i00000000d7>:
  1008d0:	70a60513          	add	a0,a2,1802

001008d4 <i00000000d8>:
  1008d4:	20810483          	lb	s1,520(sp)

001008d8 <i00000000d9>:
  1008d8:	bb812203          	lw	tp,-1096(sp)

001008dc <i00000000da>:
  1008dc:	013cb933          	sltu	s2,s9,s3

001008e0 <i00000000db>:
  1008e0:	4fe100a3          	sb	t5,1249(sp)

001008e4 <i00000000dc>:
  1008e4:	30675537          	lui	a0,0x30675

001008e8 <i00000000dd>:
  1008e8:	6e310403          	lb	s0,1763(sp)

001008ec <i00000000de>:
  1008ec:	94c14583          	lbu	a1,-1716(sp)
  1008f0:	0000f117          	auipc	sp,0xf
  1008f4:	81010113          	add	sp,sp,-2032 # 10f100 <mem>
  1008f8:	0002a337          	lui	t1,0x2a
  1008fc:	a9030313          	add	t1,t1,-1392 # 29a90 <tohost+0x9a88>
  100900:	00610133          	add	sp,sp,t1

00100904 <i00000000df>:
  100904:	aae15c83          	lhu	s9,-1362(sp)

00100908 <i00000000e0>:
  100908:	01979513          	sll	a0,a5,0x19

0010090c <i00000000e1>:
  10090c:	1298a893          	slti	a7,a7,297

00100910 <i00000000e2>:
  100910:	11e12c23          	sw	t5,280(sp)

00100914 <i00000000e3>:
  100914:	e9a15503          	lhu	a0,-358(sp)

00100918 <i00000000e4>:
  100918:	5d937813          	and	a6,t1,1497
  10091c:	00c00a13          	li	s4,12
  100920:	00a00d13          	li	s10,10

00100924 <b00000000e5>:
  100924:	00000033          	add	zero,zero,zero
  100928:	054d4263          	blt	s10,s4,10096c <i00000000f3>
  10092c:	00000033          	add	zero,zero,zero
  100930:	00a00d13          	li	s10,10

00100934 <i00000000e5>:
  100934:	7e711e23          	sh	t2,2044(sp)

00100938 <i00000000e6>:
  100938:	5f310903          	lb	s2,1523(sp)

0010093c <i00000000e7>:
  10093c:	01cc8f33          	add	t5,s9,t3

00100940 <i00000000e8>:
  100940:	40545213          	sra	tp,s0,0x5

00100944 <i00000000e9>:
  100944:	01785b13          	srl	s6,a6,0x17

00100948 <i00000000ea>:
  100948:	010af233          	and	tp,s5,a6

0010094c <i00000000eb>:
  10094c:	a63103a3          	sb	gp,-1433(sp)

00100950 <i00000000ec>:
  100950:	49552737          	lui	a4,0x49552

00100954 <i00000000ed>:
  100954:	00ab62b3          	or	t0,s6,a0

00100958 <i00000000ee>:
  100958:	01b8b433          	sltu	s0,a7,s11

0010095c <i00000000ef>:
  10095c:	6b014b03          	lbu	s6,1712(sp)

00100960 <i00000000f0>:
  100960:	c8910c23          	sb	s1,-872(sp)

00100964 <i00000000f1>:
  100964:	ce2f0b13          	add	s6,t5,-798 # ac39ce2 <fromhost+0xaab1cd2>

00100968 <i00000000f2>:
  100968:	a0b11f23          	sh	a1,-1506(sp)

0010096c <i00000000f3>:
  10096c:	40968b33          	sub	s6,a3,s1

00100970 <i00000000f4>:
  100970:	6e393f13          	sltiu	t5,s2,1763

00100974 <i00000000f5>:
  100974:	40420733          	sub	a4,tp,tp

00100978 <i00000000f6>:
  100978:	11612c23          	sw	s6,280(sp)

0010097c <i00000000f7>:
  10097c:	b42f0513          	add	a0,t5,-1214
  100980:	00000813          	li	a6,0

00100984 <b00000000f8>:
  100984:	00000033          	add	zero,zero,zero
  100988:	070d0663          	beq	s10,a6,1009f4 <i0000000106>
  10098c:	00000033          	add	zero,zero,zero
  100990:	00a00d13          	li	s10,10

00100994 <i00000000f8>:
  100994:	a9811303          	lh	t1,-1384(sp)
  100998:	0000e117          	auipc	sp,0xe
  10099c:	76810113          	add	sp,sp,1896 # 10f100 <mem>
  1009a0:	00053337          	lui	t1,0x53
  1009a4:	ef830313          	add	t1,t1,-264 # 52ef8 <tohost+0x32ef0>
  1009a8:	00610133          	add	sp,sp,t1

001009ac <i00000000f9>:
  1009ac:	e4410fa3          	sb	tp,-417(sp)

001009b0 <i00000000fa>:
  1009b0:	ffa15983          	lhu	s3,-6(sp)

001009b4 <i00000000fb>:
  1009b4:	00ab6b33          	or	s6,s6,a0

001009b8 <i00000000fc>:
  1009b8:	c4411223          	sh	tp,-956(sp)

001009bc <i00000000fd>:
  1009bc:	80011f23          	sh	zero,-2018(sp)

001009c0 <i00000000fe>:
  1009c0:	4175d493          	sra	s1,a1,0x17

001009c4 <i00000000ff>:
  1009c4:	009d9013          	sll	zero,s11,0x9

001009c8 <i0000000100>:
  1009c8:	3a8106a3          	sb	s0,941(sp)

001009cc <i0000000101>:
  1009cc:	fbe11623          	sh	t5,-84(sp)

001009d0 <i0000000102>:
  1009d0:	00b47233          	and	tp,s0,a1

001009d4 <i0000000103>:
  1009d4:	24412823          	sw	tp,592(sp)
  1009d8:	0000e117          	auipc	sp,0xe
  1009dc:	72810113          	add	sp,sp,1832 # 10f100 <mem>
  1009e0:	0004f337          	lui	t1,0x4f
  1009e4:	7a030313          	add	t1,t1,1952 # 4f7a0 <tohost+0x2f798>
  1009e8:	00610133          	add	sp,sp,t1

001009ec <i0000000104>:
  1009ec:	21611323          	sh	s6,518(sp)

001009f0 <i0000000105>:
  1009f0:	f12100a3          	sb	s2,-255(sp)

001009f4 <i0000000106>:
  1009f4:	00deae33          	slt	t3,t4,a3

001009f8 <i0000000107>:
  1009f8:	4185d513          	sra	a0,a1,0x18

001009fc <i0000000108>:
  1009fc:	00ff8833          	add	a6,t6,a5

00100a00 <i0000000109>:
  100a00:	005bb833          	sltu	a6,s7,t0

00100a04 <i000000010a>:
  100a04:	00f59c33          	sll	s8,a1,a5
  100a08:	00900e93          	li	t4,9

00100a0c <b000000010b>:
  100a0c:	00000033          	add	zero,zero,zero
  100a10:	ffdd40e3          	blt	s10,t4,1009f0 <i0000000105>
  100a14:	00000033          	add	zero,zero,zero
  100a18:	00a00d13          	li	s10,10

00100a1c <i000000010b>:
  100a1c:	63852593          	slti	a1,a0,1592

00100a20 <i000000010c>:
  100a20:	523c4b93          	xor	s7,s8,1315

00100a24 <i000000010d>:
  100a24:	403a5813          	sra	a6,s4,0x3

00100a28 <i000000010e>:
  100a28:	eb015f03          	lhu	t5,-336(sp)

00100a2c <i000000010f>:
  100a2c:	784e2537          	lui	a0,0x784e2

00100a30 <i0000000110>:
  100a30:	08015f83          	lhu	t6,128(sp)

00100a34 <i0000000111>:
  100a34:	a0211a83          	lh	s5,-1534(sp)

00100a38 <i0000000112>:
  100a38:	3e214003          	lbu	zero,994(sp)

00100a3c <i0000000113>:
  100a3c:	40b68f33          	sub	t5,a3,a1

00100a40 <i0000000114>:
  100a40:	4195dd93          	sra	s11,a1,0x19

00100a44 <i0000000115>:
  100a44:	017e6e33          	or	t3,t3,s7

00100a48 <i0000000116>:
  100a48:	41ff5513          	sra	a0,t5,0x1f

00100a4c <i0000000117>:
  100a4c:	1da15b03          	lhu	s6,474(sp)
  100a50:	0000e117          	auipc	sp,0xe
  100a54:	6b010113          	add	sp,sp,1712 # 10f100 <mem>
  100a58:	0003e337          	lui	t1,0x3e
  100a5c:	69030313          	add	t1,t1,1680 # 3e690 <tohost+0x1e688>
  100a60:	00610133          	add	sp,sp,t1

00100a64 <i0000000118>:
  100a64:	eb012f83          	lw	t6,-336(sp)

00100a68 <i0000000119>:
  100a68:	06011803          	lh	a6,96(sp)

00100a6c <i000000011a>:
  100a6c:	95012583          	lw	a1,-1712(sp)

00100a70 <i000000011b>:
  100a70:	5127b513          	sltiu	a0,a5,1298

00100a74 <i000000011c>:
  100a74:	c4010c23          	sb	zero,-936(sp)

00100a78 <i000000011d>:
  100a78:	4d011683          	lh	a3,1232(sp)

00100a7c <b000000011e>:
  100a7c:	0240056f          	jal	a0,100aa0 <i0000000126>

00100a80 <i000000011e>:
  100a80:	0188aeb3          	slt	t4,a7,s8

00100a84 <i000000011f>:
  100a84:	41411503          	lh	a0,1044(sp)

00100a88 <i0000000120>:
  100a88:	e5a14003          	lbu	zero,-422(sp)

00100a8c <i0000000121>:
  100a8c:	00002ab3          	sltz	s5,zero

00100a90 <i0000000122>:
  100a90:	384b8213          	add	tp,s7,900

00100a94 <i0000000123>:
  100a94:	8b607013          	and	zero,zero,-1866

00100a98 <i0000000124>:
  100a98:	000b7c33          	and	s8,s6,zero

00100a9c <i0000000125>:
  100a9c:	01ec9a93          	sll	s5,s9,0x1e

00100aa0 <i0000000126>:
  100aa0:	667a3217          	auipc	tp,0x667a3

00100aa4 <i0000000127>:
  100aa4:	ba712823          	sw	t2,-1104(sp)

00100aa8 <i0000000128>:
  100aa8:	6a012a23          	sw	zero,1716(sp)

00100aac <i0000000129>:
  100aac:	7b410123          	sb	s4,1954(sp)

00100ab0 <i000000012a>:
  100ab0:	b9211783          	lh	a5,-1134(sp)

00100ab4 <i000000012b>:
  100ab4:	f54c6f13          	or	t5,s8,-172

00100ab8 <i000000012c>:
  100ab8:	006a3b33          	sltu	s6,s4,t1

00100abc <i000000012d>:
  100abc:	008e9b33          	sll	s6,t4,s0

00100ac0 <i000000012e>:
  100ac0:	20310983          	lb	s3,515(sp)

00100ac4 <i000000012f>:
  100ac4:	a9012903          	lw	s2,-1392(sp)

00100ac8 <i0000000130>:
  100ac8:	a0714f03          	lbu	t5,-1529(sp)
  100acc:	00900813          	li	a6,9
  100ad0:	00a00d13          	li	s10,10

00100ad4 <b0000000131>:
  100ad4:	00000033          	add	zero,zero,zero
  100ad8:	05a85a63          	bge	a6,s10,100b2c <i0000000139>
  100adc:	00000033          	add	zero,zero,zero
  100ae0:	00a00d13          	li	s10,10

00100ae4 <i0000000131>:
  100ae4:	41548f33          	sub	t5,s1,s5
  100ae8:	0000e117          	auipc	sp,0xe
  100aec:	61810113          	add	sp,sp,1560 # 10f100 <mem>
  100af0:	00018337          	lui	t1,0x18
  100af4:	16030313          	add	t1,t1,352 # 18160 <_stack_len+0x10160>
  100af8:	00610133          	add	sp,sp,t1

00100afc <i0000000132>:
  100afc:	8d412f83          	lw	t6,-1836(sp)

00100b00 <i0000000133>:
  100b00:	01652c33          	slt	s8,a0,s6

00100b04 <i0000000134>:
  100b04:	5c110503          	lb	a0,1473(sp)

00100b08 <i0000000135>:
  100b08:	d3011c03          	lh	s8,-720(sp)

00100b0c <i0000000136>:
  100b0c:	76511923          	sh	t0,1906(sp)
  100b10:	0000e117          	auipc	sp,0xe
  100b14:	5f010113          	add	sp,sp,1520 # 10f100 <mem>
  100b18:	00029337          	lui	t1,0x29
  100b1c:	64030313          	add	t1,t1,1600 # 29640 <tohost+0x9638>
  100b20:	00610133          	add	sp,sp,t1

00100b24 <i0000000137>:
  100b24:	66014303          	lbu	t1,1632(sp)

00100b28 <i0000000138>:
  100b28:	00378033          	add	zero,a5,gp

00100b2c <i0000000139>:
  100b2c:	03e15b03          	lhu	s6,62(sp)

00100b30 <i000000013a>:
  100b30:	5e010323          	sb	zero,1510(sp)

00100b34 <i000000013b>:
  100b34:	40055b33          	sra	s6,a0,zero

00100b38 <i000000013c>:
  100b38:	72410d83          	lb	s11,1828(sp)
  100b3c:	0000e117          	auipc	sp,0xe
  100b40:	5c410113          	add	sp,sp,1476 # 10f100 <mem>
  100b44:	00011337          	lui	t1,0x11
  100b48:	47030313          	add	t1,t1,1136 # 11470 <_stack_len+0x9470>
  100b4c:	00610133          	add	sp,sp,t1

00100b50 <i000000013d>:
  100b50:	8b214f83          	lbu	t6,-1870(sp)
  100b54:	0000e117          	auipc	sp,0xe
  100b58:	5ac10113          	add	sp,sp,1452 # 10f100 <mem>
  100b5c:	00008337          	lui	t1,0x8
  100b60:	93830313          	add	t1,t1,-1736 # 7938 <_min_stack+0x5938>
  100b64:	00610133          	add	sp,sp,t1

00100b68 <i000000013e>:
  100b68:	de411683          	lh	a3,-540(sp)
  100b6c:	0000e117          	auipc	sp,0xe
  100b70:	59410113          	add	sp,sp,1428 # 10f100 <mem>
  100b74:	0004d337          	lui	t1,0x4d
  100b78:	01830313          	add	t1,t1,24 # 4d018 <tohost+0x2d010>
  100b7c:	00610133          	add	sp,sp,t1

00100b80 <i000000013f>:
  100b80:	5cc12223          	sw	a2,1476(sp)

00100b84 <i0000000140>:
  100b84:	83c12423          	sw	t3,-2008(sp)

00100b88 <i0000000141>:
  100b88:	94b56b93          	or	s7,a0,-1717

00100b8c <i0000000142>:
  100b8c:	e6592893          	slti	a7,s2,-411

00100b90 <i0000000143>:
  100b90:	4037d533          	sra	a0,a5,gp
  100b94:	00c00993          	li	s3,12
  100b98:	001d0d13          	add	s10,s10,1

00100b9c <b0000000144>:
  100b9c:	00000033          	add	zero,zero,zero
  100ba0:	ffa9d0e3          	bge	s3,s10,100b80 <i000000013f>
  100ba4:	00000033          	add	zero,zero,zero
  100ba8:	00a00d13          	li	s10,10

00100bac <i0000000144>:
  100bac:	e3015783          	lhu	a5,-464(sp)

00100bb0 <i0000000145>:
  100bb0:	be012c83          	lw	s9,-1056(sp)

00100bb4 <i0000000146>:
  100bb4:	62ff4813          	xor	a6,t5,1583

00100bb8 <i0000000147>:
  100bb8:	c9da7013          	and	zero,s4,-867

00100bbc <i0000000148>:
  100bbc:	0101ab33          	slt	s6,gp,a6

00100bc0 <i0000000149>:
  100bc0:	61403f13          	sltiu	t5,zero,1556

00100bc4 <i000000014a>:
  100bc4:	000f4033          	xor	zero,t5,zero

00100bc8 <i000000014b>:
  100bc8:	000f6533          	or	a0,t5,zero

00100bcc <i000000014c>:
  100bcc:	84c10ea3          	sb	a2,-1955(sp)
  100bd0:	0000e117          	auipc	sp,0xe
  100bd4:	53010113          	add	sp,sp,1328 # 10f100 <mem>
  100bd8:	00069337          	lui	t1,0x69
  100bdc:	09830313          	add	t1,t1,152 # 69098 <tohost+0x49090>
  100be0:	00610133          	add	sp,sp,t1

00100be4 <i000000014d>:
  100be4:	fc415503          	lhu	a0,-60(sp)

00100be8 <i000000014e>:
  100be8:	f5754413          	xor	s0,a0,-169

00100bec <i000000014f>:
  100bec:	28412c23          	sw	tp,664(sp)
  100bf0:	0000e117          	auipc	sp,0xe
  100bf4:	51010113          	add	sp,sp,1296 # 10f100 <mem>
  100bf8:	00013337          	lui	t1,0x13
  100bfc:	2c030313          	add	t1,t1,704 # 132c0 <_stack_len+0xb2c0>
  100c00:	00610133          	add	sp,sp,t1

00100c04 <i0000000150>:
  100c04:	d3015503          	lhu	a0,-720(sp)

00100c08 <i0000000151>:
  100c08:	004f2eb3          	slt	t4,t5,tp

00100c0c <i0000000152>:
  100c0c:	36a12e23          	sw	a0,892(sp)

00100c10 <i0000000153>:
  100c10:	9d011723          	sh	a6,-1586(sp)

00100c14 <i0000000154>:
  100c14:	6c906597          	auipc	a1,0x6c906

00100c18 <i0000000155>:
  100c18:	644108a3          	sb	tp,1617(sp)

00100c1c <i0000000156>:
  100c1c:	3efe4a93          	xor	s5,t3,1007

00100c20 <b0000000157>:
  100c20:	0580056f          	jal	a0,100c78 <i0000000162>

00100c24 <i0000000157>:
  100c24:	bc411403          	lh	s0,-1084(sp)

00100c28 <i0000000158>:
  100c28:	00fc9233          	sll	tp,s9,a5
  100c2c:	0000e117          	auipc	sp,0xe
  100c30:	4d410113          	add	sp,sp,1236 # 10f100 <mem>
  100c34:	00028337          	lui	t1,0x28
  100c38:	ba830313          	add	t1,t1,-1112 # 27ba8 <tohost+0x7ba0>
  100c3c:	00610133          	add	sp,sp,t1

00100c40 <i0000000159>:
  100c40:	ede11023          	sh	t5,-320(sp)

00100c44 <i000000015a>:
  100c44:	01ef6cb3          	or	s9,t5,t5

00100c48 <i000000015b>:
  100c48:	88410d23          	sb	tp,-1894(sp)

00100c4c <i000000015c>:
  100c4c:	e8d00193          	li	gp,-371

00100c50 <i000000015d>:
  100c50:	2538a213          	slti	tp,a7,595

00100c54 <i000000015e>:
  100c54:	0109b233          	sltu	tp,s3,a6
  100c58:	0000e117          	auipc	sp,0xe
  100c5c:	4a810113          	add	sp,sp,1192 # 10f100 <mem>
  100c60:	00010337          	lui	t1,0x10
  100c64:	d0030313          	add	t1,t1,-768 # fd00 <_stack_len+0x7d00>
  100c68:	00610133          	add	sp,sp,t1

00100c6c <i000000015f>:
  100c6c:	a8312023          	sw	gp,-1408(sp)

00100c70 <i0000000160>:
  100c70:	1e1ec037          	lui	zero,0x1e1ec

00100c74 <i0000000161>:
  100c74:	01620233          	add	tp,tp,s6

00100c78 <i0000000162>:
  100c78:	01e254b3          	srl	s1,tp,t5

00100c7c <i0000000163>:
  100c7c:	007cd533          	srl	a0,s9,t2

00100c80 <i0000000164>:
  100c80:	70cf6293          	or	t0,t5,1804

00100c84 <i0000000165>:
  100c84:	ea812203          	lw	tp,-344(sp)

00100c88 <i0000000166>:
  100c88:	6d812003          	lw	zero,1752(sp)
  100c8c:	0000e117          	auipc	sp,0xe
  100c90:	47410113          	add	sp,sp,1140 # 10f100 <mem>
  100c94:	00060337          	lui	t1,0x60
  100c98:	cf030313          	add	t1,t1,-784 # 5fcf0 <tohost+0x3fce8>
  100c9c:	00610133          	add	sp,sp,t1

00100ca0 <i0000000167>:
  100ca0:	f8811403          	lh	s0,-120(sp)

00100ca4 <i0000000168>:
  100ca4:	90812823          	sw	s0,-1776(sp)

00100ca8 <i0000000169>:
  100ca8:	01d79bb3          	sll	s7,a5,t4
  100cac:	00c00a13          	li	s4,12
  100cb0:	001d0d13          	add	s10,s10,1

00100cb4 <b000000016a>:
  100cb4:	00000033          	add	zero,zero,zero
  100cb8:	fdaa52e3          	bge	s4,s10,100c7c <i0000000163>
  100cbc:	00000033          	add	zero,zero,zero
  100cc0:	00a00d13          	li	s10,10

00100cc4 <i000000016a>:
  100cc4:	bb5f3f13          	sltiu	t5,t5,-1099
  100cc8:	0000e117          	auipc	sp,0xe
  100ccc:	43810113          	add	sp,sp,1080 # 10f100 <mem>
  100cd0:	0002d337          	lui	t1,0x2d
  100cd4:	f9830313          	add	t1,t1,-104 # 2cf98 <tohost+0xcf90>
  100cd8:	00610133          	add	sp,sp,t1

00100cdc <i000000016b>:
  100cdc:	7fe10aa3          	sb	t5,2037(sp)

00100ce0 <i000000016c>:
  100ce0:	35eb2f13          	slti	t5,s6,862
  100ce4:	0000e117          	auipc	sp,0xe
  100ce8:	41c10113          	add	sp,sp,1052 # 10f100 <mem>
  100cec:	0002d337          	lui	t1,0x2d
  100cf0:	9c830313          	add	t1,t1,-1592 # 2c9c8 <tohost+0xc9c0>
  100cf4:	00610133          	add	sp,sp,t1

00100cf8 <i000000016d>:
  100cf8:	94614503          	lbu	a0,-1722(sp)

00100cfc <i000000016e>:
  100cfc:	2ee14203          	lbu	tp,750(sp)

00100d00 <i000000016f>:
  100d00:	8ef101a3          	sb	a5,-1821(sp)

00100d04 <i0000000170>:
  100d04:	01dc0fb3          	add	t6,s8,t4

00100d08 <i0000000171>:
  100d08:	bd812003          	lw	zero,-1064(sp)

00100d0c <i0000000172>:
  100d0c:	d8c12003          	lw	zero,-628(sp)

00100d10 <i0000000173>:
  100d10:	e1211723          	sh	s2,-498(sp)

00100d14 <i0000000174>:
  100d14:	002dd513          	srl	a0,s11,0x2

00100d18 <i0000000175>:
  100d18:	0069ab33          	slt	s6,s3,t1

00100d1c <i0000000176>:
  100d1c:	651ea193          	slti	gp,t4,1617

00100d20 <i0000000177>:
  100d20:	8be10303          	lb	t1,-1858(sp)

00100d24 <i0000000178>:
  100d24:	00ab6f33          	or	t5,s6,a0
  100d28:	0000e117          	auipc	sp,0xe
  100d2c:	3d810113          	add	sp,sp,984 # 10f100 <mem>
  100d30:	0004b337          	lui	t1,0x4b
  100d34:	3c030313          	add	t1,t1,960 # 4b3c0 <tohost+0x2b3b8>
  100d38:	00610133          	add	sp,sp,t1

00100d3c <i0000000179>:
  100d3c:	10012623          	sw	zero,268(sp)

00100d40 <i000000017a>:
  100d40:	035a6993          	or	s3,s4,53

00100d44 <i000000017b>:
  100d44:	00d51f13          	sll	t5,a0,0xd

00100d48 <i000000017c>:
  100d48:	0175db13          	srl	s6,a1,0x17
  100d4c:	00000b93          	li	s7,0

00100d50 <b000000017d>:
  100d50:	00000033          	add	zero,zero,zero
  100d54:	fd7d02e3          	beq	s10,s7,100d18 <i0000000175>
  100d58:	00000033          	add	zero,zero,zero
  100d5c:	00a00d13          	li	s10,10

00100d60 <i000000017d>:
  100d60:	e4f10003          	lb	zero,-433(sp)

00100d64 <i000000017e>:
  100d64:	01ef3233          	sltu	tp,t5,t5

00100d68 <i000000017f>:
  100d68:	992f7013          	and	zero,t5,-1646

00100d6c <i0000000180>:
  100d6c:	596acb13          	xor	s6,s5,1430

00100d70 <i0000000181>:
  100d70:	cd411383          	lh	t2,-812(sp)

00100d74 <i0000000182>:
  100d74:	41735a13          	sra	s4,t1,0x17

00100d78 <i0000000183>:
  100d78:	41f48f33          	sub	t5,s1,t6

00100d7c <i0000000184>:
  100d7c:	88e11423          	sh	a4,-1912(sp)
  100d80:	0000e117          	auipc	sp,0xe
  100d84:	38010113          	add	sp,sp,896 # 10f100 <mem>
  100d88:	0002d337          	lui	t1,0x2d
  100d8c:	dd830313          	add	t1,t1,-552 # 2cdd8 <tohost+0xcdd0>
  100d90:	00610133          	add	sp,sp,t1

00100d94 <i0000000185>:
  100d94:	a4010c83          	lb	s9,-1472(sp)

00100d98 <i0000000186>:
  100d98:	50147713          	and	a4,s0,1281

00100d9c <i0000000187>:
  100d9c:	2b3e8237          	lui	tp,0x2b3e8

00100da0 <i0000000188>:
  100da0:	40005f33          	sra	t5,zero,zero

00100da4 <i0000000189>:
  100da4:	01b21b13          	sll	s6,tp,0x1b

00100da8 <i000000018a>:
  100da8:	4f412003          	lw	zero,1268(sp)
  100dac:	0000e117          	auipc	sp,0xe
  100db0:	35410113          	add	sp,sp,852 # 10f100 <mem>
  100db4:	00008337          	lui	t1,0x8
  100db8:	98830313          	add	t1,t1,-1656 # 7988 <_min_stack+0x5988>
  100dbc:	00610133          	add	sp,sp,t1

00100dc0 <i000000018b>:
  100dc0:	a0512a23          	sw	t0,-1516(sp)

00100dc4 <i000000018c>:
  100dc4:	b2412c23          	sw	tp,-1224(sp)

00100dc8 <i000000018d>:
  100dc8:	00a51bb3          	sll	s7,a0,a0

00100dcc <i000000018e>:
  100dcc:	016b0533          	add	a0,s6,s6

00100dd0 <i000000018f>:
  100dd0:	004b2b33          	slt	s6,s6,tp
  100dd4:	00c00b93          	li	s7,12
  100dd8:	001d0d13          	add	s10,s10,1

00100ddc <b0000000190>:
  100ddc:	00000033          	add	zero,zero,zero
  100de0:	fdabd2e3          	bge	s7,s10,100da4 <i0000000189>
  100de4:	00000033          	add	zero,zero,zero
  100de8:	00a00d13          	li	s10,10

00100dec <i0000000190>:
  100dec:	008a2533          	slt	a0,s4,s0

00100df0 <i0000000191>:
  100df0:	8f811423          	sh	s8,-1816(sp)

00100df4 <i0000000192>:
  100df4:	b6ffc613          	xor	a2,t6,-1169

00100df8 <i0000000193>:
  100df8:	41600533          	neg	a0,s6

00100dfc <i0000000194>:
  100dfc:	00024b33          	xor	s6,tp,zero

00100e00 <i0000000195>:
  100e00:	40d78fb3          	sub	t6,a5,a3

00100e04 <i0000000196>:
  100e04:	016b9193          	sll	gp,s7,0x16

00100e08 <i0000000197>:
  100e08:	38327f17          	auipc	t5,0x38327

00100e0c <i0000000198>:
  100e0c:	1ca12223          	sw	a0,452(sp)

00100e10 <i0000000199>:
  100e10:	00455233          	srl	tp,a0,tp

00100e14 <i000000019a>:
  100e14:	97437213          	and	tp,t1,-1676

00100e18 <i000000019b>:
  100e18:	74f14383          	lbu	t2,1871(sp)
  100e1c:	0000e117          	auipc	sp,0xe
  100e20:	2e410113          	add	sp,sp,740 # 10f100 <mem>
  100e24:	0001d337          	lui	t1,0x1d
  100e28:	53030313          	add	t1,t1,1328 # 1d530 <_stack_len+0x15530>
  100e2c:	00610133          	add	sp,sp,t1

00100e30 <i000000019c>:
  100e30:	c8815f83          	lhu	t6,-888(sp)

00100e34 <i000000019d>:
  100e34:	fbc15303          	lhu	t1,-68(sp)

00100e38 <i000000019e>:
  100e38:	019a5333          	srl	t1,s4,s9

00100e3c <i000000019f>:
  100e3c:	006c9fb3          	sll	t6,s9,t1

00100e40 <i00000001a0>:
  100e40:	017cbfb3          	sltu	t6,s9,s7

00100e44 <i00000001a1>:
  100e44:	fd896d93          	or	s11,s2,-40

00100e48 <i00000001a2>:
  100e48:	f2c12e23          	sw	a2,-196(sp)
  100e4c:	00c00a13          	li	s4,12
  100e50:	001d0d13          	add	s10,s10,1

00100e54 <b00000001a3>:
  100e54:	00000033          	add	zero,zero,zero
  100e58:	fd4d40e3          	blt	s10,s4,100e18 <i000000019b>
  100e5c:	00000033          	add	zero,zero,zero
  100e60:	00a00d13          	li	s10,10

00100e64 <i00000001a3>:
  100e64:	ef3b2213          	slti	tp,s6,-269

00100e68 <i00000001a4>:
  100e68:	0a361f37          	lui	t5,0xa361

00100e6c <i00000001a5>:
  100e6c:	7e611f03          	lh	t5,2022(sp)

00100e70 <i00000001a6>:
  100e70:	64d14b83          	lbu	s7,1613(sp)
  100e74:	0000e117          	auipc	sp,0xe
  100e78:	28c10113          	add	sp,sp,652 # 10f100 <mem>
  100e7c:	0003f337          	lui	t1,0x3f
  100e80:	bb830313          	add	t1,t1,-1096 # 3ebb8 <tohost+0x1ebb0>
  100e84:	00610133          	add	sp,sp,t1

00100e88 <i00000001a7>:
  100e88:	63a15283          	lhu	t0,1594(sp)

00100e8c <i00000001a8>:
  100e8c:	41eb0e33          	sub	t3,s6,t5

00100e90 <i00000001a9>:
  100e90:	400b0633          	sub	a2,s6,zero

00100e94 <i00000001aa>:
  100e94:	8f660213          	add	tp,a2,-1802
  100e98:	0000e117          	auipc	sp,0xe
  100e9c:	26810113          	add	sp,sp,616 # 10f100 <mem>
  100ea0:	00018337          	lui	t1,0x18
  100ea4:	67030313          	add	t1,t1,1648 # 18670 <_stack_len+0x10670>
  100ea8:	00610133          	add	sp,sp,t1

00100eac <i00000001ab>:
  100eac:	0d310003          	lb	zero,211(sp)

00100eb0 <i00000001ac>:
  100eb0:	0077e4b3          	or	s1,a5,t2

00100eb4 <i00000001ad>:
  100eb4:	6ac11423          	sh	a2,1704(sp)

00100eb8 <i00000001ae>:
  100eb8:	f3066c13          	or	s8,a2,-208

00100ebc <i00000001af>:
  100ebc:	01eb5933          	srl	s2,s6,t5

00100ec0 <i00000001b0>:
  100ec0:	f5810ba3          	sb	s8,-169(sp)

00100ec4 <i00000001b1>:
  100ec4:	99611d23          	sh	s6,-1638(sp)

00100ec8 <i00000001b2>:
  100ec8:	c3920593          	add	a1,tp,-967 # 2b3e7c39 <fromhost+0x2b25fc29>

00100ecc <i00000001b3>:
  100ecc:	0043d013          	srl	zero,t2,0x4

00100ed0 <i00000001b4>:
  100ed0:	f1511b23          	sh	s5,-234(sp)

00100ed4 <i00000001b5>:
  100ed4:	7c907193          	and	gp,zero,1993
  100ed8:	00b00b13          	li	s6,11
  100edc:	00a00d13          	li	s10,10

00100ee0 <b00000001b6>:
  100ee0:	00000033          	add	zero,zero,zero
  100ee4:	056d1063          	bne	s10,s6,100f24 <i00000001c3>
  100ee8:	00000033          	add	zero,zero,zero
  100eec:	00a00d13          	li	s10,10

00100ef0 <i00000001b6>:
  100ef0:	6c0602b7          	lui	t0,0x6c060

00100ef4 <i00000001b7>:
  100ef4:	00450f33          	add	t5,a0,tp

00100ef8 <i00000001b8>:
  100ef8:	3ca11223          	sh	a0,964(sp)

00100efc <i00000001b9>:
  100efc:	f2710203          	lb	tp,-217(sp)

00100f00 <i00000001ba>:
  100f00:	011f5393          	srl	t2,t5,0x11

00100f04 <i00000001bb>:
  100f04:	512108a3          	sb	s2,1297(sp)

00100f08 <i00000001bc>:
  100f08:	9e214c83          	lbu	s9,-1566(sp)

00100f0c <i00000001bd>:
  100f0c:	fbc12883          	lw	a7,-68(sp)

00100f10 <i00000001be>:
  100f10:	0194a6b3          	slt	a3,s1,s9

00100f14 <i00000001bf>:
  100f14:	238104a3          	sb	s8,553(sp)

00100f18 <i00000001c0>:
  100f18:	09714b83          	lbu	s7,151(sp)

00100f1c <i00000001c1>:
  100f1c:	74a11b03          	lh	s6,1866(sp)

00100f20 <i00000001c2>:
  100f20:	7ea9f237          	lui	tp,0x7ea9f

00100f24 <i00000001c3>:
  100f24:	01c7e033          	or	zero,a5,t3

00100f28 <i00000001c4>:
  100f28:	61788213          	add	tp,a7,1559

00100f2c <i00000001c5>:
  100f2c:	faa15503          	lhu	a0,-86(sp)

00100f30 <i00000001c6>:
  100f30:	ac211203          	lh	tp,-1342(sp)

00100f34 <i00000001c7>:
  100f34:	f0611503          	lh	a0,-250(sp)

00100f38 <i00000001c8>:
  100f38:	46811b03          	lh	s6,1128(sp)
  100f3c:	00c00c93          	li	s9,12
  100f40:	001d0d13          	add	s10,s10,1

00100f44 <b00000001c9>:
  100f44:	00000033          	add	zero,zero,zero
  100f48:	fbacdee3          	bge	s9,s10,100f04 <i00000001bb>
  100f4c:	00000033          	add	zero,zero,zero
  100f50:	00a00d13          	li	s10,10

00100f54 <i00000001c9>:
  100f54:	416b0233          	sub	tp,s6,s6

00100f58 <i00000001ca>:
  100f58:	754d4fb7          	lui	t6,0x754d4

00100f5c <i00000001cb>:
  100f5c:	41255493          	sra	s1,a0,0x12

00100f60 <i00000001cc>:
  100f60:	70911023          	sh	s1,1792(sp)

00100f64 <i00000001cd>:
  100f64:	38810003          	lb	zero,904(sp)

00100f68 <i00000001ce>:
  100f68:	41778f33          	sub	t5,a5,s7

00100f6c <i00000001cf>:
  100f6c:	2f510da3          	sb	s5,763(sp)

00100f70 <i00000001d0>:
  100f70:	4137d713          	sra	a4,a5,0x13

00100f74 <i00000001d1>:
  100f74:	010e1993          	sll	s3,t3,0x10

00100f78 <i00000001d2>:
  100f78:	5d9f0513          	add	a0,t5,1497 # a3615d9 <fromhost+0xa1d95c9>

00100f7c <i00000001d3>:
  100f7c:	19012e23          	sw	a6,412(sp)

00100f80 <i00000001d4>:
  100f80:	54d12023          	sw	a3,1344(sp)
  100f84:	0000e117          	auipc	sp,0xe
  100f88:	17c10113          	add	sp,sp,380 # 10f100 <mem>
  100f8c:	0006d337          	lui	t1,0x6d
  100f90:	37830313          	add	t1,t1,888 # 6d378 <tohost+0x4d370>
  100f94:	00610133          	add	sp,sp,t1

00100f98 <i00000001d5>:
  100f98:	b9015e03          	lhu	t3,-1136(sp)

00100f9c <i00000001d6>:
  100f9c:	f3eafb93          	and	s7,s5,-194

00100fa0 <i00000001d7>:
  100fa0:	7a1aba13          	sltiu	s4,s5,1953

00100fa4 <i00000001d8>:
  100fa4:	408907b3          	sub	a5,s2,s0

00100fa8 <i00000001d9>:
  100fa8:	00007f33          	and	t5,zero,zero

00100fac <i00000001da>:
  100fac:	53790017          	auipc	zero,0x53790

00100fb0 <i00000001db>:
  100fb0:	76d10303          	lb	t1,1901(sp)
  100fb4:	00b00b13          	li	s6,11
  100fb8:	00a00d13          	li	s10,10

00100fbc <b00000001dc>:
  100fbc:	00000033          	add	zero,zero,zero
  100fc0:	07ab5663          	bge	s6,s10,10102c <i00000001ea>
  100fc4:	00000033          	add	zero,zero,zero
  100fc8:	00a00d13          	li	s10,10

00100fcc <i00000001dc>:
  100fcc:	01ef78b3          	and	a7,t5,t5

00100fd0 <i00000001dd>:
  100fd0:	a1e10503          	lb	a0,-1506(sp)

00100fd4 <i00000001de>:
  100fd4:	01771a33          	sll	s4,a4,s7

00100fd8 <i00000001df>:
  100fd8:	018d9f33          	sll	t5,s11,s8

00100fdc <i00000001e0>:
  100fdc:	003c1f33          	sll	t5,s8,gp
  100fe0:	0000e117          	auipc	sp,0xe
  100fe4:	12010113          	add	sp,sp,288 # 10f100 <mem>
  100fe8:	0006c337          	lui	t1,0x6c
  100fec:	5a830313          	add	t1,t1,1448 # 6c5a8 <tohost+0x4c5a0>
  100ff0:	00610133          	add	sp,sp,t1

00100ff4 <i00000001e1>:
  100ff4:	7ec12983          	lw	s3,2028(sp)

00100ff8 <i00000001e2>:
  100ff8:	00af7533          	and	a0,t5,a0
  100ffc:	0000e117          	auipc	sp,0xe
  101000:	10410113          	add	sp,sp,260 # 10f100 <mem>
  101004:	00061337          	lui	t1,0x61
  101008:	e9830313          	add	t1,t1,-360 # 60e98 <tohost+0x40e90>
  10100c:	00610133          	add	sp,sp,t1

00101010 <i00000001e3>:
  101010:	1c314903          	lbu	s2,451(sp)

00101014 <i00000001e4>:
  101014:	dd012503          	lw	a0,-560(sp)

00101018 <i00000001e5>:
  101018:	74b10b03          	lb	s6,1867(sp)

0010101c <i00000001e6>:
  10101c:	57614c03          	lbu	s8,1398(sp)

00101020 <i00000001e7>:
  101020:	f8411303          	lh	t1,-124(sp)

00101024 <i00000001e8>:
  101024:	58710683          	lb	a3,1415(sp)

00101028 <i00000001e9>:
  101028:	5ee11623          	sh	a4,1516(sp)

0010102c <i00000001ea>:
  10102c:	d47e3513          	sltiu	a0,t3,-697

00101030 <i00000001eb>:
  101030:	73412b03          	lw	s6,1844(sp)

00101034 <i00000001ec>:
  101034:	ff110b03          	lb	s6,-15(sp)

00101038 <i00000001ed>:
  101038:	0102f333          	and	t1,t0,a6
  10103c:	0000e117          	auipc	sp,0xe
  101040:	0c410113          	add	sp,sp,196 # 10f100 <mem>
  101044:	0004d337          	lui	t1,0x4d
  101048:	94030313          	add	t1,t1,-1728 # 4c940 <tohost+0x2c938>
  10104c:	00610133          	add	sp,sp,t1

00101050 <i00000001ee>:
  101050:	b3212823          	sw	s2,-1232(sp)
  101054:	00900893          	li	a7,9

00101058 <b00000001ef>:
  101058:	00000033          	add	zero,zero,zero
  10105c:	f9a8dce3          	bge	a7,s10,100ff4 <i00000001e1>
  101060:	00000033          	add	zero,zero,zero
  101064:	00a00d13          	li	s10,10

00101068 <i00000001ef>:
  101068:	00721313          	sll	t1,tp,0x7

0010106c <i00000001f0>:
  10106c:	01e03233          	snez	tp,t5

00101070 <i00000001f1>:
  101070:	6aa11003          	lh	zero,1706(sp)

00101074 <i00000001f2>:
  101074:	ba411423          	sh	tp,-1112(sp)

00101078 <i00000001f3>:
  101078:	8d615983          	lhu	s3,-1834(sp)

0010107c <i00000001f4>:
  10107c:	00ec8b33          	add	s6,s9,a4

00101080 <i00000001f5>:
  101080:	e2412023          	sw	tp,-480(sp)

00101084 <i00000001f6>:
  101084:	b8a11723          	sh	a0,-1138(sp)

00101088 <i00000001f7>:
  101088:	09a15503          	lhu	a0,154(sp)

0010108c <i00000001f8>:
  10108c:	bc6c0513          	add	a0,s8,-1082

00101090 <i00000001f9>:
  101090:	d8e14b03          	lbu	s6,-626(sp)

00101094 <i00000001fa>:
  101094:	2ab10f23          	sb	a1,702(sp)

00101098 <i00000001fb>:
  101098:	c92cc393          	xor	t2,s9,-878

0010109c <i00000001fc>:
  10109c:	5c1a8017          	auipc	zero,0x5c1a8

001010a0 <i00000001fd>:
  1010a0:	bb252613          	slti	a2,a0,-1102

001010a4 <i00000001fe>:
  1010a4:	11e11523          	sh	t5,266(sp)

001010a8 <i00000001ff>:
  1010a8:	4177dbb3          	sra	s7,a5,s7

001010ac <i0000000200>:
  1010ac:	3d362397          	auipc	t2,0x3d362

001010b0 <i0000000201>:
  1010b0:	00829f33          	sll	t5,t0,s0
  1010b4:	00b00f93          	li	t6,11
  1010b8:	00a00d13          	li	s10,10

001010bc <b0000000202>:
  1010bc:	00000033          	add	zero,zero,zero
  1010c0:	07afd663          	bge	t6,s10,10112c <i0000000210>
  1010c4:	00000033          	add	zero,zero,zero
  1010c8:	00a00d13          	li	s10,10

001010cc <i0000000202>:
  1010cc:	40f85413          	sra	s0,a6,0xf
  1010d0:	0000e117          	auipc	sp,0xe
  1010d4:	03010113          	add	sp,sp,48 # 10f100 <mem>
  1010d8:	0001f337          	lui	t1,0x1f
  1010dc:	71830313          	add	t1,t1,1816 # 1f718 <_stack_len+0x17718>
  1010e0:	00610133          	add	sp,sp,t1

001010e4 <i0000000203>:
  1010e4:	ce411e23          	sh	tp,-772(sp)

001010e8 <i0000000204>:
  1010e8:	21ecbf13          	sltiu	t5,s9,542

001010ec <i0000000205>:
  1010ec:	40425033          	sra	zero,tp,tp

001010f0 <i0000000206>:
  1010f0:	21812503          	lw	a0,536(sp)

001010f4 <i0000000207>:
  1010f4:	74a03537          	lui	a0,0x74a03
  1010f8:	0000e117          	auipc	sp,0xe
  1010fc:	00810113          	add	sp,sp,8 # 10f100 <mem>
  101100:	0006d337          	lui	t1,0x6d
  101104:	ed030313          	add	t1,t1,-304 # 6ced0 <tohost+0x4cec8>
  101108:	00610133          	add	sp,sp,t1

0010110c <i0000000208>:
  10110c:	aa215b03          	lhu	s6,-1374(sp)

00101110 <i0000000209>:
  101110:	c9412e23          	sw	s4,-868(sp)

00101114 <i000000020a>:
  101114:	00a03933          	snez	s2,a0

00101118 <i000000020b>:
  101118:	46114b03          	lbu	s6,1121(sp)

0010111c <i000000020c>:
  10111c:	00a25e33          	srl	t3,tp,a0

00101120 <i000000020d>:
  101120:	6ae65b17          	auipc	s6,0x6ae65

00101124 <i000000020e>:
  101124:	40645033          	sra	zero,s0,t1

00101128 <i000000020f>:
  101128:	ec010203          	lb	tp,-320(sp)

0010112c <i0000000210>:
  10112c:	e5215c03          	lhu	s8,-430(sp)

00101130 <i0000000211>:
  101130:	40fe5533          	sra	a0,t3,a5

00101134 <i0000000212>:
  101134:	fc412403          	lw	s0,-60(sp)

00101138 <i0000000213>:
  101138:	40475693          	sra	a3,a4,0x4
  10113c:	0000e117          	auipc	sp,0xe
  101140:	fc410113          	add	sp,sp,-60 # 10f100 <mem>
  101144:	00010337          	lui	t1,0x10
  101148:	9c030313          	add	t1,t1,-1600 # f9c0 <_stack_len+0x79c0>
  10114c:	00610133          	add	sp,sp,t1

00101150 <i0000000214>:
  101150:	c8611203          	lh	tp,-890(sp)
  101154:	00a00f93          	li	t6,10

00101158 <b0000000215>:
  101158:	00000033          	add	zero,zero,zero
  10115c:	fbfd1ae3          	bne	s10,t6,101110 <i0000000209>
  101160:	00000033          	add	zero,zero,zero
  101164:	00a00d13          	li	s10,10

00101168 <i0000000215>:
  101168:	21c11583          	lh	a1,540(sp)

0010116c <i0000000216>:
  10116c:	416f5bb3          	sra	s7,t5,s6

00101170 <i0000000217>:
  101170:	fbc03013          	sltiu	zero,zero,-68

00101174 <i0000000218>:
  101174:	4011d513          	sra	a0,gp,0x1
  101178:	0000e117          	auipc	sp,0xe
  10117c:	f8810113          	add	sp,sp,-120 # 10f100 <mem>
  101180:	0005f337          	lui	t1,0x5f
  101184:	4e030313          	add	t1,t1,1248 # 5f4e0 <tohost+0x3f4d8>
  101188:	00610133          	add	sp,sp,t1

0010118c <i0000000219>:
  10118c:	f3e11223          	sh	t5,-220(sp)

00101190 <i000000021a>:
  101190:	01e203b3          	add	t2,tp,t5

00101194 <i000000021b>:
  101194:	a4812003          	lw	zero,-1464(sp)

00101198 <i000000021c>:
  101198:	bd611623          	sh	s6,-1076(sp)
  10119c:	0000e117          	auipc	sp,0xe
  1011a0:	f6410113          	add	sp,sp,-156 # 10f100 <mem>
  1011a4:	00036337          	lui	t1,0x36
  1011a8:	52830313          	add	t1,t1,1320 # 36528 <tohost+0x16520>
  1011ac:	00610133          	add	sp,sp,t1

001011b0 <i000000021d>:
  1011b0:	9a411923          	sh	tp,-1614(sp)

001011b4 <i000000021e>:
  1011b4:	41578233          	sub	tp,a5,s5

001011b8 <i000000021f>:
  1011b8:	41e05b33          	sra	s6,zero,t5

001011bc <i0000000220>:
  1011bc:	5ff10023          	sb	t6,1504(sp)

001011c0 <i0000000221>:
  1011c0:	10215783          	lhu	a5,258(sp)
  1011c4:	0000e117          	auipc	sp,0xe
  1011c8:	f3c10113          	add	sp,sp,-196 # 10f100 <mem>
  1011cc:	0003d337          	lui	t1,0x3d
  1011d0:	2c830313          	add	t1,t1,712 # 3d2c8 <tohost+0x1d2c0>
  1011d4:	00610133          	add	sp,sp,t1

001011d8 <i0000000222>:
  1011d8:	d2415503          	lhu	a0,-732(sp)

001011dc <i0000000223>:
  1011dc:	02810823          	sb	s0,48(sp)

001011e0 <i0000000224>:
  1011e0:	97011923          	sh	a6,-1678(sp)

001011e4 <i0000000225>:
  1011e4:	91411b83          	lh	s7,-1772(sp)

001011e8 <i0000000226>:
  1011e8:	50a14503          	lbu	a0,1290(sp)

001011ec <i0000000227>:
  1011ec:	4f6f3e13          	sltiu	t3,t5,1270
  1011f0:	00c00e13          	li	t3,12
  1011f4:	001d0d13          	add	s10,s10,1

001011f8 <b0000000228>:
  1011f8:	01cd0863          	beq	s10,t3,101208 <b0000000228+0x10>
  1011fc:	00000e17          	auipc	t3,0x0
  101200:	fc0e0e13          	add	t3,t3,-64 # 1011bc <i0000000220>
  101204:	000e0567          	jalr	a0,t3
  101208:	00a00d13          	li	s10,10

0010120c <i0000000228>:
  10120c:	014f9db3          	sll	s11,t6,s4

00101210 <i0000000229>:
  101210:	411dd913          	sra	s2,s11,0x11
  101214:	0000e117          	auipc	sp,0xe
  101218:	eec10113          	add	sp,sp,-276 # 10f100 <mem>
  10121c:	00034337          	lui	t1,0x34
  101220:	98030313          	add	t1,t1,-1664 # 33980 <tohost+0x13978>
  101224:	00610133          	add	sp,sp,t1

00101228 <i000000022a>:
  101228:	69710003          	lb	zero,1687(sp)

0010122c <i000000022b>:
  10122c:	fbc12003          	lw	zero,-68(sp)

00101230 <i000000022c>:
  101230:	00e5fb33          	and	s6,a1,a4

00101234 <i000000022d>:
  101234:	007b1213          	sll	tp,s6,0x7

00101238 <i000000022e>:
  101238:	c4c12503          	lw	a0,-948(sp)

0010123c <i000000022f>:
  10123c:	00e90033          	add	zero,s2,a4

00101240 <i0000000230>:
  101240:	01de4b33          	xor	s6,t3,t4

00101244 <i0000000231>:
  101244:	bee11c03          	lh	s8,-1042(sp)

00101248 <i0000000232>:
  101248:	a5c11d23          	sh	t3,-1446(sp)

0010124c <i0000000233>:
  10124c:	40405733          	sra	a4,zero,tp

00101250 <i0000000234>:
  101250:	9fd12823          	sw	t4,-1552(sp)

00101254 <i0000000235>:
  101254:	aa010183          	lb	gp,-1376(sp)
  101258:	0000e117          	auipc	sp,0xe
  10125c:	ea810113          	add	sp,sp,-344 # 10f100 <mem>
  101260:	00008337          	lui	t1,0x8
  101264:	6c030313          	add	t1,t1,1728 # 86c0 <_stack_len+0x6c0>
  101268:	00610133          	add	sp,sp,t1

0010126c <i0000000236>:
  10126c:	40611503          	lh	a0,1030(sp)

00101270 <i0000000237>:
  101270:	e2415e83          	lhu	t4,-476(sp)

00101274 <i0000000238>:
  101274:	407ad533          	sra	a0,s5,t2

00101278 <i0000000239>:
  101278:	2a6102a3          	sb	t1,677(sp)

0010127c <i000000023a>:
  10127c:	009fdf33          	srl	t5,t6,s1
  101280:	00c00d93          	li	s11,12
  101284:	001d0d13          	add	s10,s10,1

00101288 <b000000023b>:
  101288:	00000033          	add	zero,zero,zero
  10128c:	fbbd4ae3          	blt	s10,s11,101240 <i0000000230>
  101290:	00000033          	add	zero,zero,zero
  101294:	00a00d13          	li	s10,10

00101298 <i000000023b>:
  101298:	ad612a23          	sw	s6,-1324(sp)

0010129c <i000000023c>:
  10129c:	0d611003          	lh	zero,214(sp)

001012a0 <i000000023d>:
  1012a0:	400206b3          	sub	a3,tp,zero

001012a4 <i000000023e>:
  1012a4:	99a54f93          	xor	t6,a0,-1638
  1012a8:	0000e117          	auipc	sp,0xe
  1012ac:	e5810113          	add	sp,sp,-424 # 10f100 <mem>
  1012b0:	0005e337          	lui	t1,0x5e
  1012b4:	a3030313          	add	t1,t1,-1488 # 5da30 <tohost+0x3da28>
  1012b8:	00610133          	add	sp,sp,t1

001012bc <i000000023f>:
  1012bc:	65a14503          	lbu	a0,1626(sp)

001012c0 <i0000000240>:
  1012c0:	01e21e33          	sll	t3,tp,t5

001012c4 <i0000000241>:
  1012c4:	004b04b3          	add	s1,s6,tp

001012c8 <i0000000242>:
  1012c8:	019685b3          	add	a1,a3,s9

001012cc <i0000000243>:
  1012cc:	d2012023          	sw	zero,-736(sp)

001012d0 <i0000000244>:
  1012d0:	8bd11523          	sh	t4,-1878(sp)

001012d4 <i0000000245>:
  1012d4:	3fe42a13          	slti	s4,s0,1022

001012d8 <i0000000246>:
  1012d8:	41f45233          	sra	tp,s0,t6

001012dc <i0000000247>:
  1012dc:	1ce7ee93          	or	t4,a5,462

001012e0 <i0000000248>:
  1012e0:	00da6033          	or	zero,s4,a3
  1012e4:	0000e117          	auipc	sp,0xe
  1012e8:	e1c10113          	add	sp,sp,-484 # 10f100 <mem>
  1012ec:	00011337          	lui	t1,0x11
  1012f0:	4f830313          	add	t1,t1,1272 # 114f8 <_stack_len+0x94f8>
  1012f4:	00610133          	add	sp,sp,t1

001012f8 <i0000000249>:
  1012f8:	e6012a23          	sw	zero,-396(sp)

001012fc <i000000024a>:
  1012fc:	7ca11323          	sh	a0,1990(sp)

00101300 <i000000024b>:
  101300:	dab10203          	lb	tp,-597(sp)

00101304 <i000000024c>:
  101304:	41f98eb3          	sub	t4,s3,t6
  101308:	0000e117          	auipc	sp,0xe
  10130c:	df810113          	add	sp,sp,-520 # 10f100 <mem>
  101310:	0000b337          	lui	t1,0xb
  101314:	26830313          	add	t1,t1,616 # b268 <_stack_len+0x3268>
  101318:	00610133          	add	sp,sp,t1

0010131c <i000000024d>:
  10131c:	21910383          	lb	t2,537(sp)
  101320:	00900a93          	li	s5,9

00101324 <b000000024e>:
  101324:	00000033          	add	zero,zero,zero
  101328:	f95d4ee3          	blt	s10,s5,1012c4 <i0000000241>
  10132c:	00000033          	add	zero,zero,zero
  101330:	00a00d13          	li	s10,10

00101334 <i000000024e>:
  101334:	f1611223          	sh	s6,-252(sp)

00101338 <i000000024f>:
  101338:	52130213          	add	tp,t1,1313

0010133c <i0000000250>:
  10133c:	22914703          	lbu	a4,553(sp)

00101340 <i0000000251>:
  101340:	5b012a23          	sw	a6,1460(sp)
  101344:	0000e117          	auipc	sp,0xe
  101348:	dbc10113          	add	sp,sp,-580 # 10f100 <mem>
  10134c:	00019337          	lui	t1,0x19
  101350:	5a830313          	add	t1,t1,1448 # 195a8 <_stack_len+0x115a8>
  101354:	00610133          	add	sp,sp,t1

00101358 <i0000000252>:
  101358:	30011583          	lh	a1,768(sp)

0010135c <i0000000253>:
  10135c:	e9010183          	lb	gp,-368(sp)

00101360 <i0000000254>:
  101360:	7be12c23          	sw	t5,1976(sp)

00101364 <i0000000255>:
  101364:	6f810b03          	lb	s6,1784(sp)

00101368 <i0000000256>:
  101368:	414809b3          	sub	s3,a6,s4

0010136c <i0000000257>:
  10136c:	01655633          	srl	a2,a0,s6

00101370 <i0000000258>:
  101370:	07e11a23          	sh	t5,116(sp)

00101374 <i0000000259>:
  101374:	01650533          	add	a0,a0,s6

00101378 <i000000025a>:
  101378:	019ee9b3          	or	s3,t4,s9

0010137c <i000000025b>:
  10137c:	24a12023          	sw	a0,576(sp)

00101380 <i000000025c>:
  101380:	8aa12c23          	sw	a0,-1864(sp)
  101384:	0000e117          	auipc	sp,0xe
  101388:	d7c10113          	add	sp,sp,-644 # 10f100 <mem>
  10138c:	00068337          	lui	t1,0x68
  101390:	d9030313          	add	t1,t1,-624 # 67d90 <tohost+0x47d88>
  101394:	00610133          	add	sp,sp,t1

00101398 <i000000025d>:
  101398:	1ac12c83          	lw	s9,428(sp)

0010139c <i000000025e>:
  10139c:	408bd013          	sra	zero,s7,0x8

001013a0 <i000000025f>:
  1013a0:	52410ea3          	sb	tp,1341(sp)

001013a4 <i0000000260>:
  1013a4:	0103a833          	slt	a6,t2,a6

001013a8 <b0000000261>:
  1013a8:	00000e97          	auipc	t4,0x0
  1013ac:	068e8e93          	add	t4,t4,104 # 101410 <i000000026e>
  1013b0:	000e8567          	jalr	a0,t4

001013b4 <i0000000261>:
  1013b4:	40705f13          	sra	t5,zero,0x7
  1013b8:	0000e117          	auipc	sp,0xe
  1013bc:	d4810113          	add	sp,sp,-696 # 10f100 <mem>
  1013c0:	0000e337          	lui	t1,0xe
  1013c4:	1e830313          	add	t1,t1,488 # e1e8 <_stack_len+0x61e8>
  1013c8:	00610133          	add	sp,sp,t1

001013cc <i0000000262>:
  1013cc:	16010b23          	sb	zero,374(sp)

001013d0 <i0000000263>:
  1013d0:	b9f10603          	lb	a2,-1121(sp)

001013d4 <i0000000264>:
  1013d4:	40858cb3          	sub	s9,a1,s0

001013d8 <i0000000265>:
  1013d8:	40405f33          	sra	t5,zero,tp

001013dc <i0000000266>:
  1013dc:	410b5b13          	sra	s6,s6,0x10

001013e0 <i0000000267>:
  1013e0:	01af1593          	sll	a1,t5,0x1a

001013e4 <i0000000268>:
  1013e4:	01e054b3          	srl	s1,zero,t5

001013e8 <i0000000269>:
  1013e8:	f0e11f03          	lh	t5,-242(sp)

001013ec <i000000026a>:
  1013ec:	f6f11723          	sh	a5,-146(sp)
  1013f0:	0000e117          	auipc	sp,0xe
  1013f4:	d1010113          	add	sp,sp,-752 # 10f100 <mem>
  1013f8:	0006a337          	lui	t1,0x6a
  1013fc:	17030313          	add	t1,t1,368 # 6a170 <tohost+0x4a168>
  101400:	00610133          	add	sp,sp,t1

00101404 <i000000026b>:
  101404:	12310c23          	sb	gp,312(sp)

00101408 <i000000026c>:
  101408:	01c6c033          	xor	zero,a3,t3

0010140c <i000000026d>:
  10140c:	01604cb3          	xor	s9,zero,s6

00101410 <i000000026e>:
  101410:	008875b3          	and	a1,a6,s0

00101414 <i000000026f>:
  101414:	4e012683          	lw	a3,1248(sp)

00101418 <i0000000270>:
  101418:	e8520013          	add	zero,tp,-379 # 7ea9ee85 <fromhost+0x7e916e75>

0010141c <i0000000271>:
  10141c:	3dcfcf13          	xor	t5,t6,988

00101420 <i0000000272>:
  101420:	50710f03          	lb	t5,1287(sp)

00101424 <i0000000273>:
  101424:	b7c11483          	lh	s1,-1156(sp)
  101428:	00b00993          	li	s3,11
  10142c:	00a00d13          	li	s10,10

00101430 <b0000000274>:
  101430:	00000033          	add	zero,zero,zero
  101434:	073d1263          	bne	s10,s3,101498 <i0000000280>
  101438:	00000033          	add	zero,zero,zero
  10143c:	00a00d13          	li	s10,10

00101440 <i0000000274>:
  101440:	e7412003          	lw	zero,-396(sp)

00101444 <i0000000275>:
  101444:	7b1f3913          	sltiu	s2,t5,1969

00101448 <i0000000276>:
  101448:	29215003          	lhu	zero,658(sp)

0010144c <i0000000277>:
  10144c:	79c12823          	sw	t3,1936(sp)

00101450 <i0000000278>:
  101450:	4fe12a23          	sw	t5,1268(sp)

00101454 <i0000000279>:
  101454:	63612e23          	sw	s6,1596(sp)

00101458 <i000000027a>:
  101458:	00ce1033          	sll	zero,t3,a2

0010145c <i000000027b>:
  10145c:	281bf893          	and	a7,s7,641

00101460 <i000000027c>:
  101460:	fd211983          	lh	s3,-46(sp)

00101464 <i000000027d>:
  101464:	00615b03          	lhu	s6,6(sp)
  101468:	0000e117          	auipc	sp,0xe
  10146c:	c9810113          	add	sp,sp,-872 # 10f100 <mem>
  101470:	00007337          	lui	t1,0x7
  101474:	60830313          	add	t1,t1,1544 # 7608 <_min_stack+0x5608>
  101478:	00610133          	add	sp,sp,t1

0010147c <i000000027e>:
  10147c:	b9110e23          	sb	a7,-1124(sp)
  101480:	0000e117          	auipc	sp,0xe
  101484:	c8010113          	add	sp,sp,-896 # 10f100 <mem>
  101488:	0004b337          	lui	t1,0x4b
  10148c:	d4830313          	add	t1,t1,-696 # 4ad48 <tohost+0x2ad40>
  101490:	00610133          	add	sp,sp,t1

00101494 <i000000027f>:
  101494:	a8710003          	lb	zero,-1401(sp)

00101498 <i0000000280>:
  101498:	f8f57a13          	and	s4,a0,-113

0010149c <i0000000281>:
  10149c:	15c11a83          	lh	s5,348(sp)

001014a0 <i0000000282>:
  1014a0:	75082217          	auipc	tp,0x75082

001014a4 <i0000000283>:
  1014a4:	dac10003          	lb	zero,-596(sp)

001014a8 <i0000000284>:
  1014a8:	00424533          	xor	a0,tp,tp

001014ac <i0000000285>:
  1014ac:	9ca72213          	slti	tp,a4,-1590

001014b0 <i0000000286>:
  1014b0:	0f233f13          	sltiu	t5,t1,242
  1014b4:	00900a13          	li	s4,9

001014b8 <b0000000287>:
  1014b8:	00000033          	add	zero,zero,zero
  1014bc:	ffaa50e3          	bge	s4,s10,10149c <i0000000281>
  1014c0:	00000033          	add	zero,zero,zero
  1014c4:	00a00d13          	li	s10,10

001014c8 <i0000000287>:
  1014c8:	8ef14603          	lbu	a2,-1809(sp)

001014cc <i0000000288>:
  1014cc:	98b12e23          	sw	a1,-1636(sp)

001014d0 <i0000000289>:
  1014d0:	51127f37          	lui	t5,0x51127

001014d4 <i000000028a>:
  1014d4:	20411c03          	lh	s8,516(sp)

001014d8 <i000000028b>:
  1014d8:	8b322213          	slti	tp,tp,-1869

001014dc <i000000028c>:
  1014dc:	62637c93          	and	s9,t1,1574
  1014e0:	0000e117          	auipc	sp,0xe
  1014e4:	c2010113          	add	sp,sp,-992 # 10f100 <mem>
  1014e8:	00032337          	lui	t1,0x32
  1014ec:	87030313          	add	t1,t1,-1936 # 31870 <tohost+0x11868>
  1014f0:	00610133          	add	sp,sp,t1

001014f4 <i000000028d>:
  1014f4:	c7e10b03          	lb	s6,-898(sp)

001014f8 <i000000028e>:
  1014f8:	053b2f13          	slti	t5,s6,83

001014fc <i000000028f>:
  1014fc:	1f610ea3          	sb	s6,509(sp)

00101500 <i0000000290>:
  101500:	791f3e13          	sltiu	t3,t5,1937

00101504 <i0000000291>:
  101504:	16011e03          	lh	t3,352(sp)

00101508 <i0000000292>:
  101508:	c5b12623          	sw	s11,-948(sp)

0010150c <i0000000293>:
  10150c:	289a2013          	slti	zero,s4,649

00101510 <i0000000294>:
  101510:	009ae533          	or	a0,s5,s1

00101514 <i0000000295>:
  101514:	22711023          	sh	t2,544(sp)

00101518 <i0000000296>:
  101518:	a2d12e23          	sw	a3,-1476(sp)
  10151c:	0000e117          	auipc	sp,0xe
  101520:	be410113          	add	sp,sp,-1052 # 10f100 <mem>
  101524:	0005c337          	lui	t1,0x5c
  101528:	99830313          	add	t1,t1,-1640 # 5b998 <tohost+0x3b990>
  10152c:	00610133          	add	sp,sp,t1

00101530 <i0000000297>:
  101530:	9c510283          	lb	t0,-1595(sp)

00101534 <i0000000298>:
  101534:	1ec14203          	lbu	tp,492(sp)

00101538 <i0000000299>:
  101538:	00455b33          	srl	s6,a0,tp
  10153c:	00900a13          	li	s4,9

00101540 <b000000029a>:
  101540:	00000033          	add	zero,zero,zero
  101544:	fb4d48e3          	blt	s10,s4,1014f4 <i000000028d>
  101548:	00000033          	add	zero,zero,zero
  10154c:	00a00d13          	li	s10,10

00101550 <i000000029a>:
  101550:	48253b13          	sltiu	s6,a0,1154

00101554 <i000000029b>:
  101554:	00a00f33          	add	t5,zero,a0

00101558 <i000000029c>:
  101558:	a2512a23          	sw	t0,-1484(sp)

0010155c <i000000029d>:
  10155c:	01dc8033          	add	zero,s9,t4

00101560 <i000000029e>:
  101560:	1bc14483          	lbu	s1,444(sp)

00101564 <i000000029f>:
  101564:	c0053b93          	sltiu	s7,a0,-1024

00101568 <i00000002a0>:
  101568:	89f6f613          	and	a2,a3,-1889

0010156c <i00000002a1>:
  10156c:	a3402713          	slti	a4,zero,-1484
  101570:	0000e117          	auipc	sp,0xe
  101574:	b9010113          	add	sp,sp,-1136 # 10f100 <mem>
  101578:	00039337          	lui	t1,0x39
  10157c:	1a030313          	add	t1,t1,416 # 391a0 <tohost+0x19198>
  101580:	00610133          	add	sp,sp,t1

00101584 <i00000002a2>:
  101584:	ab615b03          	lhu	s6,-1354(sp)

00101588 <i00000002a3>:
  101588:	6ec12a83          	lw	s5,1772(sp)

0010158c <i00000002a4>:
  10158c:	e5811903          	lh	s2,-424(sp)

00101590 <i00000002a5>:
  101590:	d40b3513          	sltiu	a0,s6,-704

00101594 <i00000002a6>:
  101594:	1129b693          	sltiu	a3,s3,274

00101598 <i00000002a7>:
  101598:	008742b3          	xor	t0,a4,s0

0010159c <i00000002a8>:
  10159c:	8b511723          	sh	s5,-1874(sp)

001015a0 <i00000002a9>:
  1015a0:	6c811003          	lh	zero,1736(sp)

001015a4 <i00000002aa>:
  1015a4:	7b012583          	lw	a1,1968(sp)

001015a8 <i00000002ab>:
  1015a8:	7be11a23          	sh	t5,1972(sp)

001015ac <i00000002ac>:
  1015ac:	2ae11203          	lh	tp,686(sp)
  1015b0:	00c00b13          	li	s6,12
  1015b4:	00a00d13          	li	s10,10

001015b8 <b00000002ad>:
  1015b8:	00000033          	add	zero,zero,zero
  1015bc:	056d4c63          	blt	s10,s6,101614 <i00000002bb>
  1015c0:	00000033          	add	zero,zero,zero
  1015c4:	00a00d13          	li	s10,10

001015c8 <i00000002ad>:
  1015c8:	86b22413          	slti	s0,tp,-1941

001015cc <i00000002ae>:
  1015cc:	00b14403          	lbu	s0,11(sp)

001015d0 <i00000002af>:
  1015d0:	40835213          	sra	tp,t1,0x8

001015d4 <i00000002b0>:
  1015d4:	0d10f817          	auipc	a6,0xd10f

001015d8 <i00000002b1>:
  1015d8:	1fc104a3          	sb	t3,489(sp)

001015dc <i00000002b2>:
  1015dc:	9c012b03          	lw	s6,-1600(sp)

001015e0 <i00000002b3>:
  1015e0:	d0614f03          	lbu	t5,-762(sp)

001015e4 <i00000002b4>:
  1015e4:	60fa2f13          	slti	t5,s4,1551

001015e8 <i00000002b5>:
  1015e8:	40325513          	sra	a0,tp,0x3

001015ec <i00000002b6>:
  1015ec:	0af10f03          	lb	t5,175(sp)

001015f0 <i00000002b7>:
  1015f0:	f013fc93          	and	s9,t2,-255
  1015f4:	0000e117          	auipc	sp,0xe
  1015f8:	b0c10113          	add	sp,sp,-1268 # 10f100 <mem>
  1015fc:	00068337          	lui	t1,0x68
  101600:	3f030313          	add	t1,t1,1008 # 683f0 <tohost+0x483e8>
  101604:	00610133          	add	sp,sp,t1

00101608 <i00000002b8>:
  101608:	98012423          	sw	zero,-1656(sp)

0010160c <i00000002b9>:
  10160c:	8dc14a83          	lbu	s5,-1828(sp)

00101610 <i00000002ba>:
  101610:	c3e106a3          	sb	t5,-979(sp)

00101614 <i00000002bb>:
  101614:	40055333          	sra	t1,a0,zero

00101618 <i00000002bc>:
  101618:	4b1c4217          	auipc	tp,0x4b1c4

0010161c <i00000002bd>:
  10161c:	c2d14283          	lbu	t0,-979(sp)

00101620 <i00000002be>:
  101620:	db760013          	add	zero,a2,-585
  101624:	0000e117          	auipc	sp,0xe
  101628:	adc10113          	add	sp,sp,-1316 # 10f100 <mem>
  10162c:	00032337          	lui	t1,0x32
  101630:	4f030313          	add	t1,t1,1264 # 324f0 <tohost+0x124e8>
  101634:	00610133          	add	sp,sp,t1

00101638 <i00000002bf>:
  101638:	2ae15003          	lhu	zero,686(sp)
  10163c:	00a00c93          	li	s9,10

00101640 <b00000002c0>:
  101640:	00000033          	add	zero,zero,zero
  101644:	fb9d12e3          	bne	s10,s9,1015e8 <i00000002b5>
  101648:	00000033          	add	zero,zero,zero
  10164c:	00a00d13          	li	s10,10
  101650:	0000e117          	auipc	sp,0xe
  101654:	ab010113          	add	sp,sp,-1360 # 10f100 <mem>
  101658:	00022337          	lui	t1,0x22
  10165c:	3b830313          	add	t1,t1,952 # 223b8 <tohost+0x23b0>
  101660:	00610133          	add	sp,sp,t1

00101664 <i00000002c0>:
  101664:	b2811283          	lh	t0,-1240(sp)

00101668 <i00000002c1>:
  101668:	8fe11023          	sh	t5,-1824(sp)

0010166c <i00000002c2>:
  10166c:	2e012c03          	lw	s8,736(sp)

00101670 <i00000002c3>:
  101670:	7bd57513          	and	a0,a0,1981

00101674 <i00000002c4>:
  101674:	3c012623          	sw	zero,972(sp)
  101678:	0000e117          	auipc	sp,0xe
  10167c:	a8810113          	add	sp,sp,-1400 # 10f100 <mem>
  101680:	00022337          	lui	t1,0x22
  101684:	1d030313          	add	t1,t1,464 # 221d0 <tohost+0x21c8>
  101688:	00610133          	add	sp,sp,t1

0010168c <i00000002c5>:
  10168c:	fd810f03          	lb	t5,-40(sp)

00101690 <i00000002c6>:
  101690:	6213e9b7          	lui	s3,0x6213e

00101694 <i00000002c7>:
  101694:	40530033          	sub	zero,t1,t0

00101698 <i00000002c8>:
  101698:	ce415683          	lhu	a3,-796(sp)

0010169c <i00000002c9>:
  10169c:	01f25b13          	srl	s6,tp,0x1f

001016a0 <i00000002ca>:
  1016a0:	00525213          	srl	tp,tp,0x5

001016a4 <i00000002cb>:
  1016a4:	00012823          	sw	zero,16(sp)

001016a8 <i00000002cc>:
  1016a8:	59615b83          	lhu	s7,1430(sp)

001016ac <i00000002cd>:
  1016ac:	9bc10b83          	lb	s7,-1604(sp)

001016b0 <i00000002ce>:
  1016b0:	00969233          	sll	tp,a3,s1

001016b4 <i00000002cf>:
  1016b4:	4a012583          	lw	a1,1184(sp)

001016b8 <i00000002d0>:
  1016b8:	019bb233          	sltu	tp,s7,s9

001016bc <i00000002d1>:
  1016bc:	00001733          	sll	a4,zero,zero

001016c0 <i00000002d2>:
  1016c0:	da012e23          	sw	zero,-580(sp)
  1016c4:	00900f93          	li	t6,9
  1016c8:	00a00d13          	li	s10,10

001016cc <b00000002d3>:
  1016cc:	00000033          	add	zero,zero,zero
  1016d0:	03fd4463          	blt	s10,t6,1016f8 <i00000002da>
  1016d4:	00000033          	add	zero,zero,zero
  1016d8:	00a00d13          	li	s10,10

001016dc <i00000002d3>:
  1016dc:	81811503          	lh	a0,-2024(sp)

001016e0 <i00000002d4>:
  1016e0:	01c8e533          	or	a0,a7,t3

001016e4 <i00000002d5>:
  1016e4:	b0b11523          	sh	a1,-1270(sp)

001016e8 <i00000002d6>:
  1016e8:	3ae10a03          	lb	s4,942(sp)

001016ec <i00000002d7>:
  1016ec:	41e50033          	sub	zero,a0,t5

001016f0 <i00000002d8>:
  1016f0:	1dc2cb13          	xor	s6,t0,476

001016f4 <i00000002d9>:
  1016f4:	a1710b83          	lb	s7,-1513(sp)

001016f8 <i00000002da>:
  1016f8:	7d9a5f37          	lui	t5,0x7d9a5

001016fc <i00000002db>:
  1016fc:	01190f33          	add	t5,s2,a7

00101700 <i00000002dc>:
  101700:	0174f533          	and	a0,s1,s7

00101704 <i00000002dd>:
  101704:	63c12203          	lw	tp,1596(sp)

00101708 <i00000002de>:
  101708:	00452233          	slt	tp,a0,tp

0010170c <i00000002df>:
  10170c:	abf14003          	lbu	zero,-1345(sp)
  101710:	0000e117          	auipc	sp,0xe
  101714:	9f010113          	add	sp,sp,-1552 # 10f100 <mem>
  101718:	0002b337          	lui	t1,0x2b
  10171c:	ea030313          	add	t1,t1,-352 # 2aea0 <tohost+0xae98>
  101720:	00610133          	add	sp,sp,t1

00101724 <i00000002e0>:
  101724:	91112823          	sw	a7,-1776(sp)

00101728 <i00000002e1>:
  101728:	01b31513          	sll	a0,t1,0x1b

0010172c <i00000002e2>:
  10172c:	51e15683          	lhu	a3,1310(sp)

00101730 <i00000002e3>:
  101730:	18f11b23          	sh	a5,406(sp)

00101734 <i00000002e4>:
  101734:	558b3f13          	sltiu	t5,s6,1368

00101738 <i00000002e5>:
  101738:	01941193          	sll	gp,s0,0x19
  10173c:	00b00a93          	li	s5,11
  101740:	00a00d13          	li	s10,10

00101744 <b00000002e6>:
  101744:	00000033          	add	zero,zero,zero
  101748:	055d1663          	bne	s10,s5,101794 <i00000002ec>
  10174c:	00000033          	add	zero,zero,zero
  101750:	00a00d13          	li	s10,10

00101754 <i00000002e6>:
  101754:	00f2eb33          	or	s6,t0,a5

00101758 <i00000002e7>:
  101758:	7c811003          	lh	zero,1992(sp)

0010175c <i00000002e8>:
  10175c:	0058dfb3          	srl	t6,a7,t0

00101760 <i00000002e9>:
  101760:	a2e11203          	lh	tp,-1490(sp)
  101764:	0000e117          	auipc	sp,0xe
  101768:	99c10113          	add	sp,sp,-1636 # 10f100 <mem>
  10176c:	0001f337          	lui	t1,0x1f
  101770:	85830313          	add	t1,t1,-1960 # 1e858 <_stack_len+0x16858>
  101774:	00610133          	add	sp,sp,t1

00101778 <i00000002ea>:
  101778:	4aa11683          	lh	a3,1194(sp)

0010177c <i00000002eb>:
  10177c:	6eb40017          	auipc	zero,0x6eb40
  101780:	0000e117          	auipc	sp,0xe
  101784:	98010113          	add	sp,sp,-1664 # 10f100 <mem>
  101788:	0000a337          	lui	t1,0xa
  10178c:	79030313          	add	t1,t1,1936 # a790 <_stack_len+0x2790>
  101790:	00610133          	add	sp,sp,t1

00101794 <i00000002ec>:
  101794:	53710503          	lb	a0,1335(sp)

00101798 <i00000002ed>:
  101798:	41825013          	sra	zero,tp,0x18

0010179c <i00000002ee>:
  10179c:	a5cbef13          	or	t5,s7,-1444

001017a0 <i00000002ef>:
  1017a0:	c3211203          	lh	tp,-974(sp)
  1017a4:	0000e117          	auipc	sp,0xe
  1017a8:	95c10113          	add	sp,sp,-1700 # 10f100 <mem>
  1017ac:	00025337          	lui	t1,0x25
  1017b0:	04830313          	add	t1,t1,72 # 25048 <tohost+0x5040>
  1017b4:	00610133          	add	sp,sp,t1

001017b8 <i00000002f0>:
  1017b8:	43611d23          	sh	s6,1082(sp)
  1017bc:	0000e117          	auipc	sp,0xe
  1017c0:	94410113          	add	sp,sp,-1724 # 10f100 <mem>
  1017c4:	0005c337          	lui	t1,0x5c
  1017c8:	e9830313          	add	t1,t1,-360 # 5be98 <tohost+0x3be90>
  1017cc:	00610133          	add	sp,sp,t1

001017d0 <i00000002f1>:
  1017d0:	0dc106a3          	sb	t3,205(sp)
  1017d4:	0000e117          	auipc	sp,0xe
  1017d8:	92c10113          	add	sp,sp,-1748 # 10f100 <mem>
  1017dc:	0000d337          	lui	t1,0xd
  1017e0:	71830313          	add	t1,t1,1816 # d718 <_stack_len+0x5718>
  1017e4:	00610133          	add	sp,sp,t1

001017e8 <i00000002f2>:
  1017e8:	d2411583          	lh	a1,-732(sp)

001017ec <i00000002f3>:
  1017ec:	f31fce93          	xor	t4,t6,-207

001017f0 <i00000002f4>:
  1017f0:	40ab5033          	sra	zero,s6,a0

001017f4 <i00000002f5>:
  1017f4:	dbd94013          	xor	zero,s2,-579

001017f8 <i00000002f6>:
  1017f8:	41eb5f33          	sra	t5,s6,t5

001017fc <i00000002f7>:
  1017fc:	01f8d033          	srl	zero,a7,t6
  101800:	0000e117          	auipc	sp,0xe
  101804:	90010113          	add	sp,sp,-1792 # 10f100 <mem>
  101808:	0001c337          	lui	t1,0x1c
  10180c:	e1830313          	add	t1,t1,-488 # 1be18 <_stack_len+0x13e18>
  101810:	00610133          	add	sp,sp,t1

00101814 <i00000002f8>:
  101814:	ae412203          	lw	tp,-1308(sp)
  101818:	00c00b13          	li	s6,12
  10181c:	001d0d13          	add	s10,s10,1

00101820 <b00000002f9>:
  101820:	00000033          	add	zero,zero,zero
  101824:	f96d4ae3          	blt	s10,s6,1017b8 <i00000002f0>
  101828:	00000033          	add	zero,zero,zero
  10182c:	00a00d13          	li	s10,10

00101830 <i00000002f9>:
  101830:	73e107a3          	sb	t5,1839(sp)

00101834 <i00000002fa>:
  101834:	00235b13          	srl	s6,t1,0x2

00101838 <i00000002fb>:
  101838:	7ff22313          	slti	t1,tp,2047

0010183c <i00000002fc>:
  10183c:	5d412223          	sw	s4,1476(sp)

00101840 <i00000002fd>:
  101840:	2472cc93          	xor	s9,t0,583

00101844 <i00000002fe>:
  101844:	00020233          	add	tp,tp,zero

00101848 <i00000002ff>:
  101848:	8c812b83          	lw	s7,-1848(sp)

0010184c <i0000000300>:
  10184c:	012aef33          	or	t5,s5,s2

00101850 <i0000000301>:
  101850:	012e9233          	sll	tp,t4,s2

00101854 <i0000000302>:
  101854:	0066ef33          	or	t5,a3,t1

00101858 <i0000000303>:
  101858:	17db2d93          	slti	s11,s6,381

0010185c <i0000000304>:
  10185c:	00b1a533          	slt	a0,gp,a1

00101860 <i0000000305>:
  101860:	41e008b3          	neg	a7,t5

00101864 <i0000000306>:
  101864:	9ba14383          	lbu	t2,-1606(sp)

00101868 <i0000000307>:
  101868:	01c7ec33          	or	s8,a5,t3
  10186c:	0000e117          	auipc	sp,0xe
  101870:	89410113          	add	sp,sp,-1900 # 10f100 <mem>
  101874:	00004337          	lui	t1,0x4
  101878:	c5030313          	add	t1,t1,-944 # 3c50 <_min_stack+0x1c50>
  10187c:	00610133          	add	sp,sp,t1

00101880 <i0000000308>:
  101880:	1fb10f03          	lb	t5,507(sp)

00101884 <i0000000309>:
  101884:	40a55233          	sra	tp,a0,a0

00101888 <i000000030a>:
  101888:	7d012b83          	lw	s7,2000(sp)

0010188c <i000000030b>:
  10188c:	0032e8b3          	or	a7,t0,gp
  101890:	00900c13          	li	s8,9

00101894 <b000000030c>:
  101894:	00000033          	add	zero,zero,zero
  101898:	fdac50e3          	bge	s8,s10,101858 <i0000000303>
  10189c:	00000033          	add	zero,zero,zero
  1018a0:	00a00d13          	li	s10,10

001018a4 <i000000030c>:
  1018a4:	9276c013          	xor	zero,a3,-1753

001018a8 <i000000030d>:
  1018a8:	6d812c03          	lw	s8,1752(sp)

001018ac <i000000030e>:
  1018ac:	016b2a33          	slt	s4,s6,s6

001018b0 <i000000030f>:
  1018b0:	392e6513          	or	a0,t3,914

001018b4 <i0000000310>:
  1018b4:	b3876693          	or	a3,a4,-1224

001018b8 <i0000000311>:
  1018b8:	0147cb33          	xor	s6,a5,s4

001018bc <i0000000312>:
  1018bc:	00fa0f33          	add	t5,s4,a5

001018c0 <i0000000313>:
  1018c0:	01da4533          	xor	a0,s4,t4

001018c4 <i0000000314>:
  1018c4:	0143df13          	srl	t5,t2,0x14

001018c8 <i0000000315>:
  1018c8:	40e409b3          	sub	s3,s0,a4

001018cc <i0000000316>:
  1018cc:	7a4b29b7          	lui	s3,0x7a4b2

001018d0 <i0000000317>:
  1018d0:	aac15003          	lhu	zero,-1364(sp)

001018d4 <i0000000318>:
  1018d4:	f9812603          	lw	a2,-104(sp)

001018d8 <i0000000319>:
  1018d8:	9bf14003          	lbu	zero,-1601(sp)
  1018dc:	0000e117          	auipc	sp,0xe
  1018e0:	82410113          	add	sp,sp,-2012 # 10f100 <mem>
  1018e4:	0005e337          	lui	t1,0x5e
  1018e8:	15830313          	add	t1,t1,344 # 5e158 <tohost+0x3e150>
  1018ec:	00610133          	add	sp,sp,t1

001018f0 <i000000031a>:
  1018f0:	52d10683          	lb	a3,1325(sp)

001018f4 <i000000031b>:
  1018f4:	00779e13          	sll	t3,a5,0x7

001018f8 <i000000031c>:
  1018f8:	016f4633          	xor	a2,t5,s6

001018fc <i000000031d>:
  1018fc:	f4211b03          	lh	s6,-190(sp)

00101900 <i000000031e>:
  101900:	00000f33          	add	t5,zero,zero
  101904:	00900c13          	li	s8,9

00101908 <b000000031f>:
  101908:	00000033          	add	zero,zero,zero
  10190c:	fbac5ce3          	bge	s8,s10,1018c4 <i0000000314>
  101910:	00000033          	add	zero,zero,zero
  101914:	00a00d13          	li	s10,10

00101918 <i000000031f>:
  101918:	00a222b3          	slt	t0,tp,a0

0010191c <i0000000320>:
  10191c:	41168633          	sub	a2,a3,a7

00101920 <i0000000321>:
  101920:	013e2f33          	slt	t5,t3,s3

00101924 <i0000000322>:
  101924:	4139d593          	sra	a1,s3,0x13

00101928 <i0000000323>:
  101928:	01656e33          	or	t3,a0,s6

0010192c <i0000000324>:
  10192c:	ba211003          	lh	zero,-1118(sp)

00101930 <i0000000325>:
  101930:	f1107f13          	and	t5,zero,-239

00101934 <i0000000326>:
  101934:	55810f03          	lb	t5,1368(sp)

00101938 <i0000000327>:
  101938:	6f211003          	lh	zero,1778(sp)

0010193c <i0000000328>:
  10193c:	b30c2b93          	slti	s7,s8,-1232

00101940 <i0000000329>:
  101940:	9bf11923          	sh	t6,-1614(sp)

00101944 <i000000032a>:
  101944:	d3215a83          	lhu	s5,-718(sp)

00101948 <i000000032b>:
  101948:	01489033          	sll	zero,a7,s4

0010194c <i000000032c>:
  10194c:	016f4ab3          	xor	s5,t5,s6

00101950 <i000000032d>:
  101950:	5e010503          	lb	a0,1504(sp)

00101954 <i000000032e>:
  101954:	192101a3          	sb	s2,387(sp)

00101958 <i000000032f>:
  101958:	016b0fb3          	add	t6,s6,s6

0010195c <i0000000330>:
  10195c:	016f0bb3          	add	s7,t5,s6

00101960 <i0000000331>:
  101960:	a9c14503          	lbu	a0,-1380(sp)
  101964:	00c00993          	li	s3,12
  101968:	001d0d13          	add	s10,s10,1

0010196c <b0000000332>:
  10196c:	013d0463          	beq	s10,s3,101974 <b0000000332+0x8>
  101970:	fd1ff56f          	jal	a0,101940 <i0000000329>
  101974:	00a00d13          	li	s10,10

00101978 <i0000000332>:
  101978:	00af37b3          	sltu	a5,t5,a0
  10197c:	0000d117          	auipc	sp,0xd
  101980:	78410113          	add	sp,sp,1924 # 10f100 <mem>
  101984:	00066337          	lui	t1,0x66
  101988:	58830313          	add	t1,t1,1416 # 66588 <tohost+0x46580>
  10198c:	00610133          	add	sp,sp,t1

00101990 <i0000000333>:
  101990:	d6c10f03          	lb	t5,-660(sp)

00101994 <i0000000334>:
  101994:	db215503          	lhu	a0,-590(sp)

00101998 <i0000000335>:
  101998:	40660f33          	sub	t5,a2,t1

0010199c <i0000000336>:
  10199c:	fc415a03          	lhu	s4,-60(sp)

001019a0 <i0000000337>:
  1019a0:	7d210923          	sb	s2,2002(sp)
  1019a4:	0000d117          	auipc	sp,0xd
  1019a8:	75c10113          	add	sp,sp,1884 # 10f100 <mem>
  1019ac:	0006c337          	lui	t1,0x6c
  1019b0:	c5830313          	add	t1,t1,-936 # 6bc58 <tohost+0x4bc50>
  1019b4:	00610133          	add	sp,sp,t1

001019b8 <i0000000338>:
  1019b8:	12214f03          	lbu	t5,290(sp)

001019bc <i0000000339>:
  1019bc:	c9714203          	lbu	tp,-873(sp)
  1019c0:	0000d117          	auipc	sp,0xd
  1019c4:	74010113          	add	sp,sp,1856 # 10f100 <mem>
  1019c8:	0006a337          	lui	t1,0x6a
  1019cc:	83030313          	add	t1,t1,-2000 # 69830 <tohost+0x49828>
  1019d0:	00610133          	add	sp,sp,t1

001019d4 <i000000033a>:
  1019d4:	fa011d83          	lh	s11,-96(sp)

001019d8 <i000000033b>:
  1019d8:	004f6533          	or	a0,t5,tp

001019dc <i000000033c>:
  1019dc:	19612423          	sw	s6,392(sp)

001019e0 <i000000033d>:
  1019e0:	73243c13          	sltiu	s8,s0,1842

001019e4 <i000000033e>:
  1019e4:	dd114f03          	lbu	t5,-559(sp)

001019e8 <i000000033f>:
  1019e8:	01728533          	add	a0,t0,s7

001019ec <i0000000340>:
  1019ec:	419b5e93          	sra	t4,s6,0x19
  1019f0:	0000d117          	auipc	sp,0xd
  1019f4:	71010113          	add	sp,sp,1808 # 10f100 <mem>
  1019f8:	00016337          	lui	t1,0x16
  1019fc:	fd030313          	add	t1,t1,-48 # 15fd0 <_stack_len+0xdfd0>
  101a00:	00610133          	add	sp,sp,t1

00101a04 <i0000000341>:
  101a04:	36411b03          	lh	s6,868(sp)

00101a08 <i0000000342>:
  101a08:	550f6813          	or	a6,t5,1360
  101a0c:	0000d117          	auipc	sp,0xd
  101a10:	6f410113          	add	sp,sp,1780 # 10f100 <mem>
  101a14:	00051337          	lui	t1,0x51
  101a18:	fa830313          	add	t1,t1,-88 # 50fa8 <tohost+0x30fa0>
  101a1c:	00610133          	add	sp,sp,t1

00101a20 <i0000000343>:
  101a20:	55e12423          	sw	t5,1352(sp)

00101a24 <i0000000344>:
  101a24:	0ca10ca3          	sb	a0,217(sp)
  101a28:	00900e93          	li	t4,9

00101a2c <b0000000345>:
  101a2c:	00000033          	add	zero,zero,zero
  101a30:	fbdd48e3          	blt	s10,t4,1019e0 <i000000033d>
  101a34:	00000033          	add	zero,zero,zero
  101a38:	00a00d13          	li	s10,10

00101a3c <i0000000345>:
  101a3c:	d9210e03          	lb	t3,-622(sp)

00101a40 <i0000000346>:
  101a40:	52114903          	lbu	s2,1313(sp)
  101a44:	0000d117          	auipc	sp,0xd
  101a48:	6bc10113          	add	sp,sp,1724 # 10f100 <mem>
  101a4c:	00056337          	lui	t1,0x56
  101a50:	83030313          	add	t1,t1,-2000 # 55830 <tohost+0x35828>
  101a54:	00610133          	add	sp,sp,t1

00101a58 <i0000000347>:
  101a58:	56710c83          	lb	s9,1383(sp)

00101a5c <i0000000348>:
  101a5c:	013ce233          	or	tp,s9,s3
  101a60:	0000d117          	auipc	sp,0xd
  101a64:	6a010113          	add	sp,sp,1696 # 10f100 <mem>
  101a68:	0005c337          	lui	t1,0x5c
  101a6c:	80830313          	add	t1,t1,-2040 # 5b808 <tohost+0x3b800>
  101a70:	00610133          	add	sp,sp,t1

00101a74 <i0000000349>:
  101a74:	25b14d83          	lbu	s11,603(sp)

00101a78 <i000000034a>:
  101a78:	145f3793          	sltiu	a5,t5,325

00101a7c <i000000034b>:
  101a7c:	68e26013          	or	zero,tp,1678

00101a80 <i000000034c>:
  101a80:	408bd533          	sra	a0,s7,s0

00101a84 <i000000034d>:
  101a84:	93d14003          	lbu	zero,-1731(sp)

00101a88 <i000000034e>:
  101a88:	85c10803          	lb	a6,-1956(sp)
  101a8c:	0000d117          	auipc	sp,0xd
  101a90:	67410113          	add	sp,sp,1652 # 10f100 <mem>
  101a94:	00019337          	lui	t1,0x19
  101a98:	7d830313          	add	t1,t1,2008 # 197d8 <_stack_len+0x117d8>
  101a9c:	00610133          	add	sp,sp,t1

00101aa0 <i000000034f>:
  101aa0:	b8810f83          	lb	t6,-1144(sp)

00101aa4 <i0000000350>:
  101aa4:	41b486b3          	sub	a3,s1,s11

00101aa8 <i0000000351>:
  101aa8:	69c12503          	lw	a0,1692(sp)

00101aac <i0000000352>:
  101aac:	30812d83          	lw	s11,776(sp)

00101ab0 <i0000000353>:
  101ab0:	01cfaf33          	slt	t5,t6,t3
  101ab4:	0000d117          	auipc	sp,0xd
  101ab8:	64c10113          	add	sp,sp,1612 # 10f100 <mem>
  101abc:	00064337          	lui	t1,0x64
  101ac0:	bd030313          	add	t1,t1,-1072 # 63bd0 <tohost+0x43bc8>
  101ac4:	00610133          	add	sp,sp,t1

00101ac8 <i0000000354>:
  101ac8:	5bc10303          	lb	t1,1468(sp)

00101acc <i0000000355>:
  101acc:	01627b33          	and	s6,tp,s6

00101ad0 <i0000000356>:
  101ad0:	0cf10da3          	sb	a5,219(sp)

00101ad4 <i0000000357>:
  101ad4:	45612c23          	sw	s6,1112(sp)
  101ad8:	00b00b13          	li	s6,11
  101adc:	001d0d13          	add	s10,s10,1

00101ae0 <b0000000358>:
  101ae0:	00000033          	add	zero,zero,zero
  101ae4:	fd6d06e3          	beq	s10,s6,101ab0 <i0000000353>
  101ae8:	00000033          	add	zero,zero,zero
  101aec:	00a00d13          	li	s10,10

00101af0 <i0000000358>:
  101af0:	42710603          	lb	a2,1063(sp)

00101af4 <i0000000359>:
  101af4:	39912823          	sw	s9,912(sp)

00101af8 <i000000035a>:
  101af8:	00456233          	or	tp,a0,tp

00101afc <i000000035b>:
  101afc:	00f314b3          	sll	s1,t1,a5

00101b00 <i000000035c>:
  101b00:	40738b33          	sub	s6,t2,t2

00101b04 <i000000035d>:
  101b04:	87c12623          	sw	t3,-1940(sp)

00101b08 <i000000035e>:
  101b08:	0a615c03          	lhu	s8,166(sp)

00101b0c <i000000035f>:
  101b0c:	173f6513          	or	a0,t5,371

00101b10 <i0000000360>:
  101b10:	26114b83          	lbu	s7,609(sp)

00101b14 <i0000000361>:
  101b14:	942b7b13          	and	s6,s6,-1726

00101b18 <i0000000362>:
  101b18:	00eaadb3          	slt	s11,s5,a4

00101b1c <i0000000363>:
  101b1c:	7080e537          	lui	a0,0x7080e

00101b20 <i0000000364>:
  101b20:	63314b03          	lbu	s6,1587(sp)

00101b24 <i0000000365>:
  101b24:	01652033          	slt	zero,a0,s6

00101b28 <i0000000366>:
  101b28:	da6f3993          	sltiu	s3,t5,-602

00101b2c <i0000000367>:
  101b2c:	ba514b03          	lbu	s6,-1115(sp)

00101b30 <i0000000368>:
  101b30:	00a526b3          	slt	a3,a0,a0

00101b34 <i0000000369>:
  101b34:	00422cb3          	slt	s9,tp,tp

00101b38 <i000000036a>:
  101b38:	71611623          	sh	s6,1804(sp)
  101b3c:	00c00b93          	li	s7,12
  101b40:	001d0d13          	add	s10,s10,1

00101b44 <b000000036b>:
  101b44:	00000033          	add	zero,zero,zero
  101b48:	fdabd8e3          	bge	s7,s10,101b18 <i0000000362>
  101b4c:	00000033          	add	zero,zero,zero
  101b50:	00a00d13          	li	s10,10

00101b54 <i000000036b>:
  101b54:	07e14503          	lbu	a0,126(sp)

00101b58 <i000000036c>:
  101b58:	2a010c23          	sb	zero,696(sp)

00101b5c <i000000036d>:
  101b5c:	d5012b83          	lw	s7,-688(sp)

00101b60 <i000000036e>:
  101b60:	00a237b3          	sltu	a5,tp,a0

00101b64 <i000000036f>:
  101b64:	a4615a83          	lhu	s5,-1466(sp)

00101b68 <i0000000370>:
  101b68:	fb410503          	lb	a0,-76(sp)

00101b6c <i0000000371>:
  101b6c:	ba910b03          	lb	s6,-1111(sp)

00101b70 <i0000000372>:
  101b70:	c4211f83          	lh	t6,-958(sp)

00101b74 <i0000000373>:
  101b74:	0116c033          	xor	zero,a3,a7

00101b78 <i0000000374>:
  101b78:	26614003          	lbu	zero,614(sp)

00101b7c <i0000000375>:
  101b7c:	b6211403          	lh	s0,-1182(sp)

00101b80 <i0000000376>:
  101b80:	0a012e23          	sw	zero,188(sp)

00101b84 <i0000000377>:
  101b84:	c2615f03          	lhu	t5,-986(sp)

00101b88 <i0000000378>:
  101b88:	7169a413          	slti	s0,s3,1814

00101b8c <i0000000379>:
  101b8c:	b4e106a3          	sb	a4,-1203(sp)

00101b90 <i000000037a>:
  101b90:	00001e33          	sll	t3,zero,zero

00101b94 <i000000037b>:
  101b94:	0197b7b3          	sltu	a5,a5,s9

00101b98 <i000000037c>:
  101b98:	01cc3b33          	sltu	s6,s8,t3

00101b9c <i000000037d>:
  101b9c:	005a6233          	or	tp,s4,t0
  101ba0:	00900b93          	li	s7,9

00101ba4 <b000000037e>:
  101ba4:	00000033          	add	zero,zero,zero
  101ba8:	ff7d42e3          	blt	s10,s7,101b8c <i0000000379>
  101bac:	00000033          	add	zero,zero,zero
  101bb0:	00a00d13          	li	s10,10
  101bb4:	0000d117          	auipc	sp,0xd
  101bb8:	54c10113          	add	sp,sp,1356 # 10f100 <mem>
  101bbc:	00024337          	lui	t1,0x24
  101bc0:	16030313          	add	t1,t1,352 # 24160 <tohost+0x4158>
  101bc4:	00610133          	add	sp,sp,t1

00101bc8 <i000000037e>:
  101bc8:	96610d23          	sb	t1,-1670(sp)

00101bcc <i000000037f>:
  101bcc:	2d4aeb17          	auipc	s6,0x2d4ae

00101bd0 <i0000000380>:
  101bd0:	0c314f03          	lbu	t5,195(sp)

00101bd4 <i0000000381>:
  101bd4:	f7210903          	lb	s2,-142(sp)

00101bd8 <i0000000382>:
  101bd8:	689b6393          	or	t2,s6,1673

00101bdc <i0000000383>:
  101bdc:	0141ae33          	slt	t3,gp,s4

00101be0 <i0000000384>:
  101be0:	2c8b8537          	lui	a0,0x2c8b8

00101be4 <i0000000385>:
  101be4:	40c55a13          	sra	s4,a0,0xc

00101be8 <i0000000386>:
  101be8:	36012823          	sw	zero,880(sp)

00101bec <i0000000387>:
  101bec:	404b0333          	sub	t1,s6,tp

00101bf0 <i0000000388>:
  101bf0:	22d10183          	lb	gp,557(sp)
  101bf4:	0000d117          	auipc	sp,0xd
  101bf8:	50c10113          	add	sp,sp,1292 # 10f100 <mem>
  101bfc:	0004a337          	lui	t1,0x4a
  101c00:	84030313          	add	t1,t1,-1984 # 49840 <tohost+0x29838>
  101c04:	00610133          	add	sp,sp,t1

00101c08 <i0000000389>:
  101c08:	49110803          	lb	a6,1169(sp)

00101c0c <i000000038a>:
  101c0c:	c8fdc393          	xor	t2,s11,-881

00101c10 <i000000038b>:
  101c10:	0de12e23          	sw	t5,220(sp)

00101c14 <i000000038c>:
  101c14:	bd111023          	sh	a7,-1088(sp)

00101c18 <i000000038d>:
  101c18:	2d107993          	and	s3,zero,721

00101c1c <i000000038e>:
  101c1c:	cc714203          	lbu	tp,-825(sp)

00101c20 <i000000038f>:
  101c20:	87014b03          	lbu	s6,-1936(sp)

00101c24 <i0000000390>:
  101c24:	52011a23          	sh	zero,1332(sp)

00101c28 <b0000000391>:
  101c28:	00000e97          	auipc	t4,0x0
  101c2c:	034e8e93          	add	t4,t4,52 # 101c5c <i000000039b>
  101c30:	000e8567          	jalr	a0,t4

00101c34 <i0000000391>:
  101c34:	b1a10f83          	lb	t6,-1254(sp)

00101c38 <i0000000392>:
  101c38:	005592b3          	sll	t0,a1,t0

00101c3c <i0000000393>:
  101c3c:	a3610c83          	lb	s9,-1482(sp)

00101c40 <i0000000394>:
  101c40:	05412b03          	lw	s6,84(sp)

00101c44 <i0000000395>:
  101c44:	aea12e23          	sw	a0,-1284(sp)

00101c48 <i0000000396>:
  101c48:	00881a33          	sll	s4,a6,s0

00101c4c <i0000000397>:
  101c4c:	642a1537          	lui	a0,0x642a1

00101c50 <i0000000398>:
  101c50:	06012a23          	sw	zero,116(sp)

00101c54 <i0000000399>:
  101c54:	a3311823          	sh	s3,-1488(sp)

00101c58 <i000000039a>:
  101c58:	01d89013          	sll	zero,a7,0x1d

00101c5c <i000000039b>:
  101c5c:	67810d23          	sb	s8,1658(sp)

00101c60 <i000000039c>:
  101c60:	19714a03          	lbu	s4,407(sp)

00101c64 <i000000039d>:
  101c64:	df015003          	lhu	zero,-528(sp)

00101c68 <i000000039e>:
  101c68:	c5a87913          	and	s2,a6,-934

00101c6c <i000000039f>:
  101c6c:	623f8017          	auipc	zero,0x623f8

00101c70 <i00000003a0>:
  101c70:	6b311223          	sh	s3,1700(sp)

00101c74 <i00000003a1>:
  101c74:	8f612823          	sw	s6,-1808(sp)

00101c78 <i00000003a2>:
  101c78:	08c10503          	lb	a0,140(sp)

00101c7c <i00000003a3>:
  101c7c:	41130033          	sub	zero,t1,a7
  101c80:	00a00a13          	li	s4,10

00101c84 <b00000003a4>:
  101c84:	00000033          	add	zero,zero,zero
  101c88:	074d0e63          	beq	s10,s4,101d04 <i00000003b1>
  101c8c:	00000033          	add	zero,zero,zero
  101c90:	00a00d13          	li	s10,10

00101c94 <i00000003a4>:
  101c94:	00049f13          	sll	t5,s1,0x0
  101c98:	0000d117          	auipc	sp,0xd
  101c9c:	46810113          	add	sp,sp,1128 # 10f100 <mem>
  101ca0:	0000c337          	lui	t1,0xc
  101ca4:	f5830313          	add	t1,t1,-168 # bf58 <_stack_len+0x3f58>
  101ca8:	00610133          	add	sp,sp,t1

00101cac <i00000003a5>:
  101cac:	f2611503          	lh	a0,-218(sp)

00101cb0 <i00000003a6>:
  101cb0:	d39b3b13          	sltiu	s6,s6,-711

00101cb4 <i00000003a7>:
  101cb4:	50f10283          	lb	t0,1295(sp)

00101cb8 <i00000003a8>:
  101cb8:	bae14003          	lbu	zero,-1106(sp)

00101cbc <i00000003a9>:
  101cbc:	7f714203          	lbu	tp,2039(sp)

00101cc0 <i00000003aa>:
  101cc0:	24410223          	sb	tp,580(sp)

00101cc4 <i00000003ab>:
  101cc4:	0540cb37          	lui	s6,0x540c

00101cc8 <i00000003ac>:
  101cc8:	c5e11223          	sh	t5,-956(sp)

00101ccc <i00000003ad>:
  101ccc:	013c8b33          	add	s6,s9,s3
  101cd0:	0000d117          	auipc	sp,0xd
  101cd4:	43010113          	add	sp,sp,1072 # 10f100 <mem>
  101cd8:	0006e337          	lui	t1,0x6e
  101cdc:	37030313          	add	t1,t1,880 # 6e370 <tohost+0x4e368>
  101ce0:	00610133          	add	sp,sp,t1

00101ce4 <i00000003ae>:
  101ce4:	4c611903          	lh	s2,1222(sp)

00101ce8 <i00000003af>:
  101ce8:	0182bdb3          	sltu	s11,t0,s8
  101cec:	0000d117          	auipc	sp,0xd
  101cf0:	41410113          	add	sp,sp,1044 # 10f100 <mem>
  101cf4:	0004a337          	lui	t1,0x4a
  101cf8:	3b830313          	add	t1,t1,952 # 4a3b8 <tohost+0x2a3b0>
  101cfc:	00610133          	add	sp,sp,t1

00101d00 <i00000003b0>:
  101d00:	98611c03          	lh	s8,-1658(sp)

00101d04 <i00000003b1>:
  101d04:	83e107a3          	sb	t5,-2001(sp)

00101d08 <i00000003b2>:
  101d08:	22de6537          	lui	a0,0x22de6

00101d0c <i00000003b3>:
  101d0c:	003ab533          	sltu	a0,s5,gp

00101d10 <i00000003b4>:
  101d10:	c64f4013          	xor	zero,t5,-924

00101d14 <i00000003b5>:
  101d14:	fc411823          	sh	tp,-48(sp)

00101d18 <i00000003b6>:
  101d18:	fe412a23          	sw	tp,-12(sp)
  101d1c:	00c00a93          	li	s5,12
  101d20:	001d0d13          	add	s10,s10,1

00101d24 <b00000003b7>:
  101d24:	00000033          	add	zero,zero,zero
  101d28:	fd5d4ce3          	blt	s10,s5,101d00 <i00000003b0>
  101d2c:	00000033          	add	zero,zero,zero
  101d30:	00a00d13          	li	s10,10

00101d34 <i00000003b7>:
  101d34:	0f112423          	sw	a7,232(sp)

00101d38 <i00000003b8>:
  101d38:	ca003193          	sltiu	gp,zero,-864

00101d3c <i00000003b9>:
  101d3c:	56815203          	lhu	tp,1384(sp)

00101d40 <i00000003ba>:
  101d40:	00cbadb3          	slt	s11,s7,a2

00101d44 <i00000003bb>:
  101d44:	be324393          	xor	t2,tp,-1053

00101d48 <i00000003bc>:
  101d48:	014cc733          	xor	a4,s9,s4

00101d4c <i00000003bd>:
  101d4c:	80a15503          	lhu	a0,-2038(sp)

00101d50 <i00000003be>:
  101d50:	015801b3          	add	gp,a6,s5

00101d54 <i00000003bf>:
  101d54:	c027c613          	xor	a2,a5,-1022

00101d58 <i00000003c0>:
  101d58:	e2bf6b13          	or	s6,t5,-469

00101d5c <i00000003c1>:
  101d5c:	01f9a233          	slt	tp,s3,t6
  101d60:	0000d117          	auipc	sp,0xd
  101d64:	3a010113          	add	sp,sp,928 # 10f100 <mem>
  101d68:	00005337          	lui	t1,0x5
  101d6c:	3c830313          	add	t1,t1,968 # 53c8 <_min_stack+0x33c8>
  101d70:	00610133          	add	sp,sp,t1

00101d74 <i00000003c2>:
  101d74:	36811523          	sh	s0,874(sp)

00101d78 <i00000003c3>:
  101d78:	94714183          	lbu	gp,-1721(sp)
  101d7c:	0000d117          	auipc	sp,0xd
  101d80:	38410113          	add	sp,sp,900 # 10f100 <mem>
  101d84:	00040337          	lui	t1,0x40
  101d88:	eb830313          	add	t1,t1,-328 # 3feb8 <tohost+0x1feb0>
  101d8c:	00610133          	add	sp,sp,t1

00101d90 <i00000003c4>:
  101d90:	46e10123          	sb	a4,1122(sp)
  101d94:	0000d117          	auipc	sp,0xd
  101d98:	36c10113          	add	sp,sp,876 # 10f100 <mem>
  101d9c:	0001f337          	lui	t1,0x1f
  101da0:	a4830313          	add	t1,t1,-1464 # 1ea48 <_stack_len+0x16a48>
  101da4:	00610133          	add	sp,sp,t1

00101da8 <i00000003c5>:
  101da8:	67811703          	lh	a4,1656(sp)

00101dac <i00000003c6>:
  101dac:	e9e11583          	lh	a1,-354(sp)

00101db0 <i00000003c7>:
  101db0:	ae412c23          	sw	tp,-1288(sp)

00101db4 <i00000003c8>:
  101db4:	fef10b03          	lb	s6,-17(sp)

00101db8 <i00000003c9>:
  101db8:	29011c23          	sh	a6,664(sp)
  101dbc:	00a00b93          	li	s7,10
  101dc0:	00a00d13          	li	s10,10

00101dc4 <b00000003ca>:
  101dc4:	00000033          	add	zero,zero,zero
  101dc8:	057d1863          	bne	s10,s7,101e18 <i00000003d6>
  101dcc:	00000033          	add	zero,zero,zero
  101dd0:	00a00d13          	li	s10,10

00101dd4 <i00000003ca>:
  101dd4:	c7e10003          	lb	zero,-898(sp)

00101dd8 <i00000003cb>:
  101dd8:	45cf5f37          	lui	t5,0x45cf5

00101ddc <i00000003cc>:
  101ddc:	01651b33          	sll	s6,a0,s6

00101de0 <i00000003cd>:
  101de0:	2a47a537          	lui	a0,0x2a47a

00101de4 <i00000003ce>:
  101de4:	003e9033          	sll	zero,t4,gp
  101de8:	0000d117          	auipc	sp,0xd
  101dec:	31810113          	add	sp,sp,792 # 10f100 <mem>
  101df0:	00052337          	lui	t1,0x52
  101df4:	e3030313          	add	t1,t1,-464 # 51e30 <tohost+0x31e28>
  101df8:	00610133          	add	sp,sp,t1

00101dfc <i00000003cf>:
  101dfc:	b2310b03          	lb	s6,-1245(sp)

00101e00 <i00000003d0>:
  101e00:	00301613          	sll	a2,zero,0x3

00101e04 <i00000003d1>:
  101e04:	51c11b03          	lh	s6,1308(sp)

00101e08 <i00000003d2>:
  101e08:	b92f3b93          	sltiu	s7,t5,-1134

00101e0c <i00000003d3>:
  101e0c:	57026893          	or	a7,tp,1392

00101e10 <i00000003d4>:
  101e10:	00420033          	add	zero,tp,tp

00101e14 <i00000003d5>:
  101e14:	39c10003          	lb	zero,924(sp)

00101e18 <i00000003d6>:
  101e18:	9c6109a3          	sb	t1,-1581(sp)

00101e1c <i00000003d7>:
  101e1c:	6a012f03          	lw	t5,1696(sp)

00101e20 <i00000003d8>:
  101e20:	dae11403          	lh	s0,-594(sp)

00101e24 <i00000003d9>:
  101e24:	41ec5a93          	sra	s5,s8,0x1e

00101e28 <i00000003da>:
  101e28:	07215883          	lhu	a7,114(sp)

00101e2c <i00000003db>:
  101e2c:	004b1c33          	sll	s8,s6,tp

00101e30 <i00000003dc>:
  101e30:	ab7a7a93          	and	s5,s4,-1353
  101e34:	00c00913          	li	s2,12
  101e38:	001d0d13          	add	s10,s10,1

00101e3c <b00000003dd>:
  101e3c:	00000033          	add	zero,zero,zero
  101e40:	fd2d40e3          	blt	s10,s2,101e00 <i00000003d0>
  101e44:	00000033          	add	zero,zero,zero
  101e48:	00a00d13          	li	s10,10

00101e4c <i00000003dd>:
  101e4c:	2c410003          	lb	zero,708(sp)

00101e50 <i00000003de>:
  101e50:	01e07033          	and	zero,zero,t5

00101e54 <i00000003df>:
  101e54:	40a05533          	sra	a0,zero,a0

00101e58 <i00000003e0>:
  101e58:	e2c11c23          	sh	a2,-456(sp)

00101e5c <i00000003e1>:
  101e5c:	6b9f0537          	lui	a0,0x6b9f0

00101e60 <i00000003e2>:
  101e60:	df110203          	lb	tp,-527(sp)

00101e64 <i00000003e3>:
  101e64:	e0914f83          	lbu	t6,-503(sp)

00101e68 <i00000003e4>:
  101e68:	1f812623          	sw	s8,492(sp)

00101e6c <i00000003e5>:
  101e6c:	012feb33          	or	s6,t6,s2

00101e70 <i00000003e6>:
  101e70:	6d1e6017          	auipc	zero,0x6d1e6

00101e74 <i00000003e7>:
  101e74:	04012a23          	sw	zero,84(sp)

00101e78 <i00000003e8>:
  101e78:	00561533          	sll	a0,a2,t0

00101e7c <i00000003e9>:
  101e7c:	b5a15b03          	lhu	s6,-1190(sp)

00101e80 <i00000003ea>:
  101e80:	f7a50513          	add	a0,a0,-134 # 6b9eff7a <fromhost+0x6b867f6a>

00101e84 <i00000003eb>:
  101e84:	71a03537          	lui	a0,0x71a03

00101e88 <i00000003ec>:
  101e88:	00bc6233          	or	tp,s8,a1

00101e8c <i00000003ed>:
  101e8c:	0a312823          	sw	gp,176(sp)

00101e90 <i00000003ee>:
  101e90:	c6012c23          	sw	zero,-904(sp)

00101e94 <i00000003ef>:
  101e94:	d3c11e03          	lh	t3,-708(sp)
  101e98:	00900a93          	li	s5,9

00101e9c <b00000003f0>:
  101e9c:	00000033          	add	zero,zero,zero
  101ea0:	fd5d4ae3          	blt	s10,s5,101e74 <i00000003e7>
  101ea4:	00000033          	add	zero,zero,zero
  101ea8:	00a00d13          	li	s10,10

00101eac <i00000003f0>:
  101eac:	01da9f13          	sll	t5,s5,0x1d

00101eb0 <i00000003f1>:
  101eb0:	f1611203          	lh	tp,-234(sp)

00101eb4 <i00000003f2>:
  101eb4:	018b5b93          	srl	s7,s6,0x18

00101eb8 <i00000003f3>:
  101eb8:	84614f83          	lbu	t6,-1978(sp)

00101ebc <i00000003f4>:
  101ebc:	5cc69a17          	auipc	s4,0x5cc69

00101ec0 <i00000003f5>:
  101ec0:	36cf3513          	sltiu	a0,t5,876

00101ec4 <i00000003f6>:
  101ec4:	74452c93          	slti	s9,a0,1860

00101ec8 <i00000003f7>:
  101ec8:	00d6ca33          	xor	s4,a3,a3

00101ecc <i00000003f8>:
  101ecc:	004b0fb3          	add	t6,s6,tp

00101ed0 <i00000003f9>:
  101ed0:	21815f03          	lhu	t5,536(sp)

00101ed4 <i00000003fa>:
  101ed4:	416054b3          	sra	s1,zero,s6

00101ed8 <i00000003fb>:
  101ed8:	c7610203          	lb	tp,-906(sp)

00101edc <i00000003fc>:
  101edc:	017eff33          	and	t5,t4,s7

00101ee0 <i00000003fd>:
  101ee0:	3f412a83          	lw	s5,1012(sp)

00101ee4 <i00000003fe>:
  101ee4:	005b5813          	srl	a6,s6,0x5

00101ee8 <i00000003ff>:
  101ee8:	01305893          	srl	a7,zero,0x13

00101eec <i0000000400>:
  101eec:	ee703513          	sltiu	a0,zero,-281

00101ef0 <i0000000401>:
  101ef0:	01eb5eb3          	srl	t4,s6,t5

00101ef4 <i0000000402>:
  101ef4:	d3511223          	sh	s5,-732(sp)
  101ef8:	00b00913          	li	s2,11
  101efc:	00a00d13          	li	s10,10

00101f00 <b0000000403>:
  101f00:	00000033          	add	zero,zero,zero
  101f04:	03a95c63          	bge	s2,s10,101f3c <i0000000409>
  101f08:	00000033          	add	zero,zero,zero
  101f0c:	00a00d13          	li	s10,10

00101f10 <i0000000403>:
  101f10:	41c8d693          	sra	a3,a7,0x1c

00101f14 <i0000000404>:
  101f14:	13812283          	lw	t0,312(sp)

00101f18 <i0000000405>:
  101f18:	016b0033          	add	zero,s6,s6
  101f1c:	0000d117          	auipc	sp,0xd
  101f20:	1e410113          	add	sp,sp,484 # 10f100 <mem>
  101f24:	0004d337          	lui	t1,0x4d
  101f28:	5e030313          	add	t1,t1,1504 # 4d5e0 <tohost+0x2d5d8>
  101f2c:	00610133          	add	sp,sp,t1

00101f30 <i0000000406>:
  101f30:	92810b23          	sb	s0,-1738(sp)

00101f34 <i0000000407>:
  101f34:	3384ee17          	auipc	t3,0x3384e

00101f38 <i0000000408>:
  101f38:	a3c15583          	lhu	a1,-1476(sp)

00101f3c <i0000000409>:
  101f3c:	935ce713          	or	a4,s9,-1739

00101f40 <i000000040a>:
  101f40:	93ab3213          	sltiu	tp,s6,-1734

00101f44 <i000000040b>:
  101f44:	cfc12f03          	lw	t5,-772(sp)

00101f48 <i000000040c>:
  101f48:	67610003          	lb	zero,1654(sp)

00101f4c <i000000040d>:
  101f4c:	61f10c83          	lb	s9,1567(sp)

00101f50 <i000000040e>:
  101f50:	e352a513          	slti	a0,t0,-459

00101f54 <i000000040f>:
  101f54:	5fa15d83          	lhu	s11,1530(sp)

00101f58 <i0000000410>:
  101f58:	01191033          	sll	zero,s2,a7

00101f5c <i0000000411>:
  101f5c:	67c15e83          	lhu	t4,1660(sp)

00101f60 <i0000000412>:
  101f60:	017ba033          	slt	zero,s7,s7

00101f64 <i0000000413>:
  101f64:	3aa105a3          	sb	a0,939(sp)

00101f68 <i0000000414>:
  101f68:	33e36b13          	or	s6,t1,830

00101f6c <i0000000415>:
  101f6c:	00cadcb3          	srl	s9,s5,a2
  101f70:	00b00c93          	li	s9,11
  101f74:	00a00d13          	li	s10,10

00101f78 <b0000000416>:
  101f78:	00000033          	add	zero,zero,zero
  101f7c:	059d1c63          	bne	s10,s9,101fd4 <i0000000424>
  101f80:	00000033          	add	zero,zero,zero
  101f84:	00a00d13          	li	s10,10

00101f88 <i0000000416>:
  101f88:	97d83213          	sltiu	tp,a6,-1667

00101f8c <i0000000417>:
  101f8c:	01ef5f13          	srl	t5,t5,0x1e

00101f90 <i0000000418>:
  101f90:	de84e513          	or	a0,s1,-536

00101f94 <i0000000419>:
  101f94:	00af5f33          	srl	t5,t5,a0

00101f98 <i000000041a>:
  101f98:	bf211483          	lh	s1,-1038(sp)

00101f9c <i000000041b>:
  101f9c:	d3015b03          	lhu	s6,-720(sp)

00101fa0 <i000000041c>:
  101fa0:	01cff4b3          	and	s1,t6,t3

00101fa4 <i000000041d>:
  101fa4:	46d14203          	lbu	tp,1133(sp)

00101fa8 <i000000041e>:
  101fa8:	5814c217          	auipc	tp,0x5814c
  101fac:	0000d117          	auipc	sp,0xd
  101fb0:	15410113          	add	sp,sp,340 # 10f100 <mem>
  101fb4:	00026337          	lui	t1,0x26
  101fb8:	ba030313          	add	t1,t1,-1120 # 25ba0 <tohost+0x5b98>
  101fbc:	00610133          	add	sp,sp,t1

00101fc0 <i000000041f>:
  101fc0:	c8a10aa3          	sb	a0,-875(sp)

00101fc4 <i0000000420>:
  101fc4:	f1911723          	sh	s9,-242(sp)

00101fc8 <i0000000421>:
  101fc8:	01d30233          	add	tp,t1,t4

00101fcc <i0000000422>:
  101fcc:	016f6b33          	or	s6,t5,s6

00101fd0 <i0000000423>:
  101fd0:	01c25913          	srl	s2,tp,0x1c

00101fd4 <i0000000424>:
  101fd4:	e8f14203          	lbu	tp,-369(sp)

00101fd8 <i0000000425>:
  101fd8:	00af34b3          	sltu	s1,t5,a0

00101fdc <i0000000426>:
  101fdc:	045a2237          	lui	tp,0x45a2

00101fe0 <i0000000427>:
  101fe0:	45a10b03          	lb	s6,1114(sp)

00101fe4 <i0000000428>:
  101fe4:	71e107a3          	sb	t5,1807(sp)
  101fe8:	00c00c93          	li	s9,12
  101fec:	00a00d13          	li	s10,10

00101ff0 <b0000000429>:
  101ff0:	00000033          	add	zero,zero,zero
  101ff4:	059d4663          	blt	s10,s9,102040 <i0000000434>
  101ff8:	00000033          	add	zero,zero,zero
  101ffc:	00a00d13          	li	s10,10

00102000 <i0000000429>:
  102000:	25710703          	lb	a4,599(sp)

00102004 <i000000042a>:
  102004:	11611823          	sh	s6,272(sp)

00102008 <i000000042b>:
  102008:	4189dc93          	sra	s9,s3,0x18

0010200c <i000000042c>:
  10200c:	38c14303          	lbu	t1,908(sp)

00102010 <i000000042d>:
  102010:	00ab2eb3          	slt	t4,s6,a0

00102014 <i000000042e>:
  102014:	416b5c33          	sra	s8,s6,s6

00102018 <i000000042f>:
  102018:	41e31217          	auipc	tp,0x41e31

0010201c <i0000000430>:
  10201c:	01eb6c33          	or	s8,s6,t5

00102020 <i0000000431>:
  102020:	00b28033          	add	zero,t0,a1

00102024 <i0000000432>:
  102024:	3ca57237          	lui	tp,0x3ca57
  102028:	0000d117          	auipc	sp,0xd
  10202c:	0d810113          	add	sp,sp,216 # 10f100 <mem>
  102030:	00050337          	lui	t1,0x50
  102034:	40830313          	add	t1,t1,1032 # 50408 <tohost+0x30400>
  102038:	00610133          	add	sp,sp,t1

0010203c <i0000000433>:
  10203c:	d4614303          	lbu	t1,-698(sp)

00102040 <i0000000434>:
  102040:	51210f03          	lb	t5,1298(sp)

00102044 <i0000000435>:
  102044:	06012023          	sw	zero,96(sp)

00102048 <i0000000436>:
  102048:	41e50f33          	sub	t5,a0,t5

0010204c <i0000000437>:
  10204c:	e6511623          	sh	t0,-404(sp)

00102050 <i0000000438>:
  102050:	7edc8217          	auipc	tp,0x7edc8

00102054 <i0000000439>:
  102054:	df412383          	lw	t2,-524(sp)

00102058 <i000000043a>:
  102058:	1c056813          	or	a6,a0,448

0010205c <i000000043b>:
  10205c:	bf114f83          	lbu	t6,-1039(sp)

00102060 <b000000043c>:
  102060:	01c0056f          	jal	a0,10207c <i0000000442>

00102064 <i000000043c>:
  102064:	9f010003          	lb	zero,-1552(sp)

00102068 <i000000043d>:
  102068:	49710c23          	sb	s7,1176(sp)

0010206c <i000000043e>:
  10206c:	416f5233          	sra	tp,t5,s6

00102070 <i000000043f>:
  102070:	73a11203          	lh	tp,1850(sp)

00102074 <i0000000440>:
  102074:	fa211203          	lh	tp,-94(sp)

00102078 <i0000000441>:
  102078:	cce15883          	lhu	a7,-818(sp)

0010207c <i0000000442>:
  10207c:	0c6d0017          	auipc	zero,0xc6d0

00102080 <i0000000443>:
  102080:	21810423          	sb	s8,520(sp)

00102084 <i0000000444>:
  102084:	00a04c33          	xor	s8,zero,a0

00102088 <i0000000445>:
  102088:	415a5eb3          	sra	t4,s4,s5

0010208c <i0000000446>:
  10208c:	41325213          	sra	tp,tp,0x13

00102090 <i0000000447>:
  102090:	f7e04793          	xor	a5,zero,-130

00102094 <i0000000448>:
  102094:	acc12683          	lw	a3,-1332(sp)

00102098 <i0000000449>:
  102098:	7ec11523          	sh	a2,2026(sp)

0010209c <i000000044a>:
  10209c:	00e6ebb3          	or	s7,a3,a4

001020a0 <i000000044b>:
  1020a0:	eae8ba13          	sltiu	s4,a7,-338

001020a4 <i000000044c>:
  1020a4:	007dd8b3          	srl	a7,s11,t2

001020a8 <i000000044d>:
  1020a8:	dc714383          	lbu	t2,-569(sp)

001020ac <i000000044e>:
  1020ac:	78410423          	sb	tp,1928(sp)

001020b0 <b000000044f>:
  1020b0:	0500056f          	jal	a0,102100 <i000000045d>

001020b4 <i000000044f>:
  1020b4:	8e411a03          	lh	s4,-1820(sp)

001020b8 <i0000000450>:
  1020b8:	00a00033          	add	zero,zero,a0

001020bc <i0000000451>:
  1020bc:	30012003          	lw	zero,768(sp)

001020c0 <i0000000452>:
  1020c0:	01eb1b33          	sll	s6,s6,t5
  1020c4:	0000d117          	auipc	sp,0xd
  1020c8:	03c10113          	add	sp,sp,60 # 10f100 <mem>
  1020cc:	00029337          	lui	t1,0x29
  1020d0:	b4030313          	add	t1,t1,-1216 # 28b40 <tohost+0x8b38>
  1020d4:	00610133          	add	sp,sp,t1

001020d8 <i0000000453>:
  1020d8:	e4011623          	sh	zero,-436(sp)

001020dc <i0000000454>:
  1020dc:	0087eb33          	or	s6,a5,s0

001020e0 <i0000000455>:
  1020e0:	82611e03          	lh	t3,-2010(sp)

001020e4 <i0000000456>:
  1020e4:	410adf33          	sra	t5,s5,a6

001020e8 <i0000000457>:
  1020e8:	5b912e23          	sw	s9,1468(sp)

001020ec <i0000000458>:
  1020ec:	00055733          	srl	a4,a0,zero

001020f0 <i0000000459>:
  1020f0:	b4214503          	lbu	a0,-1214(sp)

001020f4 <i000000045a>:
  1020f4:	e0512c23          	sw	t0,-488(sp)

001020f8 <i000000045b>:
  1020f8:	01602533          	sgtz	a0,s6

001020fc <i000000045c>:
  1020fc:	ea510603          	lb	a2,-347(sp)

00102100 <i000000045d>:
  102100:	74214a03          	lbu	s4,1858(sp)

00102104 <i000000045e>:
  102104:	015ca233          	slt	tp,s9,s5

00102108 <i000000045f>:
  102108:	62411203          	lh	tp,1572(sp)

0010210c <i0000000460>:
  10210c:	c3b14b03          	lbu	s6,-965(sp)

00102110 <i0000000461>:
  102110:	004b7233          	and	tp,s6,tp
  102114:	00900f93          	li	t6,9
  102118:	00a00d13          	li	s10,10

0010211c <b0000000462>:
  10211c:	00000033          	add	zero,zero,zero
  102120:	03afde63          	bge	t6,s10,10215c <i0000000469>
  102124:	00000033          	add	zero,zero,zero
  102128:	00a00d13          	li	s10,10

0010212c <i0000000462>:
  10212c:	0aa12823          	sw	a0,176(sp)

00102130 <i0000000463>:
  102130:	60912423          	sw	s1,1544(sp)
  102134:	0000d117          	auipc	sp,0xd
  102138:	fcc10113          	add	sp,sp,-52 # 10f100 <mem>
  10213c:	00027337          	lui	t1,0x27
  102140:	6a030313          	add	t1,t1,1696 # 276a0 <tohost+0x7698>
  102144:	00610133          	add	sp,sp,t1

00102148 <i0000000464>:
  102148:	a2411023          	sh	tp,-1504(sp)

0010214c <i0000000465>:
  10214c:	147108a3          	sb	t2,337(sp)

00102150 <i0000000466>:
  102150:	72412823          	sw	tp,1840(sp)

00102154 <i0000000467>:
  102154:	3d5a3c93          	sltiu	s9,s4,981

00102158 <i0000000468>:
  102158:	2f623413          	sltiu	s0,tp,758

0010215c <i0000000469>:
  10215c:	f5610403          	lb	s0,-170(sp)

00102160 <i000000046a>:
  102160:	01760933          	add	s2,a2,s7

00102164 <i000000046b>:
  102164:	7de12c23          	sw	t5,2008(sp)

00102168 <i000000046c>:
  102168:	74c3e017          	auipc	zero,0x74c3e

0010216c <i000000046d>:
  10216c:	f6777e13          	and	t3,a4,-153

00102170 <i000000046e>:
  102170:	0c011323          	sh	zero,198(sp)

00102174 <i000000046f>:
  102174:	000254b3          	srl	s1,tp,zero

00102178 <i0000000470>:
  102178:	0075f233          	and	tp,a1,t2

0010217c <i0000000471>:
  10217c:	00457b33          	and	s6,a0,tp

00102180 <i0000000472>:
  102180:	01269413          	sll	s0,a3,0x12

00102184 <i0000000473>:
  102184:	f04f2193          	slti	gp,t5,-252

00102188 <i0000000474>:
  102188:	a5414f03          	lbu	t5,-1452(sp)
  10218c:	00900813          	li	a6,9
  102190:	00a00d13          	li	s10,10

00102194 <b0000000475>:
  102194:	00000033          	add	zero,zero,zero
  102198:	070d4c63          	blt	s10,a6,102210 <i0000000481>
  10219c:	00000033          	add	zero,zero,zero
  1021a0:	00a00d13          	li	s10,10

001021a4 <i0000000475>:
  1021a4:	05e12423          	sw	t5,72(sp)

001021a8 <i0000000476>:
  1021a8:	00ab55b3          	srl	a1,s6,a0

001021ac <i0000000477>:
  1021ac:	b1c11423          	sh	t3,-1272(sp)

001021b0 <i0000000478>:
  1021b0:	e2012c23          	sw	zero,-456(sp)
  1021b4:	0000d117          	auipc	sp,0xd
  1021b8:	f4c10113          	add	sp,sp,-180 # 10f100 <mem>
  1021bc:	00032337          	lui	t1,0x32
  1021c0:	3d030313          	add	t1,t1,976 # 323d0 <tohost+0x123c8>
  1021c4:	00610133          	add	sp,sp,t1

001021c8 <i0000000479>:
  1021c8:	b2110b03          	lb	s6,-1247(sp)

001021cc <i000000047a>:
  1021cc:	09510f03          	lb	t5,149(sp)

001021d0 <i000000047b>:
  1021d0:	13215503          	lhu	a0,306(sp)

001021d4 <i000000047c>:
  1021d4:	408b5813          	sra	a6,s6,0x8
  1021d8:	0000d117          	auipc	sp,0xd
  1021dc:	f2810113          	add	sp,sp,-216 # 10f100 <mem>
  1021e0:	00015337          	lui	t1,0x15
  1021e4:	32830313          	add	t1,t1,808 # 15328 <_stack_len+0xd328>
  1021e8:	00610133          	add	sp,sp,t1

001021ec <i000000047d>:
  1021ec:	81412b03          	lw	s6,-2028(sp)
  1021f0:	0000d117          	auipc	sp,0xd
  1021f4:	f1010113          	add	sp,sp,-240 # 10f100 <mem>
  1021f8:	00059337          	lui	t1,0x59
  1021fc:	02030313          	add	t1,t1,32 # 59020 <tohost+0x39018>
  102200:	00610133          	add	sp,sp,t1

00102204 <i000000047e>:
  102204:	376109a3          	sb	s6,883(sp)

00102208 <i000000047f>:
  102208:	90c10b03          	lb	s6,-1780(sp)

0010220c <i0000000480>:
  10220c:	01242b33          	slt	s6,s0,s2

00102210 <i0000000481>:
  102210:	64a10223          	sb	a0,1604(sp)

00102214 <i0000000482>:
  102214:	a9611223          	sh	s6,-1404(sp)

00102218 <i0000000483>:
  102218:	d3dc2813          	slti	a6,s8,-707

0010221c <i0000000484>:
  10221c:	000241b3          	xor	gp,tp,zero

00102220 <i0000000485>:
  102220:	26b10d23          	sb	a1,634(sp)

00102224 <i0000000486>:
  102224:	402a5793          	sra	a5,s4,0x2

00102228 <i0000000487>:
  102228:	01e57533          	and	a0,a0,t5
  10222c:	00b00913          	li	s2,11
  102230:	00a00d13          	li	s10,10

00102234 <b0000000488>:
  102234:	00000033          	add	zero,zero,zero
  102238:	03a95863          	bge	s2,s10,102268 <i0000000491>
  10223c:	00000033          	add	zero,zero,zero
  102240:	00a00d13          	li	s10,10

00102244 <i0000000488>:
  102244:	f8011223          	sh	zero,-124(sp)

00102248 <i0000000489>:
  102248:	bd415b03          	lhu	s6,-1068(sp)

0010224c <i000000048a>:
  10224c:	016256b3          	srl	a3,tp,s6

00102250 <i000000048b>:
  102250:	a8710323          	sb	t2,-1402(sp)

00102254 <i000000048c>:
  102254:	41e00b33          	neg	s6,t5

00102258 <i000000048d>:
  102258:	00349213          	sll	tp,s1,0x3

0010225c <i000000048e>:
  10225c:	2eacfb17          	auipc	s6,0x2eacf

00102260 <i000000048f>:
  102260:	3c7b3393          	sltiu	t2,s6,967

00102264 <i0000000490>:
  102264:	57b86493          	or	s1,a6,1403

00102268 <i0000000491>:
  102268:	00af54b3          	srl	s1,t5,a0

0010226c <i0000000492>:
  10226c:	015924b3          	slt	s1,s2,s5

00102270 <i0000000493>:
  102270:	000b3333          	sltu	t1,s6,zero

00102274 <i0000000494>:
  102274:	ca2f0993          	add	s3,t5,-862 # 45cf4ca2 <fromhost+0x45b6cc92>

00102278 <i0000000495>:
  102278:	1d611723          	sh	s6,462(sp)

0010227c <i0000000496>:
  10227c:	2554df17          	auipc	t5,0x2554d

00102280 <i0000000497>:
  102280:	02c12683          	lw	a3,44(sp)

00102284 <i0000000498>:
  102284:	3c494513          	xor	a0,s2,964

00102288 <i0000000499>:
  102288:	b6f11323          	sh	a5,-1178(sp)
  10228c:	0000d117          	auipc	sp,0xd
  102290:	e7410113          	add	sp,sp,-396 # 10f100 <mem>
  102294:	0004b337          	lui	t1,0x4b
  102298:	b4030313          	add	t1,t1,-1216 # 4ab40 <tohost+0x2ab38>
  10229c:	00610133          	add	sp,sp,t1

001022a0 <i000000049a>:
  1022a0:	2e010f23          	sb	zero,766(sp)
  1022a4:	00000993          	li	s3,0

001022a8 <b000000049b>:
  1022a8:	00000033          	add	zero,zero,zero
  1022ac:	fb3d08e3          	beq	s10,s3,10225c <i000000048e>
  1022b0:	00000033          	add	zero,zero,zero
  1022b4:	00a00d13          	li	s10,10

001022b8 <i000000049b>:
  1022b8:	1f69ed93          	or	s11,s3,502

001022bc <i000000049c>:
  1022bc:	71d12623          	sw	t4,1804(sp)

001022c0 <i000000049d>:
  1022c0:	f9814183          	lbu	gp,-104(sp)

001022c4 <i000000049e>:
  1022c4:	a1214883          	lbu	a7,-1518(sp)

001022c8 <i000000049f>:
  1022c8:	41f35233          	sra	tp,t1,t6

001022cc <i00000004a0>:
  1022cc:	5f951e97          	auipc	t4,0x5f951

001022d0 <i00000004a1>:
  1022d0:	016f66b3          	or	a3,t5,s6

001022d4 <i00000004a2>:
  1022d4:	32b14003          	lbu	zero,811(sp)

001022d8 <i00000004a3>:
  1022d8:	40005a33          	sra	s4,zero,zero

001022dc <i00000004a4>:
  1022dc:	018f1a13          	sll	s4,t5,0x18

001022e0 <i00000004a5>:
  1022e0:	28714e83          	lbu	t4,647(sp)

001022e4 <i00000004a6>:
  1022e4:	00b05513          	srl	a0,zero,0xb

001022e8 <i00000004a7>:
  1022e8:	02011503          	lh	a0,32(sp)

001022ec <i00000004a8>:
  1022ec:	9864fb13          	and	s6,s1,-1658

001022f0 <i00000004a9>:
  1022f0:	f9712e23          	sw	s7,-100(sp)

001022f4 <i00000004aa>:
  1022f4:	004b6233          	or	tp,s6,tp

001022f8 <i00000004ab>:
  1022f8:	4128df33          	sra	t5,a7,s2
  1022fc:	0000d117          	auipc	sp,0xd
  102300:	e0410113          	add	sp,sp,-508 # 10f100 <mem>
  102304:	00033337          	lui	t1,0x33
  102308:	a1030313          	add	t1,t1,-1520 # 32a10 <tohost+0x12a08>
  10230c:	00610133          	add	sp,sp,t1

00102310 <i00000004ac>:
  102310:	cae15c03          	lhu	s8,-850(sp)

00102314 <i00000004ad>:
  102314:	d9412203          	lw	tp,-620(sp)
  102318:	00900893          	li	a7,9
  10231c:	00a00d13          	li	s10,10

00102320 <b00000004ae>:
  102320:	00000033          	add	zero,zero,zero
  102324:	071d4463          	blt	s10,a7,10238c <i00000004bb>
  102328:	00000033          	add	zero,zero,zero
  10232c:	00a00d13          	li	s10,10

00102330 <i00000004ae>:
  102330:	016f3533          	sltu	a0,t5,s6

00102334 <i00000004af>:
  102334:	3bcb3593          	sltiu	a1,s6,956

00102338 <i00000004b0>:
  102338:	00c25d93          	srl	s11,tp,0xc

0010233c <i00000004b1>:
  10233c:	11c12683          	lw	a3,284(sp)

00102340 <i00000004b2>:
  102340:	c5015203          	lhu	tp,-944(sp)

00102344 <i00000004b3>:
  102344:	e18fcf13          	xor	t5,t6,-488
  102348:	0000d117          	auipc	sp,0xd
  10234c:	db810113          	add	sp,sp,-584 # 10f100 <mem>
  102350:	0000b337          	lui	t1,0xb
  102354:	62830313          	add	t1,t1,1576 # b628 <_stack_len+0x3628>
  102358:	00610133          	add	sp,sp,t1

0010235c <i00000004b4>:
  10235c:	84a14283          	lbu	t0,-1974(sp)

00102360 <i00000004b5>:
  102360:	10014203          	lbu	tp,256(sp)

00102364 <i00000004b6>:
  102364:	00c55993          	srl	s3,a0,0xc

00102368 <i00000004b7>:
  102368:	bdd11a23          	sh	t4,-1068(sp)

0010236c <i00000004b8>:
  10236c:	40f10523          	sb	a5,1034(sp)

00102370 <i00000004b9>:
  102370:	1d211623          	sh	s2,460(sp)
  102374:	0000d117          	auipc	sp,0xd
  102378:	d8c10113          	add	sp,sp,-628 # 10f100 <mem>
  10237c:	0005f337          	lui	t1,0x5f
  102380:	d3830313          	add	t1,t1,-712 # 5ed38 <tohost+0x3ed30>
  102384:	00610133          	add	sp,sp,t1

00102388 <i00000004ba>:
  102388:	55611f23          	sh	s6,1374(sp)

0010238c <i00000004bb>:
  10238c:	82812b03          	lw	s6,-2008(sp)

00102390 <i00000004bc>:
  102390:	9ad2fb13          	and	s6,t0,-1619

00102394 <i00000004bd>:
  102394:	21412903          	lw	s2,532(sp)

00102398 <i00000004be>:
  102398:	615b3513          	sltiu	a0,s6,1557
  10239c:	0000d117          	auipc	sp,0xd
  1023a0:	d6410113          	add	sp,sp,-668 # 10f100 <mem>
  1023a4:	00009337          	lui	t1,0x9
  1023a8:	c7030313          	add	t1,t1,-912 # 8c70 <_stack_len+0xc70>
  1023ac:	00610133          	add	sp,sp,t1

001023b0 <i00000004bf>:
  1023b0:	91810b03          	lb	s6,-1768(sp)

001023b4 <i00000004c0>:
  1023b4:	26d80913          	add	s2,a6,621 # d210841 <fromhost+0xd088831>
  1023b8:	00900b93          	li	s7,9

001023bc <b00000004c1>:
  1023bc:	00000033          	add	zero,zero,zero
  1023c0:	f9abd2e3          	bge	s7,s10,102344 <i00000004b3>
  1023c4:	00000033          	add	zero,zero,zero
  1023c8:	00a00d13          	li	s10,10

001023cc <i00000004c1>:
  1023cc:	00d21393          	sll	t2,tp,0xd

001023d0 <i00000004c2>:
  1023d0:	fa411a23          	sh	tp,-76(sp)

001023d4 <i00000004c3>:
  1023d4:	83c15203          	lhu	tp,-1988(sp)

001023d8 <i00000004c4>:
  1023d8:	404053b3          	sra	t2,zero,tp

001023dc <i00000004c5>:
  1023dc:	01da2b33          	slt	s6,s4,t4

001023e0 <i00000004c6>:
  1023e0:	00055f13          	srl	t5,a0,0x0

001023e4 <i00000004c7>:
  1023e4:	eb3104a3          	sb	s3,-343(sp)
  1023e8:	0000d117          	auipc	sp,0xd
  1023ec:	d1810113          	add	sp,sp,-744 # 10f100 <mem>
  1023f0:	0001f337          	lui	t1,0x1f
  1023f4:	dd830313          	add	t1,t1,-552 # 1edd8 <_stack_len+0x16dd8>
  1023f8:	00610133          	add	sp,sp,t1

001023fc <i00000004c8>:
  1023fc:	fca11f23          	sh	a0,-34(sp)

00102400 <i00000004c9>:
  102400:	00025033          	srl	zero,tp,zero

00102404 <i00000004ca>:
  102404:	0ec15503          	lhu	a0,236(sp)

00102408 <i00000004cb>:
  102408:	00003533          	snez	a0,zero

0010240c <i00000004cc>:
  10240c:	40425b13          	sra	s6,tp,0x4

00102410 <i00000004cd>:
  102410:	a3812b03          	lw	s6,-1480(sp)

00102414 <i00000004ce>:
  102414:	767a0037          	lui	zero,0x767a0

00102418 <i00000004cf>:
  102418:	58bb0213          	add	tp,s6,1419 # 2ebd17e7 <fromhost+0x2ea497d7>

0010241c <i00000004d0>:
  10241c:	ec611023          	sh	t1,-320(sp)

00102420 <i00000004d1>:
  102420:	1a815403          	lhu	s0,424(sp)

00102424 <i00000004d2>:
  102424:	62411123          	sh	tp,1570(sp)

00102428 <i00000004d3>:
  102428:	ff3e6213          	or	tp,t3,-13
  10242c:	00900993          	li	s3,9
  102430:	00a00d13          	li	s10,10

00102434 <b00000004d4>:
  102434:	00000033          	add	zero,zero,zero
  102438:	073d4463          	blt	s10,s3,1024a0 <i00000004e1>
  10243c:	00000033          	add	zero,zero,zero
  102440:	00a00d13          	li	s10,10

00102444 <i00000004d4>:
  102444:	01fc5bb3          	srl	s7,s8,t6

00102448 <i00000004d5>:
  102448:	6d310223          	sb	s3,1732(sp)

0010244c <i00000004d6>:
  10244c:	006e74b3          	and	s1,t3,t1

00102450 <i00000004d7>:
  102450:	399105a3          	sb	s9,907(sp)

00102454 <i00000004d8>:
  102454:	41f6d233          	sra	tp,a3,t6
  102458:	0000d117          	auipc	sp,0xd
  10245c:	ca810113          	add	sp,sp,-856 # 10f100 <mem>
  102460:	0004f337          	lui	t1,0x4f
  102464:	d4830313          	add	t1,t1,-696 # 4ed48 <tohost+0x2ed40>
  102468:	00610133          	add	sp,sp,t1

0010246c <i00000004d9>:
  10246c:	b9f11823          	sh	t6,-1136(sp)
  102470:	0000d117          	auipc	sp,0xd
  102474:	c9010113          	add	sp,sp,-880 # 10f100 <mem>
  102478:	0005d337          	lui	t1,0x5d
  10247c:	3d030313          	add	t1,t1,976 # 5d3d0 <tohost+0x3d3c8>
  102480:	00610133          	add	sp,sp,t1

00102484 <i00000004da>:
  102484:	8e510883          	lb	a7,-1819(sp)

00102488 <i00000004db>:
  102488:	404b0db3          	sub	s11,s6,tp

0010248c <i00000004dc>:
  10248c:	ebc14903          	lbu	s2,-324(sp)

00102490 <i00000004dd>:
  102490:	2c5c4413          	xor	s0,s8,709

00102494 <i00000004de>:
  102494:	86607213          	and	tp,zero,-1946

00102498 <i00000004df>:
  102498:	37a11903          	lh	s2,890(sp)

0010249c <i00000004e0>:
  10249c:	98310d83          	lb	s11,-1661(sp)

001024a0 <i00000004e1>:
  1024a0:	01ef1013          	sll	zero,t5,0x1e

001024a4 <i00000004e2>:
  1024a4:	01620033          	add	zero,tp,s6

001024a8 <i00000004e3>:
  1024a8:	4f4ca213          	slti	tp,s9,1268

001024ac <i00000004e4>:
  1024ac:	7ba11503          	lh	a0,1978(sp)

001024b0 <i00000004e5>:
  1024b0:	40e11403          	lh	s0,1038(sp)

001024b4 <i00000004e6>:
  1024b4:	ef611b03          	lh	s6,-266(sp)
  1024b8:	00a00813          	li	a6,10

001024bc <b00000004e7>:
  1024bc:	00000033          	add	zero,zero,zero
  1024c0:	070d0063          	beq	s10,a6,102520 <i00000004f2>
  1024c4:	00000033          	add	zero,zero,zero
  1024c8:	00a00d13          	li	s10,10

001024cc <i00000004e7>:
  1024cc:	015839b3          	sltu	s3,a6,s5
  1024d0:	0000d117          	auipc	sp,0xd
  1024d4:	c3010113          	add	sp,sp,-976 # 10f100 <mem>
  1024d8:	00053337          	lui	t1,0x53
  1024dc:	41030313          	add	t1,t1,1040 # 53410 <tohost+0x33408>
  1024e0:	00610133          	add	sp,sp,t1

001024e4 <i00000004e8>:
  1024e4:	59f12023          	sw	t6,1408(sp)
  1024e8:	0000d117          	auipc	sp,0xd
  1024ec:	c1810113          	add	sp,sp,-1000 # 10f100 <mem>
  1024f0:	00015337          	lui	t1,0x15
  1024f4:	10030313          	add	t1,t1,256 # 15100 <_stack_len+0xd100>
  1024f8:	00610133          	add	sp,sp,t1

001024fc <i00000004e9>:
  1024fc:	b6015f03          	lhu	t5,-1184(sp)

00102500 <i00000004ea>:
  102500:	01deaf33          	slt	t5,t4,t4

00102504 <i00000004eb>:
  102504:	00bfcab3          	xor	s5,t6,a1

00102508 <i00000004ec>:
  102508:	1a0b3b13          	sltiu	s6,s6,416

0010250c <i00000004ed>:
  10250c:	00e29f93          	sll	t6,t0,0xe

00102510 <i00000004ee>:
  102510:	411e0933          	sub	s2,t3,a7

00102514 <i00000004ef>:
  102514:	f7814f03          	lbu	t5,-136(sp)

00102518 <i00000004f0>:
  102518:	bf3a4493          	xor	s1,s4,-1037

0010251c <i00000004f1>:
  10251c:	4175dc13          	sra	s8,a1,0x17

00102520 <i00000004f2>:
  102520:	5f815003          	lhu	zero,1528(sp)

00102524 <i00000004f3>:
  102524:	00ab5b33          	srl	s6,s6,a0

00102528 <i00000004f4>:
  102528:	540107a3          	sb	zero,1359(sp)

0010252c <i00000004f5>:
  10252c:	00968233          	add	tp,a3,s1

00102530 <i00000004f6>:
  102530:	60014b03          	lbu	s6,1536(sp)

00102534 <i00000004f7>:
  102534:	00195c93          	srl	s9,s2,0x1

00102538 <i00000004f8>:
  102538:	b4054f13          	xor	t5,a0,-1216

0010253c <i00000004f9>:
  10253c:	76a11003          	lh	zero,1898(sp)
  102540:	00000813          	li	a6,0

00102544 <b00000004fa>:
  102544:	00000033          	add	zero,zero,zero
  102548:	fd0d02e3          	beq	s10,a6,10250c <i00000004ed>
  10254c:	00000033          	add	zero,zero,zero
  102550:	00a00d13          	li	s10,10

00102554 <i00000004fa>:
  102554:	2fe11f03          	lh	t5,766(sp)

00102558 <i00000004fb>:
  102558:	2d010a03          	lb	s4,720(sp)

0010255c <i00000004fc>:
  10255c:	01eb6f33          	or	t5,s6,t5

00102560 <i00000004fd>:
  102560:	7db10c83          	lb	s9,2011(sp)

00102564 <i00000004fe>:
  102564:	46011523          	sh	zero,1130(sp)

00102568 <i00000004ff>:
  102568:	6f6ee413          	or	s0,t4,1782
  10256c:	0000d117          	auipc	sp,0xd
  102570:	b9410113          	add	sp,sp,-1132 # 10f100 <mem>
  102574:	00040337          	lui	t1,0x40
  102578:	8d030313          	add	t1,t1,-1840 # 3f8d0 <tohost+0x1f8c8>
  10257c:	00610133          	add	sp,sp,t1

00102580 <i0000000500>:
  102580:	f3912423          	sw	s9,-216(sp)

00102584 <i0000000501>:
  102584:	01360b33          	add	s6,a2,s3

00102588 <i0000000502>:
  102588:	01025e93          	srl	t4,tp,0x10

0010258c <i0000000503>:
  10258c:	00457533          	and	a0,a0,tp

00102590 <i0000000504>:
  102590:	80914883          	lbu	a7,-2039(sp)

00102594 <i0000000505>:
  102594:	405f5193          	sra	gp,t5,0x5

00102598 <i0000000506>:
  102598:	d4a10723          	sb	a0,-690(sp)

0010259c <i0000000507>:
  10259c:	00ece533          	or	a0,s9,a4

001025a0 <i0000000508>:
  1025a0:	70dbb993          	sltiu	s3,s7,1805

001025a4 <i0000000509>:
  1025a4:	01ef1033          	sll	zero,t5,t5

001025a8 <i000000050a>:
  1025a8:	27710b23          	sb	s7,630(sp)

001025ac <i000000050b>:
  1025ac:	49714403          	lbu	s0,1175(sp)

001025b0 <i000000050c>:
  1025b0:	409905b3          	sub	a1,s2,s1
  1025b4:	00b00f93          	li	t6,11
  1025b8:	00a00d13          	li	s10,10

001025bc <b000000050d>:
  1025bc:	00000033          	add	zero,zero,zero
  1025c0:	07afd263          	bge	t6,s10,102624 <i0000000519>
  1025c4:	00000033          	add	zero,zero,zero
  1025c8:	00a00d13          	li	s10,10

001025cc <i000000050d>:
  1025cc:	92012f03          	lw	t5,-1760(sp)

001025d0 <i000000050e>:
  1025d0:	29215203          	lhu	tp,658(sp)

001025d4 <i000000050f>:
  1025d4:	40a20b33          	sub	s6,tp,a0
  1025d8:	0000d117          	auipc	sp,0xd
  1025dc:	b2810113          	add	sp,sp,-1240 # 10f100 <mem>
  1025e0:	0002c337          	lui	t1,0x2c
  1025e4:	ac030313          	add	t1,t1,-1344 # 2bac0 <tohost+0xbab8>
  1025e8:	00610133          	add	sp,sp,t1

001025ec <i0000000510>:
  1025ec:	e8012b03          	lw	s6,-384(sp)

001025f0 <i0000000511>:
  1025f0:	417b5293          	sra	t0,s6,0x17
  1025f4:	0000d117          	auipc	sp,0xd
  1025f8:	b0c10113          	add	sp,sp,-1268 # 10f100 <mem>
  1025fc:	00018337          	lui	t1,0x18
  102600:	06830313          	add	t1,t1,104 # 18068 <_stack_len+0x10068>
  102604:	00610133          	add	sp,sp,t1

00102608 <i0000000512>:
  102608:	8de11603          	lh	a2,-1826(sp)

0010260c <i0000000513>:
  10260c:	01121f13          	sll	t5,tp,0x11

00102610 <i0000000514>:
  102610:	ad412503          	lw	a0,-1324(sp)

00102614 <i0000000515>:
  102614:	01623b33          	sltu	s6,tp,s6

00102618 <i0000000516>:
  102618:	00f03513          	sltiu	a0,zero,15

0010261c <i0000000517>:
  10261c:	00d8e4b3          	or	s1,a7,a3

00102620 <i0000000518>:
  102620:	196105a3          	sb	s6,395(sp)

00102624 <i0000000519>:
  102624:	01762233          	slt	tp,a2,s7

00102628 <i000000051a>:
  102628:	01eb0fb3          	add	t6,s6,t5

0010262c <i000000051b>:
  10262c:	45010203          	lb	tp,1104(sp)

00102630 <i000000051c>:
  102630:	01ef6233          	or	tp,t5,t5

00102634 <i000000051d>:
  102634:	5bc12703          	lw	a4,1468(sp)
  102638:	0000d117          	auipc	sp,0xd
  10263c:	ac810113          	add	sp,sp,-1336 # 10f100 <mem>
  102640:	00061337          	lui	t1,0x61
  102644:	c0030313          	add	t1,t1,-1024 # 60c00 <tohost+0x40bf8>
  102648:	00610133          	add	sp,sp,t1

0010264c <i000000051e>:
  10264c:	7ea10203          	lb	tp,2026(sp)

00102650 <i000000051f>:
  102650:	002df237          	lui	tp,0x2df
  102654:	00c00e13          	li	t3,12
  102658:	001d0d13          	add	s10,s10,1

0010265c <b0000000520>:
  10265c:	01cd0863          	beq	s10,t3,10266c <b0000000520+0x10>
  102660:	00000e17          	auipc	t3,0x0
  102664:	face0e13          	add	t3,t3,-84 # 10260c <i0000000513>
  102668:	000e0567          	jalr	a0,t3
  10266c:	00a00d13          	li	s10,10

00102670 <i0000000520>:
  102670:	00f49533          	sll	a0,s1,a5

00102674 <i0000000521>:
  102674:	95f14203          	lbu	tp,-1697(sp)

00102678 <i0000000522>:
  102678:	eff11123          	sh	t6,-286(sp)

0010267c <i0000000523>:
  10267c:	01e20b33          	add	s6,tp,t5

00102680 <i0000000524>:
  102680:	0199d233          	srl	tp,s3,s9

00102684 <i0000000525>:
  102684:	85e12c23          	sw	t5,-1960(sp)

00102688 <i0000000526>:
  102688:	40450b33          	sub	s6,a0,tp

0010268c <i0000000527>:
  10268c:	68a4b013          	sltiu	zero,s1,1674
  102690:	0000d117          	auipc	sp,0xd
  102694:	a7010113          	add	sp,sp,-1424 # 10f100 <mem>
  102698:	00044337          	lui	t1,0x44
  10269c:	0e030313          	add	t1,t1,224 # 440e0 <tohost+0x240d8>
  1026a0:	00610133          	add	sp,sp,t1

001026a4 <i0000000528>:
  1026a4:	66415803          	lhu	a6,1636(sp)

001026a8 <i0000000529>:
  1026a8:	25114b03          	lbu	s6,593(sp)
  1026ac:	0000d117          	auipc	sp,0xd
  1026b0:	a5410113          	add	sp,sp,-1452 # 10f100 <mem>
  1026b4:	0002d337          	lui	t1,0x2d
  1026b8:	42030313          	add	t1,t1,1056 # 2d420 <tohost+0xd418>
  1026bc:	00610133          	add	sp,sp,t1

001026c0 <i000000052a>:
  1026c0:	40011623          	sh	zero,1036(sp)

001026c4 <i000000052b>:
  1026c4:	00a20233          	add	tp,tp,a0

001026c8 <i000000052c>:
  1026c8:	00f8c533          	xor	a0,a7,a5

001026cc <i000000052d>:
  1026cc:	f1b98f13          	add	t5,s3,-229 # 7a4b1f1b <fromhost+0x7a329f0b>

001026d0 <i000000052e>:
  1026d0:	e29fa913          	slti	s2,t6,-471
  1026d4:	0000d117          	auipc	sp,0xd
  1026d8:	a2c10113          	add	sp,sp,-1492 # 10f100 <mem>
  1026dc:	00040337          	lui	t1,0x40
  1026e0:	2e830313          	add	t1,t1,744 # 402e8 <tohost+0x202e0>
  1026e4:	00610133          	add	sp,sp,t1

001026e8 <i000000052f>:
  1026e8:	07810f03          	lb	t5,120(sp)

001026ec <i0000000530>:
  1026ec:	66753517          	auipc	a0,0x66753

001026f0 <i0000000531>:
  1026f0:	000f6f33          	or	t5,t5,zero

001026f4 <i0000000532>:
  1026f4:	7fe11423          	sh	t5,2024(sp)
  1026f8:	00900b13          	li	s6,9

001026fc <b0000000533>:
  1026fc:	00000033          	add	zero,zero,zero
  102700:	fbab54e3          	bge	s6,s10,1026a8 <i0000000529>
  102704:	00000033          	add	zero,zero,zero
  102708:	00a00d13          	li	s10,10

0010270c <i0000000533>:
  10270c:	c8914e83          	lbu	t4,-887(sp)

00102710 <i0000000534>:
  102710:	30e66997          	auipc	s3,0x30e66

00102714 <i0000000535>:
  102714:	296e6013          	or	zero,t3,662
  102718:	0000d117          	auipc	sp,0xd
  10271c:	9e810113          	add	sp,sp,-1560 # 10f100 <mem>
  102720:	00042337          	lui	t1,0x42
  102724:	e2030313          	add	t1,t1,-480 # 41e20 <tohost+0x21e18>
  102728:	00610133          	add	sp,sp,t1

0010272c <i0000000536>:
  10272c:	95612e23          	sw	s6,-1700(sp)

00102730 <i0000000537>:
  102730:	e8a15503          	lhu	a0,-374(sp)

00102734 <i0000000538>:
  102734:	00b31013          	sll	zero,t1,0xb
  102738:	0000d117          	auipc	sp,0xd
  10273c:	9c810113          	add	sp,sp,-1592 # 10f100 <mem>
  102740:	0005f337          	lui	t1,0x5f
  102744:	a1830313          	add	t1,t1,-1512 # 5ea18 <tohost+0x3ea10>
  102748:	00610133          	add	sp,sp,t1

0010274c <i0000000539>:
  10274c:	24c15483          	lhu	s1,588(sp)

00102750 <i000000053a>:
  102750:	dd7c0213          	add	tp,s8,-553

00102754 <i000000053b>:
  102754:	db012e03          	lw	t3,-592(sp)

00102758 <i000000053c>:
  102758:	60412c23          	sw	tp,1560(sp)

0010275c <i000000053d>:
  10275c:	2b012a83          	lw	s5,688(sp)

00102760 <i000000053e>:
  102760:	85314783          	lbu	a5,-1965(sp)

00102764 <i000000053f>:
  102764:	004241b3          	xor	gp,tp,tp

00102768 <i0000000540>:
  102768:	b0c10b23          	sb	a2,-1258(sp)

0010276c <i0000000541>:
  10276c:	01623b33          	sltu	s6,tp,s6

00102770 <i0000000542>:
  102770:	cd215f83          	lhu	t6,-814(sp)

00102774 <i0000000543>:
  102774:	63314303          	lbu	t1,1587(sp)

00102778 <i0000000544>:
  102778:	fd414003          	lbu	zero,-44(sp)

0010277c <i0000000545>:
  10277c:	400001b3          	neg	gp,zero
  102780:	00c00913          	li	s2,12
  102784:	001d0d13          	add	s10,s10,1

00102788 <b0000000546>:
  102788:	00000033          	add	zero,zero,zero
  10278c:	fd2d48e3          	blt	s10,s2,10275c <i000000053d>
  102790:	00000033          	add	zero,zero,zero
  102794:	00a00d13          	li	s10,10

00102798 <i0000000546>:
  102798:	e185bf13          	sltiu	t5,a1,-488

0010279c <i0000000547>:
  10279c:	01555513          	srl	a0,a0,0x15

001027a0 <i0000000548>:
  1027a0:	41afd693          	sra	a3,t6,0x1a

001027a4 <i0000000549>:
  1027a4:	b6012303          	lw	t1,-1184(sp)

001027a8 <i000000054a>:
  1027a8:	a9412503          	lw	a0,-1388(sp)

001027ac <i000000054b>:
  1027ac:	06fcb6b7          	lui	a3,0x6fcb

001027b0 <i000000054c>:
  1027b0:	00d81b33          	sll	s6,a6,a3

001027b4 <i000000054d>:
  1027b4:	00003433          	snez	s0,zero
  1027b8:	0000d117          	auipc	sp,0xd
  1027bc:	94810113          	add	sp,sp,-1720 # 10f100 <mem>
  1027c0:	00024337          	lui	t1,0x24
  1027c4:	64030313          	add	t1,t1,1600 # 24640 <tohost+0x4638>
  1027c8:	00610133          	add	sp,sp,t1

001027cc <i000000054e>:
  1027cc:	b9a10283          	lb	t0,-1126(sp)

001027d0 <i000000054f>:
  1027d0:	3f526b13          	or	s6,tp,1013

001027d4 <i0000000550>:
  1027d4:	76415683          	lhu	a3,1892(sp)

001027d8 <i0000000551>:
  1027d8:	bf5f8513          	add	a0,t6,-1035 # 754d3bf5 <fromhost+0x7534bbe5>
  1027dc:	0000d117          	auipc	sp,0xd
  1027e0:	92410113          	add	sp,sp,-1756 # 10f100 <mem>
  1027e4:	00063337          	lui	t1,0x63
  1027e8:	bf830313          	add	t1,t1,-1032 # 62bf8 <tohost+0x42bf0>
  1027ec:	00610133          	add	sp,sp,t1

001027f0 <i0000000552>:
  1027f0:	f8412583          	lw	a1,-124(sp)

001027f4 <i0000000553>:
  1027f4:	27510c23          	sb	s5,632(sp)

001027f8 <i0000000554>:
  1027f8:	8a010623          	sb	zero,-1876(sp)

001027fc <i0000000555>:
  1027fc:	017c62b3          	or	t0,s8,s7

00102800 <i0000000556>:
  102800:	b6a06f13          	or	t5,zero,-1174

00102804 <i0000000557>:
  102804:	29c64e93          	xor	t4,a2,668

00102808 <i0000000558>:
  102808:	01c74f33          	xor	t5,a4,t3
  10280c:	00a00813          	li	a6,10
  102810:	00a00d13          	li	s10,10

00102814 <b0000000559>:
  102814:	00000033          	add	zero,zero,zero
  102818:	070d1e63          	bne	s10,a6,102894 <i0000000566>
  10281c:	00000033          	add	zero,zero,zero
  102820:	00a00d13          	li	s10,10
  102824:	0000d117          	auipc	sp,0xd
  102828:	8dc10113          	add	sp,sp,-1828 # 10f100 <mem>
  10282c:	00026337          	lui	t1,0x26
  102830:	a8830313          	add	t1,t1,-1400 # 25a88 <tohost+0x5a80>
  102834:	00610133          	add	sp,sp,t1

00102838 <i0000000559>:
  102838:	1b412003          	lw	zero,436(sp)

0010283c <i000000055a>:
  10283c:	30e62217          	auipc	tp,0x30e62

00102840 <i000000055b>:
  102840:	a87aeb13          	or	s6,s5,-1401

00102844 <i000000055c>:
  102844:	00f01413          	sll	s0,zero,0xf

00102848 <i000000055d>:
  102848:	37e1ab13          	slti	s6,gp,894
  10284c:	0000d117          	auipc	sp,0xd
  102850:	8b410113          	add	sp,sp,-1868 # 10f100 <mem>
  102854:	00027337          	lui	t1,0x27
  102858:	3c830313          	add	t1,t1,968 # 273c8 <tohost+0x73c0>
  10285c:	00610133          	add	sp,sp,t1

00102860 <i000000055e>:
  102860:	7bd12c23          	sw	t4,1976(sp)

00102864 <i000000055f>:
  102864:	a076b993          	sltiu	s3,a3,-1529

00102868 <i0000000560>:
  102868:	00af0033          	add	zero,t5,a0

0010286c <i0000000561>:
  10286c:	7d411f03          	lh	t5,2004(sp)

00102870 <i0000000562>:
  102870:	71c11e23          	sh	t3,1820(sp)

00102874 <i0000000563>:
  102874:	66815b03          	lhu	s6,1640(sp)
  102878:	0000d117          	auipc	sp,0xd
  10287c:	88810113          	add	sp,sp,-1912 # 10f100 <mem>
  102880:	00063337          	lui	t1,0x63
  102884:	bb830313          	add	t1,t1,-1096 # 62bb8 <tohost+0x42bb0>
  102888:	00610133          	add	sp,sp,t1

0010288c <i0000000564>:
  10288c:	6ba14b03          	lbu	s6,1722(sp)

00102890 <i0000000565>:
  102890:	40400f33          	neg	t5,tp

00102894 <i0000000566>:
  102894:	a7614503          	lbu	a0,-1418(sp)

00102898 <i0000000567>:
  102898:	9ae04193          	xor	gp,zero,-1618

0010289c <i0000000568>:
  10289c:	0133a733          	slt	a4,t2,s3

001028a0 <i0000000569>:
  1028a0:	41c10f83          	lb	t6,1052(sp)
  1028a4:	0000d117          	auipc	sp,0xd
  1028a8:	85c10113          	add	sp,sp,-1956 # 10f100 <mem>
  1028ac:	0006b337          	lui	t1,0x6b
  1028b0:	7b030313          	add	t1,t1,1968 # 6b7b0 <tohost+0x4b7a8>
  1028b4:	00610133          	add	sp,sp,t1

001028b8 <i000000056a>:
  1028b8:	8ec11323          	sh	a2,-1818(sp)

001028bc <i000000056b>:
  1028bc:	37acf593          	and	a1,s9,890
  1028c0:	00a00d93          	li	s11,10

001028c4 <b000000056c>:
  1028c4:	00000033          	add	zero,zero,zero
  1028c8:	05bd0063          	beq	s10,s11,102908 <i0000000579>
  1028cc:	00000033          	add	zero,zero,zero
  1028d0:	00a00d13          	li	s10,10

001028d4 <i000000056c>:
  1028d4:	73811423          	sh	s8,1832(sp)

001028d8 <i000000056d>:
  1028d8:	1f714383          	lbu	t2,503(sp)

001028dc <i000000056e>:
  1028dc:	01d5f333          	and	t1,a1,t4

001028e0 <i000000056f>:
  1028e0:	8a414f03          	lbu	t5,-1884(sp)

001028e4 <i0000000570>:
  1028e4:	11e11723          	sh	t5,270(sp)

001028e8 <i0000000571>:
  1028e8:	204f2513          	slti	a0,t5,516

001028ec <i0000000572>:
  1028ec:	00f81693          	sll	a3,a6,0xf

001028f0 <i0000000573>:
  1028f0:	d1010123          	sb	a6,-766(sp)

001028f4 <i0000000574>:
  1028f4:	55e11f03          	lh	t5,1374(sp)

001028f8 <i0000000575>:
  1028f8:	b31ac313          	xor	t1,s5,-1231

001028fc <i0000000576>:
  1028fc:	2db07513          	and	a0,zero,731

00102900 <i0000000577>:
  102900:	00ce7b33          	and	s6,t3,a2

00102904 <i0000000578>:
  102904:	23e11123          	sh	t5,546(sp)

00102908 <i0000000579>:
  102908:	017b1f13          	sll	t5,s6,0x17

0010290c <i000000057a>:
  10290c:	85e14203          	lbu	tp,-1954(sp)

00102910 <i000000057b>:
  102910:	d527c013          	xor	zero,a5,-686

00102914 <i000000057c>:
  102914:	0085ebb3          	or	s7,a1,s0
  102918:	0000c117          	auipc	sp,0xc
  10291c:	7e810113          	add	sp,sp,2024 # 10f100 <mem>
  102920:	00030337          	lui	t1,0x30
  102924:	22830313          	add	t1,t1,552 # 30228 <tohost+0x10220>
  102928:	00610133          	add	sp,sp,t1

0010292c <i000000057d>:
  10292c:	6c014f03          	lbu	t5,1728(sp)
  102930:	0000c117          	auipc	sp,0xc
  102934:	7d010113          	add	sp,sp,2000 # 10f100 <mem>
  102938:	00036337          	lui	t1,0x36
  10293c:	fc030313          	add	t1,t1,-64 # 35fc0 <tohost+0x15fb8>
  102940:	00610133          	add	sp,sp,t1

00102944 <i000000057e>:
  102944:	43d12623          	sw	t4,1068(sp)
  102948:	00a00c13          	li	s8,10
  10294c:	00a00d13          	li	s10,10

00102950 <b000000057f>:
  102950:	00000033          	add	zero,zero,zero
  102954:	038d1a63          	bne	s10,s8,102988 <i0000000584>
  102958:	00000033          	add	zero,zero,zero
  10295c:	00a00d13          	li	s10,10

00102960 <i000000057f>:
  102960:	0075d2b3          	srl	t0,a1,t2

00102964 <i0000000580>:
  102964:	aae10ca3          	sb	a4,-1351(sp)
  102968:	0000c117          	auipc	sp,0xc
  10296c:	79810113          	add	sp,sp,1944 # 10f100 <mem>
  102970:	00041337          	lui	t1,0x41
  102974:	0a030313          	add	t1,t1,160 # 410a0 <tohost+0x21098>
  102978:	00610133          	add	sp,sp,t1

0010297c <i0000000581>:
  10297c:	6ca15003          	lhu	zero,1738(sp)

00102980 <i0000000582>:
  102980:	000213b3          	sll	t2,tp,zero

00102984 <i0000000583>:
  102984:	25e12823          	sw	t5,592(sp)

00102988 <i0000000584>:
  102988:	55011423          	sh	a6,1352(sp)

0010298c <i0000000585>:
  10298c:	75410923          	sb	s4,1874(sp)

00102990 <i0000000586>:
  102990:	109c8593          	add	a1,s9,265

00102994 <i0000000587>:
  102994:	a1812003          	lw	zero,-1512(sp)

00102998 <i0000000588>:
  102998:	00c4b533          	sltu	a0,s1,a2

0010299c <i0000000589>:
  10299c:	32014b83          	lbu	s7,800(sp)

001029a0 <i000000058a>:
  1029a0:	5c2b3217          	auipc	tp,0x5c2b3

001029a4 <i000000058b>:
  1029a4:	407adbb3          	sra	s7,s5,t2
  1029a8:	0000c117          	auipc	sp,0xc
  1029ac:	75810113          	add	sp,sp,1880 # 10f100 <mem>
  1029b0:	0003b337          	lui	t1,0x3b
  1029b4:	a6830313          	add	t1,t1,-1432 # 3aa68 <tohost+0x1aa60>
  1029b8:	00610133          	add	sp,sp,t1

001029bc <i000000058c>:
  1029bc:	7e012603          	lw	a2,2016(sp)

001029c0 <i000000058d>:
  1029c0:	ffd101a3          	sb	t4,-29(sp)

001029c4 <i000000058e>:
  1029c4:	0ac12183          	lw	gp,172(sp)

001029c8 <i000000058f>:
  1029c8:	b3cc0f13          	add	t5,s8,-1220

001029cc <i0000000590>:
  1029cc:	2f913017          	auipc	zero,0x2f913
  1029d0:	0000c117          	auipc	sp,0xc
  1029d4:	73010113          	add	sp,sp,1840 # 10f100 <mem>
  1029d8:	00054337          	lui	t1,0x54
  1029dc:	d8030313          	add	t1,t1,-640 # 53d80 <tohost+0x33d78>
  1029e0:	00610133          	add	sp,sp,t1

001029e4 <i0000000591>:
  1029e4:	a1c15d83          	lhu	s11,-1508(sp)
  1029e8:	00c00d93          	li	s11,12
  1029ec:	001d0d13          	add	s10,s10,1

001029f0 <b0000000592>:
  1029f0:	00000033          	add	zero,zero,zero
  1029f4:	fdadd4e3          	bge	s11,s10,1029bc <i000000058c>
  1029f8:	00000033          	add	zero,zero,zero
  1029fc:	00a00d13          	li	s10,10

00102a00 <i0000000592>:
  102a00:	19512823          	sw	s5,400(sp)

00102a04 <i0000000593>:
  102a04:	6a2b3f93          	sltiu	t6,s6,1698

00102a08 <i0000000594>:
  102a08:	90a14e83          	lbu	t4,-1782(sp)

00102a0c <i0000000595>:
  102a0c:	00b30033          	add	zero,t1,a1

00102a10 <i0000000596>:
  102a10:	00241e93          	sll	t4,s0,0x2

00102a14 <i0000000597>:
  102a14:	7f680017          	auipc	zero,0x7f680

00102a18 <i0000000598>:
  102a18:	63610623          	sb	s6,1580(sp)

00102a1c <i0000000599>:
  102a1c:	00255193          	srl	gp,a0,0x2

00102a20 <i000000059a>:
  102a20:	5d411b03          	lh	s6,1492(sp)

00102a24 <i000000059b>:
  102a24:	46de28b7          	lui	a7,0x46de2

00102a28 <i000000059c>:
  102a28:	74614003          	lbu	zero,1862(sp)

00102a2c <i000000059d>:
  102a2c:	5c714b03          	lbu	s6,1479(sp)

00102a30 <i000000059e>:
  102a30:	eb270f13          	add	t5,a4,-334 # 49551eb2 <fromhost+0x493c9ea2>
  102a34:	0000c117          	auipc	sp,0xc
  102a38:	6cc10113          	add	sp,sp,1740 # 10f100 <mem>
  102a3c:	0000c337          	lui	t1,0xc
  102a40:	63830313          	add	t1,t1,1592 # c638 <_stack_len+0x4638>
  102a44:	00610133          	add	sp,sp,t1

00102a48 <i000000059f>:
  102a48:	1c614403          	lbu	s0,454(sp)

00102a4c <i00000005a0>:
  102a4c:	41eb0c33          	sub	s8,s6,t5

00102a50 <i00000005a1>:
  102a50:	013adc93          	srl	s9,s5,0x13

00102a54 <i00000005a2>:
  102a54:	18914503          	lbu	a0,393(sp)

00102a58 <i00000005a3>:
  102a58:	b2f14783          	lbu	a5,-1233(sp)

00102a5c <i00000005a4>:
  102a5c:	de811003          	lh	zero,-536(sp)
  102a60:	00900e13          	li	t3,9
  102a64:	00a00d13          	li	s10,10

00102a68 <b00000005a5>:
  102a68:	00000033          	add	zero,zero,zero
  102a6c:	03cd4e63          	blt	s10,t3,102aa8 <i00000005ac>
  102a70:	00000033          	add	zero,zero,zero
  102a74:	00a00d13          	li	s10,10

00102a78 <i00000005a5>:
  102a78:	416204b3          	sub	s1,tp,s6

00102a7c <i00000005a6>:
  102a7c:	0147d213          	srl	tp,a5,0x14

00102a80 <i00000005a7>:
  102a80:	d3c12423          	sw	t3,-728(sp)

00102a84 <i00000005a8>:
  102a84:	0c412603          	lw	a2,196(sp)

00102a88 <i00000005a9>:
  102a88:	60411503          	lh	a0,1540(sp)

00102a8c <i00000005aa>:
  102a8c:	00003a33          	snez	s4,zero
  102a90:	0000c117          	auipc	sp,0xc
  102a94:	67010113          	add	sp,sp,1648 # 10f100 <mem>
  102a98:	0006c337          	lui	t1,0x6c
  102a9c:	66030313          	add	t1,t1,1632 # 6c660 <tohost+0x4c658>
  102aa0:	00610133          	add	sp,sp,t1

00102aa4 <i00000005ab>:
  102aa4:	0ca10aa3          	sb	a0,213(sp)

00102aa8 <i00000005ac>:
  102aa8:	1d812b03          	lw	s6,472(sp)

00102aac <i00000005ad>:
  102aac:	f7611123          	sh	s6,-158(sp)

00102ab0 <i00000005ae>:
  102ab0:	2c215383          	lhu	t2,706(sp)
  102ab4:	0000c117          	auipc	sp,0xc
  102ab8:	64c10113          	add	sp,sp,1612 # 10f100 <mem>
  102abc:	0006e337          	lui	t1,0x6e
  102ac0:	92030313          	add	t1,t1,-1760 # 6d920 <tohost+0x4d918>
  102ac4:	00610133          	add	sp,sp,t1

00102ac8 <i00000005af>:
  102ac8:	38411823          	sh	tp,912(sp)

00102acc <i00000005b0>:
  102acc:	93f14003          	lbu	zero,-1729(sp)

00102ad0 <i00000005b1>:
  102ad0:	08114203          	lbu	tp,129(sp)

00102ad4 <i00000005b2>:
  102ad4:	00f7db13          	srl	s6,a5,0xf

00102ad8 <i00000005b3>:
  102ad8:	00407e33          	and	t3,zero,tp

00102adc <i00000005b4>:
  102adc:	00a23433          	sltu	s0,tp,a0

00102ae0 <i00000005b5>:
  102ae0:	001b5f13          	srl	t5,s6,0x1

00102ae4 <i00000005b6>:
  102ae4:	dec12903          	lw	s2,-532(sp)

00102ae8 <i00000005b7>:
  102ae8:	a7e12223          	sw	t5,-1436(sp)

00102aec <b00000005b8>:
  102aec:	00000917          	auipc	s2,0x0
  102af0:	05890913          	add	s2,s2,88 # 102b44 <i00000005c6>
  102af4:	00090567          	jalr	a0,s2

00102af8 <i00000005b8>:
  102af8:	00ca4233          	xor	tp,s4,a2

00102afc <i00000005b9>:
  102afc:	017991b3          	sll	gp,s3,s7

00102b00 <i00000005ba>:
  102b00:	a2710003          	lb	zero,-1497(sp)

00102b04 <i00000005bb>:
  102b04:	c4910d83          	lb	s11,-951(sp)

00102b08 <i00000005bc>:
  102b08:	90314e83          	lbu	t4,-1789(sp)

00102b0c <i00000005bd>:
  102b0c:	011eeeb3          	or	t4,t4,a7

00102b10 <i00000005be>:
  102b10:	fc912a23          	sw	s1,-44(sp)

00102b14 <i00000005bf>:
  102b14:	2f5ba697          	auipc	a3,0x2f5ba

00102b18 <i00000005c0>:
  102b18:	3759ab17          	auipc	s6,0x3759a

00102b1c <i00000005c1>:
  102b1c:	fb812483          	lw	s1,-72(sp)

00102b20 <i00000005c2>:
  102b20:	ff510fa3          	sb	s5,-1(sp)

00102b24 <i00000005c3>:
  102b24:	01653033          	sltu	zero,a0,s6
  102b28:	0000c117          	auipc	sp,0xc
  102b2c:	5d810113          	add	sp,sp,1496 # 10f100 <mem>
  102b30:	00029337          	lui	t1,0x29
  102b34:	68030313          	add	t1,t1,1664 # 29680 <tohost+0x9678>
  102b38:	00610133          	add	sp,sp,t1

00102b3c <i00000005c4>:
  102b3c:	5e415203          	lhu	tp,1508(sp)

00102b40 <i00000005c5>:
  102b40:	d7c10203          	lb	tp,-644(sp)

00102b44 <i00000005c6>:
  102b44:	01167233          	and	tp,a2,a7

00102b48 <i00000005c7>:
  102b48:	3f612223          	sw	s6,996(sp)

00102b4c <i00000005c8>:
  102b4c:	1ad11e23          	sh	a3,444(sp)

00102b50 <i00000005c9>:
  102b50:	00b25e13          	srl	t3,tp,0xb

00102b54 <i00000005ca>:
  102b54:	a6211f03          	lh	t5,-1438(sp)
  102b58:	00a00813          	li	a6,10

00102b5c <b00000005cb>:
  102b5c:	00000033          	add	zero,zero,zero
  102b60:	ff0d10e3          	bne	s10,a6,102b40 <i00000005c5>
  102b64:	00000033          	add	zero,zero,zero
  102b68:	00a00d13          	li	s10,10

00102b6c <i00000005cb>:
  102b6c:	70014503          	lbu	a0,1792(sp)

00102b70 <i00000005cc>:
  102b70:	0105da33          	srl	s4,a1,a6

00102b74 <i00000005cd>:
  102b74:	99eccf13          	xor	t5,s9,-1634

00102b78 <i00000005ce>:
  102b78:	018b5b13          	srl	s6,s6,0x18

00102b7c <i00000005cf>:
  102b7c:	46214c83          	lbu	s9,1122(sp)

00102b80 <i00000005d0>:
  102b80:	00055033          	srl	zero,a0,zero

00102b84 <i00000005d1>:
  102b84:	00f4dc13          	srl	s8,s1,0xf

00102b88 <i00000005d2>:
  102b88:	00053233          	sltu	tp,a0,zero

00102b8c <i00000005d3>:
  102b8c:	37c12383          	lw	t2,892(sp)

00102b90 <i00000005d4>:
  102b90:	ba610ea3          	sb	t1,-1091(sp)

00102b94 <i00000005d5>:
  102b94:	9a011723          	sh	zero,-1618(sp)

00102b98 <i00000005d6>:
  102b98:	9ca11d23          	sh	a0,-1574(sp)

00102b9c <i00000005d7>:
  102b9c:	861ce613          	or	a2,s9,-1951

00102ba0 <i00000005d8>:
  102ba0:	2bc12003          	lw	zero,700(sp)

00102ba4 <i00000005d9>:
  102ba4:	41e12e23          	sw	t5,1052(sp)

00102ba8 <i00000005da>:
  102ba8:	418c5033          	sra	zero,s8,s8

00102bac <i00000005db>:
  102bac:	1f214203          	lbu	tp,498(sp)

00102bb0 <i00000005dc>:
  102bb0:	56512c23          	sw	t0,1400(sp)

00102bb4 <i00000005dd>:
  102bb4:	dac12d83          	lw	s11,-596(sp)
  102bb8:	00c00b13          	li	s6,12
  102bbc:	001d0d13          	add	s10,s10,1

00102bc0 <b00000005de>:
  102bc0:	00000033          	add	zero,zero,zero
  102bc4:	fd6d18e3          	bne	s10,s6,102b94 <i00000005d5>
  102bc8:	00000033          	add	zero,zero,zero
  102bcc:	00a00d13          	li	s10,10

00102bd0 <i00000005de>:
  102bd0:	3ec12483          	lw	s1,1004(sp)

00102bd4 <i00000005df>:
  102bd4:	015abeb3          	sltu	t4,s5,s5

00102bd8 <i00000005e0>:
  102bd8:	404f0033          	sub	zero,t5,tp

00102bdc <i00000005e1>:
  102bdc:	41e25e33          	sra	t3,tp,t5

00102be0 <i00000005e2>:
  102be0:	00da5a33          	srl	s4,s4,a3

00102be4 <i00000005e3>:
  102be4:	00e9a3b3          	slt	t2,s3,a4

00102be8 <i00000005e4>:
  102be8:	df310223          	sb	s3,-540(sp)

00102bec <i00000005e5>:
  102bec:	9cdf3e13          	sltiu	t3,t5,-1587

00102bf0 <i00000005e6>:
  102bf0:	005c7f33          	and	t5,s8,t0

00102bf4 <i00000005e7>:
  102bf4:	e0012e23          	sw	zero,-484(sp)

00102bf8 <i00000005e8>:
  102bf8:	14010d23          	sb	zero,346(sp)

00102bfc <i00000005e9>:
  102bfc:	f1912023          	sw	s9,-256(sp)

00102c00 <i00000005ea>:
  102c00:	1b112a23          	sw	a7,436(sp)

00102c04 <i00000005eb>:
  102c04:	e9015b83          	lhu	s7,-368(sp)

00102c08 <i00000005ec>:
  102c08:	2afb6013          	or	zero,s6,687
  102c0c:	0000c117          	auipc	sp,0xc
  102c10:	4f410113          	add	sp,sp,1268 # 10f100 <mem>
  102c14:	00043337          	lui	t1,0x43
  102c18:	57030313          	add	t1,t1,1392 # 43570 <tohost+0x23568>
  102c1c:	00610133          	add	sp,sp,t1

00102c20 <i00000005ed>:
  102c20:	23e10323          	sb	t5,550(sp)

00102c24 <i00000005ee>:
  102c24:	01f1dab3          	srl	s5,gp,t6

00102c28 <i00000005ef>:
  102c28:	cca10a03          	lb	s4,-822(sp)

00102c2c <i00000005f0>:
  102c2c:	41525813          	sra	a6,tp,0x15
  102c30:	00b00913          	li	s2,11
  102c34:	00a00d13          	li	s10,10

00102c38 <b00000005f1>:
  102c38:	00000033          	add	zero,zero,zero
  102c3c:	072d1463          	bne	s10,s2,102ca4 <i00000005f9>
  102c40:	00000033          	add	zero,zero,zero
  102c44:	00a00d13          	li	s10,10

00102c48 <i00000005f1>:
  102c48:	01b2bc33          	sltu	s8,t0,s11

00102c4c <i00000005f2>:
  102c4c:	01711d23          	sh	s7,26(sp)
  102c50:	0000c117          	auipc	sp,0xc
  102c54:	4b010113          	add	sp,sp,1200 # 10f100 <mem>
  102c58:	00051337          	lui	t1,0x51
  102c5c:	87030313          	add	t1,t1,-1936 # 50870 <tohost+0x30868>
  102c60:	00610133          	add	sp,sp,t1

00102c64 <i00000005f3>:
  102c64:	7e710003          	lb	zero,2023(sp)

00102c68 <i00000005f4>:
  102c68:	5c727993          	and	s3,tp,1479

00102c6c <i00000005f5>:
  102c6c:	53914203          	lbu	tp,1337(sp)
  102c70:	0000c117          	auipc	sp,0xc
  102c74:	49010113          	add	sp,sp,1168 # 10f100 <mem>
  102c78:	0004e337          	lui	t1,0x4e
  102c7c:	a4830313          	add	t1,t1,-1464 # 4da48 <tohost+0x2da40>
  102c80:	00610133          	add	sp,sp,t1

00102c84 <i00000005f6>:
  102c84:	feb109a3          	sb	a1,-13(sp)
  102c88:	0000c117          	auipc	sp,0xc
  102c8c:	47810113          	add	sp,sp,1144 # 10f100 <mem>
  102c90:	00067337          	lui	t1,0x67
  102c94:	59830313          	add	t1,t1,1432 # 67598 <tohost+0x47590>
  102c98:	00610133          	add	sp,sp,t1

00102c9c <i00000005f7>:
  102c9c:	2b414503          	lbu	a0,692(sp)

00102ca0 <i00000005f8>:
  102ca0:	006c2233          	slt	tp,s8,t1

00102ca4 <i00000005f9>:
  102ca4:	62012623          	sw	zero,1580(sp)
  102ca8:	0000c117          	auipc	sp,0xc
  102cac:	45810113          	add	sp,sp,1112 # 10f100 <mem>
  102cb0:	0005b337          	lui	t1,0x5b
  102cb4:	80030313          	add	t1,t1,-2048 # 5a800 <tohost+0x3a7f8>
  102cb8:	00610133          	add	sp,sp,t1

00102cbc <i00000005fa>:
  102cbc:	4e014883          	lbu	a7,1248(sp)

00102cc0 <i00000005fb>:
  102cc0:	ca012203          	lw	tp,-864(sp)

00102cc4 <i00000005fc>:
  102cc4:	bb615f03          	lhu	t5,-1098(sp)

00102cc8 <i00000005fd>:
  102cc8:	00505893          	srl	a7,zero,0x5

00102ccc <i00000005fe>:
  102ccc:	0005d913          	srl	s2,a1,0x0

00102cd0 <i00000005ff>:
  102cd0:	03cf6d93          	or	s11,t5,60

00102cd4 <i0000000600>:
  102cd4:	00349e13          	sll	t3,s1,0x3

00102cd8 <i0000000601>:
  102cd8:	00a71013          	sll	zero,a4,0xa
  102cdc:	0000c117          	auipc	sp,0xc
  102ce0:	42410113          	add	sp,sp,1060 # 10f100 <mem>
  102ce4:	0004a337          	lui	t1,0x4a
  102ce8:	a8030313          	add	t1,t1,-1408 # 49a80 <tohost+0x29a78>
  102cec:	00610133          	add	sp,sp,t1

00102cf0 <i0000000602>:
  102cf0:	a1211583          	lh	a1,-1518(sp)
  102cf4:	0000c117          	auipc	sp,0xc
  102cf8:	40c10113          	add	sp,sp,1036 # 10f100 <mem>
  102cfc:	00019337          	lui	t1,0x19
  102d00:	6d030313          	add	t1,t1,1744 # 196d0 <_stack_len+0x116d0>
  102d04:	00610133          	add	sp,sp,t1

00102d08 <i0000000603>:
  102d08:	f5211923          	sh	s2,-174(sp)
  102d0c:	00a00e13          	li	t3,10

00102d10 <b0000000604>:
  102d10:	00000033          	add	zero,zero,zero
  102d14:	fbcd14e3          	bne	s10,t3,102cbc <i00000005fa>
  102d18:	00000033          	add	zero,zero,zero
  102d1c:	00a00d13          	li	s10,10

00102d20 <i0000000604>:
  102d20:	64010ca3          	sb	zero,1625(sp)

00102d24 <i0000000605>:
  102d24:	403c0933          	sub	s2,s8,gp

00102d28 <i0000000606>:
  102d28:	9f015503          	lhu	a0,-1552(sp)

00102d2c <i0000000607>:
  102d2c:	00649ab3          	sll	s5,s1,t1

00102d30 <i0000000608>:
  102d30:	55814303          	lbu	t1,1368(sp)
  102d34:	0000c117          	auipc	sp,0xc
  102d38:	3cc10113          	add	sp,sp,972 # 10f100 <mem>
  102d3c:	0000e337          	lui	t1,0xe
  102d40:	7a830313          	add	t1,t1,1960 # e7a8 <_stack_len+0x67a8>
  102d44:	00610133          	add	sp,sp,t1

00102d48 <i0000000609>:
  102d48:	7ce14503          	lbu	a0,1998(sp)

00102d4c <i000000060a>:
  102d4c:	ad011c83          	lh	s9,-1328(sp)

00102d50 <i000000060b>:
  102d50:	00405233          	srl	tp,zero,tp

00102d54 <i000000060c>:
  102d54:	6af5a613          	slti	a2,a1,1711

00102d58 <i000000060d>:
  102d58:	00585f13          	srl	t5,a6,0x5

00102d5c <i000000060e>:
  102d5c:	940f4f13          	xor	t5,t5,-1728
  102d60:	0000c117          	auipc	sp,0xc
  102d64:	3a010113          	add	sp,sp,928 # 10f100 <mem>
  102d68:	00020337          	lui	t1,0x20
  102d6c:	68030313          	add	t1,t1,1664 # 20680 <tohost+0x678>
  102d70:	00610133          	add	sp,sp,t1

00102d74 <i000000060f>:
  102d74:	fd714703          	lbu	a4,-41(sp)

00102d78 <i0000000610>:
  102d78:	68812783          	lw	a5,1672(sp)

00102d7c <i0000000611>:
  102d7c:	06d58297          	auipc	t0,0x6d58

00102d80 <i0000000612>:
  102d80:	dd353513          	sltiu	a0,a0,-557

00102d84 <i0000000613>:
  102d84:	00401033          	sll	zero,zero,tp

00102d88 <i0000000614>:
  102d88:	67411223          	sh	s4,1636(sp)

00102d8c <i0000000615>:
  102d8c:	d8af3313          	sltiu	t1,t5,-630

00102d90 <i0000000616>:
  102d90:	00022b33          	sltz	s6,tp
  102d94:	00c00a93          	li	s5,12
  102d98:	00a00d13          	li	s10,10

00102d9c <b0000000617>:
  102d9c:	00000033          	add	zero,zero,zero
  102da0:	075d4063          	blt	s10,s5,102e00 <i0000000622>
  102da4:	00000033          	add	zero,zero,zero
  102da8:	00a00d13          	li	s10,10

00102dac <i0000000617>:
  102dac:	e7411f03          	lh	t5,-396(sp)

00102db0 <i0000000618>:
  102db0:	f2c11283          	lh	t0,-212(sp)

00102db4 <i0000000619>:
  102db4:	1ed11023          	sh	a3,480(sp)

00102db8 <i000000061a>:
  102db8:	52a14f03          	lbu	t5,1322(sp)

00102dbc <i000000061b>:
  102dbc:	da710ba3          	sb	t2,-585(sp)

00102dc0 <i000000061c>:
  102dc0:	6c311423          	sh	gp,1736(sp)

00102dc4 <i000000061d>:
  102dc4:	52545d97          	auipc	s11,0x52545

00102dc8 <i000000061e>:
  102dc8:	413c5c93          	sra	s9,s8,0x13

00102dcc <i000000061f>:
  102dcc:	ca411923          	sh	tp,-846(sp)

00102dd0 <i0000000620>:
  102dd0:	87810fa3          	sb	s8,-1921(sp)
  102dd4:	0000c117          	auipc	sp,0xc
  102dd8:	32c10113          	add	sp,sp,812 # 10f100 <mem>
  102ddc:	00017337          	lui	t1,0x17
  102de0:	73030313          	add	t1,t1,1840 # 17730 <_stack_len+0xf730>
  102de4:	00610133          	add	sp,sp,t1

00102de8 <i0000000621>:
  102de8:	70211703          	lh	a4,1794(sp)
  102dec:	0000c117          	auipc	sp,0xc
  102df0:	31410113          	add	sp,sp,788 # 10f100 <mem>
  102df4:	00021337          	lui	t1,0x21
  102df8:	f4030313          	add	t1,t1,-192 # 20f40 <tohost+0xf38>
  102dfc:	00610133          	add	sp,sp,t1

00102e00 <i0000000622>:
  102e00:	9b810303          	lb	t1,-1608(sp)

00102e04 <i0000000623>:
  102e04:	c2812b03          	lw	s6,-984(sp)

00102e08 <i0000000624>:
  102e08:	2b3fb297          	auipc	t0,0x2b3fb

00102e0c <i0000000625>:
  102e0c:	6ebfd217          	auipc	tp,0x6ebfd

00102e10 <i0000000626>:
  102e10:	1a614303          	lbu	t1,422(sp)

00102e14 <i0000000627>:
  102e14:	a5e11f03          	lh	t5,-1442(sp)

00102e18 <i0000000628>:
  102e18:	a0a12423          	sw	a0,-1528(sp)

00102e1c <i0000000629>:
  102e1c:	016542b3          	xor	t0,a0,s6

00102e20 <b000000062a>:
  102e20:	00000a17          	auipc	s4,0x0
  102e24:	02ca0a13          	add	s4,s4,44 # 102e4c <i0000000632>
  102e28:	000a0567          	jalr	a0,s4

00102e2c <i000000062a>:
  102e2c:	01b21513          	sll	a0,tp,0x1b

00102e30 <i000000062b>:
  102e30:	01c4e033          	or	zero,s1,t3

00102e34 <i000000062c>:
  102e34:	016f1513          	sll	a0,t5,0x16

00102e38 <i000000062d>:
  102e38:	09811683          	lh	a3,152(sp)

00102e3c <i000000062e>:
  102e3c:	68454213          	xor	tp,a0,1668

00102e40 <i000000062f>:
  102e40:	caa12023          	sw	a0,-864(sp)

00102e44 <i0000000630>:
  102e44:	68b10b03          	lb	s6,1675(sp)

00102e48 <i0000000631>:
  102e48:	00c3ecb3          	or	s9,t2,a2

00102e4c <i0000000632>:
  102e4c:	415eddb3          	sra	s11,t4,s5

00102e50 <i0000000633>:
  102e50:	00719b93          	sll	s7,gp,0x7

00102e54 <i0000000634>:
  102e54:	22c27013          	and	zero,tp,556

00102e58 <i0000000635>:
  102e58:	2d611e23          	sh	s6,732(sp)

00102e5c <i0000000636>:
  102e5c:	28215503          	lhu	a0,642(sp)
  102e60:	0000c117          	auipc	sp,0xc
  102e64:	2a010113          	add	sp,sp,672 # 10f100 <mem>
  102e68:	00024337          	lui	t1,0x24
  102e6c:	eb830313          	add	t1,t1,-328 # 23eb8 <tohost+0x3eb0>
  102e70:	00610133          	add	sp,sp,t1

00102e74 <i0000000637>:
  102e74:	ad610583          	lb	a1,-1322(sp)

00102e78 <i0000000638>:
  102e78:	0103cf33          	xor	t5,t2,a6

00102e7c <i0000000639>:
  102e7c:	05ccfb37          	lui	s6,0x5ccf

00102e80 <i000000063a>:
  102e80:	e24105a3          	sb	tp,-469(sp)

00102e84 <i000000063b>:
  102e84:	a4e12e23          	sw	a4,-1444(sp)

00102e88 <i000000063c>:
  102e88:	d14eb213          	sltiu	tp,t4,-748
  102e8c:	00b00d93          	li	s11,11
  102e90:	001d0d13          	add	s10,s10,1

00102e94 <b000000063d>:
  102e94:	00000033          	add	zero,zero,zero
  102e98:	fbbd0ae3          	beq	s10,s11,102e4c <i0000000632>
  102e9c:	00000033          	add	zero,zero,zero
  102ea0:	00a00d13          	li	s10,10

00102ea4 <i000000063d>:
  102ea4:	646eeb13          	or	s6,t4,1606

00102ea8 <i000000063e>:
  102ea8:	7095fe13          	and	t3,a1,1801

00102eac <i000000063f>:
  102eac:	95e06c93          	or	s9,zero,-1698

00102eb0 <i0000000640>:
  102eb0:	56306993          	or	s3,zero,1379

00102eb4 <i0000000641>:
  102eb4:	61c8bf13          	sltiu	t5,a7,1564

00102eb8 <i0000000642>:
  102eb8:	4097d9b3          	sra	s3,a5,s1
  102ebc:	0000c117          	auipc	sp,0xc
  102ec0:	24410113          	add	sp,sp,580 # 10f100 <mem>
  102ec4:	0003d337          	lui	t1,0x3d
  102ec8:	cb830313          	add	t1,t1,-840 # 3ccb8 <tohost+0x1ccb0>
  102ecc:	00610133          	add	sp,sp,t1

00102ed0 <i0000000643>:
  102ed0:	46d10603          	lb	a2,1133(sp)

00102ed4 <i0000000644>:
  102ed4:	01621cb3          	sll	s9,tp,s6

00102ed8 <i0000000645>:
  102ed8:	01955b13          	srl	s6,a0,0x19

00102edc <i0000000646>:
  102edc:	60336013          	or	zero,t1,1539

00102ee0 <i0000000647>:
  102ee0:	5cf11b23          	sh	a5,1494(sp)

00102ee4 <i0000000648>:
  102ee4:	47815f03          	lhu	t5,1144(sp)

00102ee8 <i0000000649>:
  102ee8:	4198d513          	sra	a0,a7,0x19
  102eec:	0000c117          	auipc	sp,0xc
  102ef0:	21410113          	add	sp,sp,532 # 10f100 <mem>
  102ef4:	0002f337          	lui	t1,0x2f
  102ef8:	a8830313          	add	t1,t1,-1400 # 2ea88 <tohost+0xea80>
  102efc:	00610133          	add	sp,sp,t1

00102f00 <i000000064a>:
  102f00:	0ac10623          	sb	a2,172(sp)

00102f04 <i000000064b>:
  102f04:	0b710623          	sb	s7,172(sp)

00102f08 <i000000064c>:
  102f08:	e5392b13          	slti	s6,s2,-429

00102f0c <i000000064d>:
  102f0c:	4c6f9717          	auipc	a4,0x4c6f9

00102f10 <i000000064e>:
  102f10:	00452cb3          	slt	s9,a0,tp

00102f14 <i000000064f>:
  102f14:	01972833          	slt	a6,a4,s9
  102f18:	00a00a13          	li	s4,10

00102f1c <b0000000650>:
  102f1c:	014d0463          	beq	s10,s4,102f24 <b0000000650+0x8>
  102f20:	fb9ff56f          	jal	a0,102ed8 <i0000000645>
  102f24:	00a00d13          	li	s10,10
  102f28:	0000c117          	auipc	sp,0xc
  102f2c:	1d810113          	add	sp,sp,472 # 10f100 <mem>
  102f30:	00044337          	lui	t1,0x44
  102f34:	b9030313          	add	t1,t1,-1136 # 43b90 <tohost+0x23b88>
  102f38:	00610133          	add	sp,sp,t1

00102f3c <i0000000650>:
  102f3c:	1d512023          	sw	s5,448(sp)

00102f40 <i0000000651>:
  102f40:	00ef1213          	sll	tp,t5,0xe

00102f44 <i0000000652>:
  102f44:	cfbb6e13          	or	t3,s6,-773

00102f48 <i0000000653>:
  102f48:	95812003          	lw	zero,-1704(sp)

00102f4c <i0000000654>:
  102f4c:	da011003          	lh	zero,-608(sp)

00102f50 <i0000000655>:
  102f50:	83e11c03          	lh	s8,-1986(sp)

00102f54 <i0000000656>:
  102f54:	13610b03          	lb	s6,310(sp)

00102f58 <i0000000657>:
  102f58:	41255593          	sra	a1,a0,0x12

00102f5c <i0000000658>:
  102f5c:	2d8b6bb7          	lui	s7,0x2d8b6

00102f60 <i0000000659>:
  102f60:	41df8933          	sub	s2,t6,t4

00102f64 <i000000065a>:
  102f64:	6e015183          	lhu	gp,1760(sp)
  102f68:	0000c117          	auipc	sp,0xc
  102f6c:	19810113          	add	sp,sp,408 # 10f100 <mem>
  102f70:	00064337          	lui	t1,0x64
  102f74:	78830313          	add	t1,t1,1928 # 64788 <tohost+0x44780>
  102f78:	00610133          	add	sp,sp,t1

00102f7c <i000000065b>:
  102f7c:	f6f12a23          	sw	a5,-140(sp)

00102f80 <i000000065c>:
  102f80:	1de11823          	sh	t5,464(sp)

00102f84 <i000000065d>:
  102f84:	c9812183          	lw	gp,-872(sp)
  102f88:	0000c117          	auipc	sp,0xc
  102f8c:	17810113          	add	sp,sp,376 # 10f100 <mem>
  102f90:	0000d337          	lui	t1,0xd
  102f94:	77830313          	add	t1,t1,1912 # d778 <_stack_len+0x5778>
  102f98:	00610133          	add	sp,sp,t1

00102f9c <i000000065e>:
  102f9c:	13c12623          	sw	t3,300(sp)

00102fa0 <i000000065f>:
  102fa0:	bdc11803          	lh	a6,-1060(sp)
  102fa4:	0000c117          	auipc	sp,0xc
  102fa8:	15c10113          	add	sp,sp,348 # 10f100 <mem>
  102fac:	0002d337          	lui	t1,0x2d
  102fb0:	9e030313          	add	t1,t1,-1568 # 2c9e0 <tohost+0xc9d8>
  102fb4:	00610133          	add	sp,sp,t1

00102fb8 <i0000000660>:
  102fb8:	1e011003          	lh	zero,480(sp)

00102fbc <i0000000661>:
  102fbc:	316f7f13          	and	t5,t5,790

00102fc0 <i0000000662>:
  102fc0:	39a11583          	lh	a1,922(sp)
  102fc4:	00900893          	li	a7,9
  102fc8:	00a00d13          	li	s10,10

00102fcc <b0000000663>:
  102fcc:	00000033          	add	zero,zero,zero
  102fd0:	071d4663          	blt	s10,a7,10303c <i0000000671>
  102fd4:	00000033          	add	zero,zero,zero
  102fd8:	00a00d13          	li	s10,10

00102fdc <i0000000663>:
  102fdc:	40a55233          	sra	tp,a0,a0

00102fe0 <i0000000664>:
  102fe0:	486af397          	auipc	t2,0x486af

00102fe4 <i0000000665>:
  102fe4:	01eb5f33          	srl	t5,s6,t5

00102fe8 <i0000000666>:
  102fe8:	01297933          	and	s2,s2,s2

00102fec <i0000000667>:
  102fec:	b9412803          	lw	a6,-1132(sp)

00102ff0 <i0000000668>:
  102ff0:	48414f03          	lbu	t5,1156(sp)

00102ff4 <i0000000669>:
  102ff4:	6d012883          	lw	a7,1744(sp)

00102ff8 <i000000066a>:
  102ff8:	01e54f33          	xor	t5,a0,t5

00102ffc <i000000066b>:
  102ffc:	40505e93          	sra	t4,zero,0x5
  103000:	0000c117          	auipc	sp,0xc
  103004:	10010113          	add	sp,sp,256 # 10f100 <mem>
  103008:	00032337          	lui	t1,0x32
  10300c:	53030313          	add	t1,t1,1328 # 32530 <tohost+0x12528>
  103010:	00610133          	add	sp,sp,t1

00103014 <i000000066c>:
  103014:	88415483          	lhu	s1,-1916(sp)

00103018 <i000000066d>:
  103018:	6e211b03          	lh	s6,1762(sp)

0010301c <i000000066e>:
  10301c:	40105213          	sra	tp,zero,0x1

00103020 <i000000066f>:
  103020:	9e2ba213          	slti	tp,s7,-1566
  103024:	0000c117          	auipc	sp,0xc
  103028:	0dc10113          	add	sp,sp,220 # 10f100 <mem>
  10302c:	00043337          	lui	t1,0x43
  103030:	07830313          	add	t1,t1,120 # 43078 <tohost+0x23070>
  103034:	00610133          	add	sp,sp,t1

00103038 <i0000000670>:
  103038:	2de15583          	lhu	a1,734(sp)

0010303c <i0000000671>:
  10303c:	00003bb3          	snez	s7,zero

00103040 <i0000000672>:
  103040:	88a104a3          	sb	a0,-1911(sp)

00103044 <i0000000673>:
  103044:	40a50233          	sub	tp,a0,a0

00103048 <i0000000674>:
  103048:	d9c15003          	lhu	zero,-612(sp)

0010304c <i0000000675>:
  10304c:	41eb5f33          	sra	t5,s6,t5
  103050:	00900d93          	li	s11,9
  103054:	00a00d13          	li	s10,10

00103058 <b0000000676>:
  103058:	00000033          	add	zero,zero,zero
  10305c:	05bd4c63          	blt	s10,s11,1030b4 <i0000000684>
  103060:	00000033          	add	zero,zero,zero
  103064:	00a00d13          	li	s10,10

00103068 <i0000000676>:
  103068:	7f611f23          	sh	s6,2046(sp)

0010306c <i0000000677>:
  10306c:	cd411623          	sh	s4,-820(sp)

00103070 <i0000000678>:
  103070:	01e27eb3          	and	t4,tp,t5
  103074:	0000c117          	auipc	sp,0xc
  103078:	08c10113          	add	sp,sp,140 # 10f100 <mem>
  10307c:	00005337          	lui	t1,0x5
  103080:	2a830313          	add	t1,t1,680 # 52a8 <_min_stack+0x32a8>
  103084:	00610133          	add	sp,sp,t1

00103088 <i0000000679>:
  103088:	5b514683          	lbu	a3,1461(sp)

0010308c <i000000067a>:
  10308c:	77240537          	lui	a0,0x77240

00103090 <i000000067b>:
  103090:	00ef5b13          	srl	s6,t5,0xe

00103094 <i000000067c>:
  103094:	a3814f03          	lbu	t5,-1480(sp)

00103098 <i000000067d>:
  103098:	004b38b3          	sltu	a7,s6,tp

0010309c <i000000067e>:
  10309c:	39122013          	slti	zero,tp,913

001030a0 <i000000067f>:
  1030a0:	5aa11a23          	sh	a0,1460(sp)

001030a4 <i0000000680>:
  1030a4:	01e25333          	srl	t1,tp,t5

001030a8 <i0000000681>:
  1030a8:	65415a03          	lhu	s4,1620(sp)

001030ac <i0000000682>:
  1030ac:	07752b37          	lui	s6,0x7752

001030b0 <i0000000683>:
  1030b0:	2f2b0f13          	add	t5,s6,754 # 77522f2 <fromhost+0x75ca2e2>

001030b4 <i0000000684>:
  1030b4:	6a010e23          	sb	zero,1724(sp)

001030b8 <i0000000685>:
  1030b8:	a7611423          	sh	s6,-1432(sp)

001030bc <i0000000686>:
  1030bc:	950b0d93          	add	s11,s6,-1712

001030c0 <i0000000687>:
  1030c0:	01e00733          	add	a4,zero,t5

001030c4 <i0000000688>:
  1030c4:	40825a93          	sra	s5,tp,0x8
  1030c8:	00a00913          	li	s2,10

001030cc <b0000000689>:
  1030cc:	00000033          	add	zero,zero,zero
  1030d0:	052d0463          	beq	s10,s2,103118 <i0000000693>
  1030d4:	00000033          	add	zero,zero,zero
  1030d8:	00a00d13          	li	s10,10

001030dc <i0000000689>:
  1030dc:	bc0b0013          	add	zero,s6,-1088

001030e0 <i000000068a>:
  1030e0:	2f498b17          	auipc	s6,0x2f498

001030e4 <i000000068b>:
  1030e4:	54a11323          	sh	a0,1350(sp)

001030e8 <i000000068c>:
  1030e8:	0e411503          	lh	a0,228(sp)

001030ec <i000000068d>:
  1030ec:	8c8105a3          	sb	s0,-1845(sp)

001030f0 <i000000068e>:
  1030f0:	019d8233          	add	tp,s11,s9

001030f4 <i000000068f>:
  1030f4:	00425b13          	srl	s6,tp,0x4

001030f8 <i0000000690>:
  1030f8:	1ca70b13          	add	s6,a4,458 # 4c7fc0d6 <fromhost+0x4c6740c6>
  1030fc:	0000c117          	auipc	sp,0xc
  103100:	00410113          	add	sp,sp,4 # 10f100 <mem>
  103104:	00052337          	lui	t1,0x52
  103108:	c0830313          	add	t1,t1,-1016 # 51c08 <tohost+0x31c00>
  10310c:	00610133          	add	sp,sp,t1

00103110 <i0000000691>:
  103110:	6d610e23          	sb	s6,1756(sp)

00103114 <i0000000692>:
  103114:	b8157513          	and	a0,a0,-1151

00103118 <i0000000693>:
  103118:	cd615d83          	lhu	s11,-810(sp)

0010311c <i0000000694>:
  10311c:	00efdb33          	srl	s6,t6,a4

00103120 <i0000000695>:
  103120:	bb227b13          	and	s6,tp,-1102

00103124 <i0000000696>:
  103124:	007a6b33          	or	s6,s4,t2

00103128 <i0000000697>:
  103128:	01e11e23          	sh	t5,28(sp)

0010312c <i0000000698>:
  10312c:	015cdab3          	srl	s5,s9,s5

00103130 <i0000000699>:
  103130:	3ec14f03          	lbu	t5,1004(sp)

00103134 <i000000069a>:
  103134:	01c51793          	sll	a5,a0,0x1c

00103138 <i000000069b>:
  103138:	33db0013          	add	zero,s6,829 # 2f59b41d <fromhost+0x2f41340d>
  10313c:	00b00d93          	li	s11,11
  103140:	00a00d13          	li	s10,10

00103144 <b000000069c>:
  103144:	00000033          	add	zero,zero,zero
  103148:	05addc63          	bge	s11,s10,1031a0 <i00000006a5>
  10314c:	00000033          	add	zero,zero,zero
  103150:	00a00d13          	li	s10,10

00103154 <i000000069c>:
  103154:	01521513          	sll	a0,tp,0x15
  103158:	0000c117          	auipc	sp,0xc
  10315c:	fa810113          	add	sp,sp,-88 # 10f100 <mem>
  103160:	0001e337          	lui	t1,0x1e
  103164:	3f830313          	add	t1,t1,1016 # 1e3f8 <_stack_len+0x163f8>
  103168:	00610133          	add	sp,sp,t1

0010316c <i000000069d>:
  10316c:	31012f03          	lw	t5,784(sp)
  103170:	0000c117          	auipc	sp,0xc
  103174:	f9010113          	add	sp,sp,-112 # 10f100 <mem>
  103178:	0006a337          	lui	t1,0x6a
  10317c:	14830313          	add	t1,t1,328 # 6a148 <tohost+0x4a140>
  103180:	00610133          	add	sp,sp,t1

00103184 <i000000069e>:
  103184:	6ed11823          	sh	a3,1776(sp)

00103188 <i000000069f>:
  103188:	01be4ab3          	xor	s5,t3,s11

0010318c <i00000006a0>:
  10318c:	01d25c93          	srl	s9,tp,0x1d

00103190 <i00000006a1>:
  103190:	e2104893          	xor	a7,zero,-479

00103194 <i00000006a2>:
  103194:	2c022293          	slti	t0,tp,704

00103198 <i00000006a3>:
  103198:	10310703          	lb	a4,259(sp)

0010319c <i00000006a4>:
  10319c:	01f21d93          	sll	s11,tp,0x1f

001031a0 <i00000006a5>:
  1031a0:	67a11203          	lh	tp,1658(sp)

001031a4 <i00000006a6>:
  1031a4:	014f5793          	srl	a5,t5,0x14

001031a8 <i00000006a7>:
  1031a8:	40a15c03          	lhu	s8,1034(sp)

001031ac <i00000006a8>:
  1031ac:	41968933          	sub	s2,a3,s9
  1031b0:	0000c117          	auipc	sp,0xc
  1031b4:	f5010113          	add	sp,sp,-176 # 10f100 <mem>
  1031b8:	0001c337          	lui	t1,0x1c
  1031bc:	31030313          	add	t1,t1,784 # 1c310 <_stack_len+0x14310>
  1031c0:	00610133          	add	sp,sp,t1

001031c4 <i00000006a9>:
  1031c4:	bf411003          	lh	zero,-1036(sp)

001031c8 <i00000006aa>:
  1031c8:	e1e07693          	and	a3,zero,-482

001031cc <i00000006ab>:
  1031cc:	4b410e83          	lb	t4,1204(sp)

001031d0 <i00000006ac>:
  1031d0:	af412c83          	lw	s9,-1292(sp)

001031d4 <i00000006ad>:
  1031d4:	56c12b03          	lw	s6,1388(sp)

001031d8 <i00000006ae>:
  1031d8:	77e12823          	sw	t5,1904(sp)
  1031dc:	00000893          	li	a7,0

001031e0 <b00000006af>:
  1031e0:	00000033          	add	zero,zero,zero
  1031e4:	fb1d06e3          	beq	s10,a7,103190 <i00000006a1>
  1031e8:	00000033          	add	zero,zero,zero
  1031ec:	00a00d13          	li	s10,10

001031f0 <i00000006af>:
  1031f0:	52d52213          	slti	tp,a0,1325

001031f4 <i00000006b0>:
  1031f4:	13998c93          	add	s9,s3,313 # 30f68849 <fromhost+0x30de0839>

001031f8 <i00000006b1>:
  1031f8:	00f36f17          	auipc	t5,0xf36

001031fc <i00000006b2>:
  1031fc:	e196e213          	or	tp,a3,-487

00103200 <i00000006b3>:
  103200:	016532b3          	sltu	t0,a0,s6

00103204 <i00000006b4>:
  103204:	40025013          	sra	zero,tp,0x0

00103208 <i00000006b5>:
  103208:	01655033          	srl	zero,a0,s6

0010320c <i00000006b6>:
  10320c:	00af5033          	srl	zero,t5,a0
  103210:	0000c117          	auipc	sp,0xc
  103214:	ef010113          	add	sp,sp,-272 # 10f100 <mem>
  103218:	0002e337          	lui	t1,0x2e
  10321c:	dc830313          	add	t1,t1,-568 # 2ddc8 <tohost+0xddc0>
  103220:	00610133          	add	sp,sp,t1

00103224 <i00000006b7>:
  103224:	33411823          	sh	s4,816(sp)

00103228 <i00000006b8>:
  103228:	00b05513          	srl	a0,zero,0xb

0010322c <i00000006b9>:
  10322c:	ebc11003          	lh	zero,-324(sp)

00103230 <i00000006ba>:
  103230:	28804313          	xor	t1,zero,648

00103234 <i00000006bb>:
  103234:	58a11203          	lh	tp,1418(sp)

00103238 <i00000006bc>:
  103238:	00530233          	add	tp,t1,t0

0010323c <i00000006bd>:
  10323c:	d3c108a3          	sb	t3,-719(sp)

00103240 <i00000006be>:
  103240:	40eb5513          	sra	a0,s6,0xe

00103244 <i00000006bf>:
  103244:	00b3cfb3          	xor	t6,t2,a1

00103248 <i00000006c0>:
  103248:	9f350513          	add	a0,a0,-1549 # 7723f9f3 <fromhost+0x770b79e3>

0010324c <i00000006c1>:
  10324c:	00ab6533          	or	a0,s6,a0
  103250:	00900f93          	li	t6,9
  103254:	00a00d13          	li	s10,10

00103258 <b00000006c2>:
  103258:	00000033          	add	zero,zero,zero
  10325c:	05afd263          	bge	t6,s10,1032a0 <i00000006d0>
  103260:	00000033          	add	zero,zero,zero
  103264:	00a00d13          	li	s10,10

00103268 <i00000006c2>:
  103268:	82012c23          	sw	zero,-1992(sp)

0010326c <i00000006c3>:
  10326c:	e3214c83          	lbu	s9,-462(sp)

00103270 <i00000006c4>:
  103270:	26411e23          	sh	tp,636(sp)

00103274 <i00000006c5>:
  103274:	c6827b13          	and	s6,tp,-920

00103278 <i00000006c6>:
  103278:	8a012483          	lw	s1,-1888(sp)

0010327c <i00000006c7>:
  10327c:	efb12423          	sw	s11,-280(sp)

00103280 <i00000006c8>:
  103280:	7c624513          	xor	a0,tp,1990

00103284 <i00000006c9>:
  103284:	01147033          	and	zero,s0,a7

00103288 <i00000006ca>:
  103288:	5dc58013          	add	zero,a1,1500 # 6ca071f0 <fromhost+0x6c87f1e0>

0010328c <i00000006cb>:
  10328c:	e1df4d93          	xor	s11,t5,-483

00103290 <i00000006cc>:
  103290:	70012023          	sw	zero,1792(sp)

00103294 <i00000006cd>:
  103294:	c88c7013          	and	zero,s8,-888

00103298 <i00000006ce>:
  103298:	33614903          	lbu	s2,822(sp)

0010329c <i00000006cf>:
  10329c:	004b6c33          	or	s8,s6,tp

001032a0 <i00000006d0>:
  1032a0:	aa611b83          	lh	s7,-1370(sp)

001032a4 <i00000006d1>:
  1032a4:	fa750293          	add	t0,a0,-89
  1032a8:	0000c117          	auipc	sp,0xc
  1032ac:	e5810113          	add	sp,sp,-424 # 10f100 <mem>
  1032b0:	0001e337          	lui	t1,0x1e
  1032b4:	37030313          	add	t1,t1,880 # 1e370 <_stack_len+0x16370>
  1032b8:	00610133          	add	sp,sp,t1

001032bc <i00000006d2>:
  1032bc:	2e811f03          	lh	t5,744(sp)

001032c0 <i00000006d3>:
  1032c0:	2b746793          	or	a5,s0,695

001032c4 <i00000006d4>:
  1032c4:	e3412003          	lw	zero,-460(sp)
  1032c8:	00900c93          	li	s9,9
  1032cc:	00a00d13          	li	s10,10

001032d0 <b00000006d5>:
  1032d0:	00000033          	add	zero,zero,zero
  1032d4:	09acd063          	bge	s9,s10,103354 <i00000006e3>
  1032d8:	00000033          	add	zero,zero,zero
  1032dc:	00a00d13          	li	s10,10

001032e0 <i00000006d5>:
  1032e0:	00f81333          	sll	t1,a6,a5

001032e4 <i00000006d6>:
  1032e4:	4091dc13          	sra	s8,gp,0x9
  1032e8:	0000c117          	auipc	sp,0xc
  1032ec:	e1810113          	add	sp,sp,-488 # 10f100 <mem>
  1032f0:	00044337          	lui	t1,0x44
  1032f4:	b8830313          	add	t1,t1,-1144 # 43b88 <tohost+0x23b80>
  1032f8:	00610133          	add	sp,sp,t1

001032fc <i00000006d7>:
  1032fc:	78b14503          	lbu	a0,1931(sp)

00103300 <i00000006d8>:
  103300:	26812003          	lw	zero,616(sp)

00103304 <i00000006d9>:
  103304:	f4010d23          	sb	zero,-166(sp)

00103308 <i00000006da>:
  103308:	f52b2c93          	slti	s9,s6,-174

0010330c <i00000006db>:
  10330c:	59357b13          	and	s6,a0,1427

00103310 <i00000006dc>:
  103310:	26e00513          	li	a0,622

00103314 <i00000006dd>:
  103314:	401f6a93          	or	s5,t5,1025

00103318 <i00000006de>:
  103318:	41855d93          	sra	s11,a0,0x18

0010331c <i00000006df>:
  10331c:	57412503          	lw	a0,1396(sp)
  103320:	0000c117          	auipc	sp,0xc
  103324:	de010113          	add	sp,sp,-544 # 10f100 <mem>
  103328:	00069337          	lui	t1,0x69
  10332c:	4b030313          	add	t1,t1,1200 # 694b0 <tohost+0x494a8>
  103330:	00610133          	add	sp,sp,t1

00103334 <i00000006e0>:
  103334:	41c15f03          	lhu	t5,1052(sp)
  103338:	0000c117          	auipc	sp,0xc
  10333c:	dc810113          	add	sp,sp,-568 # 10f100 <mem>
  103340:	00043337          	lui	t1,0x43
  103344:	f7030313          	add	t1,t1,-144 # 42f70 <tohost+0x22f68>
  103348:	00610133          	add	sp,sp,t1

0010334c <i00000006e1>:
  10334c:	77412183          	lw	gp,1908(sp)

00103350 <i00000006e2>:
  103350:	41e254b3          	sra	s1,tp,t5

00103354 <i00000006e3>:
  103354:	0181f1b3          	and	gp,gp,s8

00103358 <i00000006e4>:
  103358:	2ec15583          	lhu	a1,748(sp)

0010335c <i00000006e5>:
  10335c:	3c412583          	lw	a1,964(sp)

00103360 <i00000006e6>:
  103360:	01761c13          	sll	s8,a2,0x17

00103364 <i00000006e7>:
  103364:	010dc733          	xor	a4,s11,a6
  103368:	00900993          	li	s3,9

0010336c <b00000006e8>:
  10336c:	00000033          	add	zero,zero,zero
  103370:	fb3d42e3          	blt	s10,s3,103314 <i00000006dd>
  103374:	00000033          	add	zero,zero,zero
  103378:	00a00d13          	li	s10,10

0010337c <i00000006e8>:
  10337c:	2f2b6b13          	or	s6,s6,754

00103380 <i00000006e9>:
  103380:	01001013          	sll	zero,zero,0x10
  103384:	0000c117          	auipc	sp,0xc
  103388:	d7c10113          	add	sp,sp,-644 # 10f100 <mem>
  10338c:	00039337          	lui	t1,0x39
  103390:	70030313          	add	t1,t1,1792 # 39700 <tohost+0x196f8>
  103394:	00610133          	add	sp,sp,t1

00103398 <i00000006ea>:
  103398:	02412303          	lw	t1,36(sp)

0010339c <i00000006eb>:
  10339c:	66415b03          	lhu	s6,1636(sp)

001033a0 <i00000006ec>:
  1033a0:	7aa12423          	sw	a0,1960(sp)

001033a4 <i00000006ed>:
  1033a4:	37302513          	slti	a0,zero,883

001033a8 <i00000006ee>:
  1033a8:	51214503          	lbu	a0,1298(sp)

001033ac <i00000006ef>:
  1033ac:	fb011b03          	lh	s6,-80(sp)

001033b0 <i00000006f0>:
  1033b0:	bcb14503          	lbu	a0,-1077(sp)

001033b4 <i00000006f1>:
  1033b4:	40718a33          	sub	s4,gp,t2

001033b8 <i00000006f2>:
  1033b8:	a8815203          	lhu	tp,-1400(sp)

001033bc <i00000006f3>:
  1033bc:	6a910c83          	lb	s9,1705(sp)

001033c0 <i00000006f4>:
  1033c0:	40ab5f33          	sra	t5,s6,a0

001033c4 <i00000006f5>:
  1033c4:	14815283          	lhu	t0,328(sp)

001033c8 <i00000006f6>:
  1033c8:	41ba5b13          	sra	s6,s4,0x1b

001033cc <i00000006f7>:
  1033cc:	24012003          	lw	zero,576(sp)

001033d0 <i00000006f8>:
  1033d0:	01d85f13          	srl	t5,a6,0x1d

001033d4 <i00000006f9>:
  1033d4:	419bdf13          	sra	t5,s7,0x19
  1033d8:	0000c117          	auipc	sp,0xc
  1033dc:	d2810113          	add	sp,sp,-728 # 10f100 <mem>
  1033e0:	00007337          	lui	t1,0x7
  1033e4:	cb830313          	add	t1,t1,-840 # 6cb8 <_min_stack+0x4cb8>
  1033e8:	00610133          	add	sp,sp,t1

001033ec <i00000006fa>:
  1033ec:	6db11b23          	sh	s11,1750(sp)
  1033f0:	00c00a93          	li	s5,12
  1033f4:	001d0d13          	add	s10,s10,1

001033f8 <b00000006fb>:
  1033f8:	00000033          	add	zero,zero,zero
  1033fc:	fdaad4e3          	bge	s5,s10,1033c4 <i00000006f5>
  103400:	00000033          	add	zero,zero,zero
  103404:	00a00d13          	li	s10,10
  103408:	0000c117          	auipc	sp,0xc
  10340c:	cf810113          	add	sp,sp,-776 # 10f100 <mem>
  103410:	0000a337          	lui	t1,0xa
  103414:	e4830313          	add	t1,t1,-440 # 9e48 <_stack_len+0x1e48>
  103418:	00610133          	add	sp,sp,t1

0010341c <i00000006fb>:
  10341c:	c2a11b23          	sh	a0,-970(sp)

00103420 <i00000006fc>:
  103420:	d51f0c93          	add	s9,t5,-687 # 1038f49 <fromhost+0xeb0f39>

00103424 <i00000006fd>:
  103424:	94a12023          	sw	a0,-1728(sp)

00103428 <i00000006fe>:
  103428:	406c59b3          	sra	s3,s8,t1

0010342c <i00000006ff>:
  10342c:	e2722213          	slti	tp,tp,-473

00103430 <i0000000700>:
  103430:	bf5f2613          	slti	a2,t5,-1035

00103434 <i0000000701>:
  103434:	40b609b3          	sub	s3,a2,a1

00103438 <i0000000702>:
  103438:	c1811503          	lh	a0,-1000(sp)

0010343c <i0000000703>:
  10343c:	409f5913          	sra	s2,t5,0x9

00103440 <i0000000704>:
  103440:	017e3b33          	sltu	s6,t3,s7

00103444 <i0000000705>:
  103444:	1d411e23          	sh	s4,476(sp)

00103448 <i0000000706>:
  103448:	40a20f33          	sub	t5,tp,a0

0010344c <i0000000707>:
  10344c:	412e8033          	sub	zero,t4,s2

00103450 <i0000000708>:
  103450:	01eb7233          	and	tp,s6,t5

00103454 <i0000000709>:
  103454:	54793913          	sltiu	s2,s2,1351

00103458 <i000000070a>:
  103458:	93311823          	sh	s3,-1744(sp)

0010345c <i000000070b>:
  10345c:	9c611283          	lh	t0,-1594(sp)

00103460 <i000000070c>:
  103460:	41dedbb3          	sra	s7,t4,t4

00103464 <i000000070d>:
  103464:	01b11923          	sh	s11,18(sp)
  103468:	00b00993          	li	s3,11
  10346c:	00a00d13          	li	s10,10

00103470 <b000000070e>:
  103470:	00000033          	add	zero,zero,zero
  103474:	05a9d063          	bge	s3,s10,1034b4 <i0000000716>
  103478:	00000033          	add	zero,zero,zero
  10347c:	00a00d13          	li	s10,10
  103480:	0000c117          	auipc	sp,0xc
  103484:	c8010113          	add	sp,sp,-896 # 10f100 <mem>
  103488:	00007337          	lui	t1,0x7
  10348c:	e5030313          	add	t1,t1,-432 # 6e50 <_min_stack+0x4e50>
  103490:	00610133          	add	sp,sp,t1

00103494 <i000000070e>:
  103494:	7d611723          	sh	s6,1998(sp)

00103498 <i000000070f>:
  103498:	3c066e97          	auipc	t4,0x3c066

0010349c <i0000000710>:
  10349c:	13a11b83          	lh	s7,314(sp)

001034a0 <i0000000711>:
  1034a0:	f7f50613          	add	a2,a0,-129

001034a4 <i0000000712>:
  1034a4:	004f3b33          	sltu	s6,t5,tp

001034a8 <i0000000713>:
  1034a8:	f5914883          	lbu	a7,-167(sp)

001034ac <i0000000714>:
  1034ac:	009b5513          	srl	a0,s6,0x9

001034b0 <i0000000715>:
  1034b0:	e4a12e23          	sw	a0,-420(sp)

001034b4 <i0000000716>:
  1034b4:	1a3a3513          	sltiu	a0,s4,419

001034b8 <i0000000717>:
  1034b8:	01d11123          	sh	t4,2(sp)

001034bc <i0000000718>:
  1034bc:	23680f37          	lui	t5,0x23680
  1034c0:	0000c117          	auipc	sp,0xc
  1034c4:	c4010113          	add	sp,sp,-960 # 10f100 <mem>
  1034c8:	0000a337          	lui	t1,0xa
  1034cc:	f4830313          	add	t1,t1,-184 # 9f48 <_stack_len+0x1f48>
  1034d0:	00610133          	add	sp,sp,t1

001034d4 <i0000000719>:
  1034d4:	76a14203          	lbu	tp,1898(sp)

001034d8 <i000000071a>:
  1034d8:	5c012503          	lw	a0,1472(sp)

001034dc <i000000071b>:
  1034dc:	60214883          	lbu	a7,1538(sp)

001034e0 <i000000071c>:
  1034e0:	5bc10f83          	lb	t6,1468(sp)

001034e4 <i000000071d>:
  1034e4:	01039513          	sll	a0,t2,0x10

001034e8 <i000000071e>:
  1034e8:	407f5513          	sra	a0,t5,0x7
  1034ec:	0000c117          	auipc	sp,0xc
  1034f0:	c1410113          	add	sp,sp,-1004 # 10f100 <mem>
  1034f4:	00028337          	lui	t1,0x28
  1034f8:	48030313          	add	t1,t1,1152 # 28480 <tohost+0x8478>
  1034fc:	00610133          	add	sp,sp,t1

00103500 <i000000071f>:
  103500:	91811323          	sh	s8,-1786(sp)

00103504 <i0000000720>:
  103504:	01d11923          	sh	t4,18(sp)

00103508 <b0000000721>:
  103508:	00000c97          	auipc	s9,0x0
  10350c:	02cc8c93          	add	s9,s9,44 # 103534 <i0000000729>
  103510:	000c8567          	jalr	a0,s9

00103514 <i0000000721>:
  103514:	06b10a83          	lb	s5,107(sp)

00103518 <i0000000722>:
  103518:	5de15003          	lhu	zero,1502(sp)

0010351c <i0000000723>:
  10351c:	01155f13          	srl	t5,a0,0x11

00103520 <i0000000724>:
  103520:	46c15f03          	lhu	t5,1132(sp)

00103524 <i0000000725>:
  103524:	c7611c83          	lh	s9,-906(sp)

00103528 <i0000000726>:
  103528:	40415b03          	lhu	s6,1028(sp)

0010352c <i0000000727>:
  10352c:	4197d033          	sra	zero,a5,s9

00103530 <i0000000728>:
  103530:	3fc11723          	sh	t3,1006(sp)

00103534 <i0000000729>:
  103534:	2b9d8913          	add	s2,s11,697 # 5264807d <fromhost+0x524c006d>

00103538 <i000000072a>:
  103538:	017928b3          	slt	a7,s2,s7

0010353c <i000000072b>:
  10353c:	fe811983          	lh	s3,-24(sp)

00103540 <i000000072c>:
  103540:	2fe102a3          	sb	t5,741(sp)

00103544 <i000000072d>:
  103544:	a4a11623          	sh	a0,-1460(sp)

00103548 <i000000072e>:
  103548:	4086da33          	sra	s4,a3,s0

0010354c <i000000072f>:
  10354c:	01c19533          	sll	a0,gp,t3
  103550:	0000c117          	auipc	sp,0xc
  103554:	bb010113          	add	sp,sp,-1104 # 10f100 <mem>
  103558:	00020337          	lui	t1,0x20
  10355c:	cb030313          	add	t1,t1,-848 # 1fcb0 <_stack_len+0x17cb0>
  103560:	00610133          	add	sp,sp,t1

00103564 <i0000000730>:
  103564:	d0010223          	sb	zero,-764(sp)

00103568 <i0000000731>:
  103568:	403c5f33          	sra	t5,s8,gp

0010356c <i0000000732>:
  10356c:	4fc12503          	lw	a0,1276(sp)

00103570 <i0000000733>:
  103570:	01f43f33          	sltu	t5,s0,t6
  103574:	00c00a93          	li	s5,12
  103578:	00a00d13          	li	s10,10

0010357c <b0000000734>:
  10357c:	00000033          	add	zero,zero,zero
  103580:	075d4263          	blt	s10,s5,1035e4 <i0000000740>
  103584:	00000033          	add	zero,zero,zero
  103588:	00a00d13          	li	s10,10

0010358c <i0000000734>:
  10358c:	78e11f03          	lh	t5,1934(sp)

00103590 <i0000000735>:
  103590:	8bf105a3          	sb	t6,-1877(sp)

00103594 <i0000000736>:
  103594:	b2f11f23          	sh	a5,-1218(sp)

00103598 <i0000000737>:
  103598:	0d027993          	and	s3,tp,208
  10359c:	0000c117          	auipc	sp,0xc
  1035a0:	b6410113          	add	sp,sp,-1180 # 10f100 <mem>
  1035a4:	00019337          	lui	t1,0x19
  1035a8:	75030313          	add	t1,t1,1872 # 19750 <_stack_len+0x11750>
  1035ac:	00610133          	add	sp,sp,t1

001035b0 <i0000000738>:
  1035b0:	ead12623          	sw	a3,-340(sp)

001035b4 <i0000000739>:
  1035b4:	30d14903          	lbu	s2,781(sp)

001035b8 <i000000073a>:
  1035b8:	6e814f03          	lbu	t5,1768(sp)

001035bc <i000000073b>:
  1035bc:	fa012f03          	lw	t5,-96(sp)

001035c0 <i000000073c>:
  1035c0:	bc054b13          	xor	s6,a0,-1088

001035c4 <i000000073d>:
  1035c4:	31c54793          	xor	a5,a0,796
  1035c8:	0000c117          	auipc	sp,0xc
  1035cc:	b3810113          	add	sp,sp,-1224 # 10f100 <mem>
  1035d0:	00038337          	lui	t1,0x38
  1035d4:	4c830313          	add	t1,t1,1224 # 384c8 <tohost+0x184c0>
  1035d8:	00610133          	add	sp,sp,t1

001035dc <i000000073e>:
  1035dc:	7c614b03          	lbu	s6,1990(sp)

001035e0 <i000000073f>:
  1035e0:	13e10d23          	sb	t5,314(sp)

001035e4 <i0000000740>:
  1035e4:	00f05013          	srl	zero,zero,0xf
  1035e8:	0000c117          	auipc	sp,0xc
  1035ec:	b1810113          	add	sp,sp,-1256 # 10f100 <mem>
  1035f0:	0002d337          	lui	t1,0x2d
  1035f4:	89830313          	add	t1,t1,-1896 # 2c898 <tohost+0xc890>
  1035f8:	00610133          	add	sp,sp,t1

001035fc <i0000000741>:
  1035fc:	74015a83          	lhu	s5,1856(sp)

00103600 <i0000000742>:
  103600:	55a11203          	lh	tp,1370(sp)

00103604 <i0000000743>:
  103604:	8c812903          	lw	s2,-1848(sp)

00103608 <i0000000744>:
  103608:	be712823          	sw	t2,-1040(sp)

0010360c <i0000000745>:
  10360c:	ec714503          	lbu	a0,-313(sp)

00103610 <i0000000746>:
  103610:	01e22b33          	slt	s6,tp,t5
  103614:	00900993          	li	s3,9

00103618 <b0000000747>:
  103618:	00000033          	add	zero,zero,zero
  10361c:	fda9d2e3          	bge	s3,s10,1035e0 <i000000073f>
  103620:	00000033          	add	zero,zero,zero
  103624:	00a00d13          	li	s10,10

00103628 <i0000000747>:
  103628:	f1c70913          	add	s2,a4,-228

0010362c <i0000000748>:
  10362c:	bfc12b03          	lw	s6,-1028(sp)

00103630 <i0000000749>:
  103630:	016b1b33          	sll	s6,s6,s6

00103634 <i000000074a>:
  103634:	00420b33          	add	s6,tp,tp

00103638 <i000000074b>:
  103638:	129396b7          	lui	a3,0x12939

0010363c <i000000074c>:
  10363c:	4f812f03          	lw	t5,1272(sp)

00103640 <i000000074d>:
  103640:	68e10903          	lb	s2,1678(sp)

00103644 <i000000074e>:
  103644:	b7011483          	lh	s1,-1168(sp)

00103648 <i000000074f>:
  103648:	a1615b03          	lhu	s6,-1514(sp)

0010364c <i0000000750>:
  10364c:	ea15cb13          	xor	s6,a1,-351

00103650 <i0000000751>:
  103650:	0d56f313          	and	t1,a3,213

00103654 <i0000000752>:
  103654:	000f0033          	add	zero,t5,zero

00103658 <i0000000753>:
  103658:	17f12223          	sw	t6,356(sp)
  10365c:	0000c117          	auipc	sp,0xc
  103660:	aa410113          	add	sp,sp,-1372 # 10f100 <mem>
  103664:	00064337          	lui	t1,0x64
  103668:	ab830313          	add	t1,t1,-1352 # 63ab8 <tohost+0x43ab0>
  10366c:	00610133          	add	sp,sp,t1

00103670 <i0000000754>:
  103670:	62514503          	lbu	a0,1573(sp)

00103674 <i0000000755>:
  103674:	59449037          	lui	zero,0x59449

00103678 <i0000000756>:
  103678:	01e57bb3          	and	s7,a0,t5

0010367c <i0000000757>:
  10367c:	e5b14b03          	lbu	s6,-421(sp)

00103680 <i0000000758>:
  103680:	33310383          	lb	t2,819(sp)

00103684 <i0000000759>:
  103684:	5a810d83          	lb	s11,1448(sp)

00103688 <b000000075a>:
  103688:	00000c97          	auipc	s9,0x0
  10368c:	04cc8c93          	add	s9,s9,76 # 1036d4 <i0000000765>
  103690:	000c8567          	jalr	a0,s9

00103694 <i000000075a>:
  103694:	87e12823          	sw	t5,-1936(sp)

00103698 <i000000075b>:
  103698:	41e55a33          	sra	s4,a0,t5

0010369c <i000000075c>:
  10369c:	01f41db3          	sll	s11,s0,t6

001036a0 <i000000075d>:
  1036a0:	004f1533          	sll	a0,t5,tp
  1036a4:	0000c117          	auipc	sp,0xc
  1036a8:	a5c10113          	add	sp,sp,-1444 # 10f100 <mem>
  1036ac:	00035337          	lui	t1,0x35
  1036b0:	76830313          	add	t1,t1,1896 # 35768 <tohost+0x15760>
  1036b4:	00610133          	add	sp,sp,t1

001036b8 <i000000075e>:
  1036b8:	83e11623          	sh	t5,-2004(sp)

001036bc <i000000075f>:
  1036bc:	54c8cf93          	xor	t6,a7,1356

001036c0 <i0000000760>:
  1036c0:	395e4f13          	xor	t5,t3,917

001036c4 <i0000000761>:
  1036c4:	625b4b13          	xor	s6,s6,1573

001036c8 <i0000000762>:
  1036c8:	3b012783          	lw	a5,944(sp)

001036cc <i0000000763>:
  1036cc:	41eb09b3          	sub	s3,s6,t5

001036d0 <i0000000764>:
  1036d0:	5ba10b03          	lb	s6,1466(sp)

001036d4 <i0000000765>:
  1036d4:	39e10123          	sb	t5,898(sp)

001036d8 <i0000000766>:
  1036d8:	6b812983          	lw	s3,1720(sp)
  1036dc:	0000c117          	auipc	sp,0xc
  1036e0:	a2410113          	add	sp,sp,-1500 # 10f100 <mem>
  1036e4:	00047337          	lui	t1,0x47
  1036e8:	25830313          	add	t1,t1,600 # 47258 <tohost+0x27250>
  1036ec:	00610133          	add	sp,sp,t1

001036f0 <i0000000767>:
  1036f0:	29110203          	lb	tp,657(sp)

001036f4 <i0000000768>:
  1036f4:	ec412223          	sw	tp,-316(sp)

001036f8 <i0000000769>:
  1036f8:	00310c03          	lb	s8,3(sp)

001036fc <i000000076a>:
  1036fc:	18e105a3          	sb	a4,395(sp)
  103700:	0000c117          	auipc	sp,0xc
  103704:	a0010113          	add	sp,sp,-1536 # 10f100 <mem>
  103708:	0003b337          	lui	t1,0x3b
  10370c:	fe830313          	add	t1,t1,-24 # 3afe8 <tohost+0x1afe0>
  103710:	00610133          	add	sp,sp,t1

00103714 <i000000076b>:
  103714:	5ec14883          	lbu	a7,1516(sp)

00103718 <i000000076c>:
  103718:	8be11223          	sh	t5,-1884(sp)

0010371c <b000000076d>:
  10371c:	00000a17          	auipc	s4,0x0
  103720:	058a0a13          	add	s4,s4,88 # 103774 <i0000000776>
  103724:	000a0567          	jalr	a0,s4

00103728 <i000000076d>:
  103728:	00602493          	slti	s1,zero,6

0010372c <i000000076e>:
  10372c:	61612423          	sw	s6,1544(sp)

00103730 <i000000076f>:
  103730:	2e910a03          	lb	s4,745(sp)

00103734 <i0000000770>:
  103734:	20cc72b7          	lui	t0,0x20cc7

00103738 <i0000000771>:
  103738:	77917597          	auipc	a1,0x77917

0010373c <i0000000772>:
  10373c:	719104a3          	sb	s9,1801(sp)

00103740 <i0000000773>:
  103740:	2df82513          	slti	a0,a6,735

00103744 <i0000000774>:
  103744:	6c4ca4b7          	lui	s1,0x6c4ca
  103748:	0000c117          	auipc	sp,0xc
  10374c:	9b810113          	add	sp,sp,-1608 # 10f100 <mem>
  103750:	00018337          	lui	t1,0x18
  103754:	e2830313          	add	t1,t1,-472 # 17e28 <_stack_len+0xfe28>
  103758:	00610133          	add	sp,sp,t1

0010375c <i0000000775>:
  10375c:	a5010183          	lb	gp,-1456(sp)
  103760:	0000c117          	auipc	sp,0xc
  103764:	9a010113          	add	sp,sp,-1632 # 10f100 <mem>
  103768:	00001337          	lui	t1,0x1
  10376c:	13030313          	add	t1,t1,304 # 1130 <_min_stack-0xed0>
  103770:	00610133          	add	sp,sp,t1

00103774 <i0000000776>:
  103774:	b7e12e23          	sw	t5,-1156(sp)

00103778 <i0000000777>:
  103778:	ce811f03          	lh	t5,-792(sp)

0010377c <i0000000778>:
  10377c:	0138f033          	and	zero,a7,s3

00103780 <i0000000779>:
  103780:	3da11a83          	lh	s5,986(sp)

00103784 <i000000077a>:
  103784:	25011e23          	sh	a6,604(sp)

00103788 <i000000077b>:
  103788:	64615b03          	lhu	s6,1606(sp)
  10378c:	0000c117          	auipc	sp,0xc
  103790:	97410113          	add	sp,sp,-1676 # 10f100 <mem>
  103794:	00041337          	lui	t1,0x41
  103798:	5d830313          	add	t1,t1,1496 # 415d8 <tohost+0x215d0>
  10379c:	00610133          	add	sp,sp,t1

001037a0 <i000000077c>:
  1037a0:	6b414b03          	lbu	s6,1716(sp)

001037a4 <i000000077d>:
  1037a4:	90711c23          	sh	t2,-1768(sp)

001037a8 <i000000077e>:
  1037a8:	2ae19037          	lui	zero,0x2ae19

001037ac <i000000077f>:
  1037ac:	37a14483          	lbu	s1,890(sp)
  1037b0:	00a00813          	li	a6,10
  1037b4:	00a00d13          	li	s10,10

001037b8 <b0000000780>:
  1037b8:	00000033          	add	zero,zero,zero
  1037bc:	070d1263          	bne	s10,a6,103820 <i000000078c>
  1037c0:	00000033          	add	zero,zero,zero
  1037c4:	00a00d13          	li	s10,10

001037c8 <i0000000780>:
  1037c8:	81f6ab13          	slti	s6,a3,-2017

001037cc <i0000000781>:
  1037cc:	f9c15003          	lhu	zero,-100(sp)

001037d0 <i0000000782>:
  1037d0:	b7110003          	lb	zero,-1167(sp)

001037d4 <i0000000783>:
  1037d4:	76412e23          	sw	tp,1916(sp)

001037d8 <i0000000784>:
  1037d8:	b4812003          	lw	zero,-1208(sp)

001037dc <i0000000785>:
  1037dc:	01f2b6b3          	sltu	a3,t0,t6

001037e0 <i0000000786>:
  1037e0:	52912023          	sw	s1,1312(sp)

001037e4 <i0000000787>:
  1037e4:	dee24193          	xor	gp,tp,-530

001037e8 <i0000000788>:
  1037e8:	01b78433          	add	s0,a5,s11

001037ec <i0000000789>:
  1037ec:	22346513          	or	a0,s0,547
  1037f0:	0000c117          	auipc	sp,0xc
  1037f4:	91010113          	add	sp,sp,-1776 # 10f100 <mem>
  1037f8:	00041337          	lui	t1,0x41
  1037fc:	9d830313          	add	t1,t1,-1576 # 409d8 <tohost+0x209d0>
  103800:	00610133          	add	sp,sp,t1

00103804 <i000000078a>:
  103804:	a9e10323          	sb	t5,-1402(sp)

00103808 <i000000078b>:
  103808:	b2304b13          	xor	s6,zero,-1245
  10380c:	0000c117          	auipc	sp,0xc
  103810:	8f410113          	add	sp,sp,-1804 # 10f100 <mem>
  103814:	0004c337          	lui	t1,0x4c
  103818:	7e830313          	add	t1,t1,2024 # 4c7e8 <tohost+0x2c7e0>
  10381c:	00610133          	add	sp,sp,t1

00103820 <i000000078c>:
  103820:	f4012b03          	lw	s6,-192(sp)

00103824 <i000000078d>:
  103824:	64a10523          	sb	a0,1610(sp)

00103828 <i000000078e>:
  103828:	1c514a83          	lbu	s5,453(sp)

0010382c <i000000078f>:
  10382c:	c23a7f93          	and	t6,s4,-989

00103830 <i0000000790>:
  103830:	005ba533          	slt	a0,s7,t0

00103834 <i0000000791>:
  103834:	13815203          	lhu	tp,312(sp)

00103838 <i0000000792>:
  103838:	16adda37          	lui	s4,0x16add
  10383c:	00b00913          	li	s2,11
  103840:	00a00d13          	li	s10,10

00103844 <b0000000793>:
  103844:	00000033          	add	zero,zero,zero
  103848:	072d1663          	bne	s10,s2,1038b4 <i00000007a1>
  10384c:	00000033          	add	zero,zero,zero
  103850:	00a00d13          	li	s10,10

00103854 <i0000000793>:
  103854:	40a00b33          	neg	s6,a0

00103858 <i0000000794>:
  103858:	40e25013          	sra	zero,tp,0xe
  10385c:	0000c117          	auipc	sp,0xc
  103860:	8a410113          	add	sp,sp,-1884 # 10f100 <mem>
  103864:	00004337          	lui	t1,0x4
  103868:	be030313          	add	t1,t1,-1056 # 3be0 <_min_stack+0x1be0>
  10386c:	00610133          	add	sp,sp,t1

00103870 <i0000000795>:
  103870:	f2911723          	sh	s1,-210(sp)

00103874 <i0000000796>:
  103874:	66602417          	auipc	s0,0x66602

00103878 <i0000000797>:
  103878:	29e38c13          	add	s8,t2,670 # 487b227e <fromhost+0x4862a26e>

0010387c <i0000000798>:
  10387c:	01fa6533          	or	a0,s4,t6

00103880 <i0000000799>:
  103880:	00ab7f33          	and	t5,s6,a0

00103884 <i000000079a>:
  103884:	bf1b6d93          	or	s11,s6,-1039

00103888 <i000000079b>:
  103888:	451105a3          	sb	a7,1099(sp)

0010388c <i000000079c>:
  10388c:	010b5213          	srl	tp,s6,0x10
  103890:	0000c117          	auipc	sp,0xc
  103894:	87010113          	add	sp,sp,-1936 # 10f100 <mem>
  103898:	00037337          	lui	t1,0x37
  10389c:	06030313          	add	t1,t1,96 # 37060 <tohost+0x17058>
  1038a0:	00610133          	add	sp,sp,t1

001038a4 <i000000079d>:
  1038a4:	03610ca3          	sb	s6,57(sp)

001038a8 <i000000079e>:
  1038a8:	71312823          	sw	s3,1808(sp)

001038ac <i000000079f>:
  1038ac:	87514003          	lbu	zero,-1931(sp)

001038b0 <i00000007a0>:
  1038b0:	4eab6b13          	or	s6,s6,1258

001038b4 <i00000007a1>:
  1038b4:	cbe12e23          	sw	t5,-836(sp)

001038b8 <i00000007a2>:
  1038b8:	015d9f33          	sll	t5,s11,s5

001038bc <i00000007a3>:
  1038bc:	40da8233          	sub	tp,s5,a3

001038c0 <i00000007a4>:
  1038c0:	403c0533          	sub	a0,s8,gp
  1038c4:	0000c117          	auipc	sp,0xc
  1038c8:	83c10113          	add	sp,sp,-1988 # 10f100 <mem>
  1038cc:	00033337          	lui	t1,0x33
  1038d0:	ca030313          	add	t1,t1,-864 # 32ca0 <tohost+0x12c98>
  1038d4:	00610133          	add	sp,sp,t1

001038d8 <i00000007a5>:
  1038d8:	d7911123          	sh	s9,-670(sp)
  1038dc:	00a00e93          	li	t4,10

001038e0 <b00000007a6>:
  1038e0:	00000033          	add	zero,zero,zero
  1038e4:	fbdd12e3          	bne	s10,t4,103888 <i000000079b>
  1038e8:	00000033          	add	zero,zero,zero
  1038ec:	00a00d13          	li	s10,10

001038f0 <i00000007a6>:
  1038f0:	01605333          	srl	t1,zero,s6

001038f4 <i00000007a7>:
  1038f4:	65c76037          	lui	zero,0x65c76

001038f8 <i00000007a8>:
  1038f8:	93c11703          	lh	a4,-1732(sp)

001038fc <i00000007a9>:
  1038fc:	81f11d23          	sh	t6,-2022(sp)
  103900:	0000c117          	auipc	sp,0xc
  103904:	80010113          	add	sp,sp,-2048 # 10f100 <mem>
  103908:	00052337          	lui	t1,0x52
  10390c:	71830313          	add	t1,t1,1816 # 52718 <tohost+0x32710>
  103910:	00610133          	add	sp,sp,t1

00103914 <i00000007aa>:
  103914:	3a012423          	sw	zero,936(sp)

00103918 <i00000007ab>:
  103918:	44a11623          	sh	a0,1100(sp)

0010391c <i00000007ac>:
  10391c:	47d80213          	add	tp,a6,1149

00103920 <i00000007ad>:
  103920:	fb114483          	lbu	s1,-79(sp)

00103924 <i00000007ae>:
  103924:	8451bf13          	sltiu	t5,gp,-1979

00103928 <i00000007af>:
  103928:	016f0033          	add	zero,t5,s6

0010392c <i00000007b0>:
  10392c:	010d9213          	sll	tp,s11,0x10

00103930 <i00000007b1>:
  103930:	f3b10c83          	lb	s9,-197(sp)
  103934:	0000b117          	auipc	sp,0xb
  103938:	7cc10113          	add	sp,sp,1996 # 10f100 <mem>
  10393c:	0003c337          	lui	t1,0x3c
  103940:	2e830313          	add	t1,t1,744 # 3c2e8 <tohost+0x1c2e0>
  103944:	00610133          	add	sp,sp,t1

00103948 <i00000007b2>:
  103948:	5b412f03          	lw	t5,1460(sp)

0010394c <i00000007b3>:
  10394c:	53f14b03          	lbu	s6,1343(sp)

00103950 <i00000007b4>:
  103950:	76c4ff13          	and	t5,s1,1900

00103954 <i00000007b5>:
  103954:	00301a13          	sll	s4,zero,0x3

00103958 <i00000007b6>:
  103958:	00ab38b3          	sltu	a7,s6,a0

0010395c <i00000007b7>:
  10395c:	01105b13          	srl	s6,zero,0x11

00103960 <i00000007b8>:
  103960:	63d11d23          	sh	t4,1594(sp)
  103964:	00a00c13          	li	s8,10

00103968 <b00000007b9>:
  103968:	018d0463          	beq	s10,s8,103970 <b00000007b9+0x8>
  10396c:	fbdff56f          	jal	a0,103928 <i00000007af>
  103970:	00a00d13          	li	s10,10
  103974:	0000b117          	auipc	sp,0xb
  103978:	78c10113          	add	sp,sp,1932 # 10f100 <mem>
  10397c:	00046337          	lui	t1,0x46
  103980:	f3830313          	add	t1,t1,-200 # 45f38 <tohost+0x25f30>
  103984:	00610133          	add	sp,sp,t1

00103988 <i00000007b9>:
  103988:	56a10003          	lb	zero,1386(sp)

0010398c <i00000007ba>:
  10398c:	94611003          	lh	zero,-1722(sp)

00103990 <i00000007bb>:
  103990:	418f5d93          	sra	s11,t5,0x18

00103994 <i00000007bc>:
  103994:	1a014b83          	lbu	s7,416(sp)

00103998 <i00000007bd>:
  103998:	00405c33          	srl	s8,zero,tp

0010399c <i00000007be>:
  10399c:	4ca10a23          	sb	a0,1236(sp)

001039a0 <i00000007bf>:
  1039a0:	009289b3          	add	s3,t0,s1

001039a4 <i00000007c0>:
  1039a4:	ae011f03          	lh	t5,-1312(sp)
  1039a8:	0000b117          	auipc	sp,0xb
  1039ac:	75810113          	add	sp,sp,1880 # 10f100 <mem>
  1039b0:	0000f337          	lui	t1,0xf
  1039b4:	41830313          	add	t1,t1,1048 # f418 <_stack_len+0x7418>
  1039b8:	00610133          	add	sp,sp,t1

001039bc <i00000007c1>:
  1039bc:	66b10883          	lb	a7,1643(sp)

001039c0 <i00000007c2>:
  1039c0:	01105b13          	srl	s6,zero,0x11

001039c4 <i00000007c3>:
  1039c4:	01e53cb3          	sltu	s9,a0,t5

001039c8 <i00000007c4>:
  1039c8:	5e415503          	lhu	a0,1508(sp)

001039cc <i00000007c5>:
  1039cc:	404f54b3          	sra	s1,t5,tp

001039d0 <i00000007c6>:
  1039d0:	00659013          	sll	zero,a1,0x6
  1039d4:	0000b117          	auipc	sp,0xb
  1039d8:	72c10113          	add	sp,sp,1836 # 10f100 <mem>
  1039dc:	00002337          	lui	t1,0x2
  1039e0:	3a030313          	add	t1,t1,928 # 23a0 <_min_stack+0x3a0>
  1039e4:	00610133          	add	sp,sp,t1

001039e8 <i00000007c7>:
  1039e8:	5de11923          	sh	t5,1490(sp)

001039ec <i00000007c8>:
  1039ec:	716bbf17          	auipc	t5,0x716bb

001039f0 <i00000007c9>:
  1039f0:	00427eb3          	and	t4,tp,tp

001039f4 <i00000007ca>:
  1039f4:	01dee033          	or	zero,t4,t4

001039f8 <i00000007cb>:
  1039f8:	0071ea33          	or	s4,gp,t2
  1039fc:	00900993          	li	s3,9
  103a00:	00a00d13          	li	s10,10

00103a04 <b00000007cc>:
  103a04:	00000033          	add	zero,zero,zero
  103a08:	073d4e63          	blt	s10,s3,103a84 <i00000007d9>
  103a0c:	00000033          	add	zero,zero,zero
  103a10:	00a00d13          	li	s10,10

00103a14 <i00000007cc>:
  103a14:	9a011003          	lh	zero,-1632(sp)

00103a18 <i00000007cd>:
  103a18:	40025233          	sra	tp,tp,zero

00103a1c <i00000007ce>:
  103a1c:	01583633          	sltu	a2,a6,s5

00103a20 <i00000007cf>:
  103a20:	004f3533          	sltu	a0,t5,tp

00103a24 <i00000007d0>:
  103a24:	016b08b3          	add	a7,s6,s6

00103a28 <i00000007d1>:
  103a28:	dd610703          	lb	a4,-554(sp)

00103a2c <i00000007d2>:
  103a2c:	33d10b03          	lb	s6,829(sp)
  103a30:	0000b117          	auipc	sp,0xb
  103a34:	6d010113          	add	sp,sp,1744 # 10f100 <mem>
  103a38:	00040337          	lui	t1,0x40
  103a3c:	53830313          	add	t1,t1,1336 # 40538 <tohost+0x20530>
  103a40:	00610133          	add	sp,sp,t1

00103a44 <i00000007d3>:
  103a44:	33911423          	sh	s9,808(sp)

00103a48 <i00000007d4>:
  103a48:	c9e10123          	sb	t5,-894(sp)

00103a4c <i00000007d5>:
  103a4c:	3f827b13          	and	s6,tp,1016
  103a50:	0000b117          	auipc	sp,0xb
  103a54:	6b010113          	add	sp,sp,1712 # 10f100 <mem>
  103a58:	0000c337          	lui	t1,0xc
  103a5c:	41830313          	add	t1,t1,1048 # c418 <_stack_len+0x4418>
  103a60:	00610133          	add	sp,sp,t1

00103a64 <i00000007d6>:
  103a64:	fa011003          	lh	zero,-96(sp)

00103a68 <i00000007d7>:
  103a68:	98012823          	sw	zero,-1648(sp)

00103a6c <i00000007d8>:
  103a6c:	a8c11c83          	lh	s9,-1396(sp)
  103a70:	0000b117          	auipc	sp,0xb
  103a74:	69010113          	add	sp,sp,1680 # 10f100 <mem>
  103a78:	00068337          	lui	t1,0x68
  103a7c:	fb830313          	add	t1,t1,-72 # 67fb8 <tohost+0x47fb0>
  103a80:	00610133          	add	sp,sp,t1

00103a84 <i00000007d9>:
  103a84:	29610323          	sb	s6,646(sp)

00103a88 <i00000007da>:
  103a88:	121b4e97          	auipc	t4,0x121b4
  103a8c:	0000b117          	auipc	sp,0xb
  103a90:	67410113          	add	sp,sp,1652 # 10f100 <mem>
  103a94:	0002d337          	lui	t1,0x2d
  103a98:	90030313          	add	t1,t1,-1792 # 2c900 <tohost+0xc8f8>
  103a9c:	00610133          	add	sp,sp,t1

00103aa0 <i00000007db>:
  103aa0:	84015f03          	lhu	t5,-1984(sp)

00103aa4 <i00000007dc>:
  103aa4:	a164ab13          	slti	s6,s1,-1514

00103aa8 <i00000007dd>:
  103aa8:	9f510603          	lb	a2,-1547(sp)

00103aac <i00000007de>:
  103aac:	83411023          	sh	s4,-2016(sp)
  103ab0:	00c00913          	li	s2,12
  103ab4:	00a00d13          	li	s10,10

00103ab8 <b00000007df>:
  103ab8:	00000033          	add	zero,zero,zero
  103abc:	052d4a63          	blt	s10,s2,103b10 <i00000007e7>
  103ac0:	00000033          	add	zero,zero,zero
  103ac4:	00a00d13          	li	s10,10

00103ac8 <i00000007df>:
  103ac8:	d5cf6193          	or	gp,t5,-676

00103acc <i00000007e0>:
  103acc:	62611b03          	lh	s6,1574(sp)

00103ad0 <i00000007e1>:
  103ad0:	007aefb3          	or	t6,s5,t2

00103ad4 <i00000007e2>:
  103ad4:	e2d73213          	sltiu	tp,a4,-467

00103ad8 <i00000007e3>:
  103ad8:	337ba413          	slti	s0,s7,823
  103adc:	0000b117          	auipc	sp,0xb
  103ae0:	62410113          	add	sp,sp,1572 # 10f100 <mem>
  103ae4:	00038337          	lui	t1,0x38
  103ae8:	a6830313          	add	t1,t1,-1432 # 37a68 <tohost+0x17a60>
  103aec:	00610133          	add	sp,sp,t1

00103af0 <i00000007e4>:
  103af0:	c9911523          	sh	s9,-886(sp)
  103af4:	0000b117          	auipc	sp,0xb
  103af8:	60c10113          	add	sp,sp,1548 # 10f100 <mem>
  103afc:	00028337          	lui	t1,0x28
  103b00:	52030313          	add	t1,t1,1312 # 28520 <tohost+0x8518>
  103b04:	00610133          	add	sp,sp,t1

00103b08 <i00000007e5>:
  103b08:	85610f03          	lb	t5,-1962(sp)

00103b0c <i00000007e6>:
  103b0c:	00785033          	srl	zero,a6,t2

00103b10 <i00000007e7>:
  103b10:	e6812003          	lw	zero,-408(sp)

00103b14 <i00000007e8>:
  103b14:	61411423          	sh	s4,1544(sp)

00103b18 <i00000007e9>:
  103b18:	be411823          	sh	tp,-1040(sp)

00103b1c <i00000007ea>:
  103b1c:	ad710a83          	lb	s5,-1321(sp)

00103b20 <i00000007eb>:
  103b20:	0d058897          	auipc	a7,0xd058

00103b24 <i00000007ec>:
  103b24:	9de15603          	lhu	a2,-1570(sp)

00103b28 <i00000007ed>:
  103b28:	01641693          	sll	a3,s0,0x16

00103b2c <i00000007ee>:
  103b2c:	016f0333          	add	t1,t5,s6

00103b30 <i00000007ef>:
  103b30:	01f76633          	or	a2,a4,t6

00103b34 <i00000007f0>:
  103b34:	35806413          	or	s0,zero,856

00103b38 <i00000007f1>:
  103b38:	d0012b03          	lw	s6,-768(sp)
  103b3c:	00900d93          	li	s11,9

00103b40 <b00000007f2>:
  103b40:	00000033          	add	zero,zero,zero
  103b44:	fbbd46e3          	blt	s10,s11,103af0 <i00000007e4>
  103b48:	00000033          	add	zero,zero,zero
  103b4c:	00a00d13          	li	s10,10

00103b50 <i00000007f2>:
  103b50:	40ab0533          	sub	a0,s6,a0

00103b54 <i00000007f3>:
  103b54:	008faf33          	slt	t5,t6,s0

00103b58 <i00000007f4>:
  103b58:	dc010f83          	lb	t6,-576(sp)

00103b5c <i00000007f5>:
  103b5c:	d4012223          	sw	zero,-700(sp)

00103b60 <i00000007f6>:
  103b60:	40a25f33          	sra	t5,tp,a0

00103b64 <i00000007f7>:
  103b64:	00269493          	sll	s1,a3,0x2

00103b68 <i00000007f8>:
  103b68:	c717ab13          	slti	s6,a5,-911

00103b6c <i00000007f9>:
  103b6c:	7be11503          	lh	a0,1982(sp)

00103b70 <i00000007fa>:
  103b70:	15112a23          	sw	a7,340(sp)

00103b74 <i00000007fb>:
  103b74:	40c12703          	lw	a4,1036(sp)

00103b78 <i00000007fc>:
  103b78:	f4414b03          	lbu	s6,-188(sp)

00103b7c <i00000007fd>:
  103b7c:	007e9fb3          	sll	t6,t4,t2

00103b80 <i00000007fe>:
  103b80:	0adc7213          	and	tp,s8,173

00103b84 <i00000007ff>:
  103b84:	0072b733          	sltu	a4,t0,t2

00103b88 <i0000000800>:
  103b88:	c05f2a93          	slti	s5,t5,-1019
  103b8c:	0000b117          	auipc	sp,0xb
  103b90:	57410113          	add	sp,sp,1396 # 10f100 <mem>
  103b94:	0005b337          	lui	t1,0x5b
  103b98:	a4830313          	add	t1,t1,-1464 # 5aa48 <tohost+0x3aa40>
  103b9c:	00610133          	add	sp,sp,t1

00103ba0 <i0000000801>:
  103ba0:	f4011503          	lh	a0,-192(sp)

00103ba4 <i0000000802>:
  103ba4:	0131dc13          	srl	s8,gp,0x13

00103ba8 <i0000000803>:
  103ba8:	f7411f03          	lh	t5,-140(sp)

00103bac <i0000000804>:
  103bac:	6af12223          	sw	a5,1700(sp)
  103bb0:	00b00b93          	li	s7,11
  103bb4:	00a00d13          	li	s10,10

00103bb8 <b0000000805>:
  103bb8:	00000033          	add	zero,zero,zero
  103bbc:	057d1863          	bne	s10,s7,103c0c <i0000000811>
  103bc0:	00000033          	add	zero,zero,zero
  103bc4:	00a00d13          	li	s10,10

00103bc8 <i0000000805>:
  103bc8:	6b611123          	sh	s6,1698(sp)

00103bcc <i0000000806>:
  103bcc:	f4011783          	lh	a5,-192(sp)

00103bd0 <i0000000807>:
  103bd0:	06914483          	lbu	s1,105(sp)

00103bd4 <i0000000808>:
  103bd4:	40ab5033          	sra	zero,s6,a0

00103bd8 <i0000000809>:
  103bd8:	e0012223          	sw	zero,-508(sp)

00103bdc <i000000080a>:
  103bdc:	b4610323          	sb	t1,-1210(sp)

00103be0 <i000000080b>:
  103be0:	84414283          	lbu	t0,-1980(sp)
  103be4:	0000b117          	auipc	sp,0xb
  103be8:	51c10113          	add	sp,sp,1308 # 10f100 <mem>
  103bec:	00062337          	lui	t1,0x62
  103bf0:	47030313          	add	t1,t1,1136 # 62470 <tohost+0x42468>
  103bf4:	00610133          	add	sp,sp,t1

00103bf8 <i000000080c>:
  103bf8:	51015b03          	lhu	s6,1296(sp)

00103bfc <i000000080d>:
  103bfc:	00834db3          	xor	s11,t1,s0

00103c00 <i000000080e>:
  103c00:	016b3333          	sltu	t1,s6,s6

00103c04 <i000000080f>:
  103c04:	50215f03          	lhu	t5,1282(sp)

00103c08 <i0000000810>:
  103c08:	54510683          	lb	a3,1349(sp)

00103c0c <i0000000811>:
  103c0c:	00a57033          	and	zero,a0,a0

00103c10 <i0000000812>:
  103c10:	24e11683          	lh	a3,590(sp)

00103c14 <i0000000813>:
  103c14:	01581b33          	sll	s6,a6,s5

00103c18 <i0000000814>:
  103c18:	77e11503          	lh	a0,1918(sp)

00103c1c <i0000000815>:
  103c1c:	01961213          	sll	tp,a2,0x19

00103c20 <i0000000816>:
  103c20:	4c114303          	lbu	t1,1217(sp)

00103c24 <i0000000817>:
  103c24:	12368f37          	lui	t5,0x12368

00103c28 <b0000000818>:
  103c28:	0380056f          	jal	a0,103c60 <i0000000825>

00103c2c <i0000000818>:
  103c2c:	0da14e03          	lbu	t3,218(sp)

00103c30 <i0000000819>:
  103c30:	d7612223          	sw	s6,-668(sp)

00103c34 <i000000081a>:
  103c34:	7f920413          	add	s0,tp,2041 # 6ed00605 <fromhost+0x6eb785f5>

00103c38 <i000000081b>:
  103c38:	00425cb3          	srl	s9,tp,tp

00103c3c <i000000081c>:
  103c3c:	01e243b3          	xor	t2,tp,t5

00103c40 <i000000081d>:
  103c40:	01eb6b33          	or	s6,s6,t5

00103c44 <i000000081e>:
  103c44:	4143d5b3          	sra	a1,t2,s4

00103c48 <i000000081f>:
  103c48:	63761a37          	lui	s4,0x63761

00103c4c <i0000000820>:
  103c4c:	1d615e03          	lhu	t3,470(sp)

00103c50 <i0000000821>:
  103c50:	ce924213          	xor	tp,tp,-791

00103c54 <i0000000822>:
  103c54:	00c9df13          	srl	t5,s3,0xc

00103c58 <i0000000823>:
  103c58:	35911623          	sh	s9,844(sp)

00103c5c <i0000000824>:
  103c5c:	009e6533          	or	a0,t3,s1

00103c60 <i0000000825>:
  103c60:	afd12623          	sw	t4,-1300(sp)

00103c64 <i0000000826>:
  103c64:	41e252b3          	sra	t0,tp,t5

00103c68 <i0000000827>:
  103c68:	d2810503          	lb	a0,-728(sp)

00103c6c <i0000000828>:
  103c6c:	50a10ea3          	sb	a0,1309(sp)

00103c70 <i0000000829>:
  103c70:	d0f10f03          	lb	t5,-753(sp)

00103c74 <i000000082a>:
  103c74:	d1612e23          	sw	s6,-740(sp)
  103c78:	00c00993          	li	s3,12
  103c7c:	001d0d13          	add	s10,s10,1

00103c80 <b000000082b>:
  103c80:	00000033          	add	zero,zero,zero
  103c84:	fba9dee3          	bge	s3,s10,103c40 <i000000081d>
  103c88:	00000033          	add	zero,zero,zero
  103c8c:	00a00d13          	li	s10,10

00103c90 <i000000082b>:
  103c90:	e9d77393          	and	t2,a4,-355

00103c94 <i000000082c>:
  103c94:	a9710503          	lb	a0,-1385(sp)

00103c98 <i000000082d>:
  103c98:	98615483          	lhu	s1,-1658(sp)
  103c9c:	0000b117          	auipc	sp,0xb
  103ca0:	46410113          	add	sp,sp,1124 # 10f100 <mem>
  103ca4:	00011337          	lui	t1,0x11
  103ca8:	63830313          	add	t1,t1,1592 # 11638 <_stack_len+0x9638>
  103cac:	00610133          	add	sp,sp,t1

00103cb0 <i000000082e>:
  103cb0:	8e510d83          	lb	s11,-1819(sp)

00103cb4 <i000000082f>:
  103cb4:	01650b33          	add	s6,a0,s6

00103cb8 <i0000000830>:
  103cb8:	0035a533          	slt	a0,a1,gp

00103cbc <i0000000831>:
  103cbc:	00991e93          	sll	t4,s2,0x9

00103cc0 <i0000000832>:
  103cc0:	11514003          	lbu	zero,277(sp)

00103cc4 <i0000000833>:
  103cc4:	9504c513          	xor	a0,s1,-1712

00103cc8 <i0000000834>:
  103cc8:	7cf103a3          	sb	a5,1991(sp)

00103ccc <i0000000835>:
  103ccc:	48e20513          	add	a0,tp,1166 # 48e <_min_stack-0x1b72>

00103cd0 <i0000000836>:
  103cd0:	7a611503          	lh	a0,1958(sp)

00103cd4 <i0000000837>:
  103cd4:	411f8eb3          	sub	t4,t6,a7

00103cd8 <i0000000838>:
  103cd8:	9c811a23          	sh	s0,-1580(sp)

00103cdc <i0000000839>:
  103cdc:	77e10323          	sb	t5,1894(sp)

00103ce0 <i000000083a>:
  103ce0:	3c610823          	sb	t1,976(sp)

00103ce4 <i000000083b>:
  103ce4:	c6b12e23          	sw	a1,-900(sp)

00103ce8 <i000000083c>:
  103ce8:	9b412183          	lw	gp,-1612(sp)

00103cec <i000000083d>:
  103cec:	be011f23          	sh	zero,-1026(sp)
  103cf0:	00900b93          	li	s7,9

00103cf4 <b000000083e>:
  103cf4:	00000033          	add	zero,zero,zero
  103cf8:	fd7d4ce3          	blt	s10,s7,103cd0 <i0000000836>
  103cfc:	00000033          	add	zero,zero,zero
  103d00:	00a00d13          	li	s10,10

00103d04 <i000000083e>:
  103d04:	016212b3          	sll	t0,tp,s6

00103d08 <i000000083f>:
  103d08:	41780cb3          	sub	s9,a6,s7

00103d0c <i0000000840>:
  103d0c:	47110323          	sb	a7,1126(sp)

00103d10 <i0000000841>:
  103d10:	2441f893          	and	a7,gp,580

00103d14 <i0000000842>:
  103d14:	ed412823          	sw	s4,-304(sp)
  103d18:	0000b117          	auipc	sp,0xb
  103d1c:	3e810113          	add	sp,sp,1000 # 10f100 <mem>
  103d20:	0002a337          	lui	t1,0x2a
  103d24:	1c830313          	add	t1,t1,456 # 2a1c8 <tohost+0xa1c0>
  103d28:	00610133          	add	sp,sp,t1

00103d2c <i0000000843>:
  103d2c:	dc010683          	lb	a3,-576(sp)
  103d30:	0000b117          	auipc	sp,0xb
  103d34:	3d010113          	add	sp,sp,976 # 10f100 <mem>
  103d38:	00062337          	lui	t1,0x62
  103d3c:	98030313          	add	t1,t1,-1664 # 61980 <tohost+0x41978>
  103d40:	00610133          	add	sp,sp,t1

00103d44 <i0000000844>:
  103d44:	93412903          	lw	s2,-1740(sp)

00103d48 <i0000000845>:
  103d48:	e7412f03          	lw	t5,-396(sp)

00103d4c <i0000000846>:
  103d4c:	98611f83          	lh	t6,-1658(sp)

00103d50 <i0000000847>:
  103d50:	9bd103a3          	sb	t4,-1625(sp)

00103d54 <i0000000848>:
  103d54:	25e4f413          	and	s0,s1,606

00103d58 <i0000000849>:
  103d58:	00d6c233          	xor	tp,a3,a3

00103d5c <i000000084a>:
  103d5c:	1d77b513          	sltiu	a0,a5,471

00103d60 <i000000084b>:
  103d60:	00022833          	sltz	a6,tp
  103d64:	0000b117          	auipc	sp,0xb
  103d68:	39c10113          	add	sp,sp,924 # 10f100 <mem>
  103d6c:	00017337          	lui	t1,0x17
  103d70:	47030313          	add	t1,t1,1136 # 17470 <_stack_len+0xf470>
  103d74:	00610133          	add	sp,sp,t1

00103d78 <i000000084c>:
  103d78:	ecc11603          	lh	a2,-308(sp)

00103d7c <i000000084d>:
  103d7c:	00e41513          	sll	a0,s0,0xe

00103d80 <i000000084e>:
  103d80:	20622637          	lui	a2,0x20622
  103d84:	0000b117          	auipc	sp,0xb
  103d88:	37c10113          	add	sp,sp,892 # 10f100 <mem>
  103d8c:	00003337          	lui	t1,0x3
  103d90:	10830313          	add	t1,t1,264 # 3108 <_min_stack+0x1108>
  103d94:	00610133          	add	sp,sp,t1

00103d98 <i000000084f>:
  103d98:	e9610f83          	lb	t6,-362(sp)

00103d9c <i0000000850>:
  103d9c:	40af55b3          	sra	a1,t5,a0
  103da0:	00b00c13          	li	s8,11
  103da4:	00a00d13          	li	s10,10

00103da8 <b0000000851>:
  103da8:	00000033          	add	zero,zero,zero
  103dac:	058d1863          	bne	s10,s8,103dfc <i000000085d>
  103db0:	00000033          	add	zero,zero,zero
  103db4:	00a00d13          	li	s10,10

00103db8 <i0000000851>:
  103db8:	00ab1f13          	sll	t5,s6,0xa

00103dbc <i0000000852>:
  103dbc:	414657b3          	sra	a5,a2,s4

00103dc0 <i0000000853>:
  103dc0:	01620533          	add	a0,tp,s6

00103dc4 <i0000000854>:
  103dc4:	40c48533          	sub	a0,s1,a2
  103dc8:	0000b117          	auipc	sp,0xb
  103dcc:	33810113          	add	sp,sp,824 # 10f100 <mem>
  103dd0:	0004c337          	lui	t1,0x4c
  103dd4:	0f830313          	add	t1,t1,248 # 4c0f8 <tohost+0x2c0f0>
  103dd8:	00610133          	add	sp,sp,t1

00103ddc <i0000000855>:
  103ddc:	85211a03          	lh	s4,-1966(sp)

00103de0 <i0000000856>:
  103de0:	d8411f83          	lh	t6,-636(sp)

00103de4 <i0000000857>:
  103de4:	23e10923          	sb	t5,562(sp)

00103de8 <i0000000858>:
  103de8:	f2110003          	lb	zero,-223(sp)

00103dec <i0000000859>:
  103dec:	a3512423          	sw	s5,-1496(sp)

00103df0 <i000000085a>:
  103df0:	6f01aa13          	slti	s4,gp,1776

00103df4 <i000000085b>:
  103df4:	d2610303          	lb	t1,-730(sp)

00103df8 <i000000085c>:
  103df8:	00655713          	srl	a4,a0,0x6

00103dfc <i000000085d>:
  103dfc:	94c15b03          	lhu	s6,-1716(sp)

00103e00 <i000000085e>:
  103e00:	93215f83          	lhu	t6,-1742(sp)

00103e04 <i000000085f>:
  103e04:	9dd10523          	sb	t4,-1590(sp)

00103e08 <i0000000860>:
  103e08:	33106913          	or	s2,zero,817

00103e0c <i0000000861>:
  103e0c:	f8c12983          	lw	s3,-116(sp)

00103e10 <i0000000862>:
  103e10:	c8011983          	lh	s3,-896(sp)
  103e14:	0000b117          	auipc	sp,0xb
  103e18:	2ec10113          	add	sp,sp,748 # 10f100 <mem>
  103e1c:	00025337          	lui	t1,0x25
  103e20:	ea030313          	add	t1,t1,-352 # 24ea0 <tohost+0x4e98>
  103e24:	00610133          	add	sp,sp,t1

00103e28 <i0000000863>:
  103e28:	55910503          	lb	a0,1369(sp)
  103e2c:	00900d93          	li	s11,9
  103e30:	00a00d13          	li	s10,10

00103e34 <b0000000864>:
  103e34:	00000033          	add	zero,zero,zero
  103e38:	05addc63          	bge	s11,s10,103e90 <i000000086d>
  103e3c:	00000033          	add	zero,zero,zero
  103e40:	00a00d13          	li	s10,10
  103e44:	0000b117          	auipc	sp,0xb
  103e48:	2bc10113          	add	sp,sp,700 # 10f100 <mem>
  103e4c:	00031337          	lui	t1,0x31
  103e50:	91030313          	add	t1,t1,-1776 # 30910 <tohost+0x10908>
  103e54:	00610133          	add	sp,sp,t1

00103e58 <i0000000864>:
  103e58:	65812b03          	lw	s6,1624(sp)
  103e5c:	0000b117          	auipc	sp,0xb
  103e60:	2a410113          	add	sp,sp,676 # 10f100 <mem>
  103e64:	00003337          	lui	t1,0x3
  103e68:	04030313          	add	t1,t1,64 # 3040 <_min_stack+0x1040>
  103e6c:	00610133          	add	sp,sp,t1

00103e70 <i0000000865>:
  103e70:	de611223          	sh	t1,-540(sp)

00103e74 <i0000000866>:
  103e74:	55553213          	sltiu	tp,a0,1365

00103e78 <i0000000867>:
  103e78:	2b014203          	lbu	tp,688(sp)

00103e7c <i0000000868>:
  103e7c:	9b612623          	sw	s6,-1620(sp)

00103e80 <i0000000869>:
  103e80:	9555b593          	sltiu	a1,a1,-1707

00103e84 <i000000086a>:
  103e84:	41525d93          	sra	s11,tp,0x15

00103e88 <i000000086b>:
  103e88:	32014503          	lbu	a0,800(sp)

00103e8c <i000000086c>:
  103e8c:	cb5109a3          	sb	s5,-845(sp)

00103e90 <i000000086d>:
  103e90:	530f4293          	xor	t0,t5,1328

00103e94 <i000000086e>:
  103e94:	afa15003          	lhu	zero,-1286(sp)

00103e98 <i000000086f>:
  103e98:	67215203          	lhu	tp,1650(sp)

00103e9c <i0000000870>:
  103e9c:	9db66f93          	or	t6,a2,-1573

00103ea0 <i0000000871>:
  103ea0:	b8c12503          	lw	a0,-1140(sp)

00103ea4 <i0000000872>:
  103ea4:	000b35b3          	sltu	a1,s6,zero

00103ea8 <i0000000873>:
  103ea8:	20710283          	lb	t0,519(sp)

00103eac <i0000000874>:
  103eac:	3e0e25b7          	lui	a1,0x3e0e2

00103eb0 <i0000000875>:
  103eb0:	01bebf33          	sltu	t5,t4,s11

00103eb4 <i0000000876>:
  103eb4:	a1b2fb13          	and	s6,t0,-1509
  103eb8:	00c00a13          	li	s4,12
  103ebc:	001d0d13          	add	s10,s10,1

00103ec0 <b0000000877>:
  103ec0:	00000033          	add	zero,zero,zero
  103ec4:	fd4d46e3          	blt	s10,s4,103e90 <i000000086d>
  103ec8:	00000033          	add	zero,zero,zero
  103ecc:	00a00d13          	li	s10,10

00103ed0 <i0000000877>:
  103ed0:	35812a83          	lw	s5,856(sp)

00103ed4 <i0000000878>:
  103ed4:	a1612623          	sw	s6,-1524(sp)

00103ed8 <i0000000879>:
  103ed8:	4b910203          	lb	tp,1209(sp)

00103edc <i000000087a>:
  103edc:	43c14203          	lbu	tp,1084(sp)

00103ee0 <i000000087b>:
  103ee0:	62310b03          	lb	s6,1571(sp)

00103ee4 <i000000087c>:
  103ee4:	1c07f713          	and	a4,a5,448

00103ee8 <i000000087d>:
  103ee8:	4fba4f37          	lui	t5,0x4fba4

00103eec <i000000087e>:
  103eec:	5a410823          	sb	tp,1456(sp)

00103ef0 <i000000087f>:
  103ef0:	a7412503          	lw	a0,-1420(sp)

00103ef4 <i0000000880>:
  103ef4:	017cdc33          	srl	s8,s9,s7

00103ef8 <i0000000881>:
  103ef8:	94512e23          	sw	t0,-1700(sp)

00103efc <i0000000882>:
  103efc:	58912e23          	sw	s1,1436(sp)

00103f00 <i0000000883>:
  103f00:	00c1a233          	slt	tp,gp,a2

00103f04 <i0000000884>:
  103f04:	e9a15203          	lhu	tp,-358(sp)

00103f08 <i0000000885>:
  103f08:	00a23bb3          	sltu	s7,tp,a0

00103f0c <i0000000886>:
  103f0c:	c1610303          	lb	t1,-1002(sp)

00103f10 <i0000000887>:
  103f10:	04910b03          	lb	s6,73(sp)

00103f14 <i0000000888>:
  103f14:	39812e83          	lw	t4,920(sp)

00103f18 <i0000000889>:
  103f18:	43bd5637          	lui	a2,0x43bd5
  103f1c:	00900e93          	li	t4,9
  103f20:	00a00d13          	li	s10,10

00103f24 <b000000088a>:
  103f24:	00000033          	add	zero,zero,zero
  103f28:	05aed063          	bge	t4,s10,103f68 <i0000000892>
  103f2c:	00000033          	add	zero,zero,zero
  103f30:	00a00d13          	li	s10,10

00103f34 <i000000088a>:
  103f34:	01e07f33          	and	t5,zero,t5
  103f38:	0000b117          	auipc	sp,0xb
  103f3c:	1c810113          	add	sp,sp,456 # 10f100 <mem>
  103f40:	00058337          	lui	t1,0x58
  103f44:	54030313          	add	t1,t1,1344 # 58540 <tohost+0x38538>
  103f48:	00610133          	add	sp,sp,t1

00103f4c <i000000088b>:
  103f4c:	ea110b03          	lb	s6,-351(sp)

00103f50 <i000000088c>:
  103f50:	01649b13          	sll	s6,s1,0x16

00103f54 <i000000088d>:
  103f54:	86a53d93          	sltiu	s11,a0,-1942

00103f58 <i000000088e>:
  103f58:	00057f33          	and	t5,a0,zero

00103f5c <i000000088f>:
  103f5c:	41c6d333          	sra	t1,a3,t3

00103f60 <i0000000890>:
  103f60:	07643b37          	lui	s6,0x7643

00103f64 <i0000000891>:
  103f64:	35411b03          	lh	s6,852(sp)

00103f68 <i0000000892>:
  103f68:	d2363f13          	sltiu	t5,a2,-733

00103f6c <i0000000893>:
  103f6c:	01e05b33          	srl	s6,zero,t5

00103f70 <i0000000894>:
  103f70:	5aa15803          	lhu	a6,1450(sp)

00103f74 <i0000000895>:
  103f74:	df415f03          	lhu	t5,-524(sp)

00103f78 <i0000000896>:
  103f78:	056104a3          	sb	s6,73(sp)

00103f7c <i0000000897>:
  103f7c:	0d384f13          	xor	t5,a6,211

00103f80 <i0000000898>:
  103f80:	000b5b33          	srl	s6,s6,zero

00103f84 <i0000000899>:
  103f84:	efc11483          	lh	s1,-260(sp)

00103f88 <i000000089a>:
  103f88:	47614f03          	lbu	t5,1142(sp)

00103f8c <i000000089b>:
  103f8c:	13812203          	lw	tp,312(sp)

00103f90 <i000000089c>:
  103f90:	eca10d23          	sb	a0,-294(sp)

00103f94 <b000000089d>:
  103f94:	00000c97          	auipc	s9,0x0
  103f98:	054c8c93          	add	s9,s9,84 # 103fe8 <i00000008aa>
  103f9c:	000c8567          	jalr	a0,s9

00103fa0 <i000000089d>:
  103fa0:	a7110323          	sb	a7,-1434(sp)

00103fa4 <i000000089e>:
  103fa4:	4176db33          	sra	s6,a3,s7

00103fa8 <i000000089f>:
  103fa8:	41b85a93          	sra	s5,a6,0x1b

00103fac <i00000008a0>:
  103fac:	5df007b7          	lui	a5,0x5df00

00103fb0 <i00000008a1>:
  103fb0:	4103dcb3          	sra	s9,t2,a6

00103fb4 <i00000008a2>:
  103fb4:	01951013          	sll	zero,a0,0x19

00103fb8 <i00000008a3>:
  103fb8:	0143a033          	slt	zero,t2,s4

00103fbc <i00000008a4>:
  103fbc:	392012b7          	lui	t0,0x39201
  103fc0:	0000b117          	auipc	sp,0xb
  103fc4:	14010113          	add	sp,sp,320 # 10f100 <mem>
  103fc8:	0004a337          	lui	t1,0x4a
  103fcc:	91830313          	add	t1,t1,-1768 # 49918 <tohost+0x29910>
  103fd0:	00610133          	add	sp,sp,t1

00103fd4 <i00000008a5>:
  103fd4:	ae810823          	sb	s0,-1296(sp)

00103fd8 <i00000008a6>:
  103fd8:	40305b13          	sra	s6,zero,0x3

00103fdc <i00000008a7>:
  103fdc:	8ff53b13          	sltiu	s6,a0,-1793

00103fe0 <i00000008a8>:
  103fe0:	400b5633          	sra	a2,s6,zero

00103fe4 <i00000008a9>:
  103fe4:	0032cb33          	xor	s6,t0,gp

00103fe8 <i00000008aa>:
  103fe8:	5c1e2b93          	slti	s7,t3,1473

00103fec <i00000008ab>:
  103fec:	c88b6013          	or	zero,s6,-888

00103ff0 <i00000008ac>:
  103ff0:	35d12c23          	sw	t4,856(sp)

00103ff4 <i00000008ad>:
  103ff4:	000f68b3          	or	a7,t5,zero
  103ff8:	0000b117          	auipc	sp,0xb
  103ffc:	10810113          	add	sp,sp,264 # 10f100 <mem>
  104000:	00011337          	lui	t1,0x11
  104004:	b6030313          	add	t1,t1,-1184 # 10b60 <_stack_len+0x8b60>
  104008:	00610133          	add	sp,sp,t1

0010400c <i00000008ae>:
  10400c:	30812483          	lw	s1,776(sp)

00104010 <i00000008af>:
  104010:	33006b17          	auipc	s6,0x33006

00104014 <b00000008b0>:
  104014:	0340056f          	jal	a0,104048 <i00000008b7>
  104018:	0000b117          	auipc	sp,0xb
  10401c:	0e810113          	add	sp,sp,232 # 10f100 <mem>
  104020:	00021337          	lui	t1,0x21
  104024:	6e830313          	add	t1,t1,1768 # 216e8 <tohost+0x16e0>
  104028:	00610133          	add	sp,sp,t1

0010402c <i00000008b0>:
  10402c:	16010b03          	lb	s6,352(sp)

00104030 <i00000008b1>:
  104030:	bbf02593          	slti	a1,zero,-1089

00104034 <i00000008b2>:
  104034:	005ab233          	sltu	tp,s5,t0

00104038 <i00000008b3>:
  104038:	40368ab3          	sub	s5,a3,gp

0010403c <i00000008b4>:
  10403c:	87c12623          	sw	t3,-1940(sp)

00104040 <i00000008b5>:
  104040:	c7814003          	lbu	zero,-904(sp)

00104044 <i00000008b6>:
  104044:	016b6333          	or	t1,s6,s6

00104048 <i00000008b7>:
  104048:	011bd2b3          	srl	t0,s7,a7

0010404c <i00000008b8>:
  10404c:	010cb233          	sltu	tp,s9,a6

00104050 <i00000008b9>:
  104050:	01dec533          	xor	a0,t4,t4

00104054 <i00000008ba>:
  104054:	ec011a23          	sh	zero,-300(sp)

00104058 <i00000008bb>:
  104058:	00edafb3          	slt	t6,s11,a4

0010405c <i00000008bc>:
  10405c:	29925917          	auipc	s2,0x29925

00104060 <i00000008bd>:
  104060:	00a56b33          	or	s6,a0,a0

00104064 <i00000008be>:
  104064:	410c0533          	sub	a0,s8,a6

00104068 <i00000008bf>:
  104068:	004b4933          	xor	s2,s6,tp

0010406c <i00000008c0>:
  10406c:	016f3cb3          	sltu	s9,t5,s6

00104070 <i00000008c1>:
  104070:	01ef3b33          	sltu	s6,t5,t5

00104074 <i00000008c2>:
  104074:	afc12883          	lw	a7,-1284(sp)
  104078:	00b00893          	li	a7,11
  10407c:	001d0d13          	add	s10,s10,1

00104080 <b00000008c3>:
  104080:	00000033          	add	zero,zero,zero
  104084:	fd1d0ce3          	beq	s10,a7,10405c <i00000008bc>
  104088:	00000033          	add	zero,zero,zero
  10408c:	00a00d13          	li	s10,10

00104090 <i00000008c3>:
  104090:	a2d106a3          	sb	a3,-1491(sp)

00104094 <i00000008c4>:
  104094:	97b27313          	and	t1,tp,-1669

00104098 <i00000008c5>:
  104098:	ea611f23          	sh	t1,-322(sp)

0010409c <i00000008c6>:
  10409c:	c7c11623          	sh	t3,-916(sp)

001040a0 <i00000008c7>:
  1040a0:	013cab33          	slt	s6,s9,s3

001040a4 <i00000008c8>:
  1040a4:	c1510ea3          	sb	s5,-995(sp)

001040a8 <i00000008c9>:
  1040a8:	4059dc33          	sra	s8,s3,t0

001040ac <i00000008ca>:
  1040ac:	63b28f37          	lui	t5,0x63b28

001040b0 <i00000008cb>:
  1040b0:	00af55b3          	srl	a1,t5,a0

001040b4 <i00000008cc>:
  1040b4:	dc411b03          	lh	s6,-572(sp)

001040b8 <i00000008cd>:
  1040b8:	01973f33          	sltu	t5,a4,s9

001040bc <i00000008ce>:
  1040bc:	8e411703          	lh	a4,-1820(sp)

001040c0 <i00000008cf>:
  1040c0:	0ec15183          	lhu	gp,236(sp)
  1040c4:	0000b117          	auipc	sp,0xb
  1040c8:	03c10113          	add	sp,sp,60 # 10f100 <mem>
  1040cc:	00044337          	lui	t1,0x44
  1040d0:	c2830313          	add	t1,t1,-984 # 43c28 <tohost+0x23c20>
  1040d4:	00610133          	add	sp,sp,t1

001040d8 <i00000008d0>:
  1040d8:	abd14203          	lbu	tp,-1347(sp)

001040dc <i00000008d1>:
  1040dc:	41620433          	sub	s0,tp,s6

001040e0 <i00000008d2>:
  1040e0:	c5693893          	sltiu	a7,s2,-938
  1040e4:	0000b117          	auipc	sp,0xb
  1040e8:	01c10113          	add	sp,sp,28 # 10f100 <mem>
  1040ec:	00037337          	lui	t1,0x37
  1040f0:	fe830313          	add	t1,t1,-24 # 36fe8 <tohost+0x16fe0>
  1040f4:	00610133          	add	sp,sp,t1

001040f8 <i00000008d3>:
  1040f8:	16110683          	lb	a3,353(sp)

001040fc <i00000008d4>:
  1040fc:	019bab33          	slt	s6,s7,s9

00104100 <i00000008d5>:
  104100:	00395c13          	srl	s8,s2,0x3
  104104:	00000813          	li	a6,0

00104108 <b00000008d6>:
  104108:	00000033          	add	zero,zero,zero
  10410c:	fd0d08e3          	beq	s10,a6,1040dc <i00000008d1>
  104110:	00000033          	add	zero,zero,zero
  104114:	00a00d13          	li	s10,10

00104118 <i00000008d6>:
  104118:	85812a03          	lw	s4,-1960(sp)

0010411c <i00000008d7>:
  10411c:	85012983          	lw	s3,-1968(sp)

00104120 <i00000008d8>:
  104120:	4a410f23          	sb	tp,1214(sp)

00104124 <i00000008d9>:
  104124:	00c91893          	sll	a7,s2,0xc

00104128 <i00000008da>:
  104128:	7b112823          	sw	a7,1968(sp)

0010412c <i00000008db>:
  10412c:	16c18b13          	add	s6,gp,364

00104130 <i00000008dc>:
  104130:	01941f13          	sll	t5,s0,0x19
  104134:	0000b117          	auipc	sp,0xb
  104138:	fcc10113          	add	sp,sp,-52 # 10f100 <mem>
  10413c:	00056337          	lui	t1,0x56
  104140:	10830313          	add	t1,t1,264 # 56108 <tohost+0x36100>
  104144:	00610133          	add	sp,sp,t1

00104148 <i00000008dd>:
  104148:	c5e12e23          	sw	t5,-932(sp)

0010414c <i00000008de>:
  10414c:	d5610923          	sb	s6,-686(sp)

00104150 <i00000008df>:
  104150:	0ba15f83          	lhu	t6,186(sp)
  104154:	0000b117          	auipc	sp,0xb
  104158:	fac10113          	add	sp,sp,-84 # 10f100 <mem>
  10415c:	00057337          	lui	t1,0x57
  104160:	f7830313          	add	t1,t1,-136 # 56f78 <tohost+0x36f70>
  104164:	00610133          	add	sp,sp,t1

00104168 <i00000008e0>:
  104168:	26611903          	lh	s2,614(sp)

0010416c <i00000008e1>:
  10416c:	edc11f03          	lh	t5,-292(sp)

00104170 <i00000008e2>:
  104170:	01b4cc33          	xor	s8,s1,s11

00104174 <i00000008e3>:
  104174:	00057b33          	and	s6,a0,zero

00104178 <i00000008e4>:
  104178:	d9812003          	lw	zero,-616(sp)

0010417c <i00000008e5>:
  10417c:	a0410703          	lb	a4,-1532(sp)

00104180 <i00000008e6>:
  104180:	014ef433          	and	s0,t4,s4
  104184:	0000b117          	auipc	sp,0xb
  104188:	f7c10113          	add	sp,sp,-132 # 10f100 <mem>
  10418c:	00013337          	lui	t1,0x13
  104190:	de830313          	add	t1,t1,-536 # 12de8 <_stack_len+0xade8>
  104194:	00610133          	add	sp,sp,t1

00104198 <i00000008e7>:
  104198:	50e10b03          	lb	s6,1294(sp)
  10419c:	0000b117          	auipc	sp,0xb
  1041a0:	f6410113          	add	sp,sp,-156 # 10f100 <mem>
  1041a4:	0003a337          	lui	t1,0x3a
  1041a8:	b4030313          	add	t1,t1,-1216 # 39b40 <tohost+0x19b38>
  1041ac:	00610133          	add	sp,sp,t1

001041b0 <i00000008e8>:
  1041b0:	83511e23          	sh	s5,-1988(sp)
  1041b4:	00900b93          	li	s7,9
  1041b8:	00a00d13          	li	s10,10

001041bc <b00000008e9>:
  1041bc:	00000033          	add	zero,zero,zero
  1041c0:	057d4e63          	blt	s10,s7,10421c <i00000008ee>
  1041c4:	00000033          	add	zero,zero,zero
  1041c8:	00a00d13          	li	s10,10
  1041cc:	0000b117          	auipc	sp,0xb
  1041d0:	f3410113          	add	sp,sp,-204 # 10f100 <mem>
  1041d4:	0005b337          	lui	t1,0x5b
  1041d8:	89830313          	add	t1,t1,-1896 # 5a898 <tohost+0x3a890>
  1041dc:	00610133          	add	sp,sp,t1

001041e0 <i00000008e9>:
  1041e0:	9dc15003          	lhu	zero,-1572(sp)
  1041e4:	0000b117          	auipc	sp,0xb
  1041e8:	f1c10113          	add	sp,sp,-228 # 10f100 <mem>
  1041ec:	0001c337          	lui	t1,0x1c
  1041f0:	82830313          	add	t1,t1,-2008 # 1b828 <_stack_len+0x13828>
  1041f4:	00610133          	add	sp,sp,t1

001041f8 <i00000008ea>:
  1041f8:	19c12203          	lw	tp,412(sp)
  1041fc:	0000b117          	auipc	sp,0xb
  104200:	f0410113          	add	sp,sp,-252 # 10f100 <mem>
  104204:	00020337          	lui	t1,0x20
  104208:	98830313          	add	t1,t1,-1656 # 1f988 <_stack_len+0x17988>
  10420c:	00610133          	add	sp,sp,t1

00104210 <i00000008eb>:
  104210:	49a11f83          	lh	t6,1178(sp)

00104214 <i00000008ec>:
  104214:	50a14f03          	lbu	t5,1290(sp)

00104218 <i00000008ed>:
  104218:	40c12e23          	sw	a2,1052(sp)

0010421c <i00000008ee>:
  10421c:	43bc2513          	slti	a0,s8,1083

00104220 <i00000008ef>:
  104220:	cd912623          	sw	s9,-820(sp)

00104224 <i00000008f0>:
  104224:	cb310003          	lb	zero,-845(sp)

00104228 <i00000008f1>:
  104228:	a6812b83          	lw	s7,-1432(sp)

0010422c <i00000008f2>:
  10422c:	93b66f13          	or	t5,a2,-1733

00104230 <i00000008f3>:
  104230:	64815003          	lhu	zero,1608(sp)

00104234 <i00000008f4>:
  104234:	ce411e03          	lh	t3,-796(sp)
  104238:	0000b117          	auipc	sp,0xb
  10423c:	ec810113          	add	sp,sp,-312 # 10f100 <mem>
  104240:	0004f337          	lui	t1,0x4f
  104244:	aa830313          	add	t1,t1,-1368 # 4eaa8 <tohost+0x2eaa0>
  104248:	00610133          	add	sp,sp,t1

0010424c <i00000008f5>:
  10424c:	6d310c83          	lb	s9,1747(sp)

00104250 <i00000008f6>:
  104250:	3b4101a3          	sb	s4,931(sp)

00104254 <i00000008f7>:
  104254:	07812f03          	lw	t5,120(sp)

00104258 <i00000008f8>:
  104258:	00de18b3          	sll	a7,t3,a3

0010425c <i00000008f9>:
  10425c:	004054b3          	srl	s1,zero,tp

00104260 <i00000008fa>:
  104260:	400f03b3          	sub	t2,t5,zero

00104264 <i00000008fb>:
  104264:	00452533          	slt	a0,a0,tp
  104268:	00b00913          	li	s2,11
  10426c:	00a00d13          	li	s10,10

00104270 <b00000008fc>:
  104270:	00000033          	add	zero,zero,zero
  104274:	03a95063          	bge	s2,s10,104294 <i0000000901>
  104278:	00000033          	add	zero,zero,zero
  10427c:	00a00d13          	li	s10,10

00104280 <i00000008fc>:
  104280:	71211003          	lh	zero,1810(sp)

00104284 <i00000008fd>:
  104284:	000f7233          	and	tp,t5,zero

00104288 <i00000008fe>:
  104288:	83012f03          	lw	t5,-2000(sp)

0010428c <i00000008ff>:
  10428c:	57011b03          	lh	s6,1392(sp)

00104290 <i0000000900>:
  104290:	01ef4b33          	xor	s6,t5,t5

00104294 <i0000000901>:
  104294:	6d64ee93          	or	t4,s1,1750

00104298 <i0000000902>:
  104298:	000f3f33          	sltu	t5,t5,zero

0010429c <i0000000903>:
  10429c:	41a5d013          	sra	zero,a1,0x1a

001042a0 <i0000000904>:
  1042a0:	303b7993          	and	s3,s6,771

001042a4 <i0000000905>:
  1042a4:	09d10e23          	sb	t4,156(sp)

001042a8 <i0000000906>:
  1042a8:	40005e13          	sra	t3,zero,0x0

001042ac <i0000000907>:
  1042ac:	016b4233          	xor	tp,s6,s6

001042b0 <i0000000908>:
  1042b0:	00a01b33          	sll	s6,zero,a0

001042b4 <i0000000909>:
  1042b4:	40c05293          	sra	t0,zero,0xc

001042b8 <i000000090a>:
  1042b8:	4ef8af93          	slti	t6,a7,1263

001042bc <i000000090b>:
  1042bc:	417a8e33          	sub	t3,s5,s7

001042c0 <i000000090c>:
  1042c0:	010ebfb3          	sltu	t6,t4,a6

001042c4 <i000000090d>:
  1042c4:	41ca5293          	sra	t0,s4,0x1c

001042c8 <i000000090e>:
  1042c8:	2ba11203          	lh	tp,698(sp)
  1042cc:	00b00d93          	li	s11,11
  1042d0:	00a00d13          	li	s10,10

001042d4 <b000000090f>:
  1042d4:	00000033          	add	zero,zero,zero
  1042d8:	03addc63          	bge	s11,s10,104310 <i000000091a>
  1042dc:	00000033          	add	zero,zero,zero
  1042e0:	00a00d13          	li	s10,10

001042e4 <i000000090f>:
  1042e4:	7215bb17          	auipc	s6,0x7215b

001042e8 <i0000000910>:
  1042e8:	41540f33          	sub	t5,s0,s5

001042ec <i0000000911>:
  1042ec:	4239ba93          	sltiu	s5,s3,1059

001042f0 <i0000000912>:
  1042f0:	8f212c23          	sw	s2,-1800(sp)

001042f4 <i0000000913>:
  1042f4:	8611cf13          	xor	t5,gp,-1951

001042f8 <i0000000914>:
  1042f8:	40360f33          	sub	t5,a2,gp

001042fc <i0000000915>:
  1042fc:	aff98013          	add	zero,s3,-1281

00104300 <i0000000916>:
  104300:	f4411003          	lh	zero,-188(sp)

00104304 <i0000000917>:
  104304:	00455533          	srl	a0,a0,tp

00104308 <i0000000918>:
  104308:	28a12023          	sw	a0,640(sp)

0010430c <i0000000919>:
  10430c:	89411b03          	lh	s6,-1900(sp)

00104310 <i000000091a>:
  104310:	d8ab0493          	add	s1,s6,-630 # 7225f06e <fromhost+0x720d705e>

00104314 <i000000091b>:
  104314:	27212c23          	sw	s2,632(sp)

00104318 <i000000091c>:
  104318:	00f79f13          	sll	t5,a5,0xf

0010431c <i000000091d>:
  10431c:	e8c14003          	lbu	zero,-372(sp)
  104320:	0000b117          	auipc	sp,0xb
  104324:	de010113          	add	sp,sp,-544 # 10f100 <mem>
  104328:	0002d337          	lui	t1,0x2d
  10432c:	1a030313          	add	t1,t1,416 # 2d1a0 <tohost+0xd198>
  104330:	00610133          	add	sp,sp,t1

00104334 <i000000091e>:
  104334:	e6910f03          	lb	t5,-407(sp)
  104338:	0000b117          	auipc	sp,0xb
  10433c:	dc810113          	add	sp,sp,-568 # 10f100 <mem>
  104340:	00067337          	lui	t1,0x67
  104344:	e0030313          	add	t1,t1,-512 # 66e00 <tohost+0x46df8>
  104348:	00610133          	add	sp,sp,t1

0010434c <i000000091f>:
  10434c:	17010ea3          	sb	a6,381(sp)

00104350 <i0000000920>:
  104350:	4d012023          	sw	a6,1216(sp)

00104354 <i0000000921>:
  104354:	b4a14883          	lbu	a7,-1206(sp)
  104358:	00900e13          	li	t3,9
  10435c:	00a00d13          	li	s10,10

00104360 <b0000000922>:
  104360:	00000033          	add	zero,zero,zero
  104364:	07ae5c63          	bge	t3,s10,1043dc <i000000092e>
  104368:	00000033          	add	zero,zero,zero
  10436c:	00a00d13          	li	s10,10

00104370 <i0000000922>:
  104370:	d7c11223          	sh	t3,-668(sp)

00104374 <i0000000923>:
  104374:	1456cf13          	xor	t5,a3,325
  104378:	0000b117          	auipc	sp,0xb
  10437c:	d8810113          	add	sp,sp,-632 # 10f100 <mem>
  104380:	00048337          	lui	t1,0x48
  104384:	3f830313          	add	t1,t1,1016 # 483f8 <tohost+0x283f0>
  104388:	00610133          	add	sp,sp,t1

0010438c <i0000000924>:
  10438c:	a8c11b03          	lh	s6,-1396(sp)
  104390:	0000b117          	auipc	sp,0xb
  104394:	d7010113          	add	sp,sp,-656 # 10f100 <mem>
  104398:	00065337          	lui	t1,0x65
  10439c:	e8830313          	add	t1,t1,-376 # 64e88 <tohost+0x44e80>
  1043a0:	00610133          	add	sp,sp,t1

001043a4 <i0000000925>:
  1043a4:	34310923          	sb	gp,850(sp)

001043a8 <i0000000926>:
  1043a8:	c4211c03          	lh	s8,-958(sp)

001043ac <i0000000927>:
  1043ac:	016b1233          	sll	tp,s6,s6

001043b0 <i0000000928>:
  1043b0:	2aa12e23          	sw	a0,700(sp)

001043b4 <i0000000929>:
  1043b4:	d4fcc313          	xor	t1,s9,-689

001043b8 <i000000092a>:
  1043b8:	c5542393          	slti	t2,s0,-939

001043bc <i000000092b>:
  1043bc:	0d210b03          	lb	s6,210(sp)
  1043c0:	0000b117          	auipc	sp,0xb
  1043c4:	d4010113          	add	sp,sp,-704 # 10f100 <mem>
  1043c8:	00023337          	lui	t1,0x23
  1043cc:	fc830313          	add	t1,t1,-56 # 22fc8 <tohost+0x2fc0>
  1043d0:	00610133          	add	sp,sp,t1

001043d4 <i000000092c>:
  1043d4:	95012503          	lw	a0,-1712(sp)

001043d8 <i000000092d>:
  1043d8:	cf812e23          	sw	s8,-772(sp)

001043dc <i000000092e>:
  1043dc:	dfe12023          	sw	t5,-544(sp)

001043e0 <i000000092f>:
  1043e0:	c4415383          	lhu	t2,-956(sp)

001043e4 <i0000000930>:
  1043e4:	011eaa33          	slt	s4,t4,a7

001043e8 <i0000000931>:
  1043e8:	36712823          	sw	t2,880(sp)

001043ec <i0000000932>:
  1043ec:	004f7e33          	and	t3,t5,tp

001043f0 <i0000000933>:
  1043f0:	41eb0533          	sub	a0,s6,t5

001043f4 <i0000000934>:
  1043f4:	ef011003          	lh	zero,-272(sp)
  1043f8:	00b00a93          	li	s5,11
  1043fc:	00a00d13          	li	s10,10

00104400 <b0000000935>:
  104400:	00000033          	add	zero,zero,zero
  104404:	05aadc63          	bge	s5,s10,10445c <i0000000943>
  104408:	00000033          	add	zero,zero,zero
  10440c:	00a00d13          	li	s10,10

00104410 <i0000000935>:
  104410:	18d10983          	lb	s3,397(sp)

00104414 <i0000000936>:
  104414:	06010f03          	lb	t5,96(sp)

00104418 <i0000000937>:
  104418:	01333433          	sltu	s0,t1,s3

0010441c <i0000000938>:
  10441c:	a1012403          	lw	s0,-1520(sp)

00104420 <i0000000939>:
  104420:	0199e933          	or	s2,s3,s9

00104424 <i000000093a>:
  104424:	00a57f33          	and	t5,a0,a0

00104428 <i000000093b>:
  104428:	fb200793          	li	a5,-78

0010442c <i000000093c>:
  10442c:	41cf5493          	sra	s1,t5,0x1c

00104430 <i000000093d>:
  104430:	01ef0533          	add	a0,t5,t5

00104434 <i000000093e>:
  104434:	ed615303          	lhu	t1,-298(sp)

00104438 <i000000093f>:
  104438:	9d011a83          	lh	s5,-1584(sp)

0010443c <i0000000940>:
  10443c:	90811e23          	sh	s0,-1764(sp)

00104440 <i0000000941>:
  104440:	3fa11203          	lh	tp,1018(sp)

00104444 <i0000000942>:
  104444:	04415b03          	lhu	s6,68(sp)
  104448:	0000b117          	auipc	sp,0xb
  10444c:	cb810113          	add	sp,sp,-840 # 10f100 <mem>
  104450:	00056337          	lui	t1,0x56
  104454:	13030313          	add	t1,t1,304 # 56130 <tohost+0x36128>
  104458:	00610133          	add	sp,sp,t1

0010445c <i0000000943>:
  10445c:	d8410da3          	sb	tp,-613(sp)

00104460 <i0000000944>:
  104460:	019acb33          	xor	s6,s5,s9

00104464 <i0000000945>:
  104464:	0154c8b3          	xor	a7,s1,s5
  104468:	0000b117          	auipc	sp,0xb
  10446c:	c9810113          	add	sp,sp,-872 # 10f100 <mem>
  104470:	00008337          	lui	t1,0x8
  104474:	c8030313          	add	t1,t1,-896 # 7c80 <_min_stack+0x5c80>
  104478:	00610133          	add	sp,sp,t1

0010447c <i0000000946>:
  10447c:	48712223          	sw	t2,1156(sp)
  104480:	0000b117          	auipc	sp,0xb
  104484:	c8010113          	add	sp,sp,-896 # 10f100 <mem>
  104488:	00023337          	lui	t1,0x23
  10448c:	01830313          	add	t1,t1,24 # 23018 <tohost+0x3010>
  104490:	00610133          	add	sp,sp,t1

00104494 <i0000000947>:
  104494:	4e012803          	lw	a6,1248(sp)
  104498:	00a00893          	li	a7,10

0010449c <b0000000948>:
  10449c:	00000033          	add	zero,zero,zero
  1044a0:	f91d1ee3          	bne	s10,a7,10443c <i0000000940>
  1044a4:	00000033          	add	zero,zero,zero
  1044a8:	00a00d13          	li	s10,10

001044ac <i0000000948>:
  1044ac:	04c14203          	lbu	tp,76(sp)
  1044b0:	0000b117          	auipc	sp,0xb
  1044b4:	c5010113          	add	sp,sp,-944 # 10f100 <mem>
  1044b8:	0003e337          	lui	t1,0x3e
  1044bc:	14830313          	add	t1,t1,328 # 3e148 <tohost+0x1e140>
  1044c0:	00610133          	add	sp,sp,t1

001044c4 <i0000000949>:
  1044c4:	b6c11f03          	lh	t5,-1172(sp)
  1044c8:	0000b117          	auipc	sp,0xb
  1044cc:	c3810113          	add	sp,sp,-968 # 10f100 <mem>
  1044d0:	0003d337          	lui	t1,0x3d
  1044d4:	52030313          	add	t1,t1,1312 # 3d520 <tohost+0x1d518>
  1044d8:	00610133          	add	sp,sp,t1

001044dc <i000000094a>:
  1044dc:	a3510603          	lb	a2,-1483(sp)

001044e0 <i000000094b>:
  1044e0:	1f236693          	or	a3,t1,498

001044e4 <i000000094c>:
  1044e4:	41f7dc33          	sra	s8,a5,t6
  1044e8:	0000b117          	auipc	sp,0xb
  1044ec:	c1810113          	add	sp,sp,-1000 # 10f100 <mem>
  1044f0:	00024337          	lui	t1,0x24
  1044f4:	45830313          	add	t1,t1,1112 # 24458 <tohost+0x4450>
  1044f8:	00610133          	add	sp,sp,t1

001044fc <i000000094d>:
  1044fc:	7c812183          	lw	gp,1992(sp)

00104500 <i000000094e>:
  104500:	14614203          	lbu	tp,326(sp)

00104504 <i000000094f>:
  104504:	86415983          	lhu	s3,-1948(sp)

00104508 <i0000000950>:
  104508:	8321fa93          	and	s5,gp,-1998

0010450c <i0000000951>:
  10450c:	3ac12f03          	lw	t5,940(sp)

00104510 <i0000000952>:
  104510:	0ec9ee13          	or	t3,s3,236

00104514 <i0000000953>:
  104514:	bf3b3213          	sltiu	tp,s6,-1037

00104518 <i0000000954>:
  104518:	e5720893          	add	a7,tp,-425 # fffffe57 <fromhost+0xffe77e47>

0010451c <i0000000955>:
  10451c:	e1f14e03          	lbu	t3,-481(sp)

00104520 <i0000000956>:
  104520:	f6812a23          	sw	s0,-140(sp)

00104524 <i0000000957>:
  104524:	01bbf4b3          	and	s1,s7,s11

00104528 <i0000000958>:
  104528:	4a49cf13          	xor	t5,s3,1188

0010452c <i0000000959>:
  10452c:	ca71b013          	sltiu	zero,gp,-857

00104530 <i000000095a>:
  104530:	00e2cdb3          	xor	s11,t0,a4
  104534:	00c00993          	li	s3,12
  104538:	00a00d13          	li	s10,10

0010453c <b000000095b>:
  10453c:	00000033          	add	zero,zero,zero
  104540:	053d4863          	blt	s10,s3,104590 <i0000000967>
  104544:	00000033          	add	zero,zero,zero
  104548:	00a00d13          	li	s10,10

0010454c <i000000095b>:
  10454c:	c2811b23          	sh	s0,-970(sp)

00104550 <i000000095c>:
  104550:	69e6c893          	xor	a7,a3,1694

00104554 <i000000095d>:
  104554:	0c411483          	lh	s1,196(sp)
  104558:	0000b117          	auipc	sp,0xb
  10455c:	ba810113          	add	sp,sp,-1112 # 10f100 <mem>
  104560:	00023337          	lui	t1,0x23
  104564:	7b830313          	add	t1,t1,1976 # 237b8 <tohost+0x37b0>
  104568:	00610133          	add	sp,sp,t1

0010456c <i000000095e>:
  10456c:	79e11b23          	sh	t5,1942(sp)

00104570 <i000000095f>:
  104570:	6b611523          	sh	s6,1706(sp)

00104574 <i0000000960>:
  104574:	00af4533          	xor	a0,t5,a0

00104578 <i0000000961>:
  104578:	d4012003          	lw	zero,-704(sp)

0010457c <i0000000962>:
  10457c:	62411023          	sh	tp,1568(sp)

00104580 <i0000000963>:
  104580:	cc78a793          	slti	a5,a7,-825

00104584 <i0000000964>:
  104584:	00a06bb3          	or	s7,zero,a0

00104588 <i0000000965>:
  104588:	7a411003          	lh	zero,1956(sp)

0010458c <i0000000966>:
  10458c:	54c14f03          	lbu	t5,1356(sp)

00104590 <i0000000967>:
  104590:	17fb3213          	sltiu	tp,s6,383
  104594:	0000b117          	auipc	sp,0xb
  104598:	b6c10113          	add	sp,sp,-1172 # 10f100 <mem>
  10459c:	00055337          	lui	t1,0x55
  1045a0:	0a030313          	add	t1,t1,160 # 550a0 <tohost+0x35098>
  1045a4:	00610133          	add	sp,sp,t1

001045a8 <i0000000968>:
  1045a8:	1c110003          	lb	zero,449(sp)

001045ac <i0000000969>:
  1045ac:	4de11e23          	sh	t5,1244(sp)

001045b0 <i000000096a>:
  1045b0:	00943333          	sltu	t1,s0,s1

001045b4 <i000000096b>:
  1045b4:	01149e93          	sll	t4,s1,0x11
  1045b8:	0000b117          	auipc	sp,0xb
  1045bc:	b4810113          	add	sp,sp,-1208 # 10f100 <mem>
  1045c0:	00053337          	lui	t1,0x53
  1045c4:	d7830313          	add	t1,t1,-648 # 52d78 <tohost+0x32d70>
  1045c8:	00610133          	add	sp,sp,t1

001045cc <i000000096c>:
  1045cc:	94c14003          	lbu	zero,-1716(sp)

001045d0 <i000000096d>:
  1045d0:	13311023          	sh	s3,288(sp)
  1045d4:	00900b93          	li	s7,9
  1045d8:	00a00d13          	li	s10,10

001045dc <b000000096e>:
  1045dc:	00000033          	add	zero,zero,zero
  1045e0:	037d4463          	blt	s10,s7,104608 <i0000000975>
  1045e4:	00000033          	add	zero,zero,zero
  1045e8:	00a00d13          	li	s10,10

001045ec <i000000096e>:
  1045ec:	01611c03          	lh	s8,22(sp)

001045f0 <i000000096f>:
  1045f0:	ea512823          	sw	t0,-336(sp)

001045f4 <i0000000970>:
  1045f4:	0c614303          	lbu	t1,198(sp)

001045f8 <i0000000971>:
  1045f8:	82314303          	lbu	t1,-2013(sp)

001045fc <i0000000972>:
  1045fc:	8a510fa3          	sb	t0,-1857(sp)

00104600 <i0000000973>:
  104600:	01bdc233          	xor	tp,s11,s11

00104604 <i0000000974>:
  104604:	017eeab3          	or	s5,t4,s7

00104608 <i0000000975>:
  104608:	8f812623          	sw	s8,-1812(sp)

0010460c <i0000000976>:
  10460c:	01a55013          	srl	zero,a0,0x1a

00104610 <i0000000977>:
  104610:	cfe11023          	sh	t5,-800(sp)

00104614 <i0000000978>:
  104614:	43e15183          	lhu	gp,1086(sp)

00104618 <i0000000979>:
  104618:	26410ba3          	sb	tp,631(sp)

0010461c <i000000097a>:
  10461c:	41825913          	sra	s2,tp,0x18

00104620 <i000000097b>:
  104620:	402fd193          	sra	gp,t6,0x2

00104624 <i000000097c>:
  104624:	01e57ab3          	and	s5,a0,t5

00104628 <i000000097d>:
  104628:	b4010da3          	sb	zero,-1189(sp)

0010462c <i000000097e>:
  10462c:	5695da17          	auipc	s4,0x5695d

00104630 <i000000097f>:
  104630:	00f76cb3          	or	s9,a4,a5

00104634 <i0000000980>:
  104634:	003713b3          	sll	t2,a4,gp
  104638:	00c00913          	li	s2,12
  10463c:	001d0d13          	add	s10,s10,1

00104640 <b0000000981>:
  104640:	012d0463          	beq	s10,s2,104648 <b0000000981+0x8>
  104644:	fcdff56f          	jal	a0,104610 <i0000000977>
  104648:	00a00d13          	li	s10,10

0010464c <i0000000981>:
  10464c:	13012503          	lw	a0,304(sp)

00104650 <i0000000982>:
  104650:	37111e23          	sh	a7,892(sp)

00104654 <i0000000983>:
  104654:	a9c12c03          	lw	s8,-1380(sp)

00104658 <i0000000984>:
  104658:	50036613          	or	a2,t1,1280

0010465c <i0000000985>:
  10465c:	bdf03293          	sltiu	t0,zero,-1057

00104660 <i0000000986>:
  104660:	664fff13          	and	t5,t6,1636

00104664 <i0000000987>:
  104664:	4c323193          	sltiu	gp,tp,1219

00104668 <i0000000988>:
  104668:	40568c33          	sub	s8,a3,t0

0010466c <i0000000989>:
  10466c:	00a02f33          	sgtz	t5,a0

00104670 <i000000098a>:
  104670:	018ee033          	or	zero,t4,s8

00104674 <i000000098b>:
  104674:	0a411323          	sh	tp,166(sp)

00104678 <i000000098c>:
  104678:	8d86b013          	sltiu	zero,a3,-1832

0010467c <i000000098d>:
  10467c:	b39b4713          	xor	a4,s6,-1223

00104680 <i000000098e>:
  104680:	01eb2833          	slt	a6,s6,t5
  104684:	0000b117          	auipc	sp,0xb
  104688:	a7c10113          	add	sp,sp,-1412 # 10f100 <mem>
  10468c:	00017337          	lui	t1,0x17
  104690:	4c830313          	add	t1,t1,1224 # 174c8 <_stack_len+0xf4c8>
  104694:	00610133          	add	sp,sp,t1

00104698 <i000000098f>:
  104698:	b0410f03          	lb	t5,-1276(sp)

0010469c <i0000000990>:
  10469c:	60810503          	lb	a0,1544(sp)

001046a0 <i0000000991>:
  1046a0:	627a7293          	and	t0,s4,1575

001046a4 <i0000000992>:
  1046a4:	e4d102a3          	sb	a3,-443(sp)

001046a8 <i0000000993>:
  1046a8:	00404f33          	xor	t5,zero,tp

001046ac <b0000000994>:
  1046ac:	0180056f          	jal	a0,1046c4 <i0000000999>

001046b0 <i0000000994>:
  1046b0:	01cad233          	srl	tp,s5,t3

001046b4 <i0000000995>:
  1046b4:	1c488617          	auipc	a2,0x1c488

001046b8 <i0000000996>:
  1046b8:	0cc14583          	lbu	a1,204(sp)

001046bc <i0000000997>:
  1046bc:	6b611283          	lh	t0,1718(sp)

001046c0 <i0000000998>:
  1046c0:	8d412b83          	lw	s7,-1836(sp)

001046c4 <i0000000999>:
  1046c4:	86c10f03          	lb	t5,-1940(sp)

001046c8 <i000000099a>:
  1046c8:	00427f33          	and	t5,tp,tp

001046cc <i000000099b>:
  1046cc:	00d11223          	sh	a3,4(sp)

001046d0 <i000000099c>:
  1046d0:	a1415583          	lhu	a1,-1516(sp)

001046d4 <i000000099d>:
  1046d4:	eb514403          	lbu	s0,-331(sp)

001046d8 <i000000099e>:
  1046d8:	57611a23          	sh	s6,1396(sp)

001046dc <i000000099f>:
  1046dc:	015b1513          	sll	a0,s6,0x15

001046e0 <i00000009a0>:
  1046e0:	a5b10203          	lb	tp,-1445(sp)

001046e4 <i00000009a1>:
  1046e4:	62f24b13          	xor	s6,tp,1583

001046e8 <i00000009a2>:
  1046e8:	40a55ab3          	sra	s5,a0,a0

001046ec <i00000009a3>:
  1046ec:	01d68233          	add	tp,a3,t4
  1046f0:	0000b117          	auipc	sp,0xb
  1046f4:	a1010113          	add	sp,sp,-1520 # 10f100 <mem>
  1046f8:	00018337          	lui	t1,0x18
  1046fc:	35030313          	add	t1,t1,848 # 18350 <_stack_len+0x10350>
  104700:	00610133          	add	sp,sp,t1

00104704 <i00000009a4>:
  104704:	4e211983          	lh	s3,1250(sp)

00104708 <i00000009a5>:
  104708:	01185513          	srl	a0,a6,0x11

0010470c <i00000009a6>:
  10470c:	013d8033          	add	zero,s11,s3
  104710:	00900813          	li	a6,9
  104714:	00a00d13          	li	s10,10

00104718 <b00000009a7>:
  104718:	00000033          	add	zero,zero,zero
  10471c:	03a85663          	bge	a6,s10,104748 <i00000009af>
  104720:	00000033          	add	zero,zero,zero
  104724:	00a00d13          	li	s10,10

00104728 <i00000009a7>:
  104728:	4ac2b037          	lui	zero,0x4ac2b

0010472c <i00000009a8>:
  10472c:	0046d013          	srl	zero,a3,0x4

00104730 <i00000009a9>:
  104730:	214c7013          	and	zero,s8,532

00104734 <i00000009aa>:
  104734:	73010e23          	sb	a6,1852(sp)

00104738 <i00000009ab>:
  104738:	16cb6717          	auipc	a4,0x16cb6

0010473c <i00000009ac>:
  10473c:	00c12203          	lw	tp,12(sp)

00104740 <i00000009ad>:
  104740:	0057b8b3          	sltu	a7,a5,t0

00104744 <i00000009ae>:
  104744:	00f60233          	add	tp,a2,a5

00104748 <i00000009af>:
  104748:	01655433          	srl	s0,a0,s6

0010474c <i00000009b0>:
  10474c:	515f2293          	slti	t0,t5,1301

00104750 <i00000009b1>:
  104750:	40605c13          	sra	s8,zero,0x6

00104754 <i00000009b2>:
  104754:	ac412a23          	sw	tp,-1324(sp)

00104758 <i00000009b3>:
  104758:	40635f13          	sra	t5,t1,0x6

0010475c <i00000009b4>:
  10475c:	9eaa0293          	add	t0,s4,-1558 # 56a61016 <fromhost+0x568d9006>

00104760 <i00000009b5>:
  104760:	47c12403          	lw	s0,1148(sp)

00104764 <i00000009b6>:
  104764:	01c8ee33          	or	t3,a7,t3

00104768 <i00000009b7>:
  104768:	7006bc93          	sltiu	s9,a3,1792

0010476c <i00000009b8>:
  10476c:	e47c7f13          	and	t5,s8,-441

00104770 <i00000009b9>:
  104770:	40695f93          	sra	t6,s2,0x6
  104774:	00a00e93          	li	t4,10

00104778 <b00000009ba>:
  104778:	01dd0463          	beq	s10,t4,104780 <b00000009ba+0x8>
  10477c:	fddff56f          	jal	a0,104758 <i00000009b3>
  104780:	00a00d13          	li	s10,10

00104784 <i00000009ba>:
  104784:	28b18517          	auipc	a0,0x28b18

00104788 <i00000009bb>:
  104788:	30012023          	sw	zero,768(sp)

0010478c <i00000009bc>:
  10478c:	41605b33          	sra	s6,zero,s6

00104790 <i00000009bd>:
  104790:	40765193          	sra	gp,a2,0x7

00104794 <i00000009be>:
  104794:	51103413          	sltiu	s0,zero,1297

00104798 <i00000009bf>:
  104798:	ac910283          	lb	t0,-1335(sp)

0010479c <i00000009c0>:
  10479c:	9e6dae13          	slti	t3,s11,-1562
  1047a0:	0000b117          	auipc	sp,0xb
  1047a4:	96010113          	add	sp,sp,-1696 # 10f100 <mem>
  1047a8:	00005337          	lui	t1,0x5
  1047ac:	f3830313          	add	t1,t1,-200 # 4f38 <_min_stack+0x2f38>
  1047b0:	00610133          	add	sp,sp,t1

001047b4 <i00000009c1>:
  1047b4:	80a10203          	lb	tp,-2038(sp)

001047b8 <i00000009c2>:
  1047b8:	58a11123          	sh	a0,1410(sp)

001047bc <i00000009c3>:
  1047bc:	32a12423          	sw	a0,808(sp)

001047c0 <i00000009c4>:
  1047c0:	016f42b3          	xor	t0,t5,s6

001047c4 <i00000009c5>:
  1047c4:	e1214a83          	lbu	s5,-494(sp)

001047c8 <i00000009c6>:
  1047c8:	e0c14003          	lbu	zero,-500(sp)

001047cc <i00000009c7>:
  1047cc:	87d12223          	sw	t4,-1948(sp)

001047d0 <i00000009c8>:
  1047d0:	14211203          	lh	tp,322(sp)

001047d4 <i00000009c9>:
  1047d4:	46b10c23          	sb	a1,1144(sp)

001047d8 <i00000009ca>:
  1047d8:	3df99b37          	lui	s6,0x3df99

001047dc <i00000009cb>:
  1047dc:	41170e33          	sub	t3,a4,a7
  1047e0:	0000b117          	auipc	sp,0xb
  1047e4:	92010113          	add	sp,sp,-1760 # 10f100 <mem>
  1047e8:	00032337          	lui	t1,0x32
  1047ec:	9f030313          	add	t1,t1,-1552 # 319f0 <tohost+0x119e8>
  1047f0:	00610133          	add	sp,sp,t1

001047f4 <i00000009cc>:
  1047f4:	27c12603          	lw	a2,636(sp)
  1047f8:	00c00c13          	li	s8,12
  1047fc:	001d0d13          	add	s10,s10,1

00104800 <b00000009cd>:
  104800:	00000033          	add	zero,zero,zero
  104804:	fb8d48e3          	blt	s10,s8,1047b4 <i00000009c1>
  104808:	00000033          	add	zero,zero,zero
  10480c:	00a00d13          	li	s10,10

00104810 <i00000009cd>:
  104810:	006b1213          	sll	tp,s6,0x6

00104814 <i00000009ce>:
  104814:	009bd533          	srl	a0,s7,s1

00104818 <i00000009cf>:
  104818:	00c5eb33          	or	s6,a1,a2

0010481c <i00000009d0>:
  10481c:	017407b3          	add	a5,s0,s7

00104820 <i00000009d1>:
  104820:	2ca12623          	sw	a0,716(sp)

00104824 <i00000009d2>:
  104824:	b1412283          	lw	t0,-1260(sp)

00104828 <i00000009d3>:
  104828:	1ab10923          	sb	a1,434(sp)

0010482c <i00000009d4>:
  10482c:	40a503b3          	sub	t2,a0,a0

00104830 <i00000009d5>:
  104830:	41d88733          	sub	a4,a7,t4

00104834 <i00000009d6>:
  104834:	46e54a93          	xor	s5,a0,1134

00104838 <i00000009d7>:
  104838:	10012703          	lw	a4,256(sp)

0010483c <i00000009d8>:
  10483c:	bf112223          	sw	a7,-1052(sp)
  104840:	0000b117          	auipc	sp,0xb
  104844:	8c010113          	add	sp,sp,-1856 # 10f100 <mem>
  104848:	00069337          	lui	t1,0x69
  10484c:	54830313          	add	t1,t1,1352 # 69548 <tohost+0x49540>
  104850:	00610133          	add	sp,sp,t1

00104854 <i00000009d9>:
  104854:	48d14803          	lbu	a6,1165(sp)

00104858 <i00000009da>:
  104858:	ce514f03          	lbu	t5,-795(sp)

0010485c <i00000009db>:
  10485c:	6b811123          	sh	s8,1698(sp)

00104860 <i00000009dc>:
  104860:	35742b17          	auipc	s6,0x35742

00104864 <i00000009dd>:
  104864:	ac857793          	and	a5,a0,-1336

00104868 <i00000009de>:
  104868:	d0e10203          	lb	tp,-754(sp)

0010486c <i00000009df>:
  10486c:	417a4b13          	xor	s6,s4,1047
  104870:	00a00e13          	li	t3,10

00104874 <b00000009e0>:
  104874:	01cd0863          	beq	s10,t3,104884 <b00000009e0+0x10>
  104878:	00000e17          	auipc	t3,0x0
  10487c:	fc0e0e13          	add	t3,t3,-64 # 104838 <i00000009d7>
  104880:	000e0567          	jalr	a0,t3
  104884:	00a00d13          	li	s10,10
  104888:	0000b117          	auipc	sp,0xb
  10488c:	87810113          	add	sp,sp,-1928 # 10f100 <mem>
  104890:	0001b337          	lui	t1,0x1b
  104894:	82030313          	add	t1,t1,-2016 # 1a820 <_stack_len+0x12820>
  104898:	00610133          	add	sp,sp,t1

0010489c <i00000009e0>:
  10489c:	a7e15b03          	lhu	s6,-1410(sp)

001048a0 <i00000009e1>:
  1048a0:	ba412a23          	sw	tp,-1100(sp)

001048a4 <i00000009e2>:
  1048a4:	48010f23          	sb	zero,1182(sp)

001048a8 <i00000009e3>:
  1048a8:	6522ea13          	or	s4,t0,1618

001048ac <i00000009e4>:
  1048ac:	cea15b83          	lhu	s7,-790(sp)

001048b0 <i00000009e5>:
  1048b0:	0aa12023          	sw	a0,160(sp)

001048b4 <i00000009e6>:
  1048b4:	6a012683          	lw	a3,1696(sp)
  1048b8:	0000b117          	auipc	sp,0xb
  1048bc:	84810113          	add	sp,sp,-1976 # 10f100 <mem>
  1048c0:	0002c337          	lui	t1,0x2c
  1048c4:	cd830313          	add	t1,t1,-808 # 2bcd8 <tohost+0xbcd0>
  1048c8:	00610133          	add	sp,sp,t1

001048cc <i00000009e7>:
  1048cc:	4aa11a03          	lh	s4,1194(sp)

001048d0 <i00000009e8>:
  1048d0:	004b0033          	add	zero,s6,tp

001048d4 <i00000009e9>:
  1048d4:	3de11323          	sh	t5,966(sp)

001048d8 <i00000009ea>:
  1048d8:	019fd033          	srl	zero,t6,s9

001048dc <i00000009eb>:
  1048dc:	1e815f83          	lhu	t6,488(sp)

001048e0 <i00000009ec>:
  1048e0:	000f2233          	sltz	tp,t5

001048e4 <i00000009ed>:
  1048e4:	fa312a23          	sw	gp,-76(sp)

001048e8 <i00000009ee>:
  1048e8:	0c011c83          	lh	s9,192(sp)

001048ec <i00000009ef>:
  1048ec:	faa10ca3          	sb	a0,-71(sp)

001048f0 <i00000009f0>:
  1048f0:	18aa4f13          	xor	t5,s4,394

001048f4 <i00000009f1>:
  1048f4:	cba11b03          	lh	s6,-838(sp)

001048f8 <i00000009f2>:
  1048f8:	41d25c13          	sra	s8,tp,0x1d
  1048fc:	00c00f93          	li	t6,12
  104900:	00a00d13          	li	s10,10

00104904 <b00000009f3>:
  104904:	00000033          	add	zero,zero,zero
  104908:	03fd4a63          	blt	s10,t6,10493c <i00000009fd>
  10490c:	00000033          	add	zero,zero,zero
  104910:	00a00d13          	li	s10,10

00104914 <i00000009f3>:
  104914:	22412e23          	sw	tp,572(sp)

00104918 <i00000009f4>:
  104918:	0fbf4393          	xor	t2,t5,251

0010491c <i00000009f5>:
  10491c:	004b12b3          	sll	t0,s6,tp

00104920 <i00000009f6>:
  104920:	002b5513          	srl	a0,s6,0x2

00104924 <i00000009f7>:
  104924:	01ce7733          	and	a4,t3,t3

00104928 <i00000009f8>:
  104928:	778fb713          	sltiu	a4,t6,1912

0010492c <i00000009f9>:
  10492c:	dcf26b13          	or	s6,tp,-561

00104930 <i00000009fa>:
  104930:	01c7be33          	sltu	t3,a5,t3

00104934 <i00000009fb>:
  104934:	00e21613          	sll	a2,tp,0xe

00104938 <i00000009fc>:
  104938:	ab2109a3          	sb	s2,-1357(sp)

0010493c <i00000009fd>:
  10493c:	6c7a8997          	auipc	s3,0x6c7a8

00104940 <i00000009fe>:
  104940:	0096b3b3          	sltu	t2,a3,s1
  104944:	0000a117          	auipc	sp,0xa
  104948:	7bc10113          	add	sp,sp,1980 # 10f100 <mem>
  10494c:	00026337          	lui	t1,0x26
  104950:	18030313          	add	t1,t1,384 # 26180 <tohost+0x6178>
  104954:	00610133          	add	sp,sp,t1

00104958 <i00000009ff>:
  104958:	1c215503          	lhu	a0,450(sp)

0010495c <i0000000a00>:
  10495c:	44c15503          	lhu	a0,1100(sp)

00104960 <i0000000a01>:
  104960:	01765013          	srl	zero,a2,0x17

00104964 <i0000000a02>:
  104964:	e1e102a3          	sb	t5,-507(sp)
  104968:	0000a117          	auipc	sp,0xa
  10496c:	79810113          	add	sp,sp,1944 # 10f100 <mem>
  104970:	0006c337          	lui	t1,0x6c
  104974:	5d030313          	add	t1,t1,1488 # 6c5d0 <tohost+0x4c5c8>
  104978:	00610133          	add	sp,sp,t1

0010497c <i0000000a03>:
  10497c:	cfd11923          	sh	t4,-782(sp)

00104980 <i0000000a04>:
  104980:	1fae1437          	lui	s0,0x1fae1

00104984 <i0000000a05>:
  104984:	b0110183          	lb	gp,-1279(sp)
  104988:	00c00c93          	li	s9,12
  10498c:	001d0d13          	add	s10,s10,1

00104990 <b0000000a06>:
  104990:	00000033          	add	zero,zero,zero
  104994:	fb9d42e3          	blt	s10,s9,104938 <i00000009fc>
  104998:	00000033          	add	zero,zero,zero
  10499c:	00a00d13          	li	s10,10

001049a0 <i0000000a06>:
  1049a0:	59b20713          	add	a4,tp,1435 # 59b <_min_stack-0x1a65>

001049a4 <i0000000a07>:
  1049a4:	01ecde93          	srl	t4,s9,0x1e

001049a8 <i0000000a08>:
  1049a8:	a6f14503          	lbu	a0,-1425(sp)

001049ac <i0000000a09>:
  1049ac:	00be0233          	add	tp,t3,a1

001049b0 <i0000000a0a>:
  1049b0:	26b10aa3          	sb	a1,629(sp)

001049b4 <i0000000a0b>:
  1049b4:	01ef2033          	slt	zero,t5,t5

001049b8 <i0000000a0c>:
  1049b8:	1fe14983          	lbu	s3,510(sp)

001049bc <i0000000a0d>:
  1049bc:	01654733          	xor	a4,a0,s6

001049c0 <i0000000a0e>:
  1049c0:	e0412823          	sw	tp,-496(sp)

001049c4 <i0000000a0f>:
  1049c4:	afd12023          	sw	t4,-1312(sp)
  1049c8:	0000a117          	auipc	sp,0xa
  1049cc:	73810113          	add	sp,sp,1848 # 10f100 <mem>
  1049d0:	0002b337          	lui	t1,0x2b
  1049d4:	d6830313          	add	t1,t1,-664 # 2ad68 <tohost+0xad60>
  1049d8:	00610133          	add	sp,sp,t1

001049dc <i0000000a10>:
  1049dc:	e0011983          	lh	s3,-512(sp)

001049e0 <i0000000a11>:
  1049e0:	68d11423          	sh	a3,1672(sp)

001049e4 <i0000000a12>:
  1049e4:	cba11e03          	lh	t3,-838(sp)

001049e8 <i0000000a13>:
  1049e8:	a3811f03          	lh	t5,-1480(sp)

001049ec <i0000000a14>:
  1049ec:	ece15003          	lhu	zero,-306(sp)

001049f0 <i0000000a15>:
  1049f0:	561e3893          	sltiu	a7,t3,1377

001049f4 <i0000000a16>:
  1049f4:	00403c33          	snez	s8,tp

001049f8 <i0000000a17>:
  1049f8:	b8e10803          	lb	a6,-1138(sp)

001049fc <i0000000a18>:
  1049fc:	13012783          	lw	a5,304(sp)
  104a00:	00900c13          	li	s8,9

00104a04 <b0000000a19>:
  104a04:	00000033          	add	zero,zero,zero
  104a08:	fbac5ae3          	bge	s8,s10,1049bc <i0000000a0d>
  104a0c:	00000033          	add	zero,zero,zero
  104a10:	00a00d13          	li	s10,10

00104a14 <i0000000a19>:
  104a14:	6d512223          	sw	s5,1732(sp)

00104a18 <i0000000a1a>:
  104a18:	37e108a3          	sb	t5,881(sp)

00104a1c <i0000000a1b>:
  104a1c:	00407b33          	and	s6,zero,tp

00104a20 <i0000000a1c>:
  104a20:	004201b3          	add	gp,tp,tp

00104a24 <i0000000a1d>:
  104a24:	00c313b3          	sll	t2,t1,a2

00104a28 <i0000000a1e>:
  104a28:	ed412503          	lw	a0,-300(sp)

00104a2c <i0000000a1f>:
  104a2c:	40000c33          	neg	s8,zero

00104a30 <i0000000a20>:
  104a30:	df214b03          	lbu	s6,-526(sp)

00104a34 <i0000000a21>:
  104a34:	e2010da3          	sb	zero,-453(sp)

00104a38 <i0000000a22>:
  104a38:	00fd8eb3          	add	t4,s11,a5

00104a3c <i0000000a23>:
  104a3c:	c1815d83          	lhu	s11,-1000(sp)

00104a40 <i0000000a24>:
  104a40:	00427533          	and	a0,tp,tp

00104a44 <i0000000a25>:
  104a44:	f1815e83          	lhu	t4,-232(sp)

00104a48 <i0000000a26>:
  104a48:	69576393          	or	t2,a4,1685

00104a4c <i0000000a27>:
  104a4c:	93410003          	lb	zero,-1740(sp)

00104a50 <i0000000a28>:
  104a50:	70510403          	lb	s0,1797(sp)
  104a54:	0000a117          	auipc	sp,0xa
  104a58:	6ac10113          	add	sp,sp,1708 # 10f100 <mem>
  104a5c:	00038337          	lui	t1,0x38
  104a60:	71030313          	add	t1,t1,1808 # 38710 <tohost+0x18708>
  104a64:	00610133          	add	sp,sp,t1

00104a68 <i0000000a29>:
  104a68:	28b14003          	lbu	zero,651(sp)

00104a6c <i0000000a2a>:
  104a6c:	09256293          	or	t0,a0,146

00104a70 <i0000000a2b>:
  104a70:	7e414703          	lbu	a4,2020(sp)
  104a74:	00c00a93          	li	s5,12
  104a78:	001d0d13          	add	s10,s10,1

00104a7c <b0000000a2c>:
  104a7c:	00000033          	add	zero,zero,zero
  104a80:	fb5d14e3          	bne	s10,s5,104a28 <i0000000a1e>
  104a84:	00000033          	add	zero,zero,zero
  104a88:	00a00d13          	li	s10,10

00104a8c <i0000000a2c>:
  104a8c:	fda15683          	lhu	a3,-38(sp)

00104a90 <i0000000a2d>:
  104a90:	418adb33          	sra	s6,s5,s8

00104a94 <i0000000a2e>:
  104a94:	b2a11703          	lh	a4,-1238(sp)

00104a98 <i0000000a2f>:
  104a98:	00b21b13          	sll	s6,tp,0xb

00104a9c <i0000000a30>:
  104a9c:	01e07533          	and	a0,zero,t5

00104aa0 <i0000000a31>:
  104aa0:	40a50fb3          	sub	t6,a0,a0

00104aa4 <i0000000a32>:
  104aa4:	00848bb3          	add	s7,s1,s0
  104aa8:	0000a117          	auipc	sp,0xa
  104aac:	65810113          	add	sp,sp,1624 # 10f100 <mem>
  104ab0:	00043337          	lui	t1,0x43
  104ab4:	40030313          	add	t1,t1,1024 # 43400 <tohost+0x233f8>
  104ab8:	00610133          	add	sp,sp,t1

00104abc <i0000000a33>:
  104abc:	10912a23          	sw	s1,276(sp)

00104ac0 <i0000000a34>:
  104ac0:	89815f03          	lhu	t5,-1896(sp)

00104ac4 <i0000000a35>:
  104ac4:	71204c93          	xor	s9,zero,1810

00104ac8 <i0000000a36>:
  104ac8:	723bc513          	xor	a0,s7,1827

00104acc <i0000000a37>:
  104acc:	000f3eb3          	sltu	t4,t5,zero

00104ad0 <i0000000a38>:
  104ad0:	5c012823          	sw	zero,1488(sp)

00104ad4 <i0000000a39>:
  104ad4:	08fd6037          	lui	zero,0x8fd6

00104ad8 <i0000000a3a>:
  104ad8:	000b4b33          	xor	s6,s6,zero

00104adc <i0000000a3b>:
  104adc:	06742713          	slti	a4,s0,103

00104ae0 <i0000000a3c>:
  104ae0:	f0211f83          	lh	t6,-254(sp)

00104ae4 <i0000000a3d>:
  104ae4:	013e3b33          	sltu	s6,t3,s3
  104ae8:	0000a117          	auipc	sp,0xa
  104aec:	61810113          	add	sp,sp,1560 # 10f100 <mem>
  104af0:	00029337          	lui	t1,0x29
  104af4:	08830313          	add	t1,t1,136 # 29088 <tohost+0x9080>
  104af8:	00610133          	add	sp,sp,t1

00104afc <i0000000a3e>:
  104afc:	e6a14503          	lbu	a0,-406(sp)
  104b00:	00c00c13          	li	s8,12
  104b04:	00a00d13          	li	s10,10

00104b08 <b0000000a3f>:
  104b08:	00000033          	add	zero,zero,zero
  104b0c:	058d4463          	blt	s10,s8,104b54 <i0000000a49>
  104b10:	00000033          	add	zero,zero,zero
  104b14:	00a00d13          	li	s10,10

00104b18 <i0000000a3f>:
  104b18:	adc11323          	sh	t3,-1338(sp)

00104b1c <i0000000a40>:
  104b1c:	404f5233          	sra	tp,t5,tp

00104b20 <i0000000a41>:
  104b20:	1e688237          	lui	tp,0x1e688

00104b24 <i0000000a42>:
  104b24:	6b611623          	sh	s6,1708(sp)

00104b28 <i0000000a43>:
  104b28:	41d3dab3          	sra	s5,t2,t4

00104b2c <i0000000a44>:
  104b2c:	005ab433          	sltu	s0,s5,t0

00104b30 <i0000000a45>:
  104b30:	34a10203          	lb	tp,842(sp)

00104b34 <i0000000a46>:
  104b34:	6d611723          	sh	s6,1742(sp)

00104b38 <i0000000a47>:
  104b38:	3b110b83          	lb	s7,945(sp)

00104b3c <i0000000a48>:
  104b3c:	00023b33          	sltu	s6,tp,zero
  104b40:	0000a117          	auipc	sp,0xa
  104b44:	5c010113          	add	sp,sp,1472 # 10f100 <mem>
  104b48:	0004b337          	lui	t1,0x4b
  104b4c:	ed830313          	add	t1,t1,-296 # 4aed8 <tohost+0x2aed0>
  104b50:	00610133          	add	sp,sp,t1

00104b54 <i0000000a49>:
  104b54:	d9e101a3          	sb	t5,-637(sp)

00104b58 <i0000000a4a>:
  104b58:	00528f33          	add	t5,t0,t0

00104b5c <i0000000a4b>:
  104b5c:	7f618713          	add	a4,gp,2038

00104b60 <i0000000a4c>:
  104b60:	db215f03          	lhu	t5,-590(sp)

00104b64 <i0000000a4d>:
  104b64:	64221737          	lui	a4,0x64221

00104b68 <i0000000a4e>:
  104b68:	61d9cb37          	lui	s6,0x61d9c

00104b6c <i0000000a4f>:
  104b6c:	96015203          	lhu	tp,-1696(sp)

00104b70 <i0000000a50>:
  104b70:	013fb533          	sltu	a0,t6,s3

00104b74 <i0000000a51>:
  104b74:	f5a11c83          	lh	s9,-166(sp)
  104b78:	00a00c93          	li	s9,10

00104b7c <b0000000a52>:
  104b7c:	00000033          	add	zero,zero,zero
  104b80:	039d0e63          	beq	s10,s9,104bbc <i0000000a5e>
  104b84:	00000033          	add	zero,zero,zero
  104b88:	00a00d13          	li	s10,10

00104b8c <i0000000a52>:
  104b8c:	4179dfb3          	sra	t6,s3,s7

00104b90 <i0000000a53>:
  104b90:	41e25233          	sra	tp,tp,t5

00104b94 <i0000000a54>:
  104b94:	01448233          	add	tp,s1,s4

00104b98 <i0000000a55>:
  104b98:	00bab233          	sltu	tp,s5,a1

00104b9c <i0000000a56>:
  104b9c:	87415d83          	lhu	s11,-1932(sp)

00104ba0 <i0000000a57>:
  104ba0:	004b3f33          	sltu	t5,s6,tp

00104ba4 <i0000000a58>:
  104ba4:	feab7c13          	and	s8,s6,-22

00104ba8 <i0000000a59>:
  104ba8:	008bc033          	xor	zero,s7,s0

00104bac <i0000000a5a>:
  104bac:	0111d433          	srl	s0,gp,a7

00104bb0 <i0000000a5b>:
  104bb0:	71111e23          	sh	a7,1820(sp)

00104bb4 <i0000000a5c>:
  104bb4:	1e412a23          	sw	tp,500(sp)

00104bb8 <i0000000a5d>:
  104bb8:	01eb5033          	srl	zero,s6,t5

00104bbc <i0000000a5e>:
  104bbc:	29100f13          	li	t5,657

00104bc0 <i0000000a5f>:
  104bc0:	01e57b33          	and	s6,a0,t5

00104bc4 <i0000000a60>:
  104bc4:	41625793          	sra	a5,tp,0x16

00104bc8 <i0000000a61>:
  104bc8:	40b45ab3          	sra	s5,s0,a1

00104bcc <i0000000a62>:
  104bcc:	00ab5333          	srl	t1,s6,a0

00104bd0 <i0000000a63>:
  104bd0:	00410203          	lb	tp,4(sp)

00104bd4 <i0000000a64>:
  104bd4:	b0a12623          	sw	a0,-1268(sp)
  104bd8:	00b00c93          	li	s9,11
  104bdc:	001d0d13          	add	s10,s10,1

00104be0 <b0000000a65>:
  104be0:	00000033          	add	zero,zero,zero
  104be4:	ff9d00e3          	beq	s10,s9,104bc4 <i0000000a60>
  104be8:	00000033          	add	zero,zero,zero
  104bec:	00a00d13          	li	s10,10

00104bf0 <i0000000a65>:
  104bf0:	00959fb3          	sll	t6,a1,s1

00104bf4 <i0000000a66>:
  104bf4:	af215383          	lhu	t2,-1294(sp)

00104bf8 <i0000000a67>:
  104bf8:	da210b03          	lb	s6,-606(sp)

00104bfc <i0000000a68>:
  104bfc:	404206b3          	sub	a3,tp,tp

00104c00 <i0000000a69>:
  104c00:	00421b33          	sll	s6,tp,tp

00104c04 <i0000000a6a>:
  104c04:	c9914203          	lbu	tp,-871(sp)

00104c08 <i0000000a6b>:
  104c08:	4acf3e93          	sltiu	t4,t5,1196

00104c0c <i0000000a6c>:
  104c0c:	7b012503          	lw	a0,1968(sp)

00104c10 <i0000000a6d>:
  104c10:	00a007b3          	add	a5,zero,a0
  104c14:	0000a117          	auipc	sp,0xa
  104c18:	4ec10113          	add	sp,sp,1260 # 10f100 <mem>
  104c1c:	00030337          	lui	t1,0x30
  104c20:	67830313          	add	t1,t1,1656 # 30678 <tohost+0x10670>
  104c24:	00610133          	add	sp,sp,t1

00104c28 <i0000000a6e>:
  104c28:	f2510b83          	lb	s7,-219(sp)

00104c2c <i0000000a6f>:
  104c2c:	004206b3          	add	a3,tp,tp

00104c30 <i0000000a70>:
  104c30:	000f3b33          	sltu	s6,t5,zero

00104c34 <i0000000a71>:
  104c34:	98411e23          	sh	tp,-1636(sp)

00104c38 <i0000000a72>:
  104c38:	004f1f33          	sll	t5,t5,tp

00104c3c <i0000000a73>:
  104c3c:	0156d3b3          	srl	t2,a3,s5

00104c40 <i0000000a74>:
  104c40:	00c61b33          	sll	s6,a2,a2
  104c44:	0000a117          	auipc	sp,0xa
  104c48:	4bc10113          	add	sp,sp,1212 # 10f100 <mem>
  104c4c:	00033337          	lui	t1,0x33
  104c50:	f4830313          	add	t1,t1,-184 # 32f48 <tohost+0x12f40>
  104c54:	00610133          	add	sp,sp,t1

00104c58 <i0000000a75>:
  104c58:	32012623          	sw	zero,812(sp)
  104c5c:	0000a117          	auipc	sp,0xa
  104c60:	4a410113          	add	sp,sp,1188 # 10f100 <mem>
  104c64:	00050337          	lui	t1,0x50
  104c68:	ea830313          	add	t1,t1,-344 # 4fea8 <tohost+0x2fea0>
  104c6c:	00610133          	add	sp,sp,t1

00104c70 <i0000000a76>:
  104c70:	4a0104a3          	sb	zero,1193(sp)

00104c74 <i0000000a77>:
  104c74:	01021493          	sll	s1,tp,0x10
  104c78:	00c00d93          	li	s11,12
  104c7c:	00a00d13          	li	s10,10

00104c80 <b0000000a78>:
  104c80:	00000033          	add	zero,zero,zero
  104c84:	03bd4263          	blt	s10,s11,104ca8 <i0000000a7e>
  104c88:	00000033          	add	zero,zero,zero
  104c8c:	00a00d13          	li	s10,10

00104c90 <i0000000a78>:
  104c90:	00a566b3          	or	a3,a0,a0

00104c94 <i0000000a79>:
  104c94:	8c012a23          	sw	zero,-1836(sp)

00104c98 <i0000000a7a>:
  104c98:	c5a20b13          	add	s6,tp,-934 # 1e687c5a <fromhost+0x1e4ffc4a>

00104c9c <i0000000a7b>:
  104c9c:	00505a93          	srl	s5,zero,0x5

00104ca0 <i0000000a7c>:
  104ca0:	00402433          	sgtz	s0,tp

00104ca4 <i0000000a7d>:
  104ca4:	00121493          	sll	s1,tp,0x1

00104ca8 <i0000000a7e>:
  104ca8:	515fdf17          	auipc	t5,0x515fd

00104cac <i0000000a7f>:
  104cac:	21eb6f13          	or	t5,s6,542

00104cb0 <i0000000a80>:
  104cb0:	aac10f03          	lb	t5,-1364(sp)

00104cb4 <i0000000a81>:
  104cb4:	95012203          	lw	tp,-1712(sp)

00104cb8 <i0000000a82>:
  104cb8:	eac11b83          	lh	s7,-340(sp)

00104cbc <i0000000a83>:
  104cbc:	01805813          	srl	a6,zero,0x18

00104cc0 <i0000000a84>:
  104cc0:	ac704213          	xor	tp,zero,-1337
  104cc4:	0000a117          	auipc	sp,0xa
  104cc8:	43c10113          	add	sp,sp,1084 # 10f100 <mem>
  104ccc:	00039337          	lui	t1,0x39
  104cd0:	05830313          	add	t1,t1,88 # 39058 <tohost+0x19050>
  104cd4:	00610133          	add	sp,sp,t1

00104cd8 <i0000000a85>:
  104cd8:	55911923          	sh	s9,1362(sp)

00104cdc <i0000000a86>:
  104cdc:	c5312423          	sw	s3,-952(sp)

00104ce0 <i0000000a87>:
  104ce0:	57d23037          	lui	zero,0x57d23

00104ce4 <i0000000a88>:
  104ce4:	68510c23          	sb	t0,1688(sp)

00104ce8 <i0000000a89>:
  104ce8:	e9815803          	lhu	a6,-360(sp)

00104cec <i0000000a8a>:
  104cec:	00a571b3          	and	gp,a0,a0
  104cf0:	00c00913          	li	s2,12
  104cf4:	001d0d13          	add	s10,s10,1

00104cf8 <b0000000a8b>:
  104cf8:	00000033          	add	zero,zero,zero
  104cfc:	fda95ee3          	bge	s2,s10,104cd8 <i0000000a85>
  104d00:	00000033          	add	zero,zero,zero
  104d04:	00a00d13          	li	s10,10

00104d08 <i0000000a8b>:
  104d08:	8642a013          	slti	zero,t0,-1948

00104d0c <i0000000a8c>:
  104d0c:	57506993          	or	s3,zero,1397

00104d10 <i0000000a8d>:
  104d10:	71215a03          	lhu	s4,1810(sp)
  104d14:	0000a117          	auipc	sp,0xa
  104d18:	3ec10113          	add	sp,sp,1004 # 10f100 <mem>
  104d1c:	00003337          	lui	t1,0x3
  104d20:	65030313          	add	t1,t1,1616 # 3650 <_min_stack+0x1650>
  104d24:	00610133          	add	sp,sp,t1

00104d28 <i0000000a8e>:
  104d28:	fee10583          	lb	a1,-18(sp)

00104d2c <i0000000a8f>:
  104d2c:	bae11423          	sh	a4,-1112(sp)

00104d30 <i0000000a90>:
  104d30:	00457533          	and	a0,a0,tp

00104d34 <i0000000a91>:
  104d34:	0153db33          	srl	s6,t2,s5

00104d38 <i0000000a92>:
  104d38:	18b3ef13          	or	t5,t2,395

00104d3c <i0000000a93>:
  104d3c:	e5211223          	sh	s2,-444(sp)

00104d40 <i0000000a94>:
  104d40:	16724f93          	xor	t6,tp,359

00104d44 <i0000000a95>:
  104d44:	63611523          	sh	s6,1578(sp)

00104d48 <i0000000a96>:
  104d48:	3cf9ff93          	and	t6,s3,975
  104d4c:	0000a117          	auipc	sp,0xa
  104d50:	3b410113          	add	sp,sp,948 # 10f100 <mem>
  104d54:	00039337          	lui	t1,0x39
  104d58:	2c830313          	add	t1,t1,712 # 392c8 <tohost+0x192c0>
  104d5c:	00610133          	add	sp,sp,t1

00104d60 <i0000000a97>:
  104d60:	9f610d23          	sb	s6,-1542(sp)

00104d64 <i0000000a98>:
  104d64:	5818a013          	slti	zero,a7,1409

00104d68 <i0000000a99>:
  104d68:	40cdb213          	sltiu	tp,s11,1036

00104d6c <i0000000a9a>:
  104d6c:	c9012003          	lw	zero,-880(sp)
  104d70:	0000a117          	auipc	sp,0xa
  104d74:	39010113          	add	sp,sp,912 # 10f100 <mem>
  104d78:	00048337          	lui	t1,0x48
  104d7c:	1f830313          	add	t1,t1,504 # 481f8 <tohost+0x281f0>
  104d80:	00610133          	add	sp,sp,t1

00104d84 <i0000000a9b>:
  104d84:	c0f10383          	lb	t2,-1009(sp)

00104d88 <i0000000a9c>:
  104d88:	15c11503          	lh	a0,348(sp)

00104d8c <i0000000a9d>:
  104d8c:	aac11783          	lh	a5,-1364(sp)
  104d90:	00a00a13          	li	s4,10

00104d94 <b0000000a9e>:
  104d94:	00000033          	add	zero,zero,zero
  104d98:	f94d1ce3          	bne	s10,s4,104d30 <i0000000a90>
  104d9c:	00000033          	add	zero,zero,zero
  104da0:	00a00d13          	li	s10,10

00104da4 <i0000000a9e>:
  104da4:	beade713          	or	a4,s11,-1046

00104da8 <i0000000a9f>:
  104da8:	00052e33          	sltz	t3,a0
  104dac:	0000a117          	auipc	sp,0xa
  104db0:	35410113          	add	sp,sp,852 # 10f100 <mem>
  104db4:	00012337          	lui	t1,0x12
  104db8:	9c030313          	add	t1,t1,-1600 # 119c0 <_stack_len+0x99c0>
  104dbc:	00610133          	add	sp,sp,t1

00104dc0 <i0000000aa0>:
  104dc0:	3e012023          	sw	zero,992(sp)

00104dc4 <i0000000aa1>:
  104dc4:	12211203          	lh	tp,290(sp)

00104dc8 <i0000000aa2>:
  104dc8:	bd212e23          	sw	s2,-1060(sp)

00104dcc <i0000000aa3>:
  104dcc:	01ef4b33          	xor	s6,t5,t5

00104dd0 <i0000000aa4>:
  104dd0:	61a15683          	lhu	a3,1562(sp)

00104dd4 <i0000000aa5>:
  104dd4:	01da0633          	add	a2,s4,t4

00104dd8 <i0000000aa6>:
  104dd8:	000b7233          	and	tp,s6,zero

00104ddc <i0000000aa7>:
  104ddc:	ce614f03          	lbu	t5,-794(sp)

00104de0 <i0000000aa8>:
  104de0:	d9e8f513          	and	a0,a7,-610

00104de4 <i0000000aa9>:
  104de4:	99748893          	add	a7,s1,-1641 # 6c4c9997 <fromhost+0x6c341987>

00104de8 <i0000000aaa>:
  104de8:	a5310203          	lb	tp,-1453(sp)

00104dec <i0000000aab>:
  104dec:	6ec15503          	lhu	a0,1772(sp)

00104df0 <i0000000aac>:
  104df0:	63110f23          	sb	a7,1598(sp)

00104df4 <i0000000aad>:
  104df4:	69122513          	slti	a0,tp,1681

00104df8 <i0000000aae>:
  104df8:	41525513          	sra	a0,tp,0x15

00104dfc <i0000000aaf>:
  104dfc:	5e914f03          	lbu	t5,1513(sp)

00104e00 <i0000000ab0>:
  104e00:	53815b83          	lhu	s7,1336(sp)
  104e04:	00c00a93          	li	s5,12
  104e08:	001d0d13          	add	s10,s10,1

00104e0c <b0000000ab1>:
  104e0c:	00000033          	add	zero,zero,zero
  104e10:	fd5d10e3          	bne	s10,s5,104dd0 <i0000000aa4>
  104e14:	00000033          	add	zero,zero,zero
  104e18:	00a00d13          	li	s10,10
  104e1c:	0000a117          	auipc	sp,0xa
  104e20:	2e410113          	add	sp,sp,740 # 10f100 <mem>
  104e24:	00006337          	lui	t1,0x6
  104e28:	dc830313          	add	t1,t1,-568 # 5dc8 <_min_stack+0x3dc8>
  104e2c:	00610133          	add	sp,sp,t1

00104e30 <i0000000ab1>:
  104e30:	33215403          	lhu	s0,818(sp)

00104e34 <i0000000ab2>:
  104e34:	41620433          	sub	s0,tp,s6

00104e38 <i0000000ab3>:
  104e38:	bb812003          	lw	zero,-1096(sp)

00104e3c <i0000000ab4>:
  104e3c:	00a23033          	sltu	zero,tp,a0

00104e40 <i0000000ab5>:
  104e40:	00021b33          	sll	s6,tp,zero

00104e44 <i0000000ab6>:
  104e44:	3f110ca3          	sb	a7,1017(sp)

00104e48 <i0000000ab7>:
  104e48:	98011e23          	sh	zero,-1636(sp)

00104e4c <i0000000ab8>:
  104e4c:	41605613          	sra	a2,zero,0x16

00104e50 <i0000000ab9>:
  104e50:	d1914203          	lbu	tp,-743(sp)

00104e54 <i0000000aba>:
  104e54:	009f7013          	and	zero,t5,9

00104e58 <i0000000abb>:
  104e58:	83814283          	lbu	t0,-1992(sp)

00104e5c <i0000000abc>:
  104e5c:	01970f33          	add	t5,a4,s9
  104e60:	0000a117          	auipc	sp,0xa
  104e64:	2a010113          	add	sp,sp,672 # 10f100 <mem>
  104e68:	0003b337          	lui	t1,0x3b
  104e6c:	ce830313          	add	t1,t1,-792 # 3ace8 <tohost+0x1ace0>
  104e70:	00610133          	add	sp,sp,t1

00104e74 <i0000000abd>:
  104e74:	56812903          	lw	s2,1384(sp)

00104e78 <i0000000abe>:
  104e78:	40a25f13          	sra	t5,tp,0xa

00104e7c <i0000000abf>:
  104e7c:	01f58533          	add	a0,a1,t6

00104e80 <i0000000ac0>:
  104e80:	aa011223          	sh	zero,-1372(sp)

00104e84 <i0000000ac1>:
  104e84:	a2227813          	and	a6,tp,-1502

00104e88 <i0000000ac2>:
  104e88:	01ef0633          	add	a2,t5,t5

00104e8c <i0000000ac3>:
  104e8c:	4fc12203          	lw	tp,1276(sp)
  104e90:	00c00e13          	li	t3,12
  104e94:	001d0d13          	add	s10,s10,1

00104e98 <b0000000ac4>:
  104e98:	01cd0863          	beq	s10,t3,104ea8 <b0000000ac4+0x10>
  104e9c:	00000e17          	auipc	t3,0x0
  104ea0:	fb8e0e13          	add	t3,t3,-72 # 104e54 <i0000000aba>
  104ea4:	000e0567          	jalr	a0,t3
  104ea8:	00a00d13          	li	s10,10

00104eac <i0000000ac4>:
  104eac:	cf6e8a93          	add	s5,t4,-778 # 122b777e <fromhost+0x1212f76e>

00104eb0 <i0000000ac5>:
  104eb0:	40055933          	sra	s2,a0,zero
  104eb4:	0000a117          	auipc	sp,0xa
  104eb8:	24c10113          	add	sp,sp,588 # 10f100 <mem>
  104ebc:	0000b337          	lui	t1,0xb
  104ec0:	2c830313          	add	t1,t1,712 # b2c8 <_stack_len+0x32c8>
  104ec4:	00610133          	add	sp,sp,t1

00104ec8 <i0000000ac6>:
  104ec8:	b8812b03          	lw	s6,-1144(sp)

00104ecc <i0000000ac7>:
  104ecc:	3ba77297          	auipc	t0,0x3ba77

00104ed0 <i0000000ac8>:
  104ed0:	40b30233          	sub	tp,t1,a1

00104ed4 <i0000000ac9>:
  104ed4:	12015203          	lhu	tp,288(sp)

00104ed8 <i0000000aca>:
  104ed8:	5e9ce793          	or	a5,s9,1513

00104edc <i0000000acb>:
  104edc:	7f8f7493          	and	s1,t5,2040

00104ee0 <i0000000acc>:
  104ee0:	80c12e23          	sw	a2,-2020(sp)

00104ee4 <i0000000acd>:
  104ee4:	05012503          	lw	a0,80(sp)

00104ee8 <i0000000ace>:
  104ee8:	016b1533          	sll	a0,s6,s6

00104eec <i0000000acf>:
  104eec:	78411803          	lh	a6,1924(sp)

00104ef0 <i0000000ad0>:
  104ef0:	73015e83          	lhu	t4,1840(sp)

00104ef4 <i0000000ad1>:
  104ef4:	00671b33          	sll	s6,a4,t1

00104ef8 <i0000000ad2>:
  104ef8:	39812983          	lw	s3,920(sp)
  104efc:	0000a117          	auipc	sp,0xa
  104f00:	20410113          	add	sp,sp,516 # 10f100 <mem>
  104f04:	00036337          	lui	t1,0x36
  104f08:	9a830313          	add	t1,t1,-1624 # 359a8 <tohost+0x159a0>
  104f0c:	00610133          	add	sp,sp,t1

00104f10 <i0000000ad3>:
  104f10:	b5a14f03          	lbu	t5,-1190(sp)

00104f14 <i0000000ad4>:
  104f14:	00936933          	or	s2,t1,s1

00104f18 <i0000000ad5>:
  104f18:	000523b3          	sltz	t2,a0

00104f1c <i0000000ad6>:
  104f1c:	60812b83          	lw	s7,1544(sp)

00104f20 <b0000000ad7>:
  104f20:	0340056f          	jal	a0,104f54 <i0000000ade>

00104f24 <i0000000ad7>:
  104f24:	41175993          	sra	s3,a4,0x11

00104f28 <i0000000ad8>:
  104f28:	33914f03          	lbu	t5,825(sp)
  104f2c:	0000a117          	auipc	sp,0xa
  104f30:	1d410113          	add	sp,sp,468 # 10f100 <mem>
  104f34:	00012337          	lui	t1,0x12
  104f38:	95030313          	add	t1,t1,-1712 # 11950 <_stack_len+0x9950>
  104f3c:	00610133          	add	sp,sp,t1

00104f40 <i0000000ad9>:
  104f40:	f5211183          	lh	gp,-174(sp)

00104f44 <i0000000ada>:
  104f44:	73fba213          	slti	tp,s7,1855

00104f48 <i0000000adb>:
  104f48:	ee415283          	lhu	t0,-284(sp)

00104f4c <i0000000adc>:
  104f4c:	01652fb3          	slt	t6,a0,s6

00104f50 <i0000000add>:
  104f50:	01e23233          	sltu	tp,tp,t5

00104f54 <i0000000ade>:
  104f54:	75015b03          	lhu	s6,1872(sp)

00104f58 <i0000000adf>:
  104f58:	67711523          	sh	s7,1642(sp)

00104f5c <i0000000ae0>:
  104f5c:	01652033          	slt	zero,a0,s6

00104f60 <i0000000ae1>:
  104f60:	67356f13          	or	t5,a0,1651

00104f64 <i0000000ae2>:
  104f64:	c8aacf13          	xor	t5,s5,-886
  104f68:	0000a117          	auipc	sp,0xa
  104f6c:	19810113          	add	sp,sp,408 # 10f100 <mem>
  104f70:	00044337          	lui	t1,0x44
  104f74:	3d030313          	add	t1,t1,976 # 443d0 <tohost+0x243c8>
  104f78:	00610133          	add	sp,sp,t1

00104f7c <i0000000ae3>:
  104f7c:	b2211203          	lh	tp,-1246(sp)

00104f80 <i0000000ae4>:
  104f80:	38902393          	slti	t2,zero,905
  104f84:	0000a117          	auipc	sp,0xa
  104f88:	17c10113          	add	sp,sp,380 # 10f100 <mem>
  104f8c:	0004d337          	lui	t1,0x4d
  104f90:	bf830313          	add	t1,t1,-1032 # 4cbf8 <tohost+0x2cbf0>
  104f94:	00610133          	add	sp,sp,t1

00104f98 <i0000000ae5>:
  104f98:	64d10823          	sb	a3,1616(sp)

00104f9c <i0000000ae6>:
  104f9c:	77d11f23          	sh	t4,1918(sp)

00104fa0 <i0000000ae7>:
  104fa0:	f2f10b03          	lb	s6,-209(sp)

00104fa4 <i0000000ae8>:
  104fa4:	016b7733          	and	a4,s6,s6

00104fa8 <i0000000ae9>:
  104fa8:	76a14b03          	lbu	s6,1898(sp)
  104fac:	00b00e13          	li	t3,11
  104fb0:	001d0d13          	add	s10,s10,1

00104fb4 <b0000000aea>:
  104fb4:	00000033          	add	zero,zero,zero
  104fb8:	fbcd02e3          	beq	s10,t3,104f5c <i0000000ae0>
  104fbc:	00000033          	add	zero,zero,zero
  104fc0:	00a00d13          	li	s10,10

00104fc4 <i0000000aea>:
  104fc4:	6cf97793          	and	a5,s2,1743

00104fc8 <i0000000aeb>:
  104fc8:	0de15503          	lhu	a0,222(sp)

00104fcc <i0000000aec>:
  104fcc:	ef910503          	lb	a0,-263(sp)

00104fd0 <i0000000aed>:
  104fd0:	59310823          	sb	s3,1424(sp)

00104fd4 <i0000000aee>:
  104fd4:	60b10383          	lb	t2,1547(sp)
  104fd8:	0000a117          	auipc	sp,0xa
  104fdc:	12810113          	add	sp,sp,296 # 10f100 <mem>
  104fe0:	0001d337          	lui	t1,0x1d
  104fe4:	68830313          	add	t1,t1,1672 # 1d688 <_stack_len+0x15688>
  104fe8:	00610133          	add	sp,sp,t1

00104fec <i0000000aef>:
  104fec:	5b314503          	lbu	a0,1459(sp)

00104ff0 <i0000000af0>:
  104ff0:	011ae533          	or	a0,s5,a7

00104ff4 <i0000000af1>:
  104ff4:	88253d93          	sltiu	s11,a0,-1918

00104ff8 <i0000000af2>:
  104ff8:	b30fe013          	or	zero,t6,-1232

00104ffc <i0000000af3>:
  104ffc:	40af0b33          	sub	s6,t5,a0

00105000 <i0000000af4>:
  105000:	1c012e83          	lw	t4,448(sp)

00105004 <i0000000af5>:
  105004:	56a11823          	sh	a0,1392(sp)

00105008 <i0000000af6>:
  105008:	f0412503          	lw	a0,-252(sp)

0010500c <i0000000af7>:
  10500c:	01eb69b3          	or	s3,s6,t5
  105010:	0000a117          	auipc	sp,0xa
  105014:	0f010113          	add	sp,sp,240 # 10f100 <mem>
  105018:	00058337          	lui	t1,0x58
  10501c:	9e030313          	add	t1,t1,-1568 # 579e0 <tohost+0x379d8>
  105020:	00610133          	add	sp,sp,t1

00105024 <i0000000af8>:
  105024:	bf410f83          	lb	t6,-1036(sp)

00105028 <i0000000af9>:
  105028:	8c412a23          	sw	tp,-1836(sp)

0010502c <i0000000afa>:
  10502c:	b8815583          	lhu	a1,-1144(sp)

00105030 <i0000000afb>:
  105030:	7cf12a23          	sw	a5,2004(sp)

00105034 <i0000000afc>:
  105034:	e7778393          	add	t2,a5,-393 # 5deffe77 <fromhost+0x5dd77e67>
  105038:	00900993          	li	s3,9
  10503c:	00a00d13          	li	s10,10

00105040 <b0000000afd>:
  105040:	00000033          	add	zero,zero,zero
  105044:	03a9da63          	bge	s3,s10,105078 <i0000000b07>
  105048:	00000033          	add	zero,zero,zero
  10504c:	00a00d13          	li	s10,10

00105050 <i0000000afd>:
  105050:	63c14203          	lbu	tp,1596(sp)

00105054 <i0000000afe>:
  105054:	0088a433          	slt	s0,a7,s0

00105058 <i0000000aff>:
  105058:	57f12823          	sw	t6,1392(sp)

0010505c <i0000000b00>:
  10505c:	07012383          	lw	t2,112(sp)

00105060 <i0000000b01>:
  105060:	16c11f03          	lh	t5,364(sp)

00105064 <i0000000b02>:
  105064:	45012b03          	lw	s6,1104(sp)

00105068 <i0000000b03>:
  105068:	dd612a23          	sw	s6,-556(sp)

0010506c <i0000000b04>:
  10506c:	5d615383          	lhu	t2,1494(sp)

00105070 <i0000000b05>:
  105070:	01da8b33          	add	s6,s5,t4

00105074 <i0000000b06>:
  105074:	5f6102a3          	sb	s6,1509(sp)

00105078 <i0000000b07>:
  105078:	a9eca493          	slti	s1,s9,-1378

0010507c <i0000000b08>:
  10507c:	05812203          	lw	tp,88(sp)

00105080 <i0000000b09>:
  105080:	0c114483          	lbu	s1,193(sp)

00105084 <i0000000b0a>:
  105084:	6cd96f13          	or	t5,s2,1741

00105088 <i0000000b0b>:
  105088:	01e52ab3          	slt	s5,a0,t5

0010508c <i0000000b0c>:
  10508c:	fe96b413          	sltiu	s0,a3,-23

00105090 <i0000000b0d>:
  105090:	01c3eb33          	or	s6,t2,t3

00105094 <i0000000b0e>:
  105094:	000527b3          	sltz	a5,a0

00105098 <i0000000b0f>:
  105098:	004b29b3          	slt	s3,s6,tp
  10509c:	00a00993          	li	s3,10

001050a0 <b0000000b10>:
  1050a0:	013d0863          	beq	s10,s3,1050b0 <b0000000b10+0x10>
  1050a4:	00000997          	auipc	s3,0x0
  1050a8:	fc898993          	add	s3,s3,-56 # 10506c <i0000000b04>
  1050ac:	00098567          	jalr	a0,s3
  1050b0:	00a00d13          	li	s10,10

001050b4 <i0000000b10>:
  1050b4:	400f5e33          	sra	t3,t5,zero

001050b8 <i0000000b11>:
  1050b8:	e9612023          	sw	s6,-384(sp)
  1050bc:	0000a117          	auipc	sp,0xa
  1050c0:	04410113          	add	sp,sp,68 # 10f100 <mem>
  1050c4:	00055337          	lui	t1,0x55
  1050c8:	45830313          	add	t1,t1,1112 # 55458 <tohost+0x35450>
  1050cc:	00610133          	add	sp,sp,t1

001050d0 <i0000000b12>:
  1050d0:	f5415003          	lhu	zero,-172(sp)

001050d4 <i0000000b13>:
  1050d4:	92211b03          	lh	s6,-1758(sp)

001050d8 <i0000000b14>:
  1050d8:	416f0f33          	sub	t5,t5,s6

001050dc <i0000000b15>:
  1050dc:	8d514e03          	lbu	t3,-1835(sp)

001050e0 <i0000000b16>:
  1050e0:	01627333          	and	t1,tp,s6

001050e4 <i0000000b17>:
  1050e4:	57057f93          	and	t6,a0,1392

001050e8 <i0000000b18>:
  1050e8:	3c914003          	lbu	zero,969(sp)
  1050ec:	0000a117          	auipc	sp,0xa
  1050f0:	01410113          	add	sp,sp,20 # 10f100 <mem>
  1050f4:	00011337          	lui	t1,0x11
  1050f8:	86830313          	add	t1,t1,-1944 # 10868 <_stack_len+0x8868>
  1050fc:	00610133          	add	sp,sp,t1

00105100 <i0000000b19>:
  105100:	ad610323          	sb	s6,-1338(sp)
  105104:	0000a117          	auipc	sp,0xa
  105108:	ffc10113          	add	sp,sp,-4 # 10f100 <mem>
  10510c:	00054337          	lui	t1,0x54
  105110:	87830313          	add	t1,t1,-1928 # 53878 <tohost+0x33870>
  105114:	00610133          	add	sp,sp,t1

00105118 <i0000000b1a>:
  105118:	1ce10e83          	lb	t4,462(sp)

0010511c <i0000000b1b>:
  10511c:	00a05b33          	srl	s6,zero,a0

00105120 <i0000000b1c>:
  105120:	010cdb13          	srl	s6,s9,0x10

00105124 <i0000000b1d>:
  105124:	3c710a83          	lb	s5,967(sp)

00105128 <i0000000b1e>:
  105128:	66e11b23          	sh	a4,1654(sp)

0010512c <i0000000b1f>:
  10512c:	016506b3          	add	a3,a0,s6

00105130 <i0000000b20>:
  105130:	2cd14503          	lbu	a0,717(sp)

00105134 <i0000000b21>:
  105134:	01653233          	sltu	tp,a0,s6

00105138 <i0000000b22>:
  105138:	c2c12d83          	lw	s11,-980(sp)
  10513c:	00a00913          	li	s2,10
  105140:	00a00d13          	li	s10,10

00105144 <b0000000b23>:
  105144:	00000033          	add	zero,zero,zero
  105148:	072d1663          	bne	s10,s2,1051b4 <i0000000b31>
  10514c:	00000033          	add	zero,zero,zero
  105150:	00a00d13          	li	s10,10

00105154 <i0000000b23>:
  105154:	ca88c013          	xor	zero,a7,-856

00105158 <i0000000b24>:
  105158:	e4c11b03          	lh	s6,-436(sp)

0010515c <i0000000b25>:
  10515c:	016f3b33          	sltu	s6,t5,s6

00105160 <i0000000b26>:
  105160:	6c636537          	lui	a0,0x6c636

00105164 <i0000000b27>:
  105164:	01969733          	sll	a4,a3,s9

00105168 <i0000000b28>:
  105168:	01ef3333          	sltu	t1,t5,t5

0010516c <i0000000b29>:
  10516c:	63615803          	lhu	a6,1590(sp)
  105170:	0000a117          	auipc	sp,0xa
  105174:	f9010113          	add	sp,sp,-112 # 10f100 <mem>
  105178:	00034337          	lui	t1,0x34
  10517c:	1c030313          	add	t1,t1,448 # 341c0 <tohost+0x141b8>
  105180:	00610133          	add	sp,sp,t1

00105184 <i0000000b2a>:
  105184:	32e10003          	lb	zero,814(sp)

00105188 <i0000000b2b>:
  105188:	e0914f83          	lbu	t6,-503(sp)

0010518c <i0000000b2c>:
  10518c:	01b36fb3          	or	t6,t1,s11

00105190 <i0000000b2d>:
  105190:	41b78533          	sub	a0,a5,s11

00105194 <i0000000b2e>:
  105194:	77f38037          	lui	zero,0x77f38

00105198 <i0000000b2f>:
  105198:	ad415783          	lhu	a5,-1324(sp)
  10519c:	0000a117          	auipc	sp,0xa
  1051a0:	f6410113          	add	sp,sp,-156 # 10f100 <mem>
  1051a4:	0000f337          	lui	t1,0xf
  1051a8:	33830313          	add	t1,t1,824 # f338 <_stack_len+0x7338>
  1051ac:	00610133          	add	sp,sp,t1

001051b0 <i0000000b30>:
  1051b0:	0d514003          	lbu	zero,213(sp)

001051b4 <i0000000b31>:
  1051b4:	65010503          	lb	a0,1616(sp)

001051b8 <i0000000b32>:
  1051b8:	01bfd693          	srl	a3,t6,0x1b

001051bc <i0000000b33>:
  1051bc:	4c012823          	sw	zero,1232(sp)

001051c0 <i0000000b34>:
  1051c0:	ec811303          	lh	t1,-312(sp)
  1051c4:	0000a117          	auipc	sp,0xa
  1051c8:	f3c10113          	add	sp,sp,-196 # 10f100 <mem>
  1051cc:	0000f337          	lui	t1,0xf
  1051d0:	cb830313          	add	t1,t1,-840 # ecb8 <_stack_len+0x6cb8>
  1051d4:	00610133          	add	sp,sp,t1

001051d8 <i0000000b35>:
  1051d8:	5f911923          	sh	s9,1522(sp)
  1051dc:	00c00e93          	li	t4,12
  1051e0:	001d0d13          	add	s10,s10,1

001051e4 <b0000000b36>:
  1051e4:	00000033          	add	zero,zero,zero
  1051e8:	fbdd42e3          	blt	s10,t4,10518c <i0000000b2c>
  1051ec:	00000033          	add	zero,zero,zero
  1051f0:	00a00d13          	li	s10,10

001051f4 <i0000000b36>:
  1051f4:	4127d513          	sra	a0,a5,0x12

001051f8 <i0000000b37>:
  1051f8:	000b6033          	or	zero,s6,zero

001051fc <i0000000b38>:
  1051fc:	019c2433          	slt	s0,s8,s9

00105200 <i0000000b39>:
  105200:	41fc0f33          	sub	t5,s8,t6

00105204 <i0000000b3a>:
  105204:	5ca12a23          	sw	a0,1492(sp)

00105208 <i0000000b3b>:
  105208:	016f0b33          	add	s6,t5,s6
  10520c:	0000a117          	auipc	sp,0xa
  105210:	ef410113          	add	sp,sp,-268 # 10f100 <mem>
  105214:	0001d337          	lui	t1,0x1d
  105218:	31830313          	add	t1,t1,792 # 1d318 <_stack_len+0x15318>
  10521c:	00610133          	add	sp,sp,t1

00105220 <i0000000b3c>:
  105220:	45212a23          	sw	s2,1108(sp)

00105224 <i0000000b3d>:
  105224:	74173d93          	sltiu	s11,a4,1857

00105228 <i0000000b3e>:
  105228:	8c510aa3          	sb	t0,-1835(sp)

0010522c <i0000000b3f>:
  10522c:	7b2bc3b7          	lui	t2,0x7b2bc

00105230 <i0000000b40>:
  105230:	01e05f33          	srl	t5,zero,t5
  105234:	0000a117          	auipc	sp,0xa
  105238:	ecc10113          	add	sp,sp,-308 # 10f100 <mem>
  10523c:	0006e337          	lui	t1,0x6e
  105240:	e3030313          	add	t1,t1,-464 # 6de30 <tohost+0x4de28>
  105244:	00610133          	add	sp,sp,t1

00105248 <i0000000b41>:
  105248:	fb510683          	lb	a3,-75(sp)

0010524c <i0000000b42>:
  10524c:	01201513          	sll	a0,zero,0x12
  105250:	0000a117          	auipc	sp,0xa
  105254:	eb010113          	add	sp,sp,-336 # 10f100 <mem>
  105258:	00054337          	lui	t1,0x54
  10525c:	02030313          	add	t1,t1,32 # 54020 <tohost+0x34018>
  105260:	00610133          	add	sp,sp,t1

00105264 <i0000000b43>:
  105264:	9f811f03          	lh	t5,-1544(sp)

00105268 <i0000000b44>:
  105268:	01624233          	xor	tp,tp,s6

0010526c <i0000000b45>:
  10526c:	78887513          	and	a0,a6,1928

00105270 <i0000000b46>:
  105270:	af612423          	sw	s6,-1304(sp)

00105274 <i0000000b47>:
  105274:	0075af33          	slt	t5,a1,t2

00105278 <i0000000b48>:
  105278:	10f12223          	sw	a5,260(sp)
  10527c:	00b00c13          	li	s8,11
  105280:	00a00d13          	li	s10,10

00105284 <b0000000b49>:
  105284:	00000033          	add	zero,zero,zero
  105288:	07ac5863          	bge	s8,s10,1052f8 <i0000000b4e>
  10528c:	00000033          	add	zero,zero,zero
  105290:	00a00d13          	li	s10,10
  105294:	0000a117          	auipc	sp,0xa
  105298:	e6c10113          	add	sp,sp,-404 # 10f100 <mem>
  10529c:	00048337          	lui	t1,0x48
  1052a0:	35830313          	add	t1,t1,856 # 48358 <tohost+0x28350>
  1052a4:	00610133          	add	sp,sp,t1

001052a8 <i0000000b49>:
  1052a8:	be812c03          	lw	s8,-1048(sp)

001052ac <i0000000b4a>:
  1052ac:	000554b3          	srl	s1,a0,zero
  1052b0:	0000a117          	auipc	sp,0xa
  1052b4:	e5010113          	add	sp,sp,-432 # 10f100 <mem>
  1052b8:	00022337          	lui	t1,0x22
  1052bc:	7c030313          	add	t1,t1,1984 # 227c0 <tohost+0x27b8>
  1052c0:	00610133          	add	sp,sp,t1

001052c4 <i0000000b4b>:
  1052c4:	2ec12183          	lw	gp,748(sp)

001052c8 <i0000000b4c>:
  1052c8:	00769b13          	sll	s6,a3,0x7
  1052cc:	0000a117          	auipc	sp,0xa
  1052d0:	e3410113          	add	sp,sp,-460 # 10f100 <mem>
  1052d4:	0006d337          	lui	t1,0x6d
  1052d8:	d2830313          	add	t1,t1,-728 # 6cd28 <tohost+0x4cd20>
  1052dc:	00610133          	add	sp,sp,t1

001052e0 <i0000000b4d>:
  1052e0:	36211503          	lh	a0,866(sp)
  1052e4:	0000a117          	auipc	sp,0xa
  1052e8:	e1c10113          	add	sp,sp,-484 # 10f100 <mem>
  1052ec:	00006337          	lui	t1,0x6
  1052f0:	d0830313          	add	t1,t1,-760 # 5d08 <_min_stack+0x3d08>
  1052f4:	00610133          	add	sp,sp,t1

001052f8 <i0000000b4e>:
  1052f8:	c7614783          	lbu	a5,-906(sp)

001052fc <i0000000b4f>:
  1052fc:	547b6013          	or	zero,s6,1351

00105300 <i0000000b50>:
  105300:	21911823          	sh	s9,528(sp)

00105304 <i0000000b51>:
  105304:	a2f14b03          	lbu	s6,-1489(sp)

00105308 <i0000000b52>:
  105308:	00a52033          	slt	zero,a0,a0

0010530c <i0000000b53>:
  10530c:	41d58f33          	sub	t5,a1,t4

00105310 <i0000000b54>:
  105310:	b5215883          	lhu	a7,-1198(sp)

00105314 <i0000000b55>:
  105314:	816b3513          	sltiu	a0,s6,-2026

00105318 <i0000000b56>:
  105318:	00899533          	sll	a0,s3,s0

0010531c <i0000000b57>:
  10531c:	019ba033          	slt	zero,s7,s9

00105320 <i0000000b58>:
  105320:	000202b3          	add	t0,tp,zero

00105324 <i0000000b59>:
  105324:	4b914c83          	lbu	s9,1209(sp)

00105328 <i0000000b5a>:
  105328:	52010da3          	sb	zero,1339(sp)

0010532c <i0000000b5b>:
  10532c:	41cf5213          	sra	tp,t5,0x1c
  105330:	00b00c13          	li	s8,11
  105334:	00a00d13          	li	s10,10

00105338 <b0000000b5c>:
  105338:	00000033          	add	zero,zero,zero
  10533c:	03ac5263          	bge	s8,s10,105360 <i0000000b62>
  105340:	00000033          	add	zero,zero,zero
  105344:	00a00d13          	li	s10,10

00105348 <i0000000b5c>:
  105348:	31a15883          	lhu	a7,794(sp)

0010534c <i0000000b5d>:
  10534c:	01657b33          	and	s6,a0,s6

00105350 <i0000000b5e>:
  105350:	41e25233          	sra	tp,tp,t5

00105354 <i0000000b5f>:
  105354:	70011323          	sh	zero,1798(sp)

00105358 <i0000000b60>:
  105358:	000b6533          	or	a0,s6,zero

0010535c <i0000000b61>:
  10535c:	53c10203          	lb	tp,1340(sp)

00105360 <i0000000b62>:
  105360:	00006333          	or	t1,zero,zero

00105364 <i0000000b63>:
  105364:	6b610923          	sb	s6,1714(sp)

00105368 <i0000000b64>:
  105368:	12526e93          	or	t4,tp,293
  10536c:	0000a117          	auipc	sp,0xa
  105370:	d9410113          	add	sp,sp,-620 # 10f100 <mem>
  105374:	00031337          	lui	t1,0x31
  105378:	66030313          	add	t1,t1,1632 # 31660 <tohost+0x11658>
  10537c:	00610133          	add	sp,sp,t1

00105380 <i0000000b65>:
  105380:	23e11123          	sh	t5,546(sp)

00105384 <i0000000b66>:
  105384:	5ac12503          	lw	a0,1452(sp)
  105388:	0000a117          	auipc	sp,0xa
  10538c:	d7810113          	add	sp,sp,-648 # 10f100 <mem>
  105390:	00046337          	lui	t1,0x46
  105394:	f9830313          	add	t1,t1,-104 # 45f98 <tohost+0x25f90>
  105398:	00610133          	add	sp,sp,t1

0010539c <i0000000b67>:
  10539c:	12f108a3          	sb	a5,305(sp)

001053a0 <i0000000b68>:
  1053a0:	8c754213          	xor	tp,a0,-1849

001053a4 <i0000000b69>:
  1053a4:	00101193          	sll	gp,zero,0x1

001053a8 <i0000000b6a>:
  1053a8:	5bb1c217          	auipc	tp,0x5bb1c

001053ac <i0000000b6b>:
  1053ac:	41625b33          	sra	s6,tp,s6

001053b0 <i0000000b6c>:
  1053b0:	01e23333          	sltu	t1,tp,t5

001053b4 <i0000000b6d>:
  1053b4:	2ac57893          	and	a7,a0,684

001053b8 <i0000000b6e>:
  1053b8:	642a6493          	or	s1,s4,1602
  1053bc:	00900993          	li	s3,9
  1053c0:	00a00d13          	li	s10,10

001053c4 <b0000000b6f>:
  1053c4:	00000033          	add	zero,zero,zero
  1053c8:	073d4663          	blt	s10,s3,105434 <i0000000b7d>
  1053cc:	00000033          	add	zero,zero,zero
  1053d0:	00a00d13          	li	s10,10

001053d4 <i0000000b6f>:
  1053d4:	a7314003          	lbu	zero,-1421(sp)

001053d8 <i0000000b70>:
  1053d8:	0ce63517          	auipc	a0,0xce63

001053dc <i0000000b71>:
  1053dc:	10610a83          	lb	s5,262(sp)

001053e0 <i0000000b72>:
  1053e0:	00621213          	sll	tp,tp,0x6

001053e4 <i0000000b73>:
  1053e4:	3a86c813          	xor	a6,a3,936

001053e8 <i0000000b74>:
  1053e8:	92012803          	lw	a6,-1760(sp)

001053ec <i0000000b75>:
  1053ec:	02710803          	lb	a6,39(sp)

001053f0 <i0000000b76>:
  1053f0:	00fb1f13          	sll	t5,s6,0xf
  1053f4:	0000a117          	auipc	sp,0xa
  1053f8:	d0c10113          	add	sp,sp,-756 # 10f100 <mem>
  1053fc:	00023337          	lui	t1,0x23
  105400:	60030313          	add	t1,t1,1536 # 23600 <tohost+0x35f8>
  105404:	00610133          	add	sp,sp,t1

00105408 <i0000000b77>:
  105408:	68011b23          	sh	zero,1686(sp)

0010540c <i0000000b78>:
  10540c:	01ef3233          	sltu	tp,t5,t5

00105410 <i0000000b79>:
  105410:	003c4933          	xor	s2,s8,gp

00105414 <i0000000b7a>:
  105414:	27200f13          	li	t5,626

00105418 <i0000000b7b>:
  105418:	01c51513          	sll	a0,a0,0x1c
  10541c:	0000a117          	auipc	sp,0xa
  105420:	ce410113          	add	sp,sp,-796 # 10f100 <mem>
  105424:	00033337          	lui	t1,0x33
  105428:	e5030313          	add	t1,t1,-432 # 32e50 <tohost+0x12e48>
  10542c:	00610133          	add	sp,sp,t1

00105430 <i0000000b7c>:
  105430:	98614f83          	lbu	t6,-1658(sp)

00105434 <i0000000b7d>:
  105434:	9cef2513          	slti	a0,t5,-1586

00105438 <i0000000b7e>:
  105438:	04910203          	lb	tp,73(sp)

0010543c <i0000000b7f>:
  10543c:	01ef3a33          	sltu	s4,t5,t5

00105440 <i0000000b80>:
  105440:	e4fb3513          	sltiu	a0,s6,-433

00105444 <i0000000b81>:
  105444:	f1411423          	sh	s4,-248(sp)
  105448:	00b00b13          	li	s6,11
  10544c:	00a00d13          	li	s10,10

00105450 <b0000000b82>:
  105450:	00000033          	add	zero,zero,zero
  105454:	036d1063          	bne	s10,s6,105474 <i0000000b87>
  105458:	00000033          	add	zero,zero,zero
  10545c:	00a00d13          	li	s10,10

00105460 <i0000000b82>:
  105460:	40bf5c13          	sra	s8,t5,0xb

00105464 <i0000000b83>:
  105464:	202db313          	sltiu	t1,s11,514

00105468 <i0000000b84>:
  105468:	014ad533          	srl	a0,s5,s4

0010546c <i0000000b85>:
  10546c:	01e04233          	xor	tp,zero,t5

00105470 <i0000000b86>:
  105470:	7bf12223          	sw	t6,1956(sp)

00105474 <i0000000b87>:
  105474:	00155513          	srl	a0,a0,0x1
  105478:	0000a117          	auipc	sp,0xa
  10547c:	c8810113          	add	sp,sp,-888 # 10f100 <mem>
  105480:	0000a337          	lui	t1,0xa
  105484:	10830313          	add	t1,t1,264 # a108 <_stack_len+0x2108>
  105488:	00610133          	add	sp,sp,t1

0010548c <i0000000b88>:
  10548c:	dc710b23          	sb	t2,-554(sp)

00105490 <i0000000b89>:
  105490:	01010323          	sb	a6,6(sp)

00105494 <i0000000b8a>:
  105494:	007ee333          	or	t1,t4,t2

00105498 <i0000000b8b>:
  105498:	01091533          	sll	a0,s2,a6

0010549c <i0000000b8c>:
  10549c:	2bb9c293          	xor	t0,s3,699
  1054a0:	0000a117          	auipc	sp,0xa
  1054a4:	c6010113          	add	sp,sp,-928 # 10f100 <mem>
  1054a8:	00038337          	lui	t1,0x38
  1054ac:	f0030313          	add	t1,t1,-256 # 37f00 <tohost+0x17ef8>
  1054b0:	00610133          	add	sp,sp,t1

001054b4 <i0000000b8d>:
  1054b4:	896103a3          	sb	s6,-1913(sp)

001054b8 <i0000000b8e>:
  1054b8:	d2610f03          	lb	t5,-730(sp)

001054bc <i0000000b8f>:
  1054bc:	56514b03          	lbu	s6,1381(sp)

001054c0 <i0000000b90>:
  1054c0:	df011203          	lh	tp,-528(sp)

001054c4 <i0000000b91>:
  1054c4:	01e203b3          	add	t2,tp,t5

001054c8 <i0000000b92>:
  1054c8:	27c12f03          	lw	t5,636(sp)

001054cc <i0000000b93>:
  1054cc:	90911023          	sh	s1,-1792(sp)

001054d0 <i0000000b94>:
  1054d0:	f6011303          	lh	t1,-160(sp)
  1054d4:	00c00b13          	li	s6,12
  1054d8:	001d0d13          	add	s10,s10,1

001054dc <b0000000b95>:
  1054dc:	00000033          	add	zero,zero,zero
  1054e0:	f9ab5ae3          	bge	s6,s10,105474 <i0000000b87>
  1054e4:	00000033          	add	zero,zero,zero
  1054e8:	00a00d13          	li	s10,10
  1054ec:	0000a117          	auipc	sp,0xa
  1054f0:	c1410113          	add	sp,sp,-1004 # 10f100 <mem>
  1054f4:	00051337          	lui	t1,0x51
  1054f8:	72030313          	add	t1,t1,1824 # 51720 <tohost+0x31718>
  1054fc:	00610133          	add	sp,sp,t1

00105500 <i0000000b95>:
  105500:	18c12e83          	lw	t4,396(sp)

00105504 <i0000000b96>:
  105504:	40975b33          	sra	s6,a4,s1

00105508 <i0000000b97>:
  105508:	3b43a297          	auipc	t0,0x3b43a

0010550c <i0000000b98>:
  10550c:	a3e11503          	lh	a0,-1474(sp)

00105510 <i0000000b99>:
  105510:	b76b2493          	slti	s1,s6,-1162

00105514 <i0000000b9a>:
  105514:	d4012e83          	lw	t4,-704(sp)
  105518:	0000a117          	auipc	sp,0xa
  10551c:	be810113          	add	sp,sp,-1048 # 10f100 <mem>
  105520:	0005a337          	lui	t1,0x5a
  105524:	52830313          	add	t1,t1,1320 # 5a528 <tohost+0x3a520>
  105528:	00610133          	add	sp,sp,t1

0010552c <i0000000b9b>:
  10552c:	58812c83          	lw	s9,1416(sp)

00105530 <i0000000b9c>:
  105530:	b8012423          	sw	zero,-1144(sp)

00105534 <i0000000b9d>:
  105534:	01e533b3          	sltu	t2,a0,t5

00105538 <i0000000b9e>:
  105538:	60a14983          	lbu	s3,1546(sp)

0010553c <i0000000b9f>:
  10553c:	11206c93          	or	s9,zero,274

00105540 <i0000000ba0>:
  105540:	018be233          	or	tp,s7,s8

00105544 <i0000000ba1>:
  105544:	40ab5b33          	sra	s6,s6,a0

00105548 <i0000000ba2>:
  105548:	52aaa993          	slti	s3,s5,1322

0010554c <i0000000ba3>:
  10554c:	016f5533          	srl	a0,t5,s6

00105550 <i0000000ba4>:
  105550:	7e815203          	lhu	tp,2024(sp)

00105554 <i0000000ba5>:
  105554:	41bc53b3          	sra	t2,s8,s11

00105558 <i0000000ba6>:
  105558:	86ef6613          	or	a2,t5,-1938

0010555c <i0000000ba7>:
  10555c:	f3510f03          	lb	t5,-203(sp)
  105560:	00a00a13          	li	s4,10

00105564 <b0000000ba8>:
  105564:	00000033          	add	zero,zero,zero
  105568:	fd4d18e3          	bne	s10,s4,105538 <i0000000b9e>
  10556c:	00000033          	add	zero,zero,zero
  105570:	00a00d13          	li	s10,10

00105574 <i0000000ba8>:
  105574:	edc11f03          	lh	t5,-292(sp)

00105578 <i0000000ba9>:
  105578:	41e05533          	sra	a0,zero,t5

0010557c <i0000000baa>:
  10557c:	95214503          	lbu	a0,-1710(sp)

00105580 <i0000000bab>:
  105580:	d2900193          	li	gp,-727

00105584 <i0000000bac>:
  105584:	d0020f13          	add	t5,tp,-768 # 5bc210a8 <fromhost+0x5ba99098>

00105588 <i0000000bad>:
  105588:	3be10ca3          	sb	t5,953(sp)

0010558c <i0000000bae>:
  10558c:	72012b03          	lw	s6,1824(sp)

00105590 <i0000000baf>:
  105590:	99015183          	lhu	gp,-1648(sp)

00105594 <i0000000bb0>:
  105594:	40a202b3          	sub	t0,tp,a0

00105598 <i0000000bb1>:
  105598:	27b10703          	lb	a4,635(sp)

0010559c <i0000000bb2>:
  10559c:	21f10b03          	lb	s6,543(sp)

001055a0 <i0000000bb3>:
  1055a0:	0039cb33          	xor	s6,s3,gp

001055a4 <i0000000bb4>:
  1055a4:	6a42f013          	and	zero,t0,1700

001055a8 <i0000000bb5>:
  1055a8:	2a611503          	lh	a0,678(sp)

001055ac <i0000000bb6>:
  1055ac:	e4a12823          	sw	a0,-432(sp)

001055b0 <i0000000bb7>:
  1055b0:	a6215503          	lhu	a0,-1438(sp)
  1055b4:	0000a117          	auipc	sp,0xa
  1055b8:	b4c10113          	add	sp,sp,-1204 # 10f100 <mem>
  1055bc:	00023337          	lui	t1,0x23
  1055c0:	f1030313          	add	t1,t1,-240 # 22f10 <tohost+0x2f08>
  1055c4:	00610133          	add	sp,sp,t1

001055c8 <i0000000bb8>:
  1055c8:	be514b03          	lbu	s6,-1051(sp)

001055cc <i0000000bb9>:
  1055cc:	01741533          	sll	a0,s0,s7

001055d0 <i0000000bba>:
  1055d0:	01eb3b33          	sltu	s6,s6,t5
  1055d4:	00c00c13          	li	s8,12
  1055d8:	001d0d13          	add	s10,s10,1

001055dc <b0000000bbb>:
  1055dc:	00000033          	add	zero,zero,zero
  1055e0:	fb8d4ae3          	blt	s10,s8,105594 <i0000000bb0>
  1055e4:	00000033          	add	zero,zero,zero
  1055e8:	00a00d13          	li	s10,10
  1055ec:	0000a117          	auipc	sp,0xa
  1055f0:	b1410113          	add	sp,sp,-1260 # 10f100 <mem>
  1055f4:	0006a337          	lui	t1,0x6a
  1055f8:	8e030313          	add	t1,t1,-1824 # 698e0 <tohost+0x498d8>
  1055fc:	00610133          	add	sp,sp,t1

00105600 <i0000000bbb>:
  105600:	26d14583          	lbu	a1,621(sp)

00105604 <i0000000bbc>:
  105604:	9c615003          	lhu	zero,-1594(sp)

00105608 <i0000000bbd>:
  105608:	00b11323          	sh	a1,6(sp)

0010560c <i0000000bbe>:
  10560c:	adc11c23          	sh	t3,-1320(sp)

00105610 <i0000000bbf>:
  105610:	f70c7b13          	and	s6,s8,-144
  105614:	0000a117          	auipc	sp,0xa
  105618:	aec10113          	add	sp,sp,-1300 # 10f100 <mem>
  10561c:	0003e337          	lui	t1,0x3e
  105620:	ec030313          	add	t1,t1,-320 # 3dec0 <tohost+0x1deb8>
  105624:	00610133          	add	sp,sp,t1

00105628 <i0000000bc0>:
  105628:	1a615b03          	lhu	s6,422(sp)

0010562c <i0000000bc1>:
  10562c:	7b023f13          	sltiu	t5,tp,1968

00105630 <i0000000bc2>:
  105630:	5a0ea613          	slti	a2,t4,1440

00105634 <i0000000bc3>:
  105634:	94a14203          	lbu	tp,-1718(sp)

00105638 <i0000000bc4>:
  105638:	00a95213          	srl	tp,s2,0xa

0010563c <i0000000bc5>:
  10563c:	d8211683          	lh	a3,-638(sp)

00105640 <i0000000bc6>:
  105640:	0103eb33          	or	s6,t2,a6

00105644 <i0000000bc7>:
  105644:	f3612423          	sw	s6,-216(sp)

00105648 <i0000000bc8>:
  105648:	c8f12823          	sw	a5,-880(sp)

0010564c <i0000000bc9>:
  10564c:	11104013          	xor	zero,zero,273

00105650 <i0000000bca>:
  105650:	01f813b3          	sll	t2,a6,t6

00105654 <i0000000bcb>:
  105654:	aa414e83          	lbu	t4,-1372(sp)

00105658 <i0000000bcc>:
  105658:	a1412223          	sw	s4,-1532(sp)

0010565c <i0000000bcd>:
  10565c:	fac14383          	lbu	t2,-84(sp)
  105660:	00900f93          	li	t6,9
  105664:	00a00d13          	li	s10,10

00105668 <b0000000bce>:
  105668:	00000033          	add	zero,zero,zero
  10566c:	07fd4463          	blt	s10,t6,1056d4 <i0000000bdb>
  105670:	00000033          	add	zero,zero,zero
  105674:	00a00d13          	li	s10,10

00105678 <i0000000bce>:
  105678:	4177d393          	sra	t2,a5,0x17
  10567c:	0000a117          	auipc	sp,0xa
  105680:	a8410113          	add	sp,sp,-1404 # 10f100 <mem>
  105684:	00061337          	lui	t1,0x61
  105688:	2a030313          	add	t1,t1,672 # 612a0 <tohost+0x41298>
  10568c:	00610133          	add	sp,sp,t1

00105690 <i0000000bcf>:
  105690:	53611923          	sh	s6,1330(sp)

00105694 <i0000000bd0>:
  105694:	84411323          	sh	tp,-1978(sp)

00105698 <i0000000bd1>:
  105698:	000f1813          	sll	a6,t5,0x0

0010569c <i0000000bd2>:
  10569c:	29411a03          	lh	s4,660(sp)
  1056a0:	0000a117          	auipc	sp,0xa
  1056a4:	a6010113          	add	sp,sp,-1440 # 10f100 <mem>
  1056a8:	0000e337          	lui	t1,0xe
  1056ac:	e0830313          	add	t1,t1,-504 # de08 <_stack_len+0x5e08>
  1056b0:	00610133          	add	sp,sp,t1

001056b4 <i0000000bd3>:
  1056b4:	0ec12d83          	lw	s11,236(sp)

001056b8 <i0000000bd4>:
  1056b8:	084f2e13          	slti	t3,t5,132

001056bc <i0000000bd5>:
  1056bc:	00453f33          	sltu	t5,a0,tp

001056c0 <i0000000bd6>:
  1056c0:	8b211b03          	lh	s6,-1870(sp)

001056c4 <i0000000bd7>:
  1056c4:	22d12a23          	sw	a3,564(sp)

001056c8 <i0000000bd8>:
  1056c8:	54b94b13          	xor	s6,s2,1355

001056cc <i0000000bd9>:
  1056cc:	d6ac2d93          	slti	s11,s8,-662

001056d0 <i0000000bda>:
  1056d0:	009b6513          	or	a0,s6,9

001056d4 <i0000000bdb>:
  1056d4:	001b1413          	sll	s0,s6,0x1

001056d8 <i0000000bdc>:
  1056d8:	0186e4b3          	or	s1,a3,s8

001056dc <i0000000bdd>:
  1056dc:	00305213          	srl	tp,zero,0x3

001056e0 <i0000000bde>:
  1056e0:	fc010f23          	sb	zero,-34(sp)

001056e4 <i0000000bdf>:
  1056e4:	00425a33          	srl	s4,tp,tp

001056e8 <i0000000be0>:
  1056e8:	fe912a23          	sw	s1,-12(sp)
  1056ec:	00b00c93          	li	s9,11
  1056f0:	00a00d13          	li	s10,10

001056f4 <b0000000be1>:
  1056f4:	00000033          	add	zero,zero,zero
  1056f8:	079d1863          	bne	s10,s9,105768 <i0000000beb>
  1056fc:	00000033          	add	zero,zero,zero
  105700:	00a00d13          	li	s10,10

00105704 <i0000000be1>:
  105704:	d6815203          	lhu	tp,-664(sp)

00105708 <i0000000be2>:
  105708:	01652e33          	slt	t3,a0,s6

0010570c <i0000000be3>:
  10570c:	00955213          	srl	tp,a0,0x9

00105710 <i0000000be4>:
  105710:	416b5c33          	sra	s8,s6,s6
  105714:	0000a117          	auipc	sp,0xa
  105718:	9ec10113          	add	sp,sp,-1556 # 10f100 <mem>
  10571c:	00014337          	lui	t1,0x14
  105720:	6e830313          	add	t1,t1,1768 # 146e8 <_stack_len+0xc6e8>
  105724:	00610133          	add	sp,sp,t1

00105728 <i0000000be5>:
  105728:	3ac11623          	sh	a2,940(sp)
  10572c:	0000a117          	auipc	sp,0xa
  105730:	9d410113          	add	sp,sp,-1580 # 10f100 <mem>
  105734:	0002b337          	lui	t1,0x2b
  105738:	bc030313          	add	t1,t1,-1088 # 2abc0 <tohost+0xabb8>
  10573c:	00610133          	add	sp,sp,t1

00105740 <i0000000be6>:
  105740:	84a11b23          	sh	a0,-1962(sp)

00105744 <i0000000be7>:
  105744:	019ec633          	xor	a2,t4,s9

00105748 <i0000000be8>:
  105748:	09411483          	lh	s1,148(sp)

0010574c <i0000000be9>:
  10574c:	00af3033          	sltu	zero,t5,a0

00105750 <i0000000bea>:
  105750:	f01e0413          	add	s0,t3,-255
  105754:	0000a117          	auipc	sp,0xa
  105758:	9ac10113          	add	sp,sp,-1620 # 10f100 <mem>
  10575c:	00022337          	lui	t1,0x22
  105760:	d2030313          	add	t1,t1,-736 # 21d20 <tohost+0x1d18>
  105764:	00610133          	add	sp,sp,t1

00105768 <i0000000beb>:
  105768:	a6a12a23          	sw	a0,-1420(sp)

0010576c <i0000000bec>:
  10576c:	c9610ba3          	sb	s6,-873(sp)
  105770:	0000a117          	auipc	sp,0xa
  105774:	99010113          	add	sp,sp,-1648 # 10f100 <mem>
  105778:	00002337          	lui	t1,0x2
  10577c:	61830313          	add	t1,t1,1560 # 2618 <_min_stack+0x618>
  105780:	00610133          	add	sp,sp,t1

00105784 <i0000000bed>:
  105784:	ec0109a3          	sb	zero,-301(sp)

00105788 <i0000000bee>:
  105788:	007389b3          	add	s3,t2,t2
  10578c:	0000a117          	auipc	sp,0xa
  105790:	97410113          	add	sp,sp,-1676 # 10f100 <mem>
  105794:	00018337          	lui	t1,0x18
  105798:	09030313          	add	t1,t1,144 # 18090 <_stack_len+0x10090>
  10579c:	00610133          	add	sp,sp,t1

001057a0 <i0000000bef>:
  1057a0:	70c10183          	lb	gp,1804(sp)

001057a4 <i0000000bf0>:
  1057a4:	e5910a83          	lb	s5,-423(sp)

001057a8 <i0000000bf1>:
  1057a8:	bcf20b13          	add	s6,tp,-1073 # fffffbcf <fromhost+0xffe77bbf>

001057ac <i0000000bf2>:
  1057ac:	647f4013          	xor	zero,t5,1607

001057b0 <i0000000bf3>:
  1057b0:	016f6233          	or	tp,t5,s6

001057b4 <b0000000bf4>:
  1057b4:	00000b97          	auipc	s7,0x0
  1057b8:	048b8b93          	add	s7,s7,72 # 1057fc <i0000000bfe>
  1057bc:	000b8567          	jalr	a0,s7

001057c0 <i0000000bf4>:
  1057c0:	26812003          	lw	zero,616(sp)
  1057c4:	0000a117          	auipc	sp,0xa
  1057c8:	93c10113          	add	sp,sp,-1732 # 10f100 <mem>
  1057cc:	0000b337          	lui	t1,0xb
  1057d0:	84030313          	add	t1,t1,-1984 # a840 <_stack_len+0x2840>
  1057d4:	00610133          	add	sp,sp,t1

001057d8 <i0000000bf5>:
  1057d8:	39e11623          	sh	t5,908(sp)

001057dc <i0000000bf6>:
  1057dc:	08bf4513          	xor	a0,t5,139

001057e0 <i0000000bf7>:
  1057e0:	4cd10583          	lb	a1,1229(sp)

001057e4 <i0000000bf8>:
  1057e4:	bd2b8b13          	add	s6,s7,-1070

001057e8 <i0000000bf9>:
  1057e8:	26615003          	lhu	zero,614(sp)

001057ec <i0000000bfa>:
  1057ec:	1f35c297          	auipc	t0,0x1f35c

001057f0 <i0000000bfb>:
  1057f0:	01250a13          	add	s4,a0,18 # cf683ea <fromhost+0xcde03da>

001057f4 <i0000000bfc>:
  1057f4:	38e15b83          	lhu	s7,910(sp)

001057f8 <i0000000bfd>:
  1057f8:	5e494b93          	xor	s7,s2,1508

001057fc <i0000000bfe>:
  1057fc:	ee015b03          	lhu	s6,-288(sp)

00105800 <i0000000bff>:
  105800:	6da23613          	sltiu	a2,tp,1754

00105804 <i0000000c00>:
  105804:	16434f13          	xor	t5,t1,356
  105808:	0000a117          	auipc	sp,0xa
  10580c:	8f810113          	add	sp,sp,-1800 # 10f100 <mem>
  105810:	00028337          	lui	t1,0x28
  105814:	9c830313          	add	t1,t1,-1592 # 279c8 <tohost+0x79c0>
  105818:	00610133          	add	sp,sp,t1

0010581c <i0000000c01>:
  10581c:	f7a15703          	lhu	a4,-134(sp)

00105820 <i0000000c02>:
  105820:	ac011d83          	lh	s11,-1344(sp)

00105824 <i0000000c03>:
  105824:	bbcf3713          	sltiu	a4,t5,-1092
  105828:	0000a117          	auipc	sp,0xa
  10582c:	8d810113          	add	sp,sp,-1832 # 10f100 <mem>
  105830:	0004b337          	lui	t1,0x4b
  105834:	14030313          	add	t1,t1,320 # 4b140 <tohost+0x2b138>
  105838:	00610133          	add	sp,sp,t1

0010583c <i0000000c04>:
  10583c:	95710423          	sb	s7,-1720(sp)

00105840 <i0000000c05>:
  105840:	00049013          	sll	zero,s1,0x0

00105844 <i0000000c06>:
  105844:	d8015583          	lhu	a1,-640(sp)
  105848:	00c00e93          	li	t4,12
  10584c:	001d0d13          	add	s10,s10,1

00105850 <b0000000c07>:
  105850:	00000033          	add	zero,zero,zero
  105854:	f9aedee3          	bge	t4,s10,1057f0 <i0000000bfb>
  105858:	00000033          	add	zero,zero,zero
  10585c:	00a00d13          	li	s10,10

00105860 <i0000000c07>:
  105860:	413e8033          	sub	zero,t4,s3

00105864 <i0000000c08>:
  105864:	65012c03          	lw	s8,1616(sp)

00105868 <i0000000c09>:
  105868:	7bc12a23          	sw	t3,1972(sp)

0010586c <i0000000c0a>:
  10586c:	00e4b533          	sltu	a0,s1,a4
  105870:	0000a117          	auipc	sp,0xa
  105874:	89010113          	add	sp,sp,-1904 # 10f100 <mem>
  105878:	00028337          	lui	t1,0x28
  10587c:	d1830313          	add	t1,t1,-744 # 27d18 <tohost+0x7d10>
  105880:	00610133          	add	sp,sp,t1

00105884 <i0000000c0b>:
  105884:	da411e23          	sh	tp,-580(sp)

00105888 <i0000000c0c>:
  105888:	f0412003          	lw	zero,-252(sp)

0010588c <i0000000c0d>:
  10588c:	00b21013          	sll	zero,tp,0xb

00105890 <i0000000c0e>:
  105890:	01798433          	add	s0,s3,s7

00105894 <i0000000c0f>:
  105894:	5af10e03          	lb	t3,1455(sp)

00105898 <i0000000c10>:
  105898:	017e1f33          	sll	t5,t3,s7

0010589c <i0000000c11>:
  10589c:	009a5993          	srl	s3,s4,0x9

001058a0 <i0000000c12>:
  1058a0:	00a04cb3          	xor	s9,zero,a0

001058a4 <i0000000c13>:
  1058a4:	1c314283          	lbu	t0,451(sp)

001058a8 <i0000000c14>:
  1058a8:	a9c12503          	lw	a0,-1380(sp)

001058ac <i0000000c15>:
  1058ac:	e3f10c03          	lb	s8,-449(sp)

001058b0 <i0000000c16>:
  1058b0:	7a411603          	lh	a2,1956(sp)

001058b4 <i0000000c17>:
  1058b4:	01622f33          	slt	t5,tp,s6

001058b8 <i0000000c18>:
  1058b8:	41e55f13          	sra	t5,a0,0x1e

001058bc <i0000000c19>:
  1058bc:	00d58233          	add	tp,a1,a3
  1058c0:	00c00c93          	li	s9,12
  1058c4:	001d0d13          	add	s10,s10,1

001058c8 <b0000000c1a>:
  1058c8:	00000033          	add	zero,zero,zero
  1058cc:	fdacdee3          	bge	s9,s10,1058a8 <i0000000c14>
  1058d0:	00000033          	add	zero,zero,zero
  1058d4:	00a00d13          	li	s10,10

001058d8 <i0000000c1a>:
  1058d8:	80d8ab13          	slti	s6,a7,-2035

001058dc <i0000000c1b>:
  1058dc:	407f8033          	sub	zero,t6,t2

001058e0 <i0000000c1c>:
  1058e0:	33527013          	and	zero,tp,821
  1058e4:	0000a117          	auipc	sp,0xa
  1058e8:	81c10113          	add	sp,sp,-2020 # 10f100 <mem>
  1058ec:	0003d337          	lui	t1,0x3d
  1058f0:	21830313          	add	t1,t1,536 # 3d218 <tohost+0x1d210>
  1058f4:	00610133          	add	sp,sp,t1

001058f8 <i0000000c1d>:
  1058f8:	c8815583          	lhu	a1,-888(sp)

001058fc <i0000000c1e>:
  1058fc:	7ac12183          	lw	gp,1964(sp)
  105900:	0000a117          	auipc	sp,0xa
  105904:	80010113          	add	sp,sp,-2048 # 10f100 <mem>
  105908:	0004e337          	lui	t1,0x4e
  10590c:	ea830313          	add	t1,t1,-344 # 4dea8 <tohost+0x2dea0>
  105910:	00610133          	add	sp,sp,t1

00105914 <i0000000c1f>:
  105914:	1a012823          	sw	zero,432(sp)

00105918 <i0000000c20>:
  105918:	40325513          	sra	a0,tp,0x3

0010591c <i0000000c21>:
  10591c:	6ec11c23          	sh	a2,1784(sp)
  105920:	00009117          	auipc	sp,0x9
  105924:	7e010113          	add	sp,sp,2016 # 10f100 <mem>
  105928:	00042337          	lui	t1,0x42
  10592c:	45030313          	add	t1,t1,1104 # 42450 <tohost+0x22448>
  105930:	00610133          	add	sp,sp,t1

00105934 <i0000000c22>:
  105934:	964107a3          	sb	tp,-1681(sp)

00105938 <i0000000c23>:
  105938:	47012b83          	lw	s7,1136(sp)

0010593c <i0000000c24>:
  10593c:	00585393          	srl	t2,a6,0x5

00105940 <i0000000c25>:
  105940:	3cc15183          	lhu	gp,972(sp)

00105944 <i0000000c26>:
  105944:	00452bb3          	slt	s7,a0,tp

00105948 <i0000000c27>:
  105948:	dc410423          	sb	tp,-568(sp)
  10594c:	00009117          	auipc	sp,0x9
  105950:	7b410113          	add	sp,sp,1972 # 10f100 <mem>
  105954:	0002a337          	lui	t1,0x2a
  105958:	05030313          	add	t1,t1,80 # 2a050 <tohost+0xa048>
  10595c:	00610133          	add	sp,sp,t1

00105960 <i0000000c28>:
  105960:	34b10ba3          	sb	a1,855(sp)

00105964 <i0000000c29>:
  105964:	4153d893          	sra	a7,t2,0x15

00105968 <i0000000c2a>:
  105968:	59015b83          	lhu	s7,1424(sp)

0010596c <i0000000c2b>:
  10596c:	001a9313          	sll	t1,s5,0x1
  105970:	00009117          	auipc	sp,0x9
  105974:	79010113          	add	sp,sp,1936 # 10f100 <mem>
  105978:	00007337          	lui	t1,0x7
  10597c:	de830313          	add	t1,t1,-536 # 6de8 <_min_stack+0x4de8>
  105980:	00610133          	add	sp,sp,t1

00105984 <i0000000c2c>:
  105984:	0ba14683          	lbu	a3,186(sp)

00105988 <b0000000c2d>:
  105988:	0240056f          	jal	a0,1059ac <i0000000c35>

0010598c <i0000000c2d>:
  10598c:	01eb3233          	sltu	tp,s6,t5

00105990 <i0000000c2e>:
  105990:	a1a11603          	lh	a2,-1510(sp)

00105994 <i0000000c2f>:
  105994:	019a16b3          	sll	a3,s4,s9

00105998 <i0000000c30>:
  105998:	544b7b93          	and	s7,s6,1348

0010599c <i0000000c31>:
  10599c:	51806013          	or	zero,zero,1304

001059a0 <i0000000c32>:
  1059a0:	00a528b3          	slt	a7,a0,a0

001059a4 <i0000000c33>:
  1059a4:	c7e10e03          	lb	t3,-898(sp)

001059a8 <i0000000c34>:
  1059a8:	aeeb3513          	sltiu	a0,s6,-1298

001059ac <i0000000c35>:
  1059ac:	010a3533          	sltu	a0,s4,a6

001059b0 <i0000000c36>:
  1059b0:	afd12623          	sw	t4,-1300(sp)

001059b4 <i0000000c37>:
  1059b4:	018e5933          	srl	s2,t3,s8

001059b8 <i0000000c38>:
  1059b8:	411f5013          	sra	zero,t5,0x11

001059bc <i0000000c39>:
  1059bc:	01733033          	sltu	zero,t1,s7

001059c0 <i0000000c3a>:
  1059c0:	a3812983          	lw	s3,-1480(sp)

001059c4 <i0000000c3b>:
  1059c4:	04452013          	slti	zero,a0,68

001059c8 <i0000000c3c>:
  1059c8:	41a9d693          	sra	a3,s3,0x1a

001059cc <i0000000c3d>:
  1059cc:	7c015383          	lhu	t2,1984(sp)

001059d0 <i0000000c3e>:
  1059d0:	3d620f13          	add	t5,tp,982 # 3d6 <_min_stack-0x1c2a>

001059d4 <i0000000c3f>:
  1059d4:	b5215c83          	lhu	s9,-1198(sp)
  1059d8:	00900a93          	li	s5,9
  1059dc:	00a00d13          	li	s10,10

001059e0 <b0000000c40>:
  1059e0:	00000033          	add	zero,zero,zero
  1059e4:	075d4263          	blt	s10,s5,105a48 <i0000000c4c>
  1059e8:	00000033          	add	zero,zero,zero
  1059ec:	00a00d13          	li	s10,10

001059f0 <i0000000c40>:
  1059f0:	4ef11723          	sh	a5,1262(sp)

001059f4 <i0000000c41>:
  1059f4:	8e411903          	lh	s2,-1820(sp)

001059f8 <i0000000c42>:
  1059f8:	58e11503          	lh	a0,1422(sp)

001059fc <i0000000c43>:
  1059fc:	1c015503          	lhu	a0,448(sp)

00105a00 <i0000000c44>:
  105a00:	004f2f33          	slt	t5,t5,tp

00105a04 <i0000000c45>:
  105a04:	42e12023          	sw	a4,1056(sp)
  105a08:	00009117          	auipc	sp,0x9
  105a0c:	6f810113          	add	sp,sp,1784 # 10f100 <mem>
  105a10:	00025337          	lui	t1,0x25
  105a14:	8d830313          	add	t1,t1,-1832 # 248d8 <tohost+0x48d0>
  105a18:	00610133          	add	sp,sp,t1

00105a1c <i0000000c46>:
  105a1c:	46411a23          	sh	tp,1140(sp)

00105a20 <i0000000c47>:
  105a20:	e5011b03          	lh	s6,-432(sp)

00105a24 <i0000000c48>:
  105a24:	00d75b13          	srl	s6,a4,0xd

00105a28 <i0000000c49>:
  105a28:	a5c11583          	lh	a1,-1444(sp)

00105a2c <i0000000c4a>:
  105a2c:	f7f22513          	slti	a0,tp,-129

00105a30 <i0000000c4b>:
  105a30:	e8011423          	sh	zero,-376(sp)
  105a34:	00009117          	auipc	sp,0x9
  105a38:	6cc10113          	add	sp,sp,1740 # 10f100 <mem>
  105a3c:	00053337          	lui	t1,0x53
  105a40:	4b030313          	add	t1,t1,1200 # 534b0 <tohost+0x334a8>
  105a44:	00610133          	add	sp,sp,t1

00105a48 <i0000000c4c>:
  105a48:	64c15203          	lhu	tp,1612(sp)

00105a4c <i0000000c4d>:
  105a4c:	3c011523          	sh	zero,970(sp)

00105a50 <i0000000c4e>:
  105a50:	af612a23          	sw	s6,-1292(sp)

00105a54 <i0000000c4f>:
  105a54:	9ca12e23          	sw	a0,-1572(sp)

00105a58 <i0000000c50>:
  105a58:	04412c03          	lw	s8,68(sp)

00105a5c <i0000000c51>:
  105a5c:	00a25833          	srl	a6,tp,a0

00105a60 <i0000000c52>:
  105a60:	000534b3          	sltu	s1,a0,zero
  105a64:	00900913          	li	s2,9

00105a68 <b0000000c53>:
  105a68:	00000033          	add	zero,zero,zero
  105a6c:	f9a95ce3          	bge	s2,s10,105a04 <i0000000c45>
  105a70:	00000033          	add	zero,zero,zero
  105a74:	00a00d13          	li	s10,10

00105a78 <i0000000c53>:
  105a78:	00021b33          	sll	s6,tp,zero

00105a7c <i0000000c54>:
  105a7c:	42314003          	lbu	zero,1059(sp)

00105a80 <i0000000c55>:
  105a80:	8e410fa3          	sb	tp,-1793(sp)
  105a84:	00009117          	auipc	sp,0x9
  105a88:	67c10113          	add	sp,sp,1660 # 10f100 <mem>
  105a8c:	00017337          	lui	t1,0x17
  105a90:	d5030313          	add	t1,t1,-688 # 16d50 <_stack_len+0xed50>
  105a94:	00610133          	add	sp,sp,t1

00105a98 <i0000000c56>:
  105a98:	bc412c23          	sw	tp,-1064(sp)

00105a9c <i0000000c57>:
  105a9c:	017f5e13          	srl	t3,t5,0x17

00105aa0 <i0000000c58>:
  105aa0:	051f0e13          	add	t3,t5,81 # 51701cf9 <fromhost+0x51579ce9>

00105aa4 <i0000000c59>:
  105aa4:	50012a83          	lw	s5,1280(sp)
  105aa8:	00009117          	auipc	sp,0x9
  105aac:	65810113          	add	sp,sp,1624 # 10f100 <mem>
  105ab0:	0006d337          	lui	t1,0x6d
  105ab4:	b4030313          	add	t1,t1,-1216 # 6cb40 <tohost+0x4cb38>
  105ab8:	00610133          	add	sp,sp,t1

00105abc <i0000000c5a>:
  105abc:	9b012023          	sw	a6,-1632(sp)
  105ac0:	00009117          	auipc	sp,0x9
  105ac4:	64010113          	add	sp,sp,1600 # 10f100 <mem>
  105ac8:	0003b337          	lui	t1,0x3b
  105acc:	24030313          	add	t1,t1,576 # 3b240 <tohost+0x1b238>
  105ad0:	00610133          	add	sp,sp,t1

00105ad4 <i0000000c5b>:
  105ad4:	ee910123          	sb	s1,-286(sp)

00105ad8 <i0000000c5c>:
  105ad8:	49814903          	lbu	s2,1176(sp)

00105adc <i0000000c5d>:
  105adc:	70a389b7          	lui	s3,0x70a38

00105ae0 <i0000000c5e>:
  105ae0:	64811903          	lh	s2,1608(sp)

00105ae4 <i0000000c5f>:
  105ae4:	416f0833          	sub	a6,t5,s6

00105ae8 <i0000000c60>:
  105ae8:	3a015f03          	lhu	t5,928(sp)

00105aec <i0000000c61>:
  105aec:	7c412583          	lw	a1,1988(sp)

00105af0 <i0000000c62>:
  105af0:	005935b3          	sltu	a1,s2,t0

00105af4 <i0000000c63>:
  105af4:	73412683          	lw	a3,1844(sp)

00105af8 <i0000000c64>:
  105af8:	2e812223          	sw	s0,740(sp)

00105afc <i0000000c65>:
  105afc:	dd1b6b13          	or	s6,s6,-559
  105b00:	00c00c13          	li	s8,12
  105b04:	001d0d13          	add	s10,s10,1

00105b08 <b0000000c66>:
  105b08:	00000033          	add	zero,zero,zero
  105b0c:	fd8d48e3          	blt	s10,s8,105adc <i0000000c5d>
  105b10:	00000033          	add	zero,zero,zero
  105b14:	00a00d13          	li	s10,10

00105b18 <i0000000c66>:
  105b18:	00007033          	and	zero,zero,zero

00105b1c <i0000000c67>:
  105b1c:	4ed26013          	or	zero,tp,1261

00105b20 <i0000000c68>:
  105b20:	1c302593          	slti	a1,zero,451

00105b24 <i0000000c69>:
  105b24:	8c012423          	sw	zero,-1848(sp)

00105b28 <i0000000c6a>:
  105b28:	20310403          	lb	s0,515(sp)

00105b2c <i0000000c6b>:
  105b2c:	14ce1237          	lui	tp,0x14ce1

00105b30 <i0000000c6c>:
  105b30:	00ddc1b3          	xor	gp,s11,a3

00105b34 <i0000000c6d>:
  105b34:	b6d52913          	slti	s2,a0,-1171

00105b38 <i0000000c6e>:
  105b38:	e3415c83          	lhu	s9,-460(sp)

00105b3c <i0000000c6f>:
  105b3c:	40025b33          	sra	s6,tp,zero

00105b40 <i0000000c70>:
  105b40:	4c910983          	lb	s3,1225(sp)

00105b44 <i0000000c71>:
  105b44:	5d912e23          	sw	s9,1500(sp)

00105b48 <i0000000c72>:
  105b48:	40c12b03          	lw	s6,1036(sp)
  105b4c:	00009117          	auipc	sp,0x9
  105b50:	5b410113          	add	sp,sp,1460 # 10f100 <mem>
  105b54:	00036337          	lui	t1,0x36
  105b58:	d8030313          	add	t1,t1,-640 # 35d80 <tohost+0x15d78>
  105b5c:	00610133          	add	sp,sp,t1

00105b60 <i0000000c73>:
  105b60:	e0110203          	lb	tp,-511(sp)

00105b64 <i0000000c74>:
  105b64:	01d55513          	srl	a0,a0,0x1d

00105b68 <i0000000c75>:
  105b68:	60e15503          	lhu	a0,1550(sp)
  105b6c:	00009117          	auipc	sp,0x9
  105b70:	59410113          	add	sp,sp,1428 # 10f100 <mem>
  105b74:	0001b337          	lui	t1,0x1b
  105b78:	53830313          	add	t1,t1,1336 # 1b538 <_stack_len+0x13538>
  105b7c:	00610133          	add	sp,sp,t1

00105b80 <i0000000c76>:
  105b80:	1a614003          	lbu	zero,422(sp)

00105b84 <i0000000c77>:
  105b84:	408c0f33          	sub	t5,s8,s0

00105b88 <i0000000c78>:
  105b88:	016236b3          	sltu	a3,tp,s6
  105b8c:	00a00e93          	li	t4,10
  105b90:	00a00d13          	li	s10,10

00105b94 <b0000000c79>:
  105b94:	00000033          	add	zero,zero,zero
  105b98:	05dd1663          	bne	s10,t4,105be4 <i0000000c84>
  105b9c:	00000033          	add	zero,zero,zero
  105ba0:	00a00d13          	li	s10,10

00105ba4 <i0000000c79>:
  105ba4:	7c610f83          	lb	t6,1990(sp)

00105ba8 <i0000000c7a>:
  105ba8:	5d110e23          	sb	a7,1500(sp)

00105bac <i0000000c7b>:
  105bac:	f339a213          	slti	tp,s3,-205

00105bb0 <i0000000c7c>:
  105bb0:	70022213          	slti	tp,tp,1792

00105bb4 <i0000000c7d>:
  105bb4:	0123ecb3          	or	s9,t2,s2

00105bb8 <i0000000c7e>:
  105bb8:	1be10a03          	lb	s4,446(sp)
  105bbc:	00009117          	auipc	sp,0x9
  105bc0:	54410113          	add	sp,sp,1348 # 10f100 <mem>
  105bc4:	0000d337          	lui	t1,0xd
  105bc8:	15030313          	add	t1,t1,336 # d150 <_stack_len+0x5150>
  105bcc:	00610133          	add	sp,sp,t1

00105bd0 <i0000000c7f>:
  105bd0:	16a12623          	sw	a0,364(sp)

00105bd4 <i0000000c80>:
  105bd4:	1e714f03          	lbu	t5,487(sp)

00105bd8 <i0000000c81>:
  105bd8:	05510123          	sb	s5,66(sp)

00105bdc <i0000000c82>:
  105bdc:	17314503          	lbu	a0,371(sp)

00105be0 <i0000000c83>:
  105be0:	3df9a397          	auipc	t2,0x3df9a

00105be4 <i0000000c84>:
  105be4:	00c15983          	lhu	s3,12(sp)

00105be8 <i0000000c85>:
  105be8:	7a612e23          	sw	t1,1980(sp)

00105bec <i0000000c86>:
  105bec:	16c12003          	lw	zero,364(sp)
  105bf0:	00009117          	auipc	sp,0x9
  105bf4:	51010113          	add	sp,sp,1296 # 10f100 <mem>
  105bf8:	00029337          	lui	t1,0x29
  105bfc:	0a830313          	add	t1,t1,168 # 290a8 <tohost+0x90a0>
  105c00:	00610133          	add	sp,sp,t1

00105c04 <i0000000c87>:
  105c04:	2c412223          	sw	tp,708(sp)

00105c08 <i0000000c88>:
  105c08:	017b1013          	sll	zero,s6,0x17

00105c0c <i0000000c89>:
  105c0c:	fb9c3293          	sltiu	t0,s8,-71

00105c10 <i0000000c8a>:
  105c10:	01e23eb3          	sltu	t4,tp,t5

00105c14 <i0000000c8b>:
  105c14:	efe14203          	lbu	tp,-258(sp)
  105c18:	00900a13          	li	s4,9

00105c1c <b0000000c8c>:
  105c1c:	00000033          	add	zero,zero,zero
  105c20:	fdaa54e3          	bge	s4,s10,105be8 <i0000000c85>
  105c24:	00000033          	add	zero,zero,zero
  105c28:	00a00d13          	li	s10,10

00105c2c <i0000000c8c>:
  105c2c:	be523713          	sltiu	a4,tp,-1051

00105c30 <i0000000c8d>:
  105c30:	25310b03          	lb	s6,595(sp)

00105c34 <i0000000c8e>:
  105c34:	1cbf3f13          	sltiu	t5,t5,459

00105c38 <i0000000c8f>:
  105c38:	41665513          	sra	a0,a2,0x16

00105c3c <i0000000c90>:
  105c3c:	0145a533          	slt	a0,a1,s4

00105c40 <i0000000c91>:
  105c40:	01735013          	srl	zero,t1,0x17

00105c44 <i0000000c92>:
  105c44:	8c412b03          	lw	s6,-1852(sp)

00105c48 <i0000000c93>:
  105c48:	e3098693          	add	a3,s3,-464 # 70a37e30 <fromhost+0x708afe20>
  105c4c:	00009117          	auipc	sp,0x9
  105c50:	4b410113          	add	sp,sp,1204 # 10f100 <mem>
  105c54:	00008337          	lui	t1,0x8
  105c58:	9b030313          	add	t1,t1,-1616 # 79b0 <_min_stack+0x59b0>
  105c5c:	00610133          	add	sp,sp,t1

00105c60 <i0000000c94>:
  105c60:	29812a23          	sw	s8,660(sp)

00105c64 <i0000000c95>:
  105c64:	d05f7013          	and	zero,t5,-763

00105c68 <i0000000c96>:
  105c68:	01f7c8b3          	xor	a7,a5,t6

00105c6c <i0000000c97>:
  105c6c:	d1b10a23          	sb	s11,-748(sp)

00105c70 <i0000000c98>:
  105c70:	d1411423          	sh	s4,-760(sp)

00105c74 <i0000000c99>:
  105c74:	01c93eb3          	sltu	t4,s2,t3

00105c78 <i0000000c9a>:
  105c78:	00004433          	xor	s0,zero,zero

00105c7c <i0000000c9b>:
  105c7c:	aa412023          	sw	tp,-1376(sp)
  105c80:	00009117          	auipc	sp,0x9
  105c84:	48010113          	add	sp,sp,1152 # 10f100 <mem>
  105c88:	0005b337          	lui	t1,0x5b
  105c8c:	6b830313          	add	t1,t1,1720 # 5b6b8 <tohost+0x3b6b0>
  105c90:	00610133          	add	sp,sp,t1

00105c94 <i0000000c9c>:
  105c94:	2e615903          	lhu	s2,742(sp)

00105c98 <i0000000c9d>:
  105c98:	41e12e23          	sw	t5,1052(sp)

00105c9c <i0000000c9e>:
  105c9c:	00540533          	add	a0,s0,t0
  105ca0:	00900893          	li	a7,9

00105ca4 <b0000000c9f>:
  105ca4:	00000033          	add	zero,zero,zero
  105ca8:	fba8dee3          	bge	a7,s10,105c64 <i0000000c95>
  105cac:	00000033          	add	zero,zero,zero
  105cb0:	00a00d13          	li	s10,10

00105cb4 <i0000000c9f>:
  105cb4:	94953213          	sltiu	tp,a0,-1719

00105cb8 <i0000000ca0>:
  105cb8:	01606033          	or	zero,zero,s6

00105cbc <i0000000ca1>:
  105cbc:	74a10ba3          	sb	a0,1879(sp)

00105cc0 <i0000000ca2>:
  105cc0:	ae812803          	lw	a6,-1304(sp)

00105cc4 <i0000000ca3>:
  105cc4:	7abc0213          	add	tp,s8,1963

00105cc8 <i0000000ca4>:
  105cc8:	9e110983          	lb	s3,-1567(sp)

00105ccc <i0000000ca5>:
  105ccc:	7e810523          	sb	s0,2026(sp)

00105cd0 <i0000000ca6>:
  105cd0:	016062b3          	or	t0,zero,s6

00105cd4 <i0000000ca7>:
  105cd4:	94611c23          	sh	t1,-1704(sp)

00105cd8 <i0000000ca8>:
  105cd8:	000f1f33          	sll	t5,t5,zero

00105cdc <i0000000ca9>:
  105cdc:	91356213          	or	tp,a0,-1773

00105ce0 <i0000000caa>:
  105ce0:	404207b3          	sub	a5,tp,tp

00105ce4 <i0000000cab>:
  105ce4:	d9812023          	sw	s8,-640(sp)

00105ce8 <i0000000cac>:
  105ce8:	2cca4737          	lui	a4,0x2cca4

00105cec <i0000000cad>:
  105cec:	634bf217          	auipc	tp,0x634bf

00105cf0 <i0000000cae>:
  105cf0:	039b4c13          	xor	s8,s6,57

00105cf4 <i0000000caf>:
  105cf4:	d9953493          	sltiu	s1,a0,-615

00105cf8 <i0000000cb0>:
  105cf8:	8f811883          	lh	a7,-1800(sp)

00105cfc <i0000000cb1>:
  105cfc:	a0e20913          	add	s2,tp,-1522 # 635c46fa <fromhost+0x6343c6ea>
  105d00:	00900c93          	li	s9,9
  105d04:	00a00d13          	li	s10,10

00105d08 <b0000000cb2>:
  105d08:	00000033          	add	zero,zero,zero
  105d0c:	03acd663          	bge	s9,s10,105d38 <i0000000cba>
  105d10:	00000033          	add	zero,zero,zero
  105d14:	00a00d13          	li	s10,10

00105d18 <i0000000cb2>:
  105d18:	e2812b03          	lw	s6,-472(sp)

00105d1c <i0000000cb3>:
  105d1c:	41f307b3          	sub	a5,t1,t6

00105d20 <i0000000cb4>:
  105d20:	eb012a03          	lw	s4,-336(sp)

00105d24 <i0000000cb5>:
  105d24:	00000f33          	add	t5,zero,zero

00105d28 <i0000000cb6>:
  105d28:	004f03b3          	add	t2,t5,tp

00105d2c <i0000000cb7>:
  105d2c:	88c7a013          	slti	zero,a5,-1908

00105d30 <i0000000cb8>:
  105d30:	40805013          	sra	zero,zero,0x8

00105d34 <i0000000cb9>:
  105d34:	65710203          	lb	tp,1623(sp)

00105d38 <i0000000cba>:
  105d38:	00054ab3          	xor	s5,a0,zero

00105d3c <i0000000cbb>:
  105d3c:	00e582b3          	add	t0,a1,a4
  105d40:	00009117          	auipc	sp,0x9
  105d44:	3c010113          	add	sp,sp,960 # 10f100 <mem>
  105d48:	00043337          	lui	t1,0x43
  105d4c:	a1030313          	add	t1,t1,-1520 # 42a10 <tohost+0x22a08>
  105d50:	00610133          	add	sp,sp,t1

00105d54 <i0000000cbc>:
  105d54:	f0a11203          	lh	tp,-246(sp)

00105d58 <i0000000cbd>:
  105d58:	b3476893          	or	a7,a4,-1228

00105d5c <i0000000cbe>:
  105d5c:	3d23b797          	auipc	a5,0x3d23b

00105d60 <i0000000cbf>:
  105d60:	ffc15003          	lhu	zero,-4(sp)

00105d64 <i0000000cc0>:
  105d64:	4105d5b3          	sra	a1,a1,a6

00105d68 <i0000000cc1>:
  105d68:	96814003          	lbu	zero,-1688(sp)

00105d6c <i0000000cc2>:
  105d6c:	01f99513          	sll	a0,s3,0x1f
  105d70:	00009117          	auipc	sp,0x9
  105d74:	39010113          	add	sp,sp,912 # 10f100 <mem>
  105d78:	0003d337          	lui	t1,0x3d
  105d7c:	0a830313          	add	t1,t1,168 # 3d0a8 <tohost+0x1d0a0>
  105d80:	00610133          	add	sp,sp,t1

00105d84 <i0000000cc3>:
  105d84:	fba15403          	lhu	s0,-70(sp)

00105d88 <i0000000cc4>:
  105d88:	67d11b23          	sh	t4,1654(sp)
  105d8c:	00b00d93          	li	s11,11
  105d90:	00a00d13          	li	s10,10

00105d94 <b0000000cc5>:
  105d94:	00000033          	add	zero,zero,zero
  105d98:	05add663          	bge	s11,s10,105de4 <i0000000cd0>
  105d9c:	00000033          	add	zero,zero,zero
  105da0:	00a00d13          	li	s10,10

00105da4 <i0000000cc5>:
  105da4:	41610623          	sb	s6,1036(sp)

00105da8 <i0000000cc6>:
  105da8:	000f3fb3          	sltu	t6,t5,zero

00105dac <i0000000cc7>:
  105dac:	0092e233          	or	tp,t0,s1

00105db0 <i0000000cc8>:
  105db0:	61804013          	xor	zero,zero,1560

00105db4 <i0000000cc9>:
  105db4:	cb712c23          	sw	s7,-840(sp)

00105db8 <i0000000cca>:
  105db8:	3da14c03          	lbu	s8,986(sp)
  105dbc:	00009117          	auipc	sp,0x9
  105dc0:	34410113          	add	sp,sp,836 # 10f100 <mem>
  105dc4:	00012337          	lui	t1,0x12
  105dc8:	02830313          	add	t1,t1,40 # 12028 <_stack_len+0xa028>
  105dcc:	00610133          	add	sp,sp,t1

00105dd0 <i0000000ccb>:
  105dd0:	74e15583          	lhu	a1,1870(sp)

00105dd4 <i0000000ccc>:
  105dd4:	013a9e93          	sll	t4,s5,0x13

00105dd8 <i0000000ccd>:
  105dd8:	58a15503          	lhu	a0,1418(sp)

00105ddc <i0000000cce>:
  105ddc:	25514203          	lbu	tp,597(sp)

00105de0 <i0000000ccf>:
  105de0:	00bbdf33          	srl	t5,s7,a1

00105de4 <i0000000cd0>:
  105de4:	00214203          	lbu	tp,2(sp)

00105de8 <i0000000cd1>:
  105de8:	004f05b3          	add	a1,t5,tp

00105dec <i0000000cd2>:
  105dec:	00af6f33          	or	t5,t5,a0

00105df0 <i0000000cd3>:
  105df0:	000f3b33          	sltu	s6,t5,zero

00105df4 <i0000000cd4>:
  105df4:	c9f106a3          	sb	t6,-883(sp)

00105df8 <i0000000cd5>:
  105df8:	ed84cf13          	xor	t5,s1,-296

00105dfc <i0000000cd6>:
  105dfc:	b3012003          	lw	zero,-1232(sp)

00105e00 <i0000000cd7>:
  105e00:	41f588b3          	sub	a7,a1,t6
  105e04:	00c00a93          	li	s5,12
  105e08:	00a00d13          	li	s10,10

00105e0c <b0000000cd8>:
  105e0c:	00000033          	add	zero,zero,zero
  105e10:	055d4863          	blt	s10,s5,105e60 <i0000000ce4>
  105e14:	00000033          	add	zero,zero,zero
  105e18:	00a00d13          	li	s10,10

00105e1c <i0000000cd8>:
  105e1c:	71c11303          	lh	t1,1820(sp)

00105e20 <i0000000cd9>:
  105e20:	c3c11483          	lh	s1,-964(sp)

00105e24 <i0000000cda>:
  105e24:	2f230d97          	auipc	s11,0x2f230

00105e28 <i0000000cdb>:
  105e28:	88c12a83          	lw	s5,-1908(sp)

00105e2c <i0000000cdc>:
  105e2c:	b7d11c23          	sh	t4,-1160(sp)

00105e30 <i0000000cdd>:
  105e30:	010e4b33          	xor	s6,t3,a6

00105e34 <i0000000cde>:
  105e34:	28a10623          	sb	a0,652(sp)

00105e38 <i0000000cdf>:
  105e38:	1a712423          	sw	t2,424(sp)

00105e3c <i0000000ce0>:
  105e3c:	09914003          	lbu	zero,153(sp)

00105e40 <i0000000ce1>:
  105e40:	11d68317          	auipc	t1,0x11d68

00105e44 <i0000000ce2>:
  105e44:	53a11f03          	lh	t5,1338(sp)

00105e48 <i0000000ce3>:
  105e48:	c3611a23          	sh	s6,-972(sp)
  105e4c:	00009117          	auipc	sp,0x9
  105e50:	2b410113          	add	sp,sp,692 # 10f100 <mem>
  105e54:	0001a337          	lui	t1,0x1a
  105e58:	7e030313          	add	t1,t1,2016 # 1a7e0 <_stack_len+0x127e0>
  105e5c:	00610133          	add	sp,sp,t1

00105e60 <i0000000ce4>:
  105e60:	bb612623          	sw	s6,-1108(sp)

00105e64 <i0000000ce5>:
  105e64:	008b96b3          	sll	a3,s7,s0

00105e68 <i0000000ce6>:
  105e68:	60dcbc13          	sltiu	s8,s9,1549

00105e6c <i0000000ce7>:
  105e6c:	30495e37          	lui	t3,0x30495

00105e70 <i0000000ce8>:
  105e70:	ad2b7d93          	and	s11,s6,-1326

00105e74 <i0000000ce9>:
  105e74:	51611e83          	lh	t4,1302(sp)

00105e78 <i0000000cea>:
  105e78:	cb0be613          	or	a2,s7,-848
  105e7c:	00c00813          	li	a6,12
  105e80:	00a00d13          	li	s10,10

00105e84 <b0000000ceb>:
  105e84:	00000033          	add	zero,zero,zero
  105e88:	070d4e63          	blt	s10,a6,105f04 <i0000000cf8>
  105e8c:	00000033          	add	zero,zero,zero
  105e90:	00a00d13          	li	s10,10
  105e94:	00009117          	auipc	sp,0x9
  105e98:	26c10113          	add	sp,sp,620 # 10f100 <mem>
  105e9c:	00056337          	lui	t1,0x56
  105ea0:	11830313          	add	t1,t1,280 # 56118 <tohost+0x36110>
  105ea4:	00610133          	add	sp,sp,t1

00105ea8 <i0000000ceb>:
  105ea8:	44811203          	lh	tp,1096(sp)

00105eac <i0000000cec>:
  105eac:	01565b13          	srl	s6,a2,0x15

00105eb0 <i0000000ced>:
  105eb0:	e7f14903          	lbu	s2,-385(sp)

00105eb4 <i0000000cee>:
  105eb4:	01e25a93          	srl	s5,tp,0x1e

00105eb8 <i0000000cef>:
  105eb8:	8e010da3          	sb	zero,-1797(sp)
  105ebc:	00009117          	auipc	sp,0x9
  105ec0:	24410113          	add	sp,sp,580 # 10f100 <mem>
  105ec4:	00002337          	lui	t1,0x2
  105ec8:	60830313          	add	t1,t1,1544 # 2608 <_min_stack+0x608>
  105ecc:	00610133          	add	sp,sp,t1

00105ed0 <i0000000cf0>:
  105ed0:	9ea12023          	sw	a0,-1568(sp)

00105ed4 <i0000000cf1>:
  105ed4:	00a27433          	and	s0,tp,a0

00105ed8 <i0000000cf2>:
  105ed8:	00d77233          	and	tp,a4,a3

00105edc <i0000000cf3>:
  105edc:	27b11323          	sh	s11,614(sp)

00105ee0 <i0000000cf4>:
  105ee0:	01b30233          	add	tp,t1,s11

00105ee4 <i0000000cf5>:
  105ee4:	a6a15703          	lhu	a4,-1430(sp)

00105ee8 <i0000000cf6>:
  105ee8:	98826013          	or	zero,tp,-1656

00105eec <i0000000cf7>:
  105eec:	21610e23          	sb	s6,540(sp)
  105ef0:	00009117          	auipc	sp,0x9
  105ef4:	21010113          	add	sp,sp,528 # 10f100 <mem>
  105ef8:	00036337          	lui	t1,0x36
  105efc:	92830313          	add	t1,t1,-1752 # 35928 <tohost+0x15920>
  105f00:	00610133          	add	sp,sp,t1

00105f04 <i0000000cf8>:
  105f04:	cfc11e03          	lh	t3,-772(sp)

00105f08 <i0000000cf9>:
  105f08:	00ab3cb3          	sltu	s9,s6,a0

00105f0c <i0000000cfa>:
  105f0c:	40dfd513          	sra	a0,t6,0xd

00105f10 <i0000000cfb>:
  105f10:	98a11323          	sh	a0,-1658(sp)

00105f14 <i0000000cfc>:
  105f14:	35644813          	xor	a6,s0,854

00105f18 <i0000000cfd>:
  105f18:	693109a3          	sb	s3,1683(sp)
  105f1c:	00a00c13          	li	s8,10

00105f20 <b0000000cfe>:
  105f20:	018d0463          	beq	s10,s8,105f28 <b0000000cfe+0x8>
  105f24:	fbdff56f          	jal	a0,105ee0 <i0000000cf4>
  105f28:	00a00d13          	li	s10,10
  105f2c:	00009117          	auipc	sp,0x9
  105f30:	1d410113          	add	sp,sp,468 # 10f100 <mem>
  105f34:	0000f337          	lui	t1,0xf
  105f38:	2b030313          	add	t1,t1,688 # f2b0 <_stack_len+0x72b0>
  105f3c:	00610133          	add	sp,sp,t1

00105f40 <i0000000cfe>:
  105f40:	5dc12003          	lw	zero,1500(sp)
  105f44:	00009117          	auipc	sp,0x9
  105f48:	1bc10113          	add	sp,sp,444 # 10f100 <mem>
  105f4c:	0002f337          	lui	t1,0x2f
  105f50:	e6030313          	add	t1,t1,-416 # 2ee60 <tohost+0xee58>
  105f54:	00610133          	add	sp,sp,t1

00105f58 <i0000000cff>:
  105f58:	aea12e23          	sw	a0,-1284(sp)

00105f5c <i0000000d00>:
  105f5c:	01e54033          	xor	zero,a0,t5

00105f60 <i0000000d01>:
  105f60:	40d35b93          	sra	s7,t1,0xd

00105f64 <i0000000d02>:
  105f64:	00a04fb3          	xor	t6,zero,a0

00105f68 <i0000000d03>:
  105f68:	c5b10a03          	lb	s4,-933(sp)

00105f6c <i0000000d04>:
  105f6c:	14811003          	lh	zero,328(sp)

00105f70 <i0000000d05>:
  105f70:	a7412983          	lw	s3,-1420(sp)

00105f74 <i0000000d06>:
  105f74:	aa824013          	xor	zero,tp,-1368

00105f78 <i0000000d07>:
  105f78:	01f61513          	sll	a0,a2,0x1f

00105f7c <i0000000d08>:
  105f7c:	88314883          	lbu	a7,-1917(sp)
  105f80:	00009117          	auipc	sp,0x9
  105f84:	18010113          	add	sp,sp,384 # 10f100 <mem>
  105f88:	0001f337          	lui	t1,0x1f
  105f8c:	82830313          	add	t1,t1,-2008 # 1e828 <_stack_len+0x16828>
  105f90:	00610133          	add	sp,sp,t1

00105f94 <i0000000d09>:
  105f94:	0f611b03          	lh	s6,246(sp)
  105f98:	00009117          	auipc	sp,0x9
  105f9c:	16810113          	add	sp,sp,360 # 10f100 <mem>
  105fa0:	0000d337          	lui	t1,0xd
  105fa4:	3c030313          	add	t1,t1,960 # d3c0 <_stack_len+0x53c0>
  105fa8:	00610133          	add	sp,sp,t1

00105fac <i0000000d0a>:
  105fac:	c6815583          	lhu	a1,-920(sp)

00105fb0 <i0000000d0b>:
  105fb0:	682b7797          	auipc	a5,0x682b7

00105fb4 <i0000000d0c>:
  105fb4:	01602333          	sgtz	t1,s6

00105fb8 <i0000000d0d>:
  105fb8:	92c11123          	sh	a2,-1758(sp)

00105fbc <i0000000d0e>:
  105fbc:	7c6bbf13          	sltiu	t5,s7,1990

00105fc0 <i0000000d0f>:
  105fc0:	0ba10383          	lb	t2,186(sp)

00105fc4 <i0000000d10>:
  105fc4:	011c6517          	auipc	a0,0x11c6
  105fc8:	00900e93          	li	t4,9
  105fcc:	00a00d13          	li	s10,10

00105fd0 <b0000000d11>:
  105fd0:	00000033          	add	zero,zero,zero
  105fd4:	05aed063          	bge	t4,s10,106014 <i0000000d1e>
  105fd8:	00000033          	add	zero,zero,zero
  105fdc:	00a00d13          	li	s10,10

00105fe0 <i0000000d11>:
  105fe0:	007f5e93          	srl	t4,t5,0x7

00105fe4 <i0000000d12>:
  105fe4:	0096a633          	slt	a2,a3,s1

00105fe8 <i0000000d13>:
  105fe8:	9d815183          	lhu	gp,-1576(sp)

00105fec <i0000000d14>:
  105fec:	85412223          	sw	s4,-1980(sp)

00105ff0 <i0000000d15>:
  105ff0:	01621b33          	sll	s6,tp,s6

00105ff4 <i0000000d16>:
  105ff4:	0144e633          	or	a2,s1,s4

00105ff8 <i0000000d17>:
  105ff8:	01128f33          	add	t5,t0,a7

00105ffc <i0000000d18>:
  105ffc:	00e51613          	sll	a2,a0,0xe

00106000 <i0000000d19>:
  106000:	7d3c6b17          	auipc	s6,0x7d3c6

00106004 <i0000000d1a>:
  106004:	018ab2b3          	sltu	t0,s5,s8

00106008 <i0000000d1b>:
  106008:	8de12423          	sw	t5,-1848(sp)

0010600c <i0000000d1c>:
  10600c:	02615503          	lhu	a0,38(sp)

00106010 <i0000000d1d>:
  106010:	40f35033          	sra	zero,t1,a5

00106014 <i0000000d1e>:
  106014:	01881293          	sll	t0,a6,0x18

00106018 <i0000000d1f>:
  106018:	40ced233          	sra	tp,t4,a2

0010601c <i0000000d20>:
  10601c:	f4615203          	lhu	tp,-186(sp)

00106020 <i0000000d21>:
  106020:	23b7bc17          	auipc	s8,0x23b7b

00106024 <i0000000d22>:
  106024:	46d16e17          	auipc	t3,0x46d16

00106028 <i0000000d23>:
  106028:	93c11203          	lh	tp,-1732(sp)
  10602c:	00c00e13          	li	t3,12
  106030:	001d0d13          	add	s10,s10,1

00106034 <b0000000d24>:
  106034:	00000033          	add	zero,zero,zero
  106038:	fdcd46e3          	blt	s10,t3,106004 <i0000000d1a>
  10603c:	00000033          	add	zero,zero,zero
  106040:	00a00d13          	li	s10,10

00106044 <i0000000d24>:
  106044:	6d511723          	sh	s5,1742(sp)

00106048 <i0000000d25>:
  106048:	005ba3b3          	slt	t2,s7,t0

0010604c <i0000000d26>:
  10604c:	1ef10f03          	lb	t5,495(sp)
  106050:	00009117          	auipc	sp,0x9
  106054:	0b010113          	add	sp,sp,176 # 10f100 <mem>
  106058:	0002a337          	lui	t1,0x2a
  10605c:	25830313          	add	t1,t1,600 # 2a258 <tohost+0xa250>
  106060:	00610133          	add	sp,sp,t1

00106064 <i0000000d27>:
  106064:	66415203          	lhu	tp,1636(sp)

00106068 <i0000000d28>:
  106068:	61822c93          	slti	s9,tp,1560

0010606c <i0000000d29>:
  10606c:	41e25e33          	sra	t3,tp,t5
  106070:	00009117          	auipc	sp,0x9
  106074:	09010113          	add	sp,sp,144 # 10f100 <mem>
  106078:	0001c337          	lui	t1,0x1c
  10607c:	9e030313          	add	t1,t1,-1568 # 1b9e0 <_stack_len+0x139e0>
  106080:	00610133          	add	sp,sp,t1

00106084 <i0000000d2a>:
  106084:	cc911423          	sh	s1,-824(sp)

00106088 <i0000000d2b>:
  106088:	35ccb217          	auipc	tp,0x35ccb

0010608c <i0000000d2c>:
  10608c:	09f12823          	sw	t6,144(sp)

00106090 <i0000000d2d>:
  106090:	6ab0f517          	auipc	a0,0x6ab0f

00106094 <i0000000d2e>:
  106094:	64712423          	sw	t2,1608(sp)
  106098:	00009117          	auipc	sp,0x9
  10609c:	06810113          	add	sp,sp,104 # 10f100 <mem>
  1060a0:	0001a337          	lui	t1,0x1a
  1060a4:	e0030313          	add	t1,t1,-512 # 19e00 <_stack_len+0x11e00>
  1060a8:	00610133          	add	sp,sp,t1

001060ac <i0000000d2f>:
  1060ac:	41110a23          	sb	a7,1044(sp)

001060b0 <i0000000d30>:
  1060b0:	b0b94f13          	xor	t5,s2,-1269

001060b4 <i0000000d31>:
  1060b4:	68a106a3          	sb	a0,1677(sp)

001060b8 <i0000000d32>:
  1060b8:	e8a11d23          	sh	a0,-358(sp)

001060bc <i0000000d33>:
  1060bc:	97e14b03          	lbu	s6,-1666(sp)

001060c0 <i0000000d34>:
  1060c0:	58c11723          	sh	a2,1422(sp)

001060c4 <i0000000d35>:
  1060c4:	ae812283          	lw	t0,-1304(sp)

001060c8 <i0000000d36>:
  1060c8:	00391b33          	sll	s6,s2,gp
  1060cc:	00b00f93          	li	t6,11
  1060d0:	00a00d13          	li	s10,10

001060d4 <b0000000d37>:
  1060d4:	00000033          	add	zero,zero,zero
  1060d8:	03fd1a63          	bne	s10,t6,10610c <i0000000d41>
  1060dc:	00000033          	add	zero,zero,zero
  1060e0:	00a00d13          	li	s10,10

001060e4 <i0000000d37>:
  1060e4:	5fb14f03          	lbu	t5,1531(sp)

001060e8 <i0000000d38>:
  1060e8:	5c211583          	lh	a1,1474(sp)

001060ec <i0000000d39>:
  1060ec:	47414583          	lbu	a1,1140(sp)

001060f0 <i0000000d3a>:
  1060f0:	01501c93          	sll	s9,zero,0x15

001060f4 <i0000000d3b>:
  1060f4:	92215d83          	lhu	s11,-1758(sp)

001060f8 <i0000000d3c>:
  1060f8:	6ee15c83          	lhu	s9,1774(sp)

001060fc <i0000000d3d>:
  1060fc:	04c11503          	lh	a0,76(sp)

00106100 <i0000000d3e>:
  106100:	98c70b13          	add	s6,a4,-1652 # 2cca398c <fromhost+0x2cb1b97c>

00106104 <i0000000d3f>:
  106104:	cc814f03          	lbu	t5,-824(sp)

00106108 <i0000000d40>:
  106108:	0fc15683          	lhu	a3,252(sp)

0010610c <i0000000d41>:
  10610c:	f0412483          	lw	s1,-252(sp)

00106110 <i0000000d42>:
  106110:	40452013          	slti	zero,a0,1028

00106114 <i0000000d43>:
  106114:	00ce56b3          	srl	a3,t3,a2

00106118 <i0000000d44>:
  106118:	4153d213          	sra	tp,t2,0x15

0010611c <i0000000d45>:
  10611c:	39015003          	lhu	zero,912(sp)

00106120 <i0000000d46>:
  106120:	f5012a03          	lw	s4,-176(sp)

00106124 <i0000000d47>:
  106124:	40a20fb3          	sub	t6,tp,a0

00106128 <i0000000d48>:
  106128:	01dbd533          	srl	a0,s7,t4
  10612c:	00009117          	auipc	sp,0x9
  106130:	fd410113          	add	sp,sp,-44 # 10f100 <mem>
  106134:	00067337          	lui	t1,0x67
  106138:	aa830313          	add	t1,t1,-1368 # 66aa8 <tohost+0x46aa0>
  10613c:	00610133          	add	sp,sp,t1

00106140 <i0000000d49>:
  106140:	f3010823          	sb	a6,-208(sp)
  106144:	00900893          	li	a7,9

00106148 <b0000000d4a>:
  106148:	00000033          	add	zero,zero,zero
  10614c:	fd1d48e3          	blt	s10,a7,10611c <i0000000d45>
  106150:	00000033          	add	zero,zero,zero
  106154:	00a00d13          	li	s10,10

00106158 <i0000000d4a>:
  106158:	18914503          	lbu	a0,393(sp)

0010615c <i0000000d4b>:
  10615c:	9e010303          	lb	t1,-1568(sp)

00106160 <i0000000d4c>:
  106160:	a7e12623          	sw	t5,-1428(sp)

00106164 <i0000000d4d>:
  106164:	cad74b13          	xor	s6,a4,-851

00106168 <i0000000d4e>:
  106168:	ef5100a3          	sb	s5,-287(sp)

0010616c <i0000000d4f>:
  10616c:	4cb14783          	lbu	a5,1227(sp)

00106170 <i0000000d50>:
  106170:	02a11583          	lh	a1,42(sp)

00106174 <i0000000d51>:
  106174:	36982b13          	slti	s6,a6,873

00106178 <i0000000d52>:
  106178:	4a910f03          	lb	t5,1193(sp)

0010617c <i0000000d53>:
  10617c:	91015203          	lhu	tp,-1776(sp)

00106180 <i0000000d54>:
  106180:	c2b11823          	sh	a1,-976(sp)

00106184 <i0000000d55>:
  106184:	c9612423          	sw	s6,-888(sp)

00106188 <i0000000d56>:
  106188:	40050533          	sub	a0,a0,zero

0010618c <i0000000d57>:
  10618c:	03e15903          	lhu	s2,62(sp)

00106190 <i0000000d58>:
  106190:	8fbf2593          	slti	a1,t5,-1797

00106194 <i0000000d59>:
  106194:	68110283          	lb	t0,1665(sp)

00106198 <i0000000d5a>:
  106198:	12e10503          	lb	a0,302(sp)
  10619c:	00009117          	auipc	sp,0x9
  1061a0:	f6410113          	add	sp,sp,-156 # 10f100 <mem>
  1061a4:	00062337          	lui	t1,0x62
  1061a8:	9e030313          	add	t1,t1,-1568 # 619e0 <tohost+0x419d8>
  1061ac:	00610133          	add	sp,sp,t1

001061b0 <i0000000d5b>:
  1061b0:	01811b03          	lh	s6,24(sp)

001061b4 <i0000000d5c>:
  1061b4:	01621033          	sll	zero,tp,s6
  1061b8:	00900893          	li	a7,9

001061bc <b0000000d5d>:
  1061bc:	00000033          	add	zero,zero,zero
  1061c0:	fd1d42e3          	blt	s10,a7,106184 <i0000000d55>
  1061c4:	00000033          	add	zero,zero,zero
  1061c8:	00a00d13          	li	s10,10

001061cc <i0000000d5d>:
  1061cc:	eec14b03          	lbu	s6,-276(sp)

001061d0 <i0000000d5e>:
  1061d0:	01e03033          	snez	zero,t5

001061d4 <i0000000d5f>:
  1061d4:	34c15f03          	lhu	t5,844(sp)

001061d8 <i0000000d60>:
  1061d8:	18d3a297          	auipc	t0,0x18d3a

001061dc <i0000000d61>:
  1061dc:	00841b33          	sll	s6,s0,s0

001061e0 <i0000000d62>:
  1061e0:	14f1bc97          	auipc	s9,0x14f1b

001061e4 <i0000000d63>:
  1061e4:	01f55b13          	srl	s6,a0,0x1f

001061e8 <i0000000d64>:
  1061e8:	66910503          	lb	a0,1641(sp)

001061ec <i0000000d65>:
  1061ec:	41d384b3          	sub	s1,t2,t4

001061f0 <i0000000d66>:
  1061f0:	f5f10f03          	lb	t5,-161(sp)

001061f4 <i0000000d67>:
  1061f4:	40a509b3          	sub	s3,a0,a0

001061f8 <i0000000d68>:
  1061f8:	00ab7233          	and	tp,s6,a0

001061fc <i0000000d69>:
  1061fc:	40c383b3          	sub	t2,t2,a2

00106200 <i0000000d6a>:
  106200:	017e4f33          	xor	t5,t3,s7

00106204 <i0000000d6b>:
  106204:	4b611b23          	sh	s6,1206(sp)

00106208 <i0000000d6c>:
  106208:	018cb933          	sltu	s2,s9,s8
  10620c:	00009117          	auipc	sp,0x9
  106210:	ef410113          	add	sp,sp,-268 # 10f100 <mem>
  106214:	00068337          	lui	t1,0x68
  106218:	7c830313          	add	t1,t1,1992 # 687c8 <tohost+0x487c0>
  10621c:	00610133          	add	sp,sp,t1

00106220 <i0000000d6d>:
  106220:	9fc12603          	lw	a2,-1540(sp)

00106224 <i0000000d6e>:
  106224:	77266613          	or	a2,a2,1906

00106228 <i0000000d6f>:
  106228:	0143c2b3          	xor	t0,t2,s4
  10622c:	00a00e93          	li	t4,10

00106230 <b0000000d70>:
  106230:	01dd0463          	beq	s10,t4,106238 <b0000000d70+0x8>
  106234:	fc9ff56f          	jal	a0,1061fc <i0000000d69>
  106238:	00a00d13          	li	s10,10

0010623c <i0000000d70>:
  10623c:	23b14f03          	lbu	t5,571(sp)

00106240 <i0000000d71>:
  106240:	f7cb0013          	add	zero,s6,-132 # 7d4cbf7c <fromhost+0x7d343f6c>

00106244 <i0000000d72>:
  106244:	7b214b03          	lbu	s6,1970(sp)

00106248 <i0000000d73>:
  106248:	01b9c533          	xor	a0,s3,s11

0010624c <i0000000d74>:
  10624c:	9a4b4313          	xor	t1,s6,-1628

00106250 <i0000000d75>:
  106250:	6d6c9517          	auipc	a0,0x6d6c9

00106254 <i0000000d76>:
  106254:	5b710503          	lb	a0,1463(sp)

00106258 <i0000000d77>:
  106258:	58a10ca3          	sb	a0,1433(sp)

0010625c <i0000000d78>:
  10625c:	a8412223          	sw	tp,-1404(sp)

00106260 <i0000000d79>:
  106260:	adc10d83          	lb	s11,-1316(sp)

00106264 <i0000000d7a>:
  106264:	01448cb3          	add	s9,s1,s4

00106268 <i0000000d7b>:
  106268:	59c12283          	lw	t0,1436(sp)

0010626c <i0000000d7c>:
  10626c:	3d611223          	sh	s6,964(sp)

00106270 <i0000000d7d>:
  106270:	2e411203          	lh	tp,740(sp)

00106274 <i0000000d7e>:
  106274:	91820b13          	add	s6,tp,-1768 # 35dd09a0 <fromhost+0x35c48990>

00106278 <i0000000d7f>:
  106278:	40755513          	sra	a0,a0,0x7

0010627c <i0000000d80>:
  10627c:	78010b03          	lb	s6,1920(sp)

00106280 <i0000000d81>:
  106280:	89314703          	lbu	a4,-1901(sp)

00106284 <i0000000d82>:
  106284:	00ddc533          	xor	a0,s11,a3
  106288:	00000e13          	li	t3,0

0010628c <b0000000d83>:
  10628c:	00000033          	add	zero,zero,zero
  106290:	03cd0a63          	beq	s10,t3,1062c4 <i0000000d88>
  106294:	00000033          	add	zero,zero,zero
  106298:	00a00d13          	li	s10,10

0010629c <i0000000d83>:
  10629c:	27010703          	lb	a4,624(sp)
  1062a0:	00009117          	auipc	sp,0x9
  1062a4:	e6010113          	add	sp,sp,-416 # 10f100 <mem>
  1062a8:	0005d337          	lui	t1,0x5d
  1062ac:	24030313          	add	t1,t1,576 # 5d240 <tohost+0x3d238>
  1062b0:	00610133          	add	sp,sp,t1

001062b4 <i0000000d84>:
  1062b4:	0f7100a3          	sb	s7,225(sp)

001062b8 <i0000000d85>:
  1062b8:	00815303          	lhu	t1,8(sp)

001062bc <i0000000d86>:
  1062bc:	a5e11f23          	sh	t5,-1442(sp)

001062c0 <i0000000d87>:
  1062c0:	0031e333          	or	t1,gp,gp

001062c4 <i0000000d88>:
  1062c4:	6ac3c517          	auipc	a0,0x6ac3c

001062c8 <i0000000d89>:
  1062c8:	00a55533          	srl	a0,a0,a0

001062cc <i0000000d8a>:
  1062cc:	419807b3          	sub	a5,a6,s9

001062d0 <i0000000d8b>:
  1062d0:	f5e106a3          	sb	t5,-179(sp)

001062d4 <i0000000d8c>:
  1062d4:	34927f13          	and	t5,tp,841

001062d8 <i0000000d8d>:
  1062d8:	00a20733          	add	a4,tp,a0
  1062dc:	00009117          	auipc	sp,0x9
  1062e0:	e2410113          	add	sp,sp,-476 # 10f100 <mem>
  1062e4:	00001337          	lui	t1,0x1
  1062e8:	2e830313          	add	t1,t1,744 # 12e8 <_min_stack-0xd18>
  1062ec:	00610133          	add	sp,sp,t1

001062f0 <i0000000d8e>:
  1062f0:	6fc12b03          	lw	s6,1788(sp)

001062f4 <i0000000d8f>:
  1062f4:	443f8d93          	add	s11,t6,1091

001062f8 <i0000000d90>:
  1062f8:	10412003          	lw	zero,260(sp)

001062fc <i0000000d91>:
  1062fc:	01d25a13          	srl	s4,tp,0x1d

00106300 <i0000000d92>:
  106300:	89611123          	sh	s6,-1918(sp)

00106304 <i0000000d93>:
  106304:	274d2017          	auipc	zero,0x274d2

00106308 <i0000000d94>:
  106308:	a9e10003          	lb	zero,-1378(sp)

0010630c <i0000000d95>:
  10630c:	7a614383          	lbu	t2,1958(sp)

00106310 <b0000000d96>:
  106310:	03c0056f          	jal	a0,10634c <i0000000d9f>

00106314 <i0000000d96>:
  106314:	74150c93          	add	s9,a0,1857 # 6ad42a05 <fromhost+0x6abba9f5>
  106318:	00009117          	auipc	sp,0x9
  10631c:	de810113          	add	sp,sp,-536 # 10f100 <mem>
  106320:	00023337          	lui	t1,0x23
  106324:	45830313          	add	t1,t1,1112 # 23458 <tohost+0x3450>
  106328:	00610133          	add	sp,sp,t1

0010632c <i0000000d97>:
  10632c:	8dd10483          	lb	s1,-1827(sp)

00106330 <i0000000d98>:
  106330:	df6106a3          	sb	s6,-531(sp)

00106334 <i0000000d99>:
  106334:	00db1f13          	sll	t5,s6,0xd

00106338 <i0000000d9a>:
  106338:	01355f13          	srl	t5,a0,0x13

0010633c <i0000000d9b>:
  10633c:	80162893          	slti	a7,a2,-2047

00106340 <i0000000d9c>:
  106340:	dd812423          	sw	s8,-568(sp)

00106344 <i0000000d9d>:
  106344:	82415503          	lhu	a0,-2012(sp)

00106348 <i0000000d9e>:
  106348:	00027f33          	and	t5,tp,zero

0010634c <i0000000d9f>:
  10634c:	40af0e33          	sub	t3,t5,a0

00106350 <i0000000da0>:
  106350:	ca802b13          	slti	s6,zero,-856

00106354 <i0000000da1>:
  106354:	00ab4033          	xor	zero,s6,a0

00106358 <i0000000da2>:
  106358:	120bc637          	lui	a2,0x120bc
  10635c:	00009117          	auipc	sp,0x9
  106360:	da410113          	add	sp,sp,-604 # 10f100 <mem>
  106364:	0005a337          	lui	t1,0x5a
  106368:	61830313          	add	t1,t1,1560 # 5a618 <tohost+0x3a610>
  10636c:	00610133          	add	sp,sp,t1

00106370 <i0000000da3>:
  106370:	10710503          	lb	a0,263(sp)

00106374 <i0000000da4>:
  106374:	63011a83          	lh	s5,1584(sp)

00106378 <i0000000da5>:
  106378:	c7510203          	lb	tp,-907(sp)
  10637c:	00009117          	auipc	sp,0x9
  106380:	d8410113          	add	sp,sp,-636 # 10f100 <mem>
  106384:	0005b337          	lui	t1,0x5b
  106388:	9c030313          	add	t1,t1,-1600 # 5a9c0 <tohost+0x3a9b8>
  10638c:	00610133          	add	sp,sp,t1

00106390 <i0000000da6>:
  106390:	9fe11923          	sh	t5,-1550(sp)

00106394 <i0000000da7>:
  106394:	6ca15503          	lhu	a0,1738(sp)

00106398 <i0000000da8>:
  106398:	01e55b33          	srl	s6,a0,t5
  10639c:	00900c13          	li	s8,9
  1063a0:	00a00d13          	li	s10,10

001063a4 <b0000000da9>:
  1063a4:	00000033          	add	zero,zero,zero
  1063a8:	09ac5063          	bge	s8,s10,106428 <i0000000db7>
  1063ac:	00000033          	add	zero,zero,zero
  1063b0:	00a00d13          	li	s10,10

001063b4 <i0000000da9>:
  1063b4:	52c15b03          	lhu	s6,1324(sp)

001063b8 <i0000000daa>:
  1063b8:	004f1233          	sll	tp,t5,tp

001063bc <i0000000dab>:
  1063bc:	85211b03          	lh	s6,-1966(sp)
  1063c0:	00009117          	auipc	sp,0x9
  1063c4:	d4010113          	add	sp,sp,-704 # 10f100 <mem>
  1063c8:	00056337          	lui	t1,0x56
  1063cc:	e0830313          	add	t1,t1,-504 # 55e08 <tohost+0x35e00>
  1063d0:	00610133          	add	sp,sp,t1

001063d4 <i0000000dac>:
  1063d4:	de011323          	sh	zero,-538(sp)

001063d8 <i0000000dad>:
  1063d8:	012c7a33          	and	s4,s8,s2

001063dc <i0000000dae>:
  1063dc:	000549b3          	xor	s3,a0,zero

001063e0 <i0000000daf>:
  1063e0:	01419513          	sll	a0,gp,0x14

001063e4 <i0000000db0>:
  1063e4:	f2d4c993          	xor	s3,s1,-211

001063e8 <i0000000db1>:
  1063e8:	74e10503          	lb	a0,1870(sp)

001063ec <i0000000db2>:
  1063ec:	b8b11123          	sh	a1,-1150(sp)
  1063f0:	00009117          	auipc	sp,0x9
  1063f4:	d1010113          	add	sp,sp,-752 # 10f100 <mem>
  1063f8:	0002a337          	lui	t1,0x2a
  1063fc:	dd030313          	add	t1,t1,-560 # 29dd0 <tohost+0x9dc8>
  106400:	00610133          	add	sp,sp,t1

00106404 <i0000000db3>:
  106404:	1eb10423          	sb	a1,488(sp)
  106408:	00009117          	auipc	sp,0x9
  10640c:	cf810113          	add	sp,sp,-776 # 10f100 <mem>
  106410:	00042337          	lui	t1,0x42
  106414:	73030313          	add	t1,t1,1840 # 42730 <tohost+0x22728>
  106418:	00610133          	add	sp,sp,t1

0010641c <i0000000db4>:
  10641c:	2fb11723          	sh	s11,750(sp)

00106420 <i0000000db5>:
  106420:	011b5513          	srl	a0,s6,0x11

00106424 <i0000000db6>:
  106424:	b2012983          	lw	s3,-1248(sp)

00106428 <i0000000db7>:
  106428:	ede11623          	sh	t5,-308(sp)

0010642c <i0000000db8>:
  10642c:	7af14503          	lbu	a0,1967(sp)

00106430 <i0000000db9>:
  106430:	0151b033          	sltu	zero,gp,s5

00106434 <i0000000dba>:
  106434:	00cfc033          	xor	zero,t6,a2

00106438 <i0000000dbb>:
  106438:	b8a10ea3          	sb	a0,-1123(sp)
  10643c:	00c00d93          	li	s11,12
  106440:	001d0d13          	add	s10,s10,1

00106444 <b0000000dbc>:
  106444:	01bd0463          	beq	s10,s11,10644c <b0000000dbc+0x8>
  106448:	f9dff56f          	jal	a0,1063e4 <i0000000db0>
  10644c:	00a00d13          	li	s10,10

00106450 <i0000000dbc>:
  106450:	4ef14b03          	lbu	s6,1263(sp)

00106454 <i0000000dbd>:
  106454:	00689b13          	sll	s6,a7,0x6

00106458 <i0000000dbe>:
  106458:	3bf3f213          	and	tp,t2,959

0010645c <i0000000dbf>:
  10645c:	c0415a83          	lhu	s5,-1020(sp)

00106460 <i0000000dc0>:
  106460:	00a53533          	sltu	a0,a0,a0

00106464 <i0000000dc1>:
  106464:	1546c897          	auipc	a7,0x1546c

00106468 <i0000000dc2>:
  106468:	80a11723          	sh	a0,-2034(sp)

0010646c <i0000000dc3>:
  10646c:	73015003          	lhu	zero,1840(sp)

00106470 <i0000000dc4>:
  106470:	00400fb3          	add	t6,zero,tp

00106474 <i0000000dc5>:
  106474:	c8a11523          	sh	a0,-886(sp)

00106478 <i0000000dc6>:
  106478:	41335f93          	sra	t6,t1,0x13

0010647c <i0000000dc7>:
  10647c:	01d3de33          	srl	t3,t2,t4

00106480 <i0000000dc8>:
  106480:	0e210f03          	lb	t5,226(sp)

00106484 <i0000000dc9>:
  106484:	01da4533          	xor	a0,s4,t4

00106488 <i0000000dca>:
  106488:	003b5013          	srl	zero,s6,0x3

0010648c <i0000000dcb>:
  10648c:	01365a13          	srl	s4,a2,0x13

00106490 <i0000000dcc>:
  106490:	59110ea3          	sb	a7,1437(sp)

00106494 <i0000000dcd>:
  106494:	92910583          	lb	a1,-1751(sp)

00106498 <i0000000dce>:
  106498:	012abb33          	sltu	s6,s5,s2
  10649c:	00000813          	li	a6,0

001064a0 <b0000000dcf>:
  1064a0:	00000033          	add	zero,zero,zero
  1064a4:	fd0d04e3          	beq	s10,a6,10646c <i0000000dc3>
  1064a8:	00000033          	add	zero,zero,zero
  1064ac:	00a00d13          	li	s10,10
  1064b0:	00009117          	auipc	sp,0x9
  1064b4:	c5010113          	add	sp,sp,-944 # 10f100 <mem>
  1064b8:	0004b337          	lui	t1,0x4b
  1064bc:	5f830313          	add	t1,t1,1528 # 4b5f8 <tohost+0x2b5f0>
  1064c0:	00610133          	add	sp,sp,t1

001064c4 <i0000000dcf>:
  1064c4:	5ee10203          	lb	tp,1518(sp)

001064c8 <i0000000dd0>:
  1064c8:	013a8f13          	add	t5,s5,19

001064cc <i0000000dd1>:
  1064cc:	c6214183          	lbu	gp,-926(sp)

001064d0 <i0000000dd2>:
  1064d0:	96f14203          	lbu	tp,-1681(sp)

001064d4 <i0000000dd3>:
  1064d4:	4e96a893          	slti	a7,a3,1257

001064d8 <i0000000dd4>:
  1064d8:	9e412623          	sw	tp,-1556(sp)

001064dc <i0000000dd5>:
  1064dc:	45214703          	lbu	a4,1106(sp)

001064e0 <i0000000dd6>:
  1064e0:	4088de33          	sra	t3,a7,s0

001064e4 <i0000000dd7>:
  1064e4:	f3112623          	sw	a7,-212(sp)

001064e8 <i0000000dd8>:
  1064e8:	7c811803          	lh	a6,1992(sp)

001064ec <i0000000dd9>:
  1064ec:	01b55893          	srl	a7,a0,0x1b

001064f0 <i0000000dda>:
  1064f0:	18b12423          	sw	a1,392(sp)

001064f4 <i0000000ddb>:
  1064f4:	f1812203          	lw	tp,-232(sp)
  1064f8:	00009117          	auipc	sp,0x9
  1064fc:	c0810113          	add	sp,sp,-1016 # 10f100 <mem>
  106500:	0001f337          	lui	t1,0x1f
  106504:	af030313          	add	t1,t1,-1296 # 1eaf0 <_stack_len+0x16af0>
  106508:	00610133          	add	sp,sp,t1

0010650c <i0000000ddc>:
  10650c:	74615903          	lhu	s2,1862(sp)

00106510 <i0000000ddd>:
  106510:	ae011c83          	lh	s9,-1312(sp)
  106514:	00009117          	auipc	sp,0x9
  106518:	bec10113          	add	sp,sp,-1044 # 10f100 <mem>
  10651c:	00007337          	lui	t1,0x7
  106520:	fd830313          	add	t1,t1,-40 # 6fd8 <_min_stack+0x4fd8>
  106524:	00610133          	add	sp,sp,t1

00106528 <i0000000dde>:
  106528:	33910003          	lb	zero,825(sp)

0010652c <i0000000ddf>:
  10652c:	ae811203          	lh	tp,-1304(sp)

00106530 <i0000000de0>:
  106530:	c8c15583          	lhu	a1,-884(sp)

00106534 <i0000000de1>:
  106534:	cbc11623          	sh	t3,-852(sp)
  106538:	00900a13          	li	s4,9
  10653c:	00a00d13          	li	s10,10

00106540 <b0000000de2>:
  106540:	00000033          	add	zero,zero,zero
  106544:	034d4063          	blt	s10,s4,106564 <i0000000de7>
  106548:	00000033          	add	zero,zero,zero
  10654c:	00a00d13          	li	s10,10

00106550 <i0000000de2>:
  106550:	406b5213          	sra	tp,s6,0x6

00106554 <i0000000de3>:
  106554:	1d726c93          	or	s9,tp,471

00106558 <i0000000de4>:
  106558:	416b5b33          	sra	s6,s6,s6

0010655c <i0000000de5>:
  10655c:	55410ba3          	sb	s4,1367(sp)

00106560 <i0000000de6>:
  106560:	74b17397          	auipc	t2,0x74b17

00106564 <i0000000de7>:
  106564:	00a23233          	sltu	tp,tp,a0

00106568 <i0000000de8>:
  106568:	0096f7b3          	and	a5,a3,s1

0010656c <i0000000de9>:
  10656c:	0024d893          	srl	a7,s1,0x2

00106570 <i0000000dea>:
  106570:	0a412423          	sw	tp,168(sp)

00106574 <i0000000deb>:
  106574:	00a54f33          	xor	t5,a0,a0

00106578 <i0000000dec>:
  106578:	00af34b3          	sltu	s1,t5,a0

0010657c <i0000000ded>:
  10657c:	01e53b33          	sltu	s6,a0,t5

00106580 <i0000000dee>:
  106580:	00a25533          	srl	a0,tp,a0
  106584:	00009117          	auipc	sp,0x9
  106588:	b7c10113          	add	sp,sp,-1156 # 10f100 <mem>
  10658c:	00040337          	lui	t1,0x40
  106590:	5b030313          	add	t1,t1,1456 # 405b0 <tohost+0x205a8>
  106594:	00610133          	add	sp,sp,t1

00106598 <i0000000def>:
  106598:	e6015703          	lhu	a4,-416(sp)

0010659c <i0000000df0>:
  10659c:	40a006b3          	neg	a3,a0

001065a0 <i0000000df1>:
  1065a0:	00af6033          	or	zero,t5,a0

001065a4 <i0000000df2>:
  1065a4:	2fb10e23          	sb	s11,764(sp)

001065a8 <i0000000df3>:
  1065a8:	5d7c5217          	auipc	tp,0x5d7c5

001065ac <i0000000df4>:
  1065ac:	1f012003          	lw	zero,496(sp)
  1065b0:	00900c93          	li	s9,9
  1065b4:	00a00d13          	li	s10,10

001065b8 <b0000000df5>:
  1065b8:	00000033          	add	zero,zero,zero
  1065bc:	079d4663          	blt	s10,s9,106628 <i0000000e03>
  1065c0:	00000033          	add	zero,zero,zero
  1065c4:	00a00d13          	li	s10,10

001065c8 <i0000000df5>:
  1065c8:	28c15003          	lhu	zero,652(sp)

001065cc <i0000000df6>:
  1065cc:	d0011c83          	lh	s9,-768(sp)
  1065d0:	00009117          	auipc	sp,0x9
  1065d4:	b3010113          	add	sp,sp,-1232 # 10f100 <mem>
  1065d8:	00004337          	lui	t1,0x4
  1065dc:	61030313          	add	t1,t1,1552 # 4610 <_min_stack+0x2610>
  1065e0:	00610133          	add	sp,sp,t1

001065e4 <i0000000df7>:
  1065e4:	1f514f03          	lbu	t5,501(sp)

001065e8 <i0000000df8>:
  1065e8:	01e06b33          	or	s6,zero,t5

001065ec <i0000000df9>:
  1065ec:	f978b613          	sltiu	a2,a7,-105

001065f0 <i0000000dfa>:
  1065f0:	00a514b3          	sll	s1,a0,a0

001065f4 <i0000000dfb>:
  1065f4:	01ef5b33          	srl	s6,t5,t5

001065f8 <i0000000dfc>:
  1065f8:	01eb3233          	sltu	tp,s6,t5

001065fc <i0000000dfd>:
  1065fc:	05611503          	lh	a0,86(sp)

00106600 <i0000000dfe>:
  106600:	19612223          	sw	s6,388(sp)

00106604 <i0000000dff>:
  106604:	01eb7533          	and	a0,s6,t5
  106608:	00009117          	auipc	sp,0x9
  10660c:	af810113          	add	sp,sp,-1288 # 10f100 <mem>
  106610:	00015337          	lui	t1,0x15
  106614:	4b830313          	add	t1,t1,1208 # 154b8 <_stack_len+0xd4b8>
  106618:	00610133          	add	sp,sp,t1

0010661c <i0000000e00>:
  10661c:	98211c03          	lh	s8,-1662(sp)

00106620 <i0000000e01>:
  106620:	00cfc233          	xor	tp,t6,a2

00106624 <i0000000e02>:
  106624:	bc414203          	lbu	tp,-1084(sp)

00106628 <i0000000e03>:
  106628:	91614203          	lbu	tp,-1770(sp)

0010662c <i0000000e04>:
  10662c:	00af7533          	and	a0,t5,a0

00106630 <i0000000e05>:
  106630:	00d331b3          	sltu	gp,t1,a3

00106634 <i0000000e06>:
  106634:	01e54bb3          	xor	s7,a0,t5

00106638 <i0000000e07>:
  106638:	04c109a3          	sb	a2,83(sp)
  10663c:	00000b93          	li	s7,0

00106640 <b0000000e08>:
  106640:	00000033          	add	zero,zero,zero
  106644:	057d0863          	beq	s10,s7,106694 <i0000000e14>
  106648:	00000033          	add	zero,zero,zero
  10664c:	00a00d13          	li	s10,10

00106650 <i0000000e08>:
  106650:	02a12023          	sw	a0,32(sp)

00106654 <i0000000e09>:
  106654:	ef514503          	lbu	a0,-267(sp)

00106658 <i0000000e0a>:
  106658:	125f2213          	slti	tp,t5,293

0010665c <i0000000e0b>:
  10665c:	80010503          	lb	a0,-2048(sp)

00106660 <i0000000e0c>:
  106660:	9786ef13          	or	t5,a3,-1672

00106664 <i0000000e0d>:
  106664:	52f28013          	add	zero,t0,1327 # 18e40707 <fromhost+0x18cb86f7>

00106668 <i0000000e0e>:
  106668:	d6215203          	lhu	tp,-670(sp)

0010666c <i0000000e0f>:
  10666c:	81a15803          	lhu	a6,-2022(sp)
  106670:	00009117          	auipc	sp,0x9
  106674:	a9010113          	add	sp,sp,-1392 # 10f100 <mem>
  106678:	00032337          	lui	t1,0x32
  10667c:	41830313          	add	t1,t1,1048 # 32418 <tohost+0x12410>
  106680:	00610133          	add	sp,sp,t1

00106684 <i0000000e10>:
  106684:	97611723          	sh	s6,-1682(sp)

00106688 <i0000000e11>:
  106688:	57b83797          	auipc	a5,0x57b83

0010668c <i0000000e12>:
  10668c:	a4215a03          	lhu	s4,-1470(sp)

00106690 <i0000000e13>:
  106690:	98210703          	lb	a4,-1662(sp)

00106694 <i0000000e14>:
  106694:	0079c9b3          	xor	s3,s3,t2

00106698 <i0000000e15>:
  106698:	43812f03          	lw	t5,1080(sp)

0010669c <i0000000e16>:
  10669c:	e8310c83          	lb	s9,-381(sp)
  1066a0:	00009117          	auipc	sp,0x9
  1066a4:	a6010113          	add	sp,sp,-1440 # 10f100 <mem>
  1066a8:	00052337          	lui	t1,0x52
  1066ac:	0d030313          	add	t1,t1,208 # 520d0 <tohost+0x320c8>
  1066b0:	00610133          	add	sp,sp,t1

001066b4 <i0000000e17>:
  1066b4:	97611c23          	sh	s6,-1672(sp)

001066b8 <i0000000e18>:
  1066b8:	016ad793          	srl	a5,s5,0x16

001066bc <i0000000e19>:
  1066bc:	bcaf4f13          	xor	t5,t5,-1078

001066c0 <i0000000e1a>:
  1066c0:	00976233          	or	tp,a4,s1
  1066c4:	00c00e93          	li	t4,12
  1066c8:	001d0d13          	add	s10,s10,1

001066cc <b0000000e1b>:
  1066cc:	01dd0463          	beq	s10,t4,1066d4 <b0000000e1b+0x8>
  1066d0:	fb5ff56f          	jal	a0,106684 <i0000000e10>
  1066d4:	00a00d13          	li	s10,10

001066d8 <i0000000e1b>:
  1066d8:	a2810c83          	lb	s9,-1496(sp)

001066dc <i0000000e1c>:
  1066dc:	29611223          	sh	s6,644(sp)

001066e0 <i0000000e1d>:
  1066e0:	91c12e23          	sw	t3,-1764(sp)

001066e4 <i0000000e1e>:
  1066e4:	0b615803          	lhu	a6,182(sp)
  1066e8:	00009117          	auipc	sp,0x9
  1066ec:	a1810113          	add	sp,sp,-1512 # 10f100 <mem>
  1066f0:	00068337          	lui	t1,0x68
  1066f4:	73030313          	add	t1,t1,1840 # 68730 <tohost+0x48728>
  1066f8:	00610133          	add	sp,sp,t1

001066fc <i0000000e1f>:
  1066fc:	3b710f03          	lb	t5,951(sp)

00106700 <i0000000e20>:
  106700:	68511037          	lui	zero,0x68511

00106704 <i0000000e21>:
  106704:	0176d213          	srl	tp,a3,0x17

00106708 <i0000000e22>:
  106708:	3cf14303          	lbu	t1,975(sp)
  10670c:	00009117          	auipc	sp,0x9
  106710:	9f410113          	add	sp,sp,-1548 # 10f100 <mem>
  106714:	0004e337          	lui	t1,0x4e
  106718:	ce030313          	add	t1,t1,-800 # 4dce0 <tohost+0x2dcd8>
  10671c:	00610133          	add	sp,sp,t1

00106720 <i0000000e23>:
  106720:	e1e15b03          	lhu	s6,-482(sp)

00106724 <i0000000e24>:
  106724:	ad3f3693          	sltiu	a3,t5,-1325
  106728:	00009117          	auipc	sp,0x9
  10672c:	9d810113          	add	sp,sp,-1576 # 10f100 <mem>
  106730:	00023337          	lui	t1,0x23
  106734:	43830313          	add	t1,t1,1080 # 23438 <tohost+0x3430>
  106738:	00610133          	add	sp,sp,t1

0010673c <i0000000e25>:
  10673c:	d3314903          	lbu	s2,-717(sp)

00106740 <i0000000e26>:
  106740:	d8256013          	or	zero,a0,-638

00106744 <i0000000e27>:
  106744:	00f62f33          	slt	t5,a2,a5

00106748 <i0000000e28>:
  106748:	6f611323          	sh	s6,1766(sp)

0010674c <i0000000e29>:
  10674c:	b6410b23          	sb	tp,-1162(sp)

00106750 <i0000000e2a>:
  106750:	00454533          	xor	a0,a0,tp

00106754 <i0000000e2b>:
  106754:	15c15903          	lhu	s2,348(sp)

00106758 <i0000000e2c>:
  106758:	00883517          	auipc	a0,0x883

0010675c <i0000000e2d>:
  10675c:	e8412623          	sw	tp,-372(sp)
  106760:	00b00893          	li	a7,11
  106764:	00a00d13          	li	s10,10

00106768 <b0000000e2e>:
  106768:	00000033          	add	zero,zero,zero
  10676c:	05a8d063          	bge	a7,s10,1067ac <i0000000e36>
  106770:	00000033          	add	zero,zero,zero
  106774:	00a00d13          	li	s10,10

00106778 <i0000000e2e>:
  106778:	00002233          	sltz	tp,zero
  10677c:	00009117          	auipc	sp,0x9
  106780:	98410113          	add	sp,sp,-1660 # 10f100 <mem>
  106784:	0001b337          	lui	t1,0x1b
  106788:	91030313          	add	t1,t1,-1776 # 1a910 <_stack_len+0x12910>
  10678c:	00610133          	add	sp,sp,t1

00106790 <i0000000e2f>:
  106790:	1fe14883          	lbu	a7,510(sp)

00106794 <i0000000e30>:
  106794:	1c711a23          	sh	t2,468(sp)

00106798 <i0000000e31>:
  106798:	f6b23413          	sltiu	s0,tp,-149

0010679c <i0000000e32>:
  10679c:	016562b3          	or	t0,a0,s6

001067a0 <i0000000e33>:
  1067a0:	a4110a83          	lb	s5,-1471(sp)

001067a4 <i0000000e34>:
  1067a4:	00ee35b3          	sltu	a1,t3,a4

001067a8 <i0000000e35>:
  1067a8:	13615503          	lhu	a0,310(sp)

001067ac <i0000000e36>:
  1067ac:	e40c4013          	xor	zero,s8,-448

001067b0 <i0000000e37>:
  1067b0:	33457993          	and	s3,a0,820

001067b4 <i0000000e38>:
  1067b4:	6d210f03          	lb	t5,1746(sp)

001067b8 <i0000000e39>:
  1067b8:	00a547b3          	xor	a5,a0,a0

001067bc <i0000000e3a>:
  1067bc:	41600f33          	neg	t5,s6

001067c0 <i0000000e3b>:
  1067c0:	013c0a33          	add	s4,s8,s3

001067c4 <i0000000e3c>:
  1067c4:	003e4b33          	xor	s6,t3,gp

001067c8 <i0000000e3d>:
  1067c8:	004009b3          	add	s3,zero,tp

001067cc <i0000000e3e>:
  1067cc:	00024233          	xor	tp,tp,zero

001067d0 <i0000000e3f>:
  1067d0:	00719333          	sll	t1,gp,t2

001067d4 <i0000000e40>:
  1067d4:	b5910ea3          	sb	s9,-1187(sp)
  1067d8:	00900913          	li	s2,9

001067dc <b0000000e41>:
  1067dc:	00000033          	add	zero,zero,zero
  1067e0:	fd2d48e3          	blt	s10,s2,1067b0 <i0000000e37>
  1067e4:	00000033          	add	zero,zero,zero
  1067e8:	00a00d13          	li	s10,10

001067ec <i0000000e41>:
  1067ec:	1ce15e83          	lhu	t4,462(sp)

001067f0 <i0000000e42>:
  1067f0:	2fe11023          	sh	t5,736(sp)

001067f4 <i0000000e43>:
  1067f4:	0081af33          	slt	t5,gp,s0

001067f8 <i0000000e44>:
  1067f8:	8aa11003          	lh	zero,-1878(sp)

001067fc <i0000000e45>:
  1067fc:	01625bb3          	srl	s7,tp,s6

00106800 <i0000000e46>:
  106800:	02815a83          	lhu	s5,40(sp)

00106804 <i0000000e47>:
  106804:	013ea533          	slt	a0,t4,s3

00106808 <i0000000e48>:
  106808:	98811603          	lh	a2,-1656(sp)

0010680c <i0000000e49>:
  10680c:	01eb6533          	or	a0,s6,t5

00106810 <i0000000e4a>:
  106810:	1e012503          	lw	a0,480(sp)

00106814 <i0000000e4b>:
  106814:	f1c03913          	sltiu	s2,zero,-228

00106818 <i0000000e4c>:
  106818:	f2311b23          	sh	gp,-202(sp)

0010681c <i0000000e4d>:
  10681c:	2eddc693          	xor	a3,s11,749

00106820 <i0000000e4e>:
  106820:	6f310303          	lb	t1,1779(sp)
  106824:	00009117          	auipc	sp,0x9
  106828:	8dc10113          	add	sp,sp,-1828 # 10f100 <mem>
  10682c:	00064337          	lui	t1,0x64
  106830:	7b830313          	add	t1,t1,1976 # 647b8 <tohost+0x447b0>
  106834:	00610133          	add	sp,sp,t1

00106838 <i0000000e4f>:
  106838:	71c11323          	sh	t3,1798(sp)

0010683c <i0000000e50>:
  10683c:	ed0cf413          	and	s0,s9,-304

00106840 <i0000000e51>:
  106840:	41b90233          	sub	tp,s2,s11

00106844 <i0000000e52>:
  106844:	87d10f03          	lb	t5,-1923(sp)

00106848 <i0000000e53>:
  106848:	4141dd93          	sra	s11,gp,0x14
  10684c:	00b00c13          	li	s8,11
  106850:	00a00d13          	li	s10,10

00106854 <b0000000e54>:
  106854:	00000033          	add	zero,zero,zero
  106858:	05ac5063          	bge	s8,s10,106898 <i0000000e5c>
  10685c:	00000033          	add	zero,zero,zero
  106860:	00a00d13          	li	s10,10

00106864 <i0000000e54>:
  106864:	bae57013          	and	zero,a0,-1106

00106868 <i0000000e55>:
  106868:	ed112423          	sw	a7,-312(sp)

0010686c <i0000000e56>:
  10686c:	01998c33          	add	s8,s3,s9

00106870 <i0000000e57>:
  106870:	694102a3          	sb	s4,1669(sp)

00106874 <i0000000e58>:
  106874:	11012a83          	lw	s5,272(sp)

00106878 <i0000000e59>:
  106878:	50a15003          	lhu	zero,1290(sp)
  10687c:	00009117          	auipc	sp,0x9
  106880:	88410113          	add	sp,sp,-1916 # 10f100 <mem>
  106884:	0004a337          	lui	t1,0x4a
  106888:	59830313          	add	t1,t1,1432 # 4a598 <tohost+0x2a590>
  10688c:	00610133          	add	sp,sp,t1

00106890 <i0000000e5a>:
  106890:	c3411c83          	lh	s9,-972(sp)

00106894 <i0000000e5b>:
  106894:	e0b10803          	lb	a6,-501(sp)

00106898 <i0000000e5c>:
  106898:	00051513          	sll	a0,a0,0x0

0010689c <i0000000e5d>:
  10689c:	8da15b03          	lhu	s6,-1830(sp)

001068a0 <i0000000e5e>:
  1068a0:	24012f03          	lw	t5,576(sp)

001068a4 <i0000000e5f>:
  1068a4:	e7c11603          	lh	a2,-388(sp)

001068a8 <i0000000e60>:
  1068a8:	01eb0b33          	add	s6,s6,t5

001068ac <i0000000e61>:
  1068ac:	00451eb3          	sll	t4,a0,tp

001068b0 <i0000000e62>:
  1068b0:	e49ca713          	slti	a4,s9,-439

001068b4 <i0000000e63>:
  1068b4:	b4a11c23          	sh	a0,-1192(sp)

001068b8 <i0000000e64>:
  1068b8:	7ff12c23          	sw	t6,2040(sp)

001068bc <i0000000e65>:
  1068bc:	01deb033          	sltu	zero,t4,t4

001068c0 <i0000000e66>:
  1068c0:	008a47b3          	xor	a5,s4,s0

001068c4 <b0000000e67>:
  1068c4:	00000e97          	auipc	t4,0x0
  1068c8:	050e8e93          	add	t4,t4,80 # 106914 <i0000000e73>
  1068cc:	000e8567          	jalr	a0,t4

001068d0 <i0000000e67>:
  1068d0:	40525e93          	sra	t4,tp,0x5

001068d4 <i0000000e68>:
  1068d4:	01cba033          	slt	zero,s7,t3

001068d8 <i0000000e69>:
  1068d8:	7ac12c23          	sw	a2,1976(sp)

001068dc <i0000000e6a>:
  1068dc:	70c15a83          	lhu	s5,1804(sp)

001068e0 <i0000000e6b>:
  1068e0:	1ea83817          	auipc	a6,0x1ea83

001068e4 <i0000000e6c>:
  1068e4:	016f1913          	sll	s2,t5,0x16

001068e8 <i0000000e6d>:
  1068e8:	6e018e93          	add	t4,gp,1760

001068ec <i0000000e6e>:
  1068ec:	0187a033          	slt	zero,a5,s8

001068f0 <i0000000e6f>:
  1068f0:	0037c6b3          	xor	a3,a5,gp

001068f4 <i0000000e70>:
  1068f4:	3e012f83          	lw	t6,992(sp)

001068f8 <i0000000e71>:
  1068f8:	00a57533          	and	a0,a0,a0
  1068fc:	00009117          	auipc	sp,0x9
  106900:	80410113          	add	sp,sp,-2044 # 10f100 <mem>
  106904:	00025337          	lui	t1,0x25
  106908:	9b030313          	add	t1,t1,-1616 # 249b0 <tohost+0x49a8>
  10690c:	00610133          	add	sp,sp,t1

00106910 <i0000000e72>:
  106910:	08011b23          	sh	zero,150(sp)

00106914 <i0000000e73>:
  106914:	004b3033          	sltu	zero,s6,tp

00106918 <i0000000e74>:
  106918:	36014e83          	lbu	t4,864(sp)

0010691c <i0000000e75>:
  10691c:	00171b13          	sll	s6,a4,0x1

00106920 <i0000000e76>:
  106920:	06a10f03          	lb	t5,106(sp)

00106924 <i0000000e77>:
  106924:	d057fb13          	and	s6,a5,-763

00106928 <i0000000e78>:
  106928:	19157713          	and	a4,a0,401

0010692c <i0000000e79>:
  10692c:	004f1bb3          	sll	s7,t5,tp
  106930:	00c00f93          	li	t6,12
  106934:	001d0d13          	add	s10,s10,1

00106938 <b0000000e7a>:
  106938:	00000033          	add	zero,zero,zero
  10693c:	fbfd46e3          	blt	s10,t6,1068e8 <i0000000e6d>
  106940:	00000033          	add	zero,zero,zero
  106944:	00a00d13          	li	s10,10

00106948 <i0000000e7a>:
  106948:	ada47f13          	and	t5,s0,-1318

0010694c <i0000000e7b>:
  10694c:	47241b17          	auipc	s6,0x47241

00106950 <i0000000e7c>:
  106950:	fb9f7213          	and	tp,t5,-71
  106954:	00008117          	auipc	sp,0x8
  106958:	7ac10113          	add	sp,sp,1964 # 10f100 <mem>
  10695c:	00037337          	lui	t1,0x37
  106960:	b4030313          	add	t1,t1,-1216 # 36b40 <tohost+0x16b38>
  106964:	00610133          	add	sp,sp,t1

00106968 <i0000000e7d>:
  106968:	65c12503          	lw	a0,1628(sp)

0010696c <i0000000e7e>:
  10696c:	0115dc33          	srl	s8,a1,a7

00106970 <i0000000e7f>:
  106970:	01c94233          	xor	tp,s2,t3

00106974 <i0000000e80>:
  106974:	01dc7233          	and	tp,s8,t4

00106978 <i0000000e81>:
  106978:	00e9a533          	slt	a0,s3,a4

0010697c <i0000000e82>:
  10697c:	40400f33          	neg	t5,tp

00106980 <i0000000e83>:
  106980:	01329813          	sll	a6,t0,0x13

00106984 <i0000000e84>:
  106984:	009f9f13          	sll	t5,t6,0x9

00106988 <i0000000e85>:
  106988:	01bc6533          	or	a0,s8,s11

0010698c <i0000000e86>:
  10698c:	55c12503          	lw	a0,1372(sp)

00106990 <i0000000e87>:
  106990:	a9712e23          	sw	s7,-1380(sp)

00106994 <i0000000e88>:
  106994:	009baf33          	slt	t5,s7,s1

00106998 <i0000000e89>:
  106998:	42812703          	lw	a4,1064(sp)

0010699c <i0000000e8a>:
  10699c:	413981b3          	sub	gp,s3,s3

001069a0 <i0000000e8b>:
  1069a0:	40125513          	sra	a0,tp,0x1

001069a4 <i0000000e8c>:
  1069a4:	f7314503          	lbu	a0,-141(sp)

001069a8 <b0000000e8d>:
  1069a8:	04c0056f          	jal	a0,1069f4 <i0000000e9a>

001069ac <i0000000e8d>:
  1069ac:	dd7b0b13          	add	s6,s6,-553 # 47347723 <fromhost+0x471bf713>

001069b0 <i0000000e8e>:
  1069b0:	b8012223          	sw	zero,-1148(sp)

001069b4 <i0000000e8f>:
  1069b4:	92114f83          	lbu	t6,-1759(sp)

001069b8 <i0000000e90>:
  1069b8:	01e22833          	slt	a6,tp,t5

001069bc <i0000000e91>:
  1069bc:	00ab2f33          	slt	t5,s6,a0

001069c0 <i0000000e92>:
  1069c0:	d1011383          	lh	t2,-752(sp)

001069c4 <i0000000e93>:
  1069c4:	6b9a7e97          	auipc	t4,0x6b9a7

001069c8 <i0000000e94>:
  1069c8:	0182ff33          	and	t5,t0,s8
  1069cc:	00008117          	auipc	sp,0x8
  1069d0:	73410113          	add	sp,sp,1844 # 10f100 <mem>
  1069d4:	00032337          	lui	t1,0x32
  1069d8:	5b030313          	add	t1,t1,1456 # 325b0 <tohost+0x125a8>
  1069dc:	00610133          	add	sp,sp,t1

001069e0 <i0000000e95>:
  1069e0:	7a810583          	lb	a1,1960(sp)

001069e4 <i0000000e96>:
  1069e4:	40ec5c33          	sra	s8,s8,a4

001069e8 <i0000000e97>:
  1069e8:	1d2102a3          	sb	s2,453(sp)

001069ec <i0000000e98>:
  1069ec:	4333bf93          	sltiu	t6,t2,1075

001069f0 <i0000000e99>:
  1069f0:	e4d10183          	lb	gp,-435(sp)

001069f4 <i0000000e9a>:
  1069f4:	419a0533          	sub	a0,s4,s9

001069f8 <i0000000e9b>:
  1069f8:	0058af33          	slt	t5,a7,t0

001069fc <i0000000e9c>:
  1069fc:	01eb4933          	xor	s2,s6,t5

00106a00 <i0000000e9d>:
  106a00:	d3814f03          	lbu	t5,-712(sp)

00106a04 <i0000000e9e>:
  106a04:	a7310203          	lb	tp,-1421(sp)

00106a08 <i0000000e9f>:
  106a08:	80043793          	sltiu	a5,s0,-2048
  106a0c:	00c00913          	li	s2,12
  106a10:	001d0d13          	add	s10,s10,1

00106a14 <b0000000ea0>:
  106a14:	00000033          	add	zero,zero,zero
  106a18:	fda95ce3          	bge	s2,s10,1069f0 <i0000000e99>
  106a1c:	00000033          	add	zero,zero,zero
  106a20:	00a00d13          	li	s10,10

00106a24 <i0000000ea0>:
  106a24:	01695f13          	srl	t5,s2,0x16

00106a28 <i0000000ea1>:
  106a28:	cb015c03          	lhu	s8,-848(sp)

00106a2c <i0000000ea2>:
  106a2c:	bfa14f03          	lbu	t5,-1030(sp)
  106a30:	00008117          	auipc	sp,0x8
  106a34:	6d010113          	add	sp,sp,1744 # 10f100 <mem>
  106a38:	0001c337          	lui	t1,0x1c
  106a3c:	09030313          	add	t1,t1,144 # 1c090 <_stack_len+0x14090>
  106a40:	00610133          	add	sp,sp,t1

00106a44 <i0000000ea3>:
  106a44:	9d710a03          	lb	s4,-1577(sp)
  106a48:	00008117          	auipc	sp,0x8
  106a4c:	6b810113          	add	sp,sp,1720 # 10f100 <mem>
  106a50:	00009337          	lui	t1,0x9
  106a54:	a9030313          	add	t1,t1,-1392 # 8a90 <_stack_len+0xa90>
  106a58:	00610133          	add	sp,sp,t1

00106a5c <i0000000ea4>:
  106a5c:	393100a3          	sb	s3,897(sp)

00106a60 <i0000000ea5>:
  106a60:	15830b13          	add	s6,t1,344

00106a64 <i0000000ea6>:
  106a64:	cde11e83          	lh	t4,-802(sp)

00106a68 <i0000000ea7>:
  106a68:	fac12023          	sw	a2,-96(sp)

00106a6c <i0000000ea8>:
  106a6c:	de0ff393          	and	t2,t6,-544

00106a70 <i0000000ea9>:
  106a70:	40000833          	neg	a6,zero

00106a74 <i0000000eaa>:
  106a74:	dd0b0b13          	add	s6,s6,-560

00106a78 <i0000000eab>:
  106a78:	403b5513          	sra	a0,s6,0x3

00106a7c <i0000000eac>:
  106a7c:	45c12f03          	lw	t5,1116(sp)
  106a80:	00008117          	auipc	sp,0x8
  106a84:	68010113          	add	sp,sp,1664 # 10f100 <mem>
  106a88:	0006d337          	lui	t1,0x6d
  106a8c:	cb030313          	add	t1,t1,-848 # 6ccb0 <tohost+0x4cca8>
  106a90:	00610133          	add	sp,sp,t1

00106a94 <i0000000ead>:
  106a94:	5e815b03          	lhu	s6,1512(sp)

00106a98 <i0000000eae>:
  106a98:	bfc11203          	lh	tp,-1028(sp)

00106a9c <i0000000eaf>:
  106a9c:	40fb5513          	sra	a0,s6,0xf
  106aa0:	00008117          	auipc	sp,0x8
  106aa4:	66010113          	add	sp,sp,1632 # 10f100 <mem>
  106aa8:	0006c337          	lui	t1,0x6c
  106aac:	4a030313          	add	t1,t1,1184 # 6c4a0 <tohost+0x4c498>
  106ab0:	00610133          	add	sp,sp,t1

00106ab4 <i0000000eb0>:
  106ab4:	c2411203          	lh	tp,-988(sp)

00106ab8 <i0000000eb1>:
  106ab8:	41975233          	sra	tp,a4,s9

00106abc <i0000000eb2>:
  106abc:	33811303          	lh	t1,824(sp)
  106ac0:	00b00b93          	li	s7,11
  106ac4:	00a00d13          	li	s10,10

00106ac8 <b0000000eb3>:
  106ac8:	00000033          	add	zero,zero,zero
  106acc:	05abda63          	bge	s7,s10,106b20 <i0000000ec0>
  106ad0:	00000033          	add	zero,zero,zero
  106ad4:	00a00d13          	li	s10,10

00106ad8 <i0000000eb3>:
  106ad8:	00bdd2b3          	srl	t0,s11,a1
  106adc:	00008117          	auipc	sp,0x8
  106ae0:	62410113          	add	sp,sp,1572 # 10f100 <mem>
  106ae4:	00053337          	lui	t1,0x53
  106ae8:	f0830313          	add	t1,t1,-248 # 52f08 <tohost+0x32f00>
  106aec:	00610133          	add	sp,sp,t1

00106af0 <i0000000eb4>:
  106af0:	bd110ca3          	sb	a7,-1063(sp)

00106af4 <i0000000eb5>:
  106af4:	b6a11d23          	sh	a0,-1158(sp)

00106af8 <i0000000eb6>:
  106af8:	41535f33          	sra	t5,t1,s5

00106afc <i0000000eb7>:
  106afc:	64110203          	lb	tp,1601(sp)

00106b00 <i0000000eb8>:
  106b00:	4fe11523          	sh	t5,1258(sp)

00106b04 <i0000000eb9>:
  106b04:	9d810ea3          	sb	s8,-1571(sp)

00106b08 <i0000000eba>:
  106b08:	01f01713          	sll	a4,zero,0x1f

00106b0c <i0000000ebb>:
  106b0c:	bd9bb513          	sltiu	a0,s7,-1063

00106b10 <i0000000ebc>:
  106b10:	bcb10f03          	lb	t5,-1077(sp)

00106b14 <i0000000ebd>:
  106b14:	013dfe33          	and	t3,s11,s3

00106b18 <i0000000ebe>:
  106b18:	016e5f13          	srl	t5,t3,0x16

00106b1c <i0000000ebf>:
  106b1c:	01161213          	sll	tp,a2,0x11

00106b20 <i0000000ec0>:
  106b20:	04e11b23          	sh	a4,86(sp)

00106b24 <i0000000ec1>:
  106b24:	9c354913          	xor	s2,a0,-1597
  106b28:	00008117          	auipc	sp,0x8
  106b2c:	5d810113          	add	sp,sp,1496 # 10f100 <mem>
  106b30:	00017337          	lui	t1,0x17
  106b34:	f8030313          	add	t1,t1,-128 # 16f80 <_stack_len+0xef80>
  106b38:	00610133          	add	sp,sp,t1

00106b3c <i0000000ec2>:
  106b3c:	63811c23          	sh	s8,1592(sp)

00106b40 <i0000000ec3>:
  106b40:	146135b7          	lui	a1,0x14613

00106b44 <i0000000ec4>:
  106b44:	26d2cb13          	xor	s6,t0,621

00106b48 <i0000000ec5>:
  106b48:	01b28db3          	add	s11,t0,s11
  106b4c:	00c00f93          	li	t6,12
  106b50:	001d0d13          	add	s10,s10,1

00106b54 <b0000000ec6>:
  106b54:	00000033          	add	zero,zero,zero
  106b58:	fdafd4e3          	bge	t6,s10,106b20 <i0000000ec0>
  106b5c:	00000033          	add	zero,zero,zero
  106b60:	00a00d13          	li	s10,10

00106b64 <i0000000ec6>:
  106b64:	839fec93          	or	s9,t6,-1991

00106b68 <i0000000ec7>:
  106b68:	b83a2393          	slti	t2,s4,-1149

00106b6c <i0000000ec8>:
  106b6c:	94a12423          	sw	a0,-1720(sp)

00106b70 <i0000000ec9>:
  106b70:	12427013          	and	zero,tp,292

00106b74 <i0000000eca>:
  106b74:	000522b3          	sltz	t0,a0

00106b78 <i0000000ecb>:
  106b78:	06812883          	lw	a7,104(sp)

00106b7c <i0000000ecc>:
  106b7c:	27710003          	lb	zero,631(sp)

00106b80 <i0000000ecd>:
  106b80:	b0812003          	lw	zero,-1272(sp)

00106b84 <i0000000ece>:
  106b84:	00c11a23          	sh	a2,20(sp)

00106b88 <i0000000ecf>:
  106b88:	0174d593          	srl	a1,s1,0x17

00106b8c <i0000000ed0>:
  106b8c:	92412e23          	sw	tp,-1732(sp)

00106b90 <i0000000ed1>:
  106b90:	a0210503          	lb	a0,-1534(sp)

00106b94 <i0000000ed2>:
  106b94:	01551513          	sll	a0,a0,0x15

00106b98 <i0000000ed3>:
  106b98:	004b3bb3          	sltu	s7,s6,tp

00106b9c <i0000000ed4>:
  106b9c:	0064f233          	and	tp,s1,t1

00106ba0 <i0000000ed5>:
  106ba0:	2d014c03          	lbu	s8,720(sp)
  106ba4:	00008117          	auipc	sp,0x8
  106ba8:	55c10113          	add	sp,sp,1372 # 10f100 <mem>
  106bac:	00045337          	lui	t1,0x45
  106bb0:	ab030313          	add	t1,t1,-1360 # 44ab0 <tohost+0x24aa8>
  106bb4:	00610133          	add	sp,sp,t1

00106bb8 <i0000000ed6>:
  106bb8:	6fc11f03          	lh	t5,1788(sp)

00106bbc <i0000000ed7>:
  106bbc:	0051b033          	sltu	zero,gp,t0

00106bc0 <i0000000ed8>:
  106bc0:	9ea10ca3          	sb	a0,-1543(sp)
  106bc4:	00c00893          	li	a7,12
  106bc8:	001d0d13          	add	s10,s10,1

00106bcc <b0000000ed9>:
  106bcc:	00000033          	add	zero,zero,zero
  106bd0:	fb1d4ee3          	blt	s10,a7,106b8c <i0000000ed0>
  106bd4:	00000033          	add	zero,zero,zero
  106bd8:	00a00d13          	li	s10,10

00106bdc <i0000000ed9>:
  106bdc:	55710a23          	sb	s7,1364(sp)

00106be0 <i0000000eda>:
  106be0:	0192f833          	and	a6,t0,s9
  106be4:	00008117          	auipc	sp,0x8
  106be8:	51c10113          	add	sp,sp,1308 # 10f100 <mem>
  106bec:	00059337          	lui	t1,0x59
  106bf0:	cf830313          	add	t1,t1,-776 # 58cf8 <tohost+0x38cf0>
  106bf4:	00610133          	add	sp,sp,t1

00106bf8 <i0000000edb>:
  106bf8:	3b615903          	lhu	s2,950(sp)

00106bfc <i0000000edc>:
  106bfc:	00b8fc33          	and	s8,a7,a1

00106c00 <i0000000edd>:
  106c00:	73e11023          	sh	t5,1824(sp)

00106c04 <i0000000ede>:
  106c04:	69310923          	sb	s3,1682(sp)

00106c08 <i0000000edf>:
  106c08:	41068b33          	sub	s6,a3,a6

00106c0c <i0000000ee0>:
  106c0c:	8b610003          	lb	zero,-1866(sp)

00106c10 <i0000000ee1>:
  106c10:	43e11a83          	lh	s5,1086(sp)

00106c14 <i0000000ee2>:
  106c14:	01e256b3          	srl	a3,tp,t5

00106c18 <i0000000ee3>:
  106c18:	cdf11a23          	sh	t6,-812(sp)

00106c1c <i0000000ee4>:
  106c1c:	96ef2f13          	slti	t5,t5,-1682

00106c20 <i0000000ee5>:
  106c20:	f4211c03          	lh	s8,-190(sp)

00106c24 <i0000000ee6>:
  106c24:	005fbb33          	sltu	s6,t6,t0

00106c28 <i0000000ee7>:
  106c28:	40e05513          	sra	a0,zero,0xe

00106c2c <i0000000ee8>:
  106c2c:	5dc11503          	lh	a0,1500(sp)

00106c30 <i0000000ee9>:
  106c30:	00423033          	sltu	zero,tp,tp

00106c34 <i0000000eea>:
  106c34:	00d2b533          	sltu	a0,t0,a3

00106c38 <i0000000eeb>:
  106c38:	00422533          	slt	a0,tp,tp
  106c3c:	00900c93          	li	s9,9

00106c40 <b0000000eec>:
  106c40:	00000033          	add	zero,zero,zero
  106c44:	fd9d42e3          	blt	s10,s9,106c08 <i0000000edf>
  106c48:	00000033          	add	zero,zero,zero
  106c4c:	00a00d13          	li	s10,10

00106c50 <i0000000eec>:
  106c50:	8d610003          	lb	zero,-1834(sp)
  106c54:	00008117          	auipc	sp,0x8
  106c58:	4ac10113          	add	sp,sp,1196 # 10f100 <mem>
  106c5c:	00021337          	lui	t1,0x21
  106c60:	2b030313          	add	t1,t1,688 # 212b0 <tohost+0x12a8>
  106c64:	00610133          	add	sp,sp,t1

00106c68 <i0000000eed>:
  106c68:	9f612023          	sw	s6,-1568(sp)

00106c6c <i0000000eee>:
  106c6c:	dd215503          	lhu	a0,-558(sp)

00106c70 <i0000000eef>:
  106c70:	69eb58b7          	lui	a7,0x69eb5

00106c74 <i0000000ef0>:
  106c74:	01279db3          	sll	s11,a5,s2

00106c78 <i0000000ef1>:
  106c78:	c7611503          	lh	a0,-906(sp)

00106c7c <i0000000ef2>:
  106c7c:	00a45213          	srl	tp,s0,0xa

00106c80 <i0000000ef3>:
  106c80:	83b103a3          	sb	s11,-2009(sp)

00106c84 <i0000000ef4>:
  106c84:	40e25d93          	sra	s11,tp,0xe

00106c88 <i0000000ef5>:
  106c88:	41655033          	sra	zero,a0,s6

00106c8c <i0000000ef6>:
  106c8c:	00bccf33          	xor	t5,s9,a1

00106c90 <i0000000ef7>:
  106c90:	01cb5e93          	srl	t4,s6,0x1c

00106c94 <i0000000ef8>:
  106c94:	009f5213          	srl	tp,t5,0x9

00106c98 <i0000000ef9>:
  106c98:	ec412e23          	sw	tp,-292(sp)

00106c9c <i0000000efa>:
  106c9c:	ad180f93          	add	t6,a6,-1327 # 1eb893b1 <fromhost+0x1ea013a1>

00106ca0 <i0000000efb>:
  106ca0:	b3ec4b13          	xor	s6,s8,-1218

00106ca4 <i0000000efc>:
  106ca4:	0b77ff17          	auipc	t5,0xb77f

00106ca8 <i0000000efd>:
  106ca8:	5e411823          	sh	tp,1520(sp)

00106cac <i0000000efe>:
  106cac:	e3a4ef13          	or	t5,s1,-454
  106cb0:	00a00893          	li	a7,10

00106cb4 <b0000000eff>:
  106cb4:	00000033          	add	zero,zero,zero
  106cb8:	fd1d16e3          	bne	s10,a7,106c84 <i0000000ef4>
  106cbc:	00000033          	add	zero,zero,zero
  106cc0:	00a00d13          	li	s10,10

00106cc4 <i0000000eff>:
  106cc4:	0da14403          	lbu	s0,218(sp)

00106cc8 <i0000000f00>:
  106cc8:	0af27b13          	and	s6,tp,175

00106ccc <i0000000f01>:
  106ccc:	64410603          	lb	a2,1604(sp)
  106cd0:	00008117          	auipc	sp,0x8
  106cd4:	43010113          	add	sp,sp,1072 # 10f100 <mem>
  106cd8:	00003337          	lui	t1,0x3
  106cdc:	99030313          	add	t1,t1,-1648 # 2990 <_min_stack+0x990>
  106ce0:	00610133          	add	sp,sp,t1

00106ce4 <i0000000f02>:
  106ce4:	26215c03          	lhu	s8,610(sp)

00106ce8 <i0000000f03>:
  106ce8:	b6c11b03          	lh	s6,-1172(sp)

00106cec <i0000000f04>:
  106cec:	41285413          	sra	s0,a6,0x12

00106cf0 <i0000000f05>:
  106cf0:	006cca33          	xor	s4,s9,t1

00106cf4 <i0000000f06>:
  106cf4:	2ff10f03          	lb	t5,767(sp)

00106cf8 <i0000000f07>:
  106cf8:	26e10503          	lb	a0,622(sp)

00106cfc <i0000000f08>:
  106cfc:	dea10683          	lb	a3,-534(sp)

00106d00 <i0000000f09>:
  106d00:	012a0c33          	add	s8,s4,s2

00106d04 <i0000000f0a>:
  106d04:	72a10f23          	sb	a0,1854(sp)

00106d08 <i0000000f0b>:
  106d08:	40412b03          	lw	s6,1028(sp)
  106d0c:	00008117          	auipc	sp,0x8
  106d10:	3f410113          	add	sp,sp,1012 # 10f100 <mem>
  106d14:	00036337          	lui	t1,0x36
  106d18:	09830313          	add	t1,t1,152 # 36098 <tohost+0x16090>
  106d1c:	00610133          	add	sp,sp,t1

00106d20 <i0000000f0c>:
  106d20:	ff812503          	lw	a0,-8(sp)

00106d24 <i0000000f0d>:
  106d24:	4001d013          	sra	zero,gp,0x0

00106d28 <i0000000f0e>:
  106d28:	01626f33          	or	t5,tp,s6

00106d2c <i0000000f0f>:
  106d2c:	00452f33          	slt	t5,a0,tp

00106d30 <i0000000f10>:
  106d30:	a0c12f03          	lw	t5,-1524(sp)

00106d34 <i0000000f11>:
  106d34:	96e11323          	sh	a4,-1690(sp)
  106d38:	00900d93          	li	s11,9
  106d3c:	00a00d13          	li	s10,10

00106d40 <b0000000f12>:
  106d40:	00000033          	add	zero,zero,zero
  106d44:	03addc63          	bge	s11,s10,106d7c <i0000000f18>
  106d48:	00000033          	add	zero,zero,zero
  106d4c:	00a00d13          	li	s10,10

00106d50 <i0000000f12>:
  106d50:	401b5213          	sra	tp,s6,0x1

00106d54 <i0000000f13>:
  106d54:	00faa1b3          	slt	gp,s5,a5

00106d58 <i0000000f14>:
  106d58:	4d411b03          	lh	s6,1236(sp)

00106d5c <i0000000f15>:
  106d5c:	1a812a03          	lw	s4,424(sp)

00106d60 <i0000000f16>:
  106d60:	89610b23          	sb	s6,-1898(sp)
  106d64:	00008117          	auipc	sp,0x8
  106d68:	39c10113          	add	sp,sp,924 # 10f100 <mem>
  106d6c:	0004f337          	lui	t1,0x4f
  106d70:	7c830313          	add	t1,t1,1992 # 4f7c8 <tohost+0x2f7c0>
  106d74:	00610133          	add	sp,sp,t1

00106d78 <i0000000f17>:
  106d78:	0ae15003          	lhu	zero,174(sp)

00106d7c <i0000000f18>:
  106d7c:	01810683          	lb	a3,24(sp)

00106d80 <i0000000f19>:
  106d80:	39012b03          	lw	s6,912(sp)
  106d84:	00008117          	auipc	sp,0x8
  106d88:	37c10113          	add	sp,sp,892 # 10f100 <mem>
  106d8c:	00038337          	lui	t1,0x38
  106d90:	f9830313          	add	t1,t1,-104 # 37f98 <tohost+0x17f90>
  106d94:	00610133          	add	sp,sp,t1

00106d98 <i0000000f1a>:
  106d98:	c5215683          	lhu	a3,-942(sp)

00106d9c <i0000000f1b>:
  106d9c:	36c12503          	lw	a0,876(sp)

00106da0 <i0000000f1c>:
  106da0:	eb324213          	xor	tp,tp,-333

00106da4 <i0000000f1d>:
  106da4:	e2614703          	lbu	a4,-474(sp)

00106da8 <i0000000f1e>:
  106da8:	35215c83          	lhu	s9,850(sp)

00106dac <i0000000f1f>:
  106dac:	eca11883          	lh	a7,-310(sp)

00106db0 <i0000000f20>:
  106db0:	005938b3          	sltu	a7,s2,t0

00106db4 <i0000000f21>:
  106db4:	88dff513          	and	a0,t6,-1907
  106db8:	00008117          	auipc	sp,0x8
  106dbc:	34810113          	add	sp,sp,840 # 10f100 <mem>
  106dc0:	00004337          	lui	t1,0x4
  106dc4:	37830313          	add	t1,t1,888 # 4378 <_min_stack+0x2378>
  106dc8:	00610133          	add	sp,sp,t1

00106dcc <i0000000f22>:
  106dcc:	89811f03          	lh	t5,-1896(sp)

00106dd0 <i0000000f23>:
  106dd0:	416558b3          	sra	a7,a0,s6

00106dd4 <i0000000f24>:
  106dd4:	008ee033          	or	zero,t4,s0
  106dd8:	00900c93          	li	s9,9
  106ddc:	00a00d13          	li	s10,10

00106de0 <b0000000f25>:
  106de0:	00000033          	add	zero,zero,zero
  106de4:	059d4263          	blt	s10,s9,106e28 <i0000000f2e>
  106de8:	00000033          	add	zero,zero,zero
  106dec:	00a00d13          	li	s10,10

00106df0 <i0000000f25>:
  106df0:	6bc15703          	lhu	a4,1724(sp)

00106df4 <i0000000f26>:
  106df4:	00c45bb3          	srl	s7,s0,a2

00106df8 <i0000000f27>:
  106df8:	408c0233          	sub	tp,s8,s0

00106dfc <i0000000f28>:
  106dfc:	926f4c93          	xor	s9,t5,-1754

00106e00 <i0000000f29>:
  106e00:	06011123          	sh	zero,98(sp)

00106e04 <i0000000f2a>:
  106e04:	016b6eb3          	or	t4,s6,s6

00106e08 <i0000000f2b>:
  106e08:	74c11823          	sh	a2,1872(sp)
  106e0c:	00008117          	auipc	sp,0x8
  106e10:	2f410113          	add	sp,sp,756 # 10f100 <mem>
  106e14:	0001a337          	lui	t1,0x1a
  106e18:	85030313          	add	t1,t1,-1968 # 19850 <_stack_len+0x11850>
  106e1c:	00610133          	add	sp,sp,t1

00106e20 <i0000000f2c>:
  106e20:	f9612e23          	sw	s6,-100(sp)

00106e24 <i0000000f2d>:
  106e24:	d8e54f13          	xor	t5,a0,-626

00106e28 <i0000000f2e>:
  106e28:	0e711b23          	sh	t2,246(sp)

00106e2c <i0000000f2f>:
  106e2c:	016b6633          	or	a2,s6,s6

00106e30 <i0000000f30>:
  106e30:	7be14483          	lbu	s1,1982(sp)

00106e34 <i0000000f31>:
  106e34:	8deded93          	or	s11,s11,-1826

00106e38 <i0000000f32>:
  106e38:	dab11523          	sh	a1,-598(sp)

00106e3c <i0000000f33>:
  106e3c:	50921f17          	auipc	t5,0x50921

00106e40 <i0000000f34>:
  106e40:	00ece533          	or	a0,s9,a4

00106e44 <i0000000f35>:
  106e44:	2b9104a3          	sb	s9,681(sp)

00106e48 <i0000000f36>:
  106e48:	83780f13          	add	t5,a6,-1993

00106e4c <i0000000f37>:
  106e4c:	a7611f23          	sh	s6,-1410(sp)
  106e50:	00c00f93          	li	t6,12
  106e54:	001d0d13          	add	s10,s10,1

00106e58 <b0000000f38>:
  106e58:	00000033          	add	zero,zero,zero
  106e5c:	fdafd2e3          	bge	t6,s10,106e20 <i0000000f2c>
  106e60:	00000033          	add	zero,zero,zero
  106e64:	00a00d13          	li	s10,10

00106e68 <i0000000f38>:
  106e68:	016b7733          	and	a4,s6,s6

00106e6c <i0000000f39>:
  106e6c:	008cd313          	srl	t1,s9,0x8

00106e70 <i0000000f3a>:
  106e70:	8b9101a3          	sb	s9,-1885(sp)
  106e74:	00008117          	auipc	sp,0x8
  106e78:	28c10113          	add	sp,sp,652 # 10f100 <mem>
  106e7c:	00026337          	lui	t1,0x26
  106e80:	bc830313          	add	t1,t1,-1080 # 25bc8 <tohost+0x5bc0>
  106e84:	00610133          	add	sp,sp,t1

00106e88 <i0000000f3b>:
  106e88:	6f811203          	lh	tp,1784(sp)

00106e8c <i0000000f3c>:
  106e8c:	00381b13          	sll	s6,a6,0x3

00106e90 <i0000000f3d>:
  106e90:	76c12003          	lw	zero,1900(sp)

00106e94 <i0000000f3e>:
  106e94:	01ef0933          	add	s2,t5,t5

00106e98 <i0000000f3f>:
  106e98:	24957293          	and	t0,a0,585

00106e9c <i0000000f40>:
  106e9c:	00a25033          	srl	zero,tp,a0

00106ea0 <i0000000f41>:
  106ea0:	00a22433          	slt	s0,tp,a0

00106ea4 <i0000000f42>:
  106ea4:	eb412883          	lw	a7,-332(sp)

00106ea8 <i0000000f43>:
  106ea8:	02e11283          	lh	t0,46(sp)

00106eac <i0000000f44>:
  106eac:	7c014b83          	lbu	s7,1984(sp)

00106eb0 <i0000000f45>:
  106eb0:	007bdf33          	srl	t5,s7,t2
  106eb4:	00008117          	auipc	sp,0x8
  106eb8:	24c10113          	add	sp,sp,588 # 10f100 <mem>
  106ebc:	00064337          	lui	t1,0x64
  106ec0:	96830313          	add	t1,t1,-1688 # 63968 <tohost+0x43960>
  106ec4:	00610133          	add	sp,sp,t1

00106ec8 <i0000000f46>:
  106ec8:	66610203          	lb	tp,1638(sp)

00106ecc <i0000000f47>:
  106ecc:	34e11703          	lh	a4,846(sp)

00106ed0 <i0000000f48>:
  106ed0:	28310e23          	sb	gp,668(sp)

00106ed4 <i0000000f49>:
  106ed4:	93e23193          	sltiu	gp,tp,-1730

00106ed8 <i0000000f4a>:
  106ed8:	61d13217          	auipc	tp,0x61d13
  106edc:	00000b93          	li	s7,0

00106ee0 <b0000000f4b>:
  106ee0:	00000033          	add	zero,zero,zero
  106ee4:	057d0863          	beq	s10,s7,106f34 <i0000000f57>
  106ee8:	00000033          	add	zero,zero,zero
  106eec:	00a00d13          	li	s10,10

00106ef0 <i0000000f4b>:
  106ef0:	6abe1517          	auipc	a0,0x6abe1
  106ef4:	00008117          	auipc	sp,0x8
  106ef8:	20c10113          	add	sp,sp,524 # 10f100 <mem>
  106efc:	00004337          	lui	t1,0x4
  106f00:	73830313          	add	t1,t1,1848 # 4738 <_min_stack+0x2738>
  106f04:	00610133          	add	sp,sp,t1

00106f08 <i0000000f4c>:
  106f08:	24c14e83          	lbu	t4,588(sp)

00106f0c <i0000000f4d>:
  106f0c:	26211b03          	lh	s6,610(sp)

00106f10 <i0000000f4e>:
  106f10:	dcee6193          	or	gp,t3,-562

00106f14 <i0000000f4f>:
  106f14:	ff867813          	and	a6,a2,-8

00106f18 <i0000000f50>:
  106f18:	95f6ab13          	slti	s6,a3,-1697

00106f1c <i0000000f51>:
  106f1c:	d8114003          	lbu	zero,-639(sp)

00106f20 <i0000000f52>:
  106f20:	01801013          	sll	zero,zero,0x18

00106f24 <i0000000f53>:
  106f24:	f4412823          	sw	tp,-176(sp)

00106f28 <i0000000f54>:
  106f28:	f9611923          	sh	s6,-110(sp)

00106f2c <i0000000f55>:
  106f2c:	3a812183          	lw	gp,936(sp)

00106f30 <i0000000f56>:
  106f30:	5b612623          	sw	s6,1452(sp)

00106f34 <i0000000f57>:
  106f34:	4166d513          	sra	a0,a3,0x16

00106f38 <i0000000f58>:
  106f38:	5d410003          	lb	zero,1492(sp)

00106f3c <i0000000f59>:
  106f3c:	49897493          	and	s1,s2,1176

00106f40 <i0000000f5a>:
  106f40:	e1612e23          	sw	s6,-484(sp)

00106f44 <i0000000f5b>:
  106f44:	30611a83          	lh	s5,774(sp)

00106f48 <i0000000f5c>:
  106f48:	01eb3233          	sltu	tp,s6,t5

00106f4c <i0000000f5d>:
  106f4c:	33d14003          	lbu	zero,829(sp)
  106f50:	00b00b13          	li	s6,11
  106f54:	00a00d13          	li	s10,10

00106f58 <b0000000f5e>:
  106f58:	00000033          	add	zero,zero,zero
  106f5c:	03ab5e63          	bge	s6,s10,106f98 <i0000000f65>
  106f60:	00000033          	add	zero,zero,zero
  106f64:	00a00d13          	li	s10,10
  106f68:	00008117          	auipc	sp,0x8
  106f6c:	19810113          	add	sp,sp,408 # 10f100 <mem>
  106f70:	00008337          	lui	t1,0x8
  106f74:	8b030313          	add	t1,t1,-1872 # 78b0 <_min_stack+0x58b0>
  106f78:	00610133          	add	sp,sp,t1

00106f7c <i0000000f5e>:
  106f7c:	85e12423          	sw	t5,-1976(sp)

00106f80 <i0000000f5f>:
  106f80:	d8a10f03          	lb	t5,-630(sp)

00106f84 <i0000000f60>:
  106f84:	018c8cb3          	add	s9,s9,s8

00106f88 <i0000000f61>:
  106f88:	016f7f33          	and	t5,t5,s6

00106f8c <i0000000f62>:
  106f8c:	2cb10503          	lb	a0,715(sp)

00106f90 <i0000000f63>:
  106f90:	00e2d513          	srl	a0,t0,0xe

00106f94 <i0000000f64>:
  106f94:	40c80533          	sub	a0,a6,a2

00106f98 <i0000000f65>:
  106f98:	a2a12223          	sw	a0,-1500(sp)

00106f9c <i0000000f66>:
  106f9c:	5f714b83          	lbu	s7,1527(sp)

00106fa0 <i0000000f67>:
  106fa0:	0a98e013          	or	zero,a7,169

00106fa4 <i0000000f68>:
  106fa4:	e31c7b13          	and	s6,s8,-463

00106fa8 <i0000000f69>:
  106fa8:	aeb12c23          	sw	a1,-1288(sp)
  106fac:	00008117          	auipc	sp,0x8
  106fb0:	15410113          	add	sp,sp,340 # 10f100 <mem>
  106fb4:	00002337          	lui	t1,0x2
  106fb8:	5d030313          	add	t1,t1,1488 # 25d0 <_min_stack+0x5d0>
  106fbc:	00610133          	add	sp,sp,t1

00106fc0 <i0000000f6a>:
  106fc0:	60712223          	sw	t2,1540(sp)
  106fc4:	00008117          	auipc	sp,0x8
  106fc8:	13c10113          	add	sp,sp,316 # 10f100 <mem>
  106fcc:	0000b337          	lui	t1,0xb
  106fd0:	98030313          	add	t1,t1,-1664 # a980 <_stack_len+0x2980>
  106fd4:	00610133          	add	sp,sp,t1

00106fd8 <i0000000f6b>:
  106fd8:	af511723          	sh	s5,-1298(sp)
  106fdc:	00008117          	auipc	sp,0x8
  106fe0:	12410113          	add	sp,sp,292 # 10f100 <mem>
  106fe4:	0002f337          	lui	t1,0x2f
  106fe8:	da830313          	add	t1,t1,-600 # 2eda8 <tohost+0xeda0>
  106fec:	00610133          	add	sp,sp,t1

00106ff0 <i0000000f6c>:
  106ff0:	1c0108a3          	sb	zero,465(sp)

00106ff4 <i0000000f6d>:
  106ff4:	ad0c8513          	add	a0,s9,-1328 # 15020cb0 <fromhost+0x14e98ca0>

00106ff8 <i0000000f6e>:
  106ff8:	01293933          	sltu	s2,s2,s2
  106ffc:	00008117          	auipc	sp,0x8
  107000:	10410113          	add	sp,sp,260 # 10f100 <mem>
  107004:	0002d337          	lui	t1,0x2d
  107008:	2c830313          	add	t1,t1,712 # 2d2c8 <tohost+0xd2c0>
  10700c:	00610133          	add	sp,sp,t1

00107010 <i0000000f6f>:
  107010:	f1414303          	lbu	t1,-236(sp)

00107014 <i0000000f70>:
  107014:	7f611e83          	lh	t4,2038(sp)
  107018:	00900f93          	li	t6,9

0010701c <b0000000f71>:
  10701c:	00000033          	add	zero,zero,zero
  107020:	f7afdae3          	bge	t6,s10,106f94 <i0000000f64>
  107024:	00000033          	add	zero,zero,zero
  107028:	00a00d13          	li	s10,10

0010702c <i0000000f71>:
  10702c:	01e27cb3          	and	s9,tp,t5

00107030 <i0000000f72>:
  107030:	b5415f83          	lhu	t6,-1196(sp)

00107034 <i0000000f73>:
  107034:	b0812203          	lw	tp,-1272(sp)

00107038 <i0000000f74>:
  107038:	b89c3f93          	sltiu	t6,s8,-1143

0010703c <i0000000f75>:
  10703c:	e56f3b13          	sltiu	s6,t5,-426

00107040 <i0000000f76>:
  107040:	6e626213          	or	tp,tp,1766

00107044 <i0000000f77>:
  107044:	7846b993          	sltiu	s3,a3,1924

00107048 <i0000000f78>:
  107048:	95110aa3          	sb	a7,-1707(sp)
  10704c:	00008117          	auipc	sp,0x8
  107050:	0b410113          	add	sp,sp,180 # 10f100 <mem>
  107054:	0003c337          	lui	t1,0x3c
  107058:	96830313          	add	t1,t1,-1688 # 3b968 <tohost+0x1b960>
  10705c:	00610133          	add	sp,sp,t1

00107060 <i0000000f79>:
  107060:	cb012623          	sw	a6,-852(sp)

00107064 <i0000000f7a>:
  107064:	00a24233          	xor	tp,tp,a0

00107068 <i0000000f7b>:
  107068:	57037f37          	lui	t5,0x57037

0010706c <i0000000f7c>:
  10706c:	d9412383          	lw	t2,-620(sp)

00107070 <i0000000f7d>:
  107070:	404bda93          	sra	s5,s7,0x4

00107074 <i0000000f7e>:
  107074:	0092b333          	sltu	t1,t0,s1

00107078 <i0000000f7f>:
  107078:	019a7533          	and	a0,s4,s9

0010707c <i0000000f80>:
  10707c:	000f6bb3          	or	s7,t5,zero

00107080 <i0000000f81>:
  107080:	014f82b3          	add	t0,t6,s4

00107084 <i0000000f82>:
  107084:	015611b3          	sll	gp,a2,s5

00107088 <i0000000f83>:
  107088:	00881e33          	sll	t3,a6,s0
  10708c:	00000a13          	li	s4,0

00107090 <b0000000f84>:
  107090:	00000033          	add	zero,zero,zero
  107094:	ff4d00e3          	beq	s10,s4,107074 <i0000000f7e>
  107098:	00000033          	add	zero,zero,zero
  10709c:	00a00d13          	li	s10,10

001070a0 <i0000000f84>:
  1070a0:	16c11b83          	lh	s7,364(sp)

001070a4 <i0000000f85>:
  1070a4:	01184ab3          	xor	s5,a6,a7

001070a8 <i0000000f86>:
  1070a8:	28011623          	sh	zero,652(sp)
  1070ac:	00008117          	auipc	sp,0x8
  1070b0:	05410113          	add	sp,sp,84 # 10f100 <mem>
  1070b4:	00060337          	lui	t1,0x60
  1070b8:	e5030313          	add	t1,t1,-432 # 5fe50 <tohost+0x3fe48>
  1070bc:	00610133          	add	sp,sp,t1

001070c0 <i0000000f87>:
  1070c0:	f1014303          	lbu	t1,-240(sp)

001070c4 <i0000000f88>:
  1070c4:	404bd213          	sra	tp,s7,0x4

001070c8 <i0000000f89>:
  1070c8:	13811203          	lh	tp,312(sp)

001070cc <i0000000f8a>:
  1070cc:	42b44617          	auipc	a2,0x42b44

001070d0 <i0000000f8b>:
  1070d0:	e5c52613          	slti	a2,a0,-420
  1070d4:	00008117          	auipc	sp,0x8
  1070d8:	02c10113          	add	sp,sp,44 # 10f100 <mem>
  1070dc:	0003c337          	lui	t1,0x3c
  1070e0:	de830313          	add	t1,t1,-536 # 3bde8 <tohost+0x1bde0>
  1070e4:	00610133          	add	sp,sp,t1

001070e8 <i0000000f8c>:
  1070e8:	62412003          	lw	zero,1572(sp)

001070ec <i0000000f8d>:
  1070ec:	d0c12003          	lw	zero,-756(sp)

001070f0 <i0000000f8e>:
  1070f0:	71739917          	auipc	s2,0x71739

001070f4 <i0000000f8f>:
  1070f4:	8bc6e293          	or	t0,a3,-1860

001070f8 <i0000000f90>:
  1070f8:	bc6dbc13          	sltiu	s8,s11,-1082

001070fc <i0000000f91>:
  1070fc:	004b0533          	add	a0,s6,tp

00107100 <i0000000f92>:
  107100:	ace10c83          	lb	s9,-1330(sp)

00107104 <i0000000f93>:
  107104:	d8611003          	lh	zero,-634(sp)

00107108 <i0000000f94>:
  107108:	cb310e23          	sb	s3,-836(sp)

0010710c <i0000000f95>:
  10710c:	5d114f03          	lbu	t5,1489(sp)

00107110 <i0000000f96>:
  107110:	85e103a3          	sb	t5,-1977(sp)

00107114 <b0000000f97>:
  107114:	0240056f          	jal	a0,107138 <i0000000f9f>

00107118 <i0000000f97>:
  107118:	0e402793          	slti	a5,zero,228

0010711c <i0000000f98>:
  10711c:	0164db13          	srl	s6,s1,0x16

00107120 <i0000000f99>:
  107120:	000572b3          	and	t0,a0,zero

00107124 <i0000000f9a>:
  107124:	004b3e33          	sltu	t3,s6,tp

00107128 <i0000000f9b>:
  107128:	35cd8a93          	add	s5,s11,860 # 2f336180 <fromhost+0x2f1ae170>

0010712c <i0000000f9c>:
  10712c:	25411883          	lh	a7,596(sp)

00107130 <i0000000f9d>:
  107130:	39197d93          	and	s11,s2,913

00107134 <i0000000f9e>:
  107134:	686103a3          	sb	t1,1671(sp)

00107138 <i0000000f9f>:
  107138:	cf3e6593          	or	a1,t3,-781

0010713c <i0000000fa0>:
  10713c:	446ef993          	and	s3,t4,1094

00107140 <i0000000fa1>:
  107140:	02011823          	sh	zero,48(sp)

00107144 <i0000000fa2>:
  107144:	9ea11503          	lh	a0,-1558(sp)

00107148 <i0000000fa3>:
  107148:	01e02533          	sgtz	a0,t5

0010714c <i0000000fa4>:
  10714c:	08414c03          	lbu	s8,132(sp)

00107150 <i0000000fa5>:
  107150:	a3d10b03          	lb	s6,-1475(sp)

00107154 <i0000000fa6>:
  107154:	4ace22b7          	lui	t0,0x4ace2

00107158 <i0000000fa7>:
  107158:	40265613          	sra	a2,a2,0x2

0010715c <i0000000fa8>:
  10715c:	01b92033          	slt	zero,s2,s11

00107160 <i0000000fa9>:
  107160:	010c3433          	sltu	s0,s8,a6
  107164:	00000893          	li	a7,0

00107168 <b0000000faa>:
  107168:	00000033          	add	zero,zero,zero
  10716c:	051d0c63          	beq	s10,a7,1071c4 <i0000000fb8>
  107170:	00000033          	add	zero,zero,zero
  107174:	00a00d13          	li	s10,10
  107178:	00008117          	auipc	sp,0x8
  10717c:	f8810113          	add	sp,sp,-120 # 10f100 <mem>
  107180:	0002d337          	lui	t1,0x2d
  107184:	bc030313          	add	t1,t1,-1088 # 2cbc0 <tohost+0xcbb8>
  107188:	00610133          	add	sp,sp,t1

0010718c <i0000000faa>:
  10718c:	44914003          	lbu	zero,1097(sp)

00107190 <i0000000fab>:
  107190:	416b02b3          	sub	t0,s6,s6

00107194 <i0000000fac>:
  107194:	30e11203          	lh	tp,782(sp)

00107198 <i0000000fad>:
  107198:	a5611d23          	sh	s6,-1446(sp)

0010719c <i0000000fae>:
  10719c:	d8514e83          	lbu	t4,-635(sp)

001071a0 <i0000000faf>:
  1071a0:	01049b13          	sll	s6,s1,0x10

001071a4 <i0000000fb0>:
  1071a4:	4b7ca713          	slti	a4,s9,1207

001071a8 <i0000000fb1>:
  1071a8:	406c8db3          	sub	s11,s9,t1

001071ac <i0000000fb2>:
  1071ac:	416508b3          	sub	a7,a0,s6

001071b0 <i0000000fb3>:
  1071b0:	416008b3          	neg	a7,s6

001071b4 <i0000000fb4>:
  1071b4:	17a3ef13          	or	t5,t2,378

001071b8 <i0000000fb5>:
  1071b8:	40a55a33          	sra	s4,a0,a0

001071bc <i0000000fb6>:
  1071bc:	e9b10f03          	lb	t5,-357(sp)

001071c0 <i0000000fb7>:
  1071c0:	004b2c33          	slt	s8,s6,tp

001071c4 <i0000000fb8>:
  1071c4:	1df12023          	sw	t6,448(sp)

001071c8 <i0000000fb9>:
  1071c8:	01626f33          	or	t5,tp,s6
  1071cc:	00008117          	auipc	sp,0x8
  1071d0:	f3410113          	add	sp,sp,-204 # 10f100 <mem>
  1071d4:	00001337          	lui	t1,0x1
  1071d8:	69830313          	add	t1,t1,1688 # 1698 <_min_stack-0x968>
  1071dc:	00610133          	add	sp,sp,t1

001071e0 <i0000000fba>:
  1071e0:	71215c83          	lhu	s9,1810(sp)

001071e4 <i0000000fbb>:
  1071e4:	00fdc533          	xor	a0,s11,a5

001071e8 <i0000000fbc>:
  1071e8:	25902513          	slti	a0,zero,601
  1071ec:	00900b13          	li	s6,9
  1071f0:	00a00d13          	li	s10,10

001071f4 <b0000000fbd>:
  1071f4:	00000033          	add	zero,zero,zero
  1071f8:	056d4a63          	blt	s10,s6,10724c <i0000000fc5>
  1071fc:	00000033          	add	zero,zero,zero
  107200:	00a00d13          	li	s10,10

00107204 <i0000000fbd>:
  107204:	01e01e93          	sll	t4,zero,0x1e

00107208 <i0000000fbe>:
  107208:	cba54a93          	xor	s5,a0,-838
  10720c:	00008117          	auipc	sp,0x8
  107210:	ef410113          	add	sp,sp,-268 # 10f100 <mem>
  107214:	00011337          	lui	t1,0x11
  107218:	da830313          	add	t1,t1,-600 # 10da8 <_stack_len+0x8da8>
  10721c:	00610133          	add	sp,sp,t1

00107220 <i0000000fbf>:
  107220:	17a11203          	lh	tp,378(sp)

00107224 <i0000000fc0>:
  107224:	00ab7c33          	and	s8,s6,a0

00107228 <i0000000fc1>:
  107228:	8a520b13          	add	s6,tp,-1883 # 61e1977d <fromhost+0x61c9176d>
  10722c:	00008117          	auipc	sp,0x8
  107230:	ed410113          	add	sp,sp,-300 # 10f100 <mem>
  107234:	00034337          	lui	t1,0x34
  107238:	58030313          	add	t1,t1,1408 # 34580 <tohost+0x14578>
  10723c:	00610133          	add	sp,sp,t1

00107240 <i0000000fc2>:
  107240:	a9815503          	lhu	a0,-1384(sp)

00107244 <i0000000fc3>:
  107244:	c8c12503          	lw	a0,-884(sp)

00107248 <i0000000fc4>:
  107248:	24990013          	add	zero,s2,585 # 71840339 <fromhost+0x716b8329>

0010724c <i0000000fc5>:
  10724c:	00735433          	srl	s0,t1,t2

00107250 <i0000000fc6>:
  107250:	41135533          	sra	a0,t1,a7

00107254 <i0000000fc7>:
  107254:	98914f03          	lbu	t5,-1655(sp)

00107258 <i0000000fc8>:
  107258:	00e29593          	sll	a1,t0,0xe

0010725c <i0000000fc9>:
  10725c:	d2211f03          	lh	t5,-734(sp)

00107260 <i0000000fca>:
  107260:	9c012823          	sw	zero,-1584(sp)

00107264 <i0000000fcb>:
  107264:	52412f03          	lw	t5,1316(sp)
  107268:	00008117          	auipc	sp,0x8
  10726c:	e9810113          	add	sp,sp,-360 # 10f100 <mem>
  107270:	00056337          	lui	t1,0x56
  107274:	14830313          	add	t1,t1,328 # 56148 <tohost+0x36140>
  107278:	00610133          	add	sp,sp,t1

0010727c <i0000000fcc>:
  10727c:	40012e23          	sw	zero,1052(sp)

00107280 <i0000000fcd>:
  107280:	01fdceb3          	xor	t4,s11,t6

00107284 <i0000000fce>:
  107284:	84c15703          	lhu	a4,-1972(sp)

00107288 <i0000000fcf>:
  107288:	68e11b83          	lh	s7,1678(sp)
  10728c:	00900d93          	li	s11,9
  107290:	00a00d13          	li	s10,10

00107294 <b0000000fd0>:
  107294:	00000033          	add	zero,zero,zero
  107298:	03bd4c63          	blt	s10,s11,1072d0 <i0000000fd6>
  10729c:	00000033          	add	zero,zero,zero
  1072a0:	00a00d13          	li	s10,10

001072a4 <i0000000fd0>:
  1072a4:	2d007f13          	and	t5,zero,720

001072a8 <i0000000fd1>:
  1072a8:	00056033          	or	zero,a0,zero

001072ac <i0000000fd2>:
  1072ac:	32c109a3          	sb	a2,819(sp)

001072b0 <i0000000fd3>:
  1072b0:	eb114003          	lbu	zero,-335(sp)
  1072b4:	00008117          	auipc	sp,0x8
  1072b8:	e4c10113          	add	sp,sp,-436 # 10f100 <mem>
  1072bc:	00045337          	lui	t1,0x45
  1072c0:	b6030313          	add	t1,t1,-1184 # 44b60 <tohost+0x24b58>
  1072c4:	00610133          	add	sp,sp,t1

001072c8 <i0000000fd4>:
  1072c8:	ccc11f23          	sh	a2,-802(sp)

001072cc <i0000000fd5>:
  1072cc:	21fb2b13          	slti	s6,s6,543

001072d0 <i0000000fd6>:
  1072d0:	97d12a23          	sw	t4,-1676(sp)

001072d4 <i0000000fd7>:
  1072d4:	151be613          	or	a2,s7,337

001072d8 <i0000000fd8>:
  1072d8:	26006213          	or	tp,zero,608

001072dc <i0000000fd9>:
  1072dc:	8e110503          	lb	a0,-1823(sp)

001072e0 <i0000000fda>:
  1072e0:	01eb6f33          	or	t5,s6,t5

001072e4 <i0000000fdb>:
  1072e4:	1335ae93          	slti	t4,a1,307

001072e8 <i0000000fdc>:
  1072e8:	0171eb33          	or	s6,gp,s7

001072ec <i0000000fdd>:
  1072ec:	00400833          	add	a6,zero,tp

001072f0 <i0000000fde>:
  1072f0:	01cf93b3          	sll	t2,t6,t3

001072f4 <i0000000fdf>:
  1072f4:	f0c10b23          	sb	a2,-234(sp)

001072f8 <i0000000fe0>:
  1072f8:	2f414303          	lbu	t1,756(sp)

001072fc <i0000000fe1>:
  1072fc:	0182e533          	or	a0,t0,s8

00107300 <i0000000fe2>:
  107300:	bea11623          	sh	a0,-1044(sp)
  107304:	00000d93          	li	s11,0

00107308 <b0000000fe3>:
  107308:	00000033          	add	zero,zero,zero
  10730c:	03bd0663          	beq	s10,s11,107338 <i0000000feb>
  107310:	00000033          	add	zero,zero,zero
  107314:	00a00d13          	li	s10,10

00107318 <i0000000fe3>:
  107318:	0038e533          	or	a0,a7,gp

0010731c <i0000000fe4>:
  10731c:	3bb12623          	sw	s11,940(sp)

00107320 <i0000000fe5>:
  107320:	4e412303          	lw	t1,1252(sp)

00107324 <i0000000fe6>:
  107324:	73812b03          	lw	s6,1848(sp)

00107328 <i0000000fe7>:
  107328:	f6012223          	sw	zero,-156(sp)

0010732c <i0000000fe8>:
  10732c:	7e610703          	lb	a4,2022(sp)

00107330 <i0000000fe9>:
  107330:	33e11423          	sh	t5,808(sp)

00107334 <i0000000fea>:
  107334:	33ff2713          	slti	a4,t5,831

00107338 <i0000000feb>:
  107338:	00027f33          	and	t5,tp,zero

0010733c <i0000000fec>:
  10733c:	6be15f83          	lhu	t6,1726(sp)

00107340 <i0000000fed>:
  107340:	016b0833          	add	a6,s6,s6

00107344 <i0000000fee>:
  107344:	00a51bb3          	sll	s7,a0,a0

00107348 <i0000000fef>:
  107348:	16012623          	sw	zero,364(sp)

0010734c <i0000000ff0>:
  10734c:	01f882b3          	add	t0,a7,t6

00107350 <i0000000ff1>:
  107350:	402c5b13          	sra	s6,s8,0x2

00107354 <i0000000ff2>:
  107354:	faa10aa3          	sb	a0,-75(sp)

00107358 <i0000000ff3>:
  107358:	01e52eb3          	slt	t4,a0,t5

0010735c <i0000000ff4>:
  10735c:	47104013          	xor	zero,zero,1137

00107360 <i0000000ff5>:
  107360:	2acf3f13          	sltiu	t5,t5,684
  107364:	00900c13          	li	s8,9
  107368:	00a00d13          	li	s10,10

0010736c <b0000000ff6>:
  10736c:	00000033          	add	zero,zero,zero
  107370:	03ac5c63          	bge	s8,s10,1073a8 <i0000001001>
  107374:	00000033          	add	zero,zero,zero
  107378:	00a00d13          	li	s10,10

0010737c <i0000000ff6>:
  10737c:	01e05033          	srl	zero,zero,t5

00107380 <i0000000ff7>:
  107380:	0178d013          	srl	zero,a7,0x17

00107384 <i0000000ff8>:
  107384:	6caf3513          	sltiu	a0,t5,1738

00107388 <i0000000ff9>:
  107388:	ae015483          	lhu	s1,-1312(sp)

0010738c <i0000000ffa>:
  10738c:	b9010fa3          	sb	a6,-1121(sp)

00107390 <i0000000ffb>:
  107390:	5ca10da3          	sb	a0,1499(sp)

00107394 <i0000000ffc>:
  107394:	ef6f0413          	add	s0,t5,-266 # 57036ef6 <fromhost+0x56eaeee6>

00107398 <i0000000ffd>:
  107398:	0034ab33          	slt	s6,s1,gp

0010739c <i0000000ffe>:
  10739c:	00f37033          	and	zero,t1,a5

001073a0 <i0000000fff>:
  1073a0:	17da2017          	auipc	zero,0x17da2

001073a4 <i0000001000>:
  1073a4:	00f73333          	sltu	t1,a4,a5

001073a8 <i0000001001>:
  1073a8:	280107a3          	sb	zero,655(sp)

001073ac <i0000001002>:
  1073ac:	3d4f7a93          	and	s5,t5,980

001073b0 <i0000001003>:
  1073b0:	88611383          	lh	t2,-1914(sp)

001073b4 <i0000001004>:
  1073b4:	004b3633          	sltu	a2,s6,tp

001073b8 <i0000001005>:
  1073b8:	01005b13          	srl	s6,zero,0x10

001073bc <i0000001006>:
  1073bc:	8ea11923          	sh	a0,-1806(sp)

001073c0 <i0000001007>:
  1073c0:	61c12c23          	sw	t3,1560(sp)

001073c4 <i0000001008>:
  1073c4:	8b415183          	lhu	gp,-1868(sp)
  1073c8:	00900a13          	li	s4,9

001073cc <b0000001009>:
  1073cc:	00000033          	add	zero,zero,zero
  1073d0:	fdaa52e3          	bge	s4,s10,107394 <i0000000ffc>
  1073d4:	00000033          	add	zero,zero,zero
  1073d8:	00a00d13          	li	s10,10

001073dc <i0000001009>:
  1073dc:	71112223          	sw	a7,1796(sp)

001073e0 <i000000100a>:
  1073e0:	3a012423          	sw	zero,936(sp)

001073e4 <i000000100b>:
  1073e4:	00ee2533          	slt	a0,t3,a4

001073e8 <i000000100c>:
  1073e8:	de012c23          	sw	zero,-520(sp)

001073ec <i000000100d>:
  1073ec:	6be11f23          	sh	t5,1726(sp)

001073f0 <i000000100e>:
  1073f0:	00ab13b3          	sll	t2,s6,a0
  1073f4:	00008117          	auipc	sp,0x8
  1073f8:	d0c10113          	add	sp,sp,-756 # 10f100 <mem>
  1073fc:	0006c337          	lui	t1,0x6c
  107400:	19830313          	add	t1,t1,408 # 6c198 <tohost+0x4c190>
  107404:	00610133          	add	sp,sp,t1

00107408 <i000000100f>:
  107408:	89a10203          	lb	tp,-1894(sp)

0010740c <i0000001010>:
  10740c:	ccc15003          	lhu	zero,-820(sp)

00107410 <i0000001011>:
  107410:	404b0033          	sub	zero,s6,tp

00107414 <i0000001012>:
  107414:	e2210f03          	lb	t5,-478(sp)
  107418:	00008117          	auipc	sp,0x8
  10741c:	ce810113          	add	sp,sp,-792 # 10f100 <mem>
  107420:	00008337          	lui	t1,0x8
  107424:	9c030313          	add	t1,t1,-1600 # 79c0 <_min_stack+0x59c0>
  107428:	00610133          	add	sp,sp,t1

0010742c <i0000001013>:
  10742c:	f3b12423          	sw	s11,-216(sp)

00107430 <i0000001014>:
  107430:	68910003          	lb	zero,1673(sp)

00107434 <i0000001015>:
  107434:	84815203          	lhu	tp,-1976(sp)

00107438 <i0000001016>:
  107438:	01605a33          	srl	s4,zero,s6

0010743c <i0000001017>:
  10743c:	63c11c83          	lh	s9,1596(sp)

00107440 <i0000001018>:
  107440:	016f6f33          	or	t5,t5,s6

00107444 <i0000001019>:
  107444:	41505193          	sra	gp,zero,0x15

00107448 <i000000101a>:
  107448:	97c11423          	sh	t3,-1688(sp)

0010744c <i000000101b>:
  10744c:	ba611803          	lh	a6,-1114(sp)
  107450:	00c00913          	li	s2,12
  107454:	00a00d13          	li	s10,10

00107458 <b000000101c>:
  107458:	00000033          	add	zero,zero,zero
  10745c:	072d4063          	blt	s10,s2,1074bc <i0000001027>
  107460:	00000033          	add	zero,zero,zero
  107464:	00a00d13          	li	s10,10

00107468 <i000000101c>:
  107468:	94a11d23          	sh	a0,-1702(sp)

0010746c <i000000101d>:
  10746c:	46412203          	lw	tp,1124(sp)

00107470 <i000000101e>:
  107470:	8c412a23          	sw	tp,-1836(sp)

00107474 <i000000101f>:
  107474:	50a11203          	lh	tp,1290(sp)

00107478 <i0000001020>:
  107478:	f4812203          	lw	tp,-184(sp)

0010747c <i0000001021>:
  10747c:	f4e15203          	lhu	tp,-178(sp)

00107480 <i0000001022>:
  107480:	fe410723          	sb	tp,-18(sp)
  107484:	00008117          	auipc	sp,0x8
  107488:	c7c10113          	add	sp,sp,-900 # 10f100 <mem>
  10748c:	0003a337          	lui	t1,0x3a
  107490:	da830313          	add	t1,t1,-600 # 39da8 <tohost+0x19da0>
  107494:	00610133          	add	sp,sp,t1

00107498 <i0000001023>:
  107498:	ddc12f03          	lw	t5,-548(sp)

0010749c <i0000001024>:
  10749c:	f6206493          	or	s1,zero,-158

001074a0 <i0000001025>:
  1074a0:	01265233          	srl	tp,a2,s2

001074a4 <i0000001026>:
  1074a4:	41d55693          	sra	a3,a0,0x1d
  1074a8:	00008117          	auipc	sp,0x8
  1074ac:	c5810113          	add	sp,sp,-936 # 10f100 <mem>
  1074b0:	0005b337          	lui	t1,0x5b
  1074b4:	ab830313          	add	t1,t1,-1352 # 5aab8 <tohost+0x3aab0>
  1074b8:	00610133          	add	sp,sp,t1

001074bc <i0000001027>:
  1074bc:	d0712023          	sw	t2,-768(sp)

001074c0 <i0000001028>:
  1074c0:	00fba2b3          	slt	t0,s7,a5

001074c4 <i0000001029>:
  1074c4:	48a15203          	lhu	tp,1162(sp)

001074c8 <i000000102a>:
  1074c8:	40905013          	sra	zero,zero,0x9

001074cc <i000000102b>:
  1074cc:	15812a03          	lw	s4,344(sp)

001074d0 <i000000102c>:
  1074d0:	7a411003          	lh	zero,1956(sp)

001074d4 <i000000102d>:
  1074d4:	6d812183          	lw	gp,1752(sp)

001074d8 <i000000102e>:
  1074d8:	00a02033          	sgtz	zero,a0
  1074dc:	00c00a13          	li	s4,12
  1074e0:	001d0d13          	add	s10,s10,1

001074e4 <b000000102f>:
  1074e4:	00000033          	add	zero,zero,zero
  1074e8:	fd4d1ae3          	bne	s10,s4,1074bc <i0000001027>
  1074ec:	00000033          	add	zero,zero,zero
  1074f0:	00a00d13          	li	s10,10

001074f4 <i000000102f>:
  1074f4:	dd711723          	sh	s7,-562(sp)

001074f8 <i0000001030>:
  1074f8:	6a04af37          	lui	t5,0x6a04a

001074fc <i0000001031>:
  1074fc:	fba15f03          	lhu	t5,-70(sp)

00107500 <i0000001032>:
  107500:	b8711a23          	sh	t2,-1132(sp)

00107504 <i0000001033>:
  107504:	60d5e413          	or	s0,a1,1549
  107508:	00008117          	auipc	sp,0x8
  10750c:	bf810113          	add	sp,sp,-1032 # 10f100 <mem>
  107510:	00018337          	lui	t1,0x18
  107514:	31030313          	add	t1,t1,784 # 18310 <_stack_len+0x10310>
  107518:	00610133          	add	sp,sp,t1

0010751c <i0000001034>:
  10751c:	21611623          	sh	s6,524(sp)
  107520:	00008117          	auipc	sp,0x8
  107524:	be010113          	add	sp,sp,-1056 # 10f100 <mem>
  107528:	00013337          	lui	t1,0x13
  10752c:	fe830313          	add	t1,t1,-24 # 12fe8 <_stack_len+0xafe8>
  107530:	00610133          	add	sp,sp,t1

00107534 <i0000001035>:
  107534:	80811f03          	lh	t5,-2040(sp)

00107538 <i0000001036>:
  107538:	00125313          	srl	t1,tp,0x1

0010753c <i0000001037>:
  10753c:	e9e10223          	sb	t5,-380(sp)

00107540 <i0000001038>:
  107540:	38912c23          	sw	s1,920(sp)

00107544 <i0000001039>:
  107544:	5fa43a97          	auipc	s5,0x5fa43

00107548 <i000000103a>:
  107548:	60710b23          	sb	t2,1558(sp)

0010754c <i000000103b>:
  10754c:	00d95533          	srl	a0,s2,a3

00107550 <i000000103c>:
  107550:	005eecb3          	or	s9,t4,t0

00107554 <i000000103d>:
  107554:	198f8b13          	add	s6,t6,408

00107558 <i000000103e>:
  107558:	01607e33          	and	t3,zero,s6

0010755c <i000000103f>:
  10755c:	40ab0233          	sub	tp,s6,a0

00107560 <i0000001040>:
  107560:	03b62693          	slti	a3,a2,59

00107564 <i0000001041>:
  107564:	ba314683          	lbu	a3,-1117(sp)

00107568 <b0000001042>:
  107568:	0340056f          	jal	a0,10759c <i000000104e>

0010756c <i0000001042>:
  10756c:	00a50233          	add	tp,a0,a0

00107570 <i0000001043>:
  107570:	01ef1033          	sll	zero,t5,t5

00107574 <i0000001044>:
  107574:	40678233          	sub	tp,a5,t1

00107578 <i0000001045>:
  107578:	004b0733          	add	a4,s6,tp

0010757c <i0000001046>:
  10757c:	0742bf97          	auipc	t6,0x742b

00107580 <i0000001047>:
  107580:	16502f13          	slti	t5,zero,357

00107584 <i0000001048>:
  107584:	07e100a3          	sb	t5,97(sp)

00107588 <i0000001049>:
  107588:	06e10b23          	sb	a4,118(sp)

0010758c <i000000104a>:
  10758c:	41ca8533          	sub	a0,s5,t3

00107590 <i000000104b>:
  107590:	000b0bb3          	add	s7,s6,zero

00107594 <i000000104c>:
  107594:	d6410623          	sb	tp,-660(sp)

00107598 <i000000104d>:
  107598:	00ab0db3          	add	s11,s6,a0

0010759c <i000000104e>:
  10759c:	41555213          	sra	tp,a0,0x15
  1075a0:	00008117          	auipc	sp,0x8
  1075a4:	b6010113          	add	sp,sp,-1184 # 10f100 <mem>
  1075a8:	0000a337          	lui	t1,0xa
  1075ac:	b7830313          	add	t1,t1,-1160 # 9b78 <_stack_len+0x1b78>
  1075b0:	00610133          	add	sp,sp,t1

001075b4 <i000000104f>:
  1075b4:	27412903          	lw	s2,628(sp)

001075b8 <i0000001050>:
  1075b8:	6fdba393          	slti	t2,s7,1789

001075bc <i0000001051>:
  1075bc:	fd910e23          	sb	s9,-36(sp)

001075c0 <i0000001052>:
  1075c0:	4496cbb7          	lui	s7,0x4496c

001075c4 <i0000001053>:
  1075c4:	4c27ee17          	auipc	t3,0x4c27e
  1075c8:	00008117          	auipc	sp,0x8
  1075cc:	b3810113          	add	sp,sp,-1224 # 10f100 <mem>
  1075d0:	0003c337          	lui	t1,0x3c
  1075d4:	4f030313          	add	t1,t1,1264 # 3c4f0 <tohost+0x1c4e8>
  1075d8:	00610133          	add	sp,sp,t1

001075dc <i0000001054>:
  1075dc:	e6615883          	lhu	a7,-410(sp)
  1075e0:	00c00b93          	li	s7,12
  1075e4:	00a00d13          	li	s10,10

001075e8 <b0000001055>:
  1075e8:	00000033          	add	zero,zero,zero
  1075ec:	037d4863          	blt	s10,s7,10761c <i000000105e>
  1075f0:	00000033          	add	zero,zero,zero
  1075f4:	00a00d13          	li	s10,10

001075f8 <i0000001055>:
  1075f8:	cc810703          	lb	a4,-824(sp)

001075fc <i0000001056>:
  1075fc:	00427933          	and	s2,tp,tp

00107600 <i0000001057>:
  107600:	d9fc8f13          	add	t5,s9,-609

00107604 <i0000001058>:
  107604:	81ce8b13          	add	s6,t4,-2020 # 6baad1e0 <fromhost+0x6b9251d0>

00107608 <i0000001059>:
  107608:	d0bc0213          	add	tp,s8,-757 # 23c80d2b <fromhost+0x23af8d1b>

0010760c <i000000105a>:
  10760c:	409c8f33          	sub	t5,s9,s1

00107610 <i000000105b>:
  107610:	016b1333          	sll	t1,s6,s6

00107614 <i000000105c>:
  107614:	02e10b03          	lb	s6,46(sp)

00107618 <i000000105d>:
  107618:	0072d033          	srl	zero,t0,t2

0010761c <i000000105e>:
  10761c:	011aef33          	or	t5,s5,a7

00107620 <i000000105f>:
  107620:	12617037          	lui	zero,0x12617

00107624 <i0000001060>:
  107624:	20410f83          	lb	t6,516(sp)

00107628 <i0000001061>:
  107628:	009e75b3          	and	a1,t3,s1

0010762c <i0000001062>:
  10762c:	ebe03713          	sltiu	a4,zero,-322

00107630 <i0000001063>:
  107630:	41558533          	sub	a0,a1,s5

00107634 <i0000001064>:
  107634:	01769a93          	sll	s5,a3,0x17

00107638 <i0000001065>:
  107638:	01605533          	srl	a0,zero,s6

0010763c <i0000001066>:
  10763c:	41615283          	lhu	t0,1046(sp)

00107640 <i0000001067>:
  107640:	8b210e03          	lb	t3,-1870(sp)
  107644:	00900893          	li	a7,9

00107648 <b0000001068>:
  107648:	00000033          	add	zero,zero,zero
  10764c:	fd1d48e3          	blt	s10,a7,10761c <i000000105e>
  107650:	00000033          	add	zero,zero,zero
  107654:	00a00d13          	li	s10,10

00107658 <i0000001068>:
  107658:	89210ba3          	sb	s2,-1897(sp)
  10765c:	00008117          	auipc	sp,0x8
  107660:	aa410113          	add	sp,sp,-1372 # 10f100 <mem>
  107664:	0002d337          	lui	t1,0x2d
  107668:	02830313          	add	t1,t1,40 # 2d028 <tohost+0xd020>
  10766c:	00610133          	add	sp,sp,t1

00107670 <i0000001069>:
  107670:	76e11b23          	sh	a4,1910(sp)

00107674 <i000000106a>:
  107674:	0d114203          	lbu	tp,209(sp)

00107678 <i000000106b>:
  107678:	74012023          	sw	zero,1856(sp)

0010767c <i000000106c>:
  10767c:	79d11c23          	sh	t4,1944(sp)
  107680:	00008117          	auipc	sp,0x8
  107684:	a8010113          	add	sp,sp,-1408 # 10f100 <mem>
  107688:	00054337          	lui	t1,0x54
  10768c:	30830313          	add	t1,t1,776 # 54308 <tohost+0x34300>
  107690:	00610133          	add	sp,sp,t1

00107694 <i000000106d>:
  107694:	4ea11303          	lh	t1,1258(sp)

00107698 <i000000106e>:
  107698:	65312623          	sw	s3,1612(sp)

0010769c <i000000106f>:
  10769c:	86b12823          	sw	a1,-1936(sp)

001076a0 <i0000001070>:
  1076a0:	2aa15e83          	lhu	t4,682(sp)
  1076a4:	00008117          	auipc	sp,0x8
  1076a8:	a5c10113          	add	sp,sp,-1444 # 10f100 <mem>
  1076ac:	00050337          	lui	t1,0x50
  1076b0:	62030313          	add	t1,t1,1568 # 50620 <tohost+0x30618>
  1076b4:	00610133          	add	sp,sp,t1

001076b8 <i0000001071>:
  1076b8:	74412403          	lw	s0,1860(sp)
  1076bc:	00008117          	auipc	sp,0x8
  1076c0:	a4410113          	add	sp,sp,-1468 # 10f100 <mem>
  1076c4:	00043337          	lui	t1,0x43
  1076c8:	3a030313          	add	t1,t1,928 # 433a0 <tohost+0x23398>
  1076cc:	00610133          	add	sp,sp,t1

001076d0 <i0000001072>:
  1076d0:	db612423          	sw	s6,-600(sp)

001076d4 <i0000001073>:
  1076d4:	87212823          	sw	s2,-1936(sp)

001076d8 <i0000001074>:
  1076d8:	218f94b7          	lui	s1,0x218f9

001076dc <i0000001075>:
  1076dc:	029d9037          	lui	zero,0x29d9

001076e0 <i0000001076>:
  1076e0:	ac015b83          	lhu	s7,-1344(sp)

001076e4 <i0000001077>:
  1076e4:	79015383          	lhu	t2,1936(sp)

001076e8 <i0000001078>:
  1076e8:	76812f03          	lw	t5,1896(sp)

001076ec <i0000001079>:
  1076ec:	3c811803          	lh	a6,968(sp)

001076f0 <i000000107a>:
  1076f0:	bea12823          	sw	a0,-1040(sp)
  1076f4:	00b00c13          	li	s8,11
  1076f8:	00a00d13          	li	s10,10

001076fc <b000000107b>:
  1076fc:	00000033          	add	zero,zero,zero
  107700:	05ac5263          	bge	s8,s10,107744 <i0000001084>
  107704:	00000033          	add	zero,zero,zero
  107708:	00a00d13          	li	s10,10

0010770c <i000000107b>:
  10770c:	d7612a23          	sw	s6,-652(sp)

00107710 <i000000107c>:
  107710:	407a8533          	sub	a0,s5,t2

00107714 <i000000107d>:
  107714:	2640d697          	auipc	a3,0x2640d

00107718 <i000000107e>:
  107718:	88b10503          	lb	a0,-1909(sp)
  10771c:	00008117          	auipc	sp,0x8
  107720:	9e410113          	add	sp,sp,-1564 # 10f100 <mem>
  107724:	00036337          	lui	t1,0x36
  107728:	e3030313          	add	t1,t1,-464 # 35e30 <tohost+0x15e28>
  10772c:	00610133          	add	sp,sp,t1

00107730 <i000000107f>:
  107730:	41412f03          	lw	t5,1044(sp)

00107734 <i0000001080>:
  107734:	13411003          	lh	zero,308(sp)

00107738 <i0000001081>:
  107738:	3ce28f13          	add	t5,t0,974 # 4ace23ce <fromhost+0x4ab5a3be>

0010773c <i0000001082>:
  10773c:	23113517          	auipc	a0,0x23113

00107740 <i0000001083>:
  107740:	003b9eb3          	sll	t4,s7,gp

00107744 <i0000001084>:
  107744:	93612a23          	sw	s6,-1740(sp)

00107748 <i0000001085>:
  107748:	00055913          	srl	s2,a0,0x0

0010774c <i0000001086>:
  10774c:	00e9db93          	srl	s7,s3,0xe

00107750 <i0000001087>:
  107750:	f6a12223          	sw	a0,-156(sp)

00107754 <i0000001088>:
  107754:	6dc15503          	lhu	a0,1756(sp)

00107758 <i0000001089>:
  107758:	4a0103a3          	sb	zero,1191(sp)

0010775c <i000000108a>:
  10775c:	00fe3c33          	sltu	s8,t3,a5

00107760 <i000000108b>:
  107760:	32015c03          	lhu	s8,800(sp)

00107764 <i000000108c>:
  107764:	41bb5493          	sra	s1,s6,0x1b

00107768 <i000000108d>:
  107768:	01e51533          	sll	a0,a0,t5
  10776c:	00a00e13          	li	t3,10

00107770 <b000000108e>:
  107770:	00000033          	add	zero,zero,zero
  107774:	05cd0063          	beq	s10,t3,1077b4 <i000000109b>
  107778:	00000033          	add	zero,zero,zero
  10777c:	00a00d13          	li	s10,10

00107780 <i000000108e>:
  107780:	eb611023          	sh	s6,-352(sp)

00107784 <i000000108f>:
  107784:	019a5533          	srl	a0,s4,s9

00107788 <i0000001090>:
  107788:	8a010503          	lb	a0,-1888(sp)

0010778c <i0000001091>:
  10778c:	81e2af13          	slti	t5,t0,-2018

00107790 <i0000001092>:
  107790:	02c12203          	lw	tp,44(sp)

00107794 <i0000001093>:
  107794:	20a11a23          	sh	a0,532(sp)

00107798 <i0000001094>:
  107798:	aad14783          	lbu	a5,-1363(sp)

0010779c <i0000001095>:
  10779c:	013a8b33          	add	s6,s5,s3

001077a0 <i0000001096>:
  1077a0:	009dd533          	srl	a0,s11,s1

001077a4 <i0000001097>:
  1077a4:	40795213          	sra	tp,s2,0x7

001077a8 <i0000001098>:
  1077a8:	01656233          	or	tp,a0,s6

001077ac <i0000001099>:
  1077ac:	01607a33          	and	s4,zero,s6

001077b0 <i000000109a>:
  1077b0:	45410f03          	lb	t5,1108(sp)

001077b4 <i000000109b>:
  1077b4:	4832de37          	lui	t3,0x4832d

001077b8 <i000000109c>:
  1077b8:	01de0633          	add	a2,t3,t4

001077bc <i000000109d>:
  1077bc:	01ae5713          	srl	a4,t3,0x1a

001077c0 <i000000109e>:
  1077c0:	01061f13          	sll	t5,a2,0x10

001077c4 <i000000109f>:
  1077c4:	6c653497          	auipc	s1,0x6c653

001077c8 <i00000010a0>:
  1077c8:	6cc12003          	lw	zero,1740(sp)
  1077cc:	00c00b93          	li	s7,12
  1077d0:	001d0d13          	add	s10,s10,1

001077d4 <b00000010a1>:
  1077d4:	00000033          	add	zero,zero,zero
  1077d8:	ffabd0e3          	bge	s7,s10,1077b8 <i000000109c>
  1077dc:	00000033          	add	zero,zero,zero
  1077e0:	00a00d13          	li	s10,10

001077e4 <i00000010a1>:
  1077e4:	22f88913          	add	s2,a7,559 # 69eb522f <fromhost+0x69d2d21f>

001077e8 <i00000010a2>:
  1077e8:	01062cb3          	slt	s9,a2,a6

001077ec <i00000010a3>:
  1077ec:	9a377213          	and	tp,a4,-1629

001077f0 <i00000010a4>:
  1077f0:	d9012003          	lw	zero,-624(sp)

001077f4 <i00000010a5>:
  1077f4:	00427033          	and	zero,tp,tp

001077f8 <i00000010a6>:
  1077f8:	41625a33          	sra	s4,tp,s6
  1077fc:	00008117          	auipc	sp,0x8
  107800:	90410113          	add	sp,sp,-1788 # 10f100 <mem>
  107804:	00061337          	lui	t1,0x61
  107808:	80030313          	add	t1,t1,-2048 # 60800 <tohost+0x407f8>
  10780c:	00610133          	add	sp,sp,t1

00107810 <i00000010a7>:
  107810:	a8415d83          	lhu	s11,-1404(sp)

00107814 <i00000010a8>:
  107814:	004b4933          	xor	s2,s6,tp

00107818 <i00000010a9>:
  107818:	faa11523          	sh	a0,-86(sp)

0010781c <i00000010aa>:
  10781c:	00221013          	sll	zero,tp,0x2

00107820 <i00000010ab>:
  107820:	1ce11a03          	lh	s4,462(sp)

00107824 <i00000010ac>:
  107824:	592cf993          	and	s3,s9,1426

00107828 <i00000010ad>:
  107828:	65510ca3          	sb	s5,1625(sp)

0010782c <i00000010ae>:
  10782c:	3fedab13          	slti	s6,s11,1022

00107830 <i00000010af>:
  107830:	93fda593          	slti	a1,s11,-1729

00107834 <i00000010b0>:
  107834:	b6f24693          	xor	a3,tp,-1169

00107838 <i00000010b1>:
  107838:	40005333          	sra	t1,zero,zero

0010783c <i00000010b2>:
  10783c:	00a22eb3          	slt	t4,tp,a0

00107840 <i00000010b3>:
  107840:	dea56b93          	or	s7,a0,-534
  107844:	00900e93          	li	t4,9
  107848:	00a00d13          	li	s10,10

0010784c <b00000010b4>:
  10784c:	00000033          	add	zero,zero,zero
  107850:	03aed463          	bge	t4,s10,107878 <i00000010bb>
  107854:	00000033          	add	zero,zero,zero
  107858:	00a00d13          	li	s10,10

0010785c <i00000010b4>:
  10785c:	01768f33          	add	t5,a3,s7

00107860 <i00000010b5>:
  107860:	80611b03          	lh	s6,-2042(sp)

00107864 <i00000010b6>:
  107864:	05412b03          	lw	s6,84(sp)

00107868 <i00000010b7>:
  107868:	01521813          	sll	a6,tp,0x15

0010786c <i00000010b8>:
  10786c:	00105213          	srl	tp,zero,0x1

00107870 <i00000010b9>:
  107870:	4fcaedb7          	lui	s11,0x4fcae

00107874 <i00000010ba>:
  107874:	01255893          	srl	a7,a0,0x12

00107878 <i00000010bb>:
  107878:	40a05233          	sra	tp,zero,a0
  10787c:	00008117          	auipc	sp,0x8
  107880:	88410113          	add	sp,sp,-1916 # 10f100 <mem>
  107884:	00010337          	lui	t1,0x10
  107888:	64830313          	add	t1,t1,1608 # 10648 <_stack_len+0x8648>
  10788c:	00610133          	add	sp,sp,t1

00107890 <i00000010bc>:
  107890:	0c815583          	lhu	a1,200(sp)

00107894 <i00000010bd>:
  107894:	8b124a93          	xor	s5,tp,-1871

00107898 <i00000010be>:
  107898:	bfe10a23          	sb	t5,-1036(sp)

0010789c <i00000010bf>:
  10789c:	2a557f17          	auipc	t5,0x2a557

001078a0 <i00000010c0>:
  1078a0:	bea12023          	sw	a0,-1056(sp)

001078a4 <i00000010c1>:
  1078a4:	39df6213          	or	tp,t5,925

001078a8 <i00000010c2>:
  1078a8:	dc09eb13          	or	s6,s3,-576

001078ac <i00000010c3>:
  1078ac:	406e07b3          	sub	a5,t3,t1

001078b0 <i00000010c4>:
  1078b0:	ab015583          	lhu	a1,-1360(sp)

001078b4 <i00000010c5>:
  1078b4:	3ec12003          	lw	zero,1004(sp)

001078b8 <i00000010c6>:
  1078b8:	8b412003          	lw	zero,-1868(sp)
  1078bc:	00900993          	li	s3,9

001078c0 <b00000010c7>:
  1078c0:	00000033          	add	zero,zero,zero
  1078c4:	ffa9d0e3          	bge	s3,s10,1078a4 <i00000010c1>
  1078c8:	00000033          	add	zero,zero,zero
  1078cc:	00a00d13          	li	s10,10

001078d0 <i00000010c7>:
  1078d0:	ec511723          	sh	t0,-306(sp)

001078d4 <i00000010c8>:
  1078d4:	41d18a33          	sub	s4,gp,t4

001078d8 <i00000010c9>:
  1078d8:	6e812b03          	lw	s6,1768(sp)
  1078dc:	00008117          	auipc	sp,0x8
  1078e0:	82410113          	add	sp,sp,-2012 # 10f100 <mem>
  1078e4:	00007337          	lui	t1,0x7
  1078e8:	26030313          	add	t1,t1,608 # 7260 <_min_stack+0x5260>
  1078ec:	00610133          	add	sp,sp,t1

001078f0 <i00000010ca>:
  1078f0:	76815283          	lhu	t0,1896(sp)

001078f4 <i00000010cb>:
  1078f4:	01bb8eb3          	add	t4,s7,s11

001078f8 <i00000010cc>:
  1078f8:	01e57eb3          	and	t4,a0,t5

001078fc <i00000010cd>:
  1078fc:	8b0af593          	and	a1,s5,-1872

00107900 <i00000010ce>:
  107900:	207ca237          	lui	tp,0x207ca

00107904 <i00000010cf>:
  107904:	c9215303          	lhu	t1,-878(sp)

00107908 <i00000010d0>:
  107908:	d3712023          	sw	s7,-736(sp)

0010790c <i00000010d1>:
  10790c:	1b010923          	sb	a6,434(sp)

00107910 <i00000010d2>:
  107910:	d7f10503          	lb	a0,-641(sp)

00107914 <i00000010d3>:
  107914:	71c12823          	sw	t3,1808(sp)

00107918 <i00000010d4>:
  107918:	4094d533          	sra	a0,s1,s1

0010791c <i00000010d5>:
  10791c:	00000533          	add	a0,zero,zero

00107920 <i00000010d6>:
  107920:	e0014003          	lbu	zero,-512(sp)

00107924 <i00000010d7>:
  107924:	416f5b33          	sra	s6,t5,s6

00107928 <i00000010d8>:
  107928:	52a11583          	lh	a1,1322(sp)

0010792c <i00000010d9>:
  10792c:	01e06b33          	or	s6,zero,t5
  107930:	00c00a93          	li	s5,12
  107934:	001d0d13          	add	s10,s10,1

00107938 <b00000010da>:
  107938:	00000033          	add	zero,zero,zero
  10793c:	ff5d40e3          	blt	s10,s5,10791c <i00000010d5>
  107940:	00000033          	add	zero,zero,zero
  107944:	00a00d13          	li	s10,10

00107948 <i00000010da>:
  107948:	4c010203          	lb	tp,1216(sp)

0010794c <i00000010db>:
  10794c:	40405c33          	sra	s8,zero,tp

00107950 <i00000010dc>:
  107950:	01e79593          	sll	a1,a5,0x1e

00107954 <i00000010dd>:
  107954:	03f53e13          	sltiu	t3,a0,63
  107958:	00007117          	auipc	sp,0x7
  10795c:	7a810113          	add	sp,sp,1960 # 10f100 <mem>
  107960:	0001b337          	lui	t1,0x1b
  107964:	ee830313          	add	t1,t1,-280 # 1aee8 <_stack_len+0x12ee8>
  107968:	00610133          	add	sp,sp,t1

0010796c <i00000010de>:
  10796c:	5ac12f03          	lw	t5,1452(sp)

00107970 <i00000010df>:
  107970:	0102b033          	sltu	zero,t0,a6

00107974 <i00000010e0>:
  107974:	5dc12f03          	lw	t5,1500(sp)
  107978:	00007117          	auipc	sp,0x7
  10797c:	78810113          	add	sp,sp,1928 # 10f100 <mem>
  107980:	00021337          	lui	t1,0x21
  107984:	ab830313          	add	t1,t1,-1352 # 20ab8 <tohost+0xab0>
  107988:	00610133          	add	sp,sp,t1

0010798c <i00000010e1>:
  10798c:	69415f03          	lhu	t5,1684(sp)

00107990 <i00000010e2>:
  107990:	6e211f03          	lh	t5,1762(sp)

00107994 <i00000010e3>:
  107994:	79477213          	and	tp,a4,1940

00107998 <i00000010e4>:
  107998:	06d24393          	xor	t2,tp,109

0010799c <i00000010e5>:
  10799c:	65904c13          	xor	s8,zero,1625

001079a0 <i00000010e6>:
  1079a0:	81314b03          	lbu	s6,-2029(sp)

001079a4 <i00000010e7>:
  1079a4:	71e12e23          	sw	t5,1820(sp)

001079a8 <i00000010e8>:
  1079a8:	e6210903          	lb	s2,-414(sp)

001079ac <i00000010e9>:
  1079ac:	1c815a03          	lhu	s4,456(sp)

001079b0 <i00000010ea>:
  1079b0:	01c9a4b3          	slt	s1,s3,t3

001079b4 <i00000010eb>:
  1079b4:	b1452f93          	slti	t6,a0,-1260

001079b8 <i00000010ec>:
  1079b8:	0034a033          	slt	zero,s1,gp
  1079bc:	00b00c13          	li	s8,11
  1079c0:	00a00d13          	li	s10,10

001079c4 <b00000010ed>:
  1079c4:	00000033          	add	zero,zero,zero
  1079c8:	03ac5c63          	bge	s8,s10,107a00 <i00000010f8>
  1079cc:	00000033          	add	zero,zero,zero
  1079d0:	00a00d13          	li	s10,10

001079d4 <i00000010ed>:
  1079d4:	fbeb2a13          	slti	s4,s6,-66

001079d8 <i00000010ee>:
  1079d8:	00d05613          	srl	a2,zero,0xd

001079dc <i00000010ef>:
  1079dc:	e2611383          	lh	t2,-474(sp)

001079e0 <i00000010f0>:
  1079e0:	d0815b03          	lhu	s6,-760(sp)

001079e4 <i00000010f1>:
  1079e4:	f059f913          	and	s2,s3,-251

001079e8 <i00000010f2>:
  1079e8:	01be8fb3          	add	t6,t4,s11

001079ec <i00000010f3>:
  1079ec:	019aedb3          	or	s11,s5,s9

001079f0 <i00000010f4>:
  1079f0:	c3ac7a13          	and	s4,s8,-966

001079f4 <i00000010f5>:
  1079f4:	06815503          	lhu	a0,104(sp)

001079f8 <i00000010f6>:
  1079f8:	61b5b413          	sltiu	s0,a1,1563

001079fc <i00000010f7>:
  1079fc:	5c010c23          	sb	zero,1496(sp)

00107a00 <i00000010f8>:
  107a00:	c4012423          	sw	zero,-952(sp)

00107a04 <i00000010f9>:
  107a04:	fd65e793          	or	a5,a1,-42

00107a08 <i00000010fa>:
  107a08:	2c74f513          	and	a0,s1,711

00107a0c <i00000010fb>:
  107a0c:	00843433          	sltu	s0,s0,s0

00107a10 <i00000010fc>:
  107a10:	1cc12503          	lw	a0,460(sp)

00107a14 <i00000010fd>:
  107a14:	b9514283          	lbu	t0,-1131(sp)

00107a18 <i00000010fe>:
  107a18:	3d7faf17          	auipc	t5,0x3d7fa

00107a1c <i00000010ff>:
  107a1c:	41105193          	sra	gp,zero,0x11
  107a20:	00900d93          	li	s11,9

00107a24 <b0000001100>:
  107a24:	00000033          	add	zero,zero,zero
  107a28:	ffadd0e3          	bge	s11,s10,107a08 <i00000010fa>
  107a2c:	00000033          	add	zero,zero,zero
  107a30:	00a00d13          	li	s10,10

00107a34 <i0000001100>:
  107a34:	30e11683          	lh	a3,782(sp)

00107a38 <i0000001101>:
  107a38:	1f011003          	lh	zero,496(sp)

00107a3c <i0000001102>:
  107a3c:	54211503          	lh	a0,1346(sp)

00107a40 <i0000001103>:
  107a40:	00a55233          	srl	tp,a0,a0

00107a44 <i0000001104>:
  107a44:	6174d3b7          	lui	t2,0x6174d

00107a48 <i0000001105>:
  107a48:	f7322513          	slti	a0,tp,-141

00107a4c <i0000001106>:
  107a4c:	e61f3e93          	sltiu	t4,t5,-415

00107a50 <i0000001107>:
  107a50:	fb230f13          	add	t5,t1,-78

00107a54 <i0000001108>:
  107a54:	90d43993          	sltiu	s3,s0,-1779

00107a58 <i0000001109>:
  107a58:	404502b3          	sub	t0,a0,tp

00107a5c <i000000110a>:
  107a5c:	f0a100a3          	sb	a0,-255(sp)

00107a60 <i000000110b>:
  107a60:	e2614f03          	lbu	t5,-474(sp)

00107a64 <i000000110c>:
  107a64:	40af0b33          	sub	s6,t5,a0

00107a68 <i000000110d>:
  107a68:	01960433          	add	s0,a2,s9
  107a6c:	00007117          	auipc	sp,0x7
  107a70:	69410113          	add	sp,sp,1684 # 10f100 <mem>
  107a74:	00006337          	lui	t1,0x6
  107a78:	71830313          	add	t1,t1,1816 # 6718 <_min_stack+0x4718>
  107a7c:	00610133          	add	sp,sp,t1

00107a80 <i000000110e>:
  107a80:	65e10d23          	sb	t5,1626(sp)

00107a84 <i000000110f>:
  107a84:	45d12823          	sw	t4,1104(sp)

00107a88 <i0000001110>:
  107a88:	00355893          	srl	a7,a0,0x3

00107a8c <i0000001111>:
  107a8c:	63906013          	or	zero,zero,1593

00107a90 <i0000001112>:
  107a90:	004c9313          	sll	t1,s9,0x4
  107a94:	00b00893          	li	a7,11
  107a98:	00a00d13          	li	s10,10

00107a9c <b0000001113>:
  107a9c:	00000033          	add	zero,zero,zero
  107aa0:	03a8d863          	bge	a7,s10,107ad0 <i000000111c>
  107aa4:	00000033          	add	zero,zero,zero
  107aa8:	00a00d13          	li	s10,10

00107aac <i0000001113>:
  107aac:	01735393          	srl	t2,t1,0x17

00107ab0 <i0000001114>:
  107ab0:	0113e3b3          	or	t2,t2,a7

00107ab4 <i0000001115>:
  107ab4:	82674913          	xor	s2,a4,-2010

00107ab8 <i0000001116>:
  107ab8:	8dc10623          	sb	t3,-1844(sp)

00107abc <i0000001117>:
  107abc:	cc411323          	sh	tp,-826(sp)

00107ac0 <i0000001118>:
  107ac0:	39015283          	lhu	t0,912(sp)

00107ac4 <i0000001119>:
  107ac4:	009dcb33          	xor	s6,s11,s1

00107ac8 <i000000111a>:
  107ac8:	bf611a83          	lh	s5,-1034(sp)

00107acc <i000000111b>:
  107acc:	8f211e23          	sh	s2,-1796(sp)

00107ad0 <i000000111c>:
  107ad0:	01603533          	snez	a0,s6

00107ad4 <i000000111d>:
  107ad4:	16a8c517          	auipc	a0,0x16a8c

00107ad8 <i000000111e>:
  107ad8:	cb112823          	sw	a7,-848(sp)

00107adc <i000000111f>:
  107adc:	ab84f213          	and	tp,s1,-1352

00107ae0 <i0000001120>:
  107ae0:	00525193          	srl	gp,tp,0x5

00107ae4 <i0000001121>:
  107ae4:	46810283          	lb	t0,1128(sp)

00107ae8 <i0000001122>:
  107ae8:	00006f33          	or	t5,zero,zero

00107aec <i0000001123>:
  107aec:	d8d04293          	xor	t0,zero,-627

00107af0 <i0000001124>:
  107af0:	40005a93          	sra	s5,zero,0x0

00107af4 <i0000001125>:
  107af4:	c702e213          	or	tp,t0,-912
  107af8:	00a00b93          	li	s7,10
  107afc:	00a00d13          	li	s10,10

00107b00 <b0000001126>:
  107b00:	00000033          	add	zero,zero,zero
  107b04:	097d1a63          	bne	s10,s7,107b98 <i0000001134>
  107b08:	00000033          	add	zero,zero,zero
  107b0c:	00a00d13          	li	s10,10

00107b10 <i0000001126>:
  107b10:	40185593          	sra	a1,a6,0x1

00107b14 <i0000001127>:
  107b14:	40eadb33          	sra	s6,s5,a4

00107b18 <i0000001128>:
  107b18:	00251513          	sll	a0,a0,0x2

00107b1c <i0000001129>:
  107b1c:	4ff22513          	slti	a0,tp,1279

00107b20 <i000000112a>:
  107b20:	00efcb33          	xor	s6,t6,a4

00107b24 <i000000112b>:
  107b24:	00fe9313          	sll	t1,t4,0xf

00107b28 <i000000112c>:
  107b28:	40b95233          	sra	tp,s2,a1

00107b2c <i000000112d>:
  107b2c:	3af10ba3          	sb	a5,951(sp)

00107b30 <i000000112e>:
  107b30:	008c5b13          	srl	s6,s8,0x8
  107b34:	00007117          	auipc	sp,0x7
  107b38:	5cc10113          	add	sp,sp,1484 # 10f100 <mem>
  107b3c:	0003f337          	lui	t1,0x3f
  107b40:	01030313          	add	t1,t1,16 # 3f010 <tohost+0x1f008>
  107b44:	00610133          	add	sp,sp,t1

00107b48 <i000000112f>:
  107b48:	4ca11423          	sh	a0,1224(sp)

00107b4c <i0000001130>:
  107b4c:	00bddf33          	srl	t5,s11,a1
  107b50:	00007117          	auipc	sp,0x7
  107b54:	5b010113          	add	sp,sp,1456 # 10f100 <mem>
  107b58:	00046337          	lui	t1,0x46
  107b5c:	80030313          	add	t1,t1,-2048 # 45800 <tohost+0x257f8>
  107b60:	00610133          	add	sp,sp,t1

00107b64 <i0000001131>:
  107b64:	ce411003          	lh	zero,-796(sp)

00107b68 <i0000001132>:
  107b68:	bea11283          	lh	t0,-1046(sp)
  107b6c:	00007117          	auipc	sp,0x7
  107b70:	59410113          	add	sp,sp,1428 # 10f100 <mem>
  107b74:	00066337          	lui	t1,0x66
  107b78:	6a830313          	add	t1,t1,1704 # 666a8 <tohost+0x466a0>
  107b7c:	00610133          	add	sp,sp,t1

00107b80 <i0000001133>:
  107b80:	24012023          	sw	zero,576(sp)
  107b84:	00007117          	auipc	sp,0x7
  107b88:	57c10113          	add	sp,sp,1404 # 10f100 <mem>
  107b8c:	0003a337          	lui	t1,0x3a
  107b90:	7d030313          	add	t1,t1,2000 # 3a7d0 <tohost+0x1a7c8>
  107b94:	00610133          	add	sp,sp,t1

00107b98 <i0000001134>:
  107b98:	31411503          	lh	a0,788(sp)

00107b9c <i0000001135>:
  107b9c:	40ce8c97          	auipc	s9,0x40ce8

00107ba0 <i0000001136>:
  107ba0:	ee214c03          	lbu	s8,-286(sp)

00107ba4 <i0000001137>:
  107ba4:	51a15403          	lhu	s0,1306(sp)

00107ba8 <i0000001138>:
  107ba8:	00cad533          	srl	a0,s5,a2
  107bac:	00900b93          	li	s7,9
  107bb0:	00a00d13          	li	s10,10

00107bb4 <b0000001139>:
  107bb4:	00000033          	add	zero,zero,zero
  107bb8:	057d4a63          	blt	s10,s7,107c0c <i0000001146>
  107bbc:	00000033          	add	zero,zero,zero
  107bc0:	00a00d13          	li	s10,10

00107bc4 <i0000001139>:
  107bc4:	75d56f13          	or	t5,a0,1885

00107bc8 <i000000113a>:
  107bc8:	91ba2513          	slti	a0,s4,-1765

00107bcc <i000000113b>:
  107bcc:	ef812703          	lw	a4,-264(sp)
  107bd0:	00007117          	auipc	sp,0x7
  107bd4:	53010113          	add	sp,sp,1328 # 10f100 <mem>
  107bd8:	0001e337          	lui	t1,0x1e
  107bdc:	5b030313          	add	t1,t1,1456 # 1e5b0 <_stack_len+0x165b0>
  107be0:	00610133          	add	sp,sp,t1

00107be4 <i000000113c>:
  107be4:	8d214f03          	lbu	t5,-1838(sp)

00107be8 <i000000113d>:
  107be8:	87df2b13          	slti	s6,t5,-1923

00107bec <i000000113e>:
  107bec:	41d05613          	sra	a2,zero,0x1d

00107bf0 <i000000113f>:
  107bf0:	963101a3          	sb	gp,-1693(sp)

00107bf4 <i0000001140>:
  107bf4:	00af5533          	srl	a0,t5,a0

00107bf8 <i0000001141>:
  107bf8:	0033d613          	srl	a2,t2,0x3

00107bfc <i0000001142>:
  107bfc:	01548e33          	add	t3,s1,s5

00107c00 <i0000001143>:
  107c00:	d5ef6b13          	or	s6,t5,-674

00107c04 <i0000001144>:
  107c04:	8152af13          	slti	t5,t0,-2027

00107c08 <i0000001145>:
  107c08:	aac15b03          	lhu	s6,-1364(sp)

00107c0c <i0000001146>:
  107c0c:	55c12b03          	lw	s6,1372(sp)

00107c10 <i0000001147>:
  107c10:	407b5213          	sra	tp,s6,0x7

00107c14 <i0000001148>:
  107c14:	35274237          	lui	tp,0x35274

00107c18 <i0000001149>:
  107c18:	66624f13          	xor	t5,tp,1638

00107c1c <i000000114a>:
  107c1c:	403dd213          	sra	tp,s11,0x3
  107c20:	00007117          	auipc	sp,0x7
  107c24:	4e010113          	add	sp,sp,1248 # 10f100 <mem>
  107c28:	0001a337          	lui	t1,0x1a
  107c2c:	93830313          	add	t1,t1,-1736 # 19938 <_stack_len+0x11938>
  107c30:	00610133          	add	sp,sp,t1

00107c34 <i000000114b>:
  107c34:	89411003          	lh	zero,-1900(sp)

00107c38 <b000000114c>:
  107c38:	00000a97          	auipc	s5,0x0
  107c3c:	034a8a93          	add	s5,s5,52 # 107c6c <i0000001151>
  107c40:	000a8567          	jalr	a0,s5

00107c44 <i000000114c>:
  107c44:	ac76ee93          	or	t4,a3,-1337

00107c48 <i000000114d>:
  107c48:	0104c4b3          	xor	s1,s1,a6
  107c4c:	00007117          	auipc	sp,0x7
  107c50:	4b410113          	add	sp,sp,1204 # 10f100 <mem>
  107c54:	0004e337          	lui	t1,0x4e
  107c58:	a8830313          	add	t1,t1,-1400 # 4da88 <tohost+0x2da80>
  107c5c:	00610133          	add	sp,sp,t1

00107c60 <i000000114e>:
  107c60:	19e10303          	lb	t1,414(sp)

00107c64 <i000000114f>:
  107c64:	d6410323          	sb	tp,-666(sp)

00107c68 <i0000001150>:
  107c68:	e7215683          	lhu	a3,-398(sp)

00107c6c <i0000001151>:
  107c6c:	001b1013          	sll	zero,s6,0x1

00107c70 <i0000001152>:
  107c70:	a8812203          	lw	tp,-1400(sp)

00107c74 <i0000001153>:
  107c74:	a4623213          	sltiu	tp,tp,-1466

00107c78 <i0000001154>:
  107c78:	00ab18b3          	sll	a7,s6,a0

00107c7c <i0000001155>:
  107c7c:	f6010d23          	sb	zero,-134(sp)

00107c80 <i0000001156>:
  107c80:	50d12423          	sw	a3,1288(sp)

00107c84 <i0000001157>:
  107c84:	4823c037          	lui	zero,0x4823c

00107c88 <i0000001158>:
  107c88:	1a7102a3          	sb	t2,421(sp)

00107c8c <i0000001159>:
  107c8c:	ef912023          	sw	s9,-288(sp)
  107c90:	00007117          	auipc	sp,0x7
  107c94:	47010113          	add	sp,sp,1136 # 10f100 <mem>
  107c98:	00009337          	lui	t1,0x9
  107c9c:	a5830313          	add	t1,t1,-1448 # 8a58 <_stack_len+0xa58>
  107ca0:	00610133          	add	sp,sp,t1

00107ca4 <i000000115a>:
  107ca4:	bd211183          	lh	gp,-1070(sp)

00107ca8 <i000000115b>:
  107ca8:	39771f37          	lui	t5,0x39771

00107cac <i000000115c>:
  107cac:	79510b03          	lb	s6,1941(sp)

00107cb0 <i000000115d>:
  107cb0:	83c11503          	lh	a0,-1988(sp)

00107cb4 <i000000115e>:
  107cb4:	40cb5513          	sra	a0,s6,0xc
  107cb8:	00c00993          	li	s3,12
  107cbc:	00a00d13          	li	s10,10

00107cc0 <b000000115f>:
  107cc0:	00000033          	add	zero,zero,zero
  107cc4:	033d4263          	blt	s10,s3,107ce8 <i0000001165>
  107cc8:	00000033          	add	zero,zero,zero
  107ccc:	00a00d13          	li	s10,10

00107cd0 <i000000115f>:
  107cd0:	bd3b3593          	sltiu	a1,s6,-1069

00107cd4 <i0000001160>:
  107cd4:	09215f03          	lhu	t5,146(sp)

00107cd8 <i0000001161>:
  107cd8:	99c12c03          	lw	s8,-1636(sp)

00107cdc <i0000001162>:
  107cdc:	f92f6a13          	or	s4,t5,-110

00107ce0 <i0000001163>:
  107ce0:	a2415b03          	lhu	s6,-1500(sp)

00107ce4 <i0000001164>:
  107ce4:	65627013          	and	zero,tp,1622

00107ce8 <i0000001165>:
  107ce8:	404b5233          	sra	tp,s6,tp

00107cec <i0000001166>:
  107cec:	01e52233          	slt	tp,a0,t5

00107cf0 <i0000001167>:
  107cf0:	8e812a23          	sw	s0,-1804(sp)

00107cf4 <i0000001168>:
  107cf4:	99412583          	lw	a1,-1644(sp)

00107cf8 <i0000001169>:
  107cf8:	26a10683          	lb	a3,618(sp)

00107cfc <i000000116a>:
  107cfc:	016f1333          	sll	t1,t5,s6

00107d00 <i000000116b>:
  107d00:	85e11923          	sh	t5,-1966(sp)

00107d04 <i000000116c>:
  107d04:	9c711723          	sh	t2,-1586(sp)

00107d08 <i000000116d>:
  107d08:	3f612e23          	sw	s6,1020(sp)

00107d0c <i000000116e>:
  107d0c:	01fea7b3          	slt	a5,t4,t6

00107d10 <i000000116f>:
  107d10:	ae412023          	sw	tp,-1312(sp)

00107d14 <i0000001170>:
  107d14:	37714b83          	lbu	s7,887(sp)

00107d18 <i0000001171>:
  107d18:	28606793          	or	a5,zero,646
  107d1c:	00a00913          	li	s2,10

00107d20 <b0000001172>:
  107d20:	00000033          	add	zero,zero,zero
  107d24:	032d0a63          	beq	s10,s2,107d58 <i0000001177>
  107d28:	00000033          	add	zero,zero,zero
  107d2c:	00a00d13          	li	s10,10

00107d30 <i0000001172>:
  107d30:	ad211823          	sh	s2,-1328(sp)

00107d34 <i0000001173>:
  107d34:	01225413          	srl	s0,tp,0x12

00107d38 <i0000001174>:
  107d38:	c0e14b03          	lbu	s6,-1010(sp)

00107d3c <i0000001175>:
  107d3c:	6a926713          	or	a4,tp,1705

00107d40 <i0000001176>:
  107d40:	81c10523          	sb	t3,-2038(sp)
  107d44:	00007117          	auipc	sp,0x7
  107d48:	3bc10113          	add	sp,sp,956 # 10f100 <mem>
  107d4c:	00027337          	lui	t1,0x27
  107d50:	fe030313          	add	t1,t1,-32 # 26fe0 <tohost+0x6fd8>
  107d54:	00610133          	add	sp,sp,t1

00107d58 <i0000001177>:
  107d58:	3ba14203          	lbu	tp,954(sp)

00107d5c <i0000001178>:
  107d5c:	df910f23          	sb	s9,-514(sp)

00107d60 <i0000001179>:
  107d60:	69c11b03          	lh	s6,1692(sp)

00107d64 <i000000117a>:
  107d64:	55514483          	lbu	s1,1365(sp)

00107d68 <i000000117b>:
  107d68:	4bf5c637          	lui	a2,0x4bf5c

00107d6c <i000000117c>:
  107d6c:	aa815883          	lhu	a7,-1368(sp)

00107d70 <i000000117d>:
  107d70:	c2270293          	add	t0,a4,-990

00107d74 <i000000117e>:
  107d74:	0add8213          	add	tp,s11,173 # 4fcae0ad <fromhost+0x4fb2609d>
  107d78:	00007117          	auipc	sp,0x7
  107d7c:	38810113          	add	sp,sp,904 # 10f100 <mem>
  107d80:	00034337          	lui	t1,0x34
  107d84:	1c830313          	add	t1,t1,456 # 341c8 <tohost+0x141c0>
  107d88:	00610133          	add	sp,sp,t1

00107d8c <i000000117f>:
  107d8c:	0c611f83          	lh	t6,198(sp)

00107d90 <i0000001180>:
  107d90:	6e9be513          	or	a0,s7,1769

00107d94 <i0000001181>:
  107d94:	007fff33          	and	t5,t6,t2

00107d98 <i0000001182>:
  107d98:	00f8e933          	or	s2,a7,a5

00107d9c <i0000001183>:
  107d9c:	e7f14683          	lbu	a3,-385(sp)

00107da0 <i0000001184>:
  107da0:	f4e11823          	sh	a4,-176(sp)

00107da4 <b0000001185>:
  107da4:	0280056f          	jal	a0,107dcc <i000000118e>

00107da8 <i0000001185>:
  107da8:	000209b3          	add	s3,tp,zero

00107dac <i0000001186>:
  107dac:	31d12c23          	sw	t4,792(sp)

00107db0 <i0000001187>:
  107db0:	03310923          	sb	s3,50(sp)

00107db4 <i0000001188>:
  107db4:	e9e10da3          	sb	t5,-357(sp)

00107db8 <i0000001189>:
  107db8:	b0600f13          	li	t5,-1274

00107dbc <i000000118a>:
  107dbc:	d0710523          	sb	t2,-758(sp)

00107dc0 <i000000118b>:
  107dc0:	27e10ca3          	sb	t5,633(sp)

00107dc4 <i000000118c>:
  107dc4:	670101a3          	sb	a6,1635(sp)

00107dc8 <i000000118d>:
  107dc8:	5e278513          	add	a0,a5,1506 # 57c89c6a <fromhost+0x57b01c5a>

00107dcc <i000000118e>:
  107dcc:	42052013          	slti	zero,a0,1056

00107dd0 <i000000118f>:
  107dd0:	0ae44213          	xor	tp,s0,174

00107dd4 <i0000001190>:
  107dd4:	52412983          	lw	s3,1316(sp)

00107dd8 <i0000001191>:
  107dd8:	7b114b03          	lbu	s6,1969(sp)

00107ddc <i0000001192>:
  107ddc:	40875cb3          	sra	s9,a4,s0

00107de0 <i0000001193>:
  107de0:	00a03033          	snez	zero,a0

00107de4 <i0000001194>:
  107de4:	4d606b13          	or	s6,zero,1238

00107de8 <i0000001195>:
  107de8:	49cc8917          	auipc	s2,0x49cc8

00107dec <i0000001196>:
  107dec:	0081df13          	srl	t5,gp,0x8

00107df0 <i0000001197>:
  107df0:	414fd037          	lui	zero,0x414fd
  107df4:	00000993          	li	s3,0

00107df8 <b0000001198>:
  107df8:	00000033          	add	zero,zero,zero
  107dfc:	ff3d02e3          	beq	s10,s3,107de0 <i0000001193>
  107e00:	00000033          	add	zero,zero,zero
  107e04:	00a00d13          	li	s10,10

00107e08 <i0000001198>:
  107e08:	0c610da3          	sb	t1,219(sp)

00107e0c <i0000001199>:
  107e0c:	a3e15683          	lhu	a3,-1474(sp)

00107e10 <i000000119a>:
  107e10:	01eb1f33          	sll	t5,s6,t5

00107e14 <i000000119b>:
  107e14:	ff612a23          	sw	s6,-12(sp)
  107e18:	00007117          	auipc	sp,0x7
  107e1c:	2e810113          	add	sp,sp,744 # 10f100 <mem>
  107e20:	0005d337          	lui	t1,0x5d
  107e24:	40030313          	add	t1,t1,1024 # 5d400 <tohost+0x3d3f8>
  107e28:	00610133          	add	sp,sp,t1

00107e2c <i000000119c>:
  107e2c:	b0710c83          	lb	s9,-1273(sp)

00107e30 <i000000119d>:
  107e30:	e24b4013          	xor	zero,s6,-476

00107e34 <i000000119e>:
  107e34:	2c012023          	sw	zero,704(sp)

00107e38 <i000000119f>:
  107e38:	b5511c23          	sh	s5,-1192(sp)

00107e3c <i00000011a0>:
  107e3c:	b4c10923          	sb	a2,-1198(sp)
  107e40:	00007117          	auipc	sp,0x7
  107e44:	2c010113          	add	sp,sp,704 # 10f100 <mem>
  107e48:	0003c337          	lui	t1,0x3c
  107e4c:	1d830313          	add	t1,t1,472 # 3c1d8 <tohost+0x1c1d0>
  107e50:	00610133          	add	sp,sp,t1

00107e54 <i00000011a1>:
  107e54:	95015f03          	lhu	t5,-1712(sp)

00107e58 <i00000011a2>:
  107e58:	70412e23          	sw	tp,1820(sp)

00107e5c <i00000011a3>:
  107e5c:	01065893          	srl	a7,a2,0x10

00107e60 <i00000011a4>:
  107e60:	00051a33          	sll	s4,a0,zero
  107e64:	00007117          	auipc	sp,0x7
  107e68:	29c10113          	add	sp,sp,668 # 10f100 <mem>
  107e6c:	00001337          	lui	t1,0x1
  107e70:	c3830313          	add	t1,t1,-968 # c38 <_min_stack-0x13c8>
  107e74:	00610133          	add	sp,sp,t1

00107e78 <i00000011a5>:
  107e78:	9c414c83          	lbu	s9,-1596(sp)

00107e7c <i00000011a6>:
  107e7c:	41885a93          	sra	s5,a6,0x18

00107e80 <i00000011a7>:
  107e80:	83a15b03          	lhu	s6,-1990(sp)

00107e84 <i00000011a8>:
  107e84:	41185f13          	sra	t5,a6,0x11

00107e88 <i00000011a9>:
  107e88:	aea15a83          	lhu	s5,-1302(sp)

00107e8c <i00000011aa>:
  107e8c:	0bdc1537          	lui	a0,0xbdc1

00107e90 <b00000011ab>:
  107e90:	0240056f          	jal	a0,107eb4 <i00000011b3>

00107e94 <i00000011ab>:
  107e94:	ea911623          	sh	s1,-340(sp)

00107e98 <i00000011ac>:
  107e98:	00735913          	srl	s2,t1,0x7

00107e9c <i00000011ad>:
  107e9c:	3dfc0197          	auipc	gp,0x3dfc0

00107ea0 <i00000011ae>:
  107ea0:	ead14703          	lbu	a4,-339(sp)

00107ea4 <i00000011af>:
  107ea4:	001a9f13          	sll	t5,s5,0x1

00107ea8 <i00000011b0>:
  107ea8:	0156cc33          	xor	s8,a3,s5

00107eac <i00000011b1>:
  107eac:	d7407813          	and	a6,zero,-652

00107eb0 <i00000011b2>:
  107eb0:	01e229b3          	slt	s3,tp,t5

00107eb4 <i00000011b3>:
  107eb4:	593fc813          	xor	a6,t6,1427

00107eb8 <i00000011b4>:
  107eb8:	fa924a13          	xor	s4,tp,-87

00107ebc <i00000011b5>:
  107ebc:	07d10b17          	auipc	s6,0x7d10

00107ec0 <i00000011b6>:
  107ec0:	00b89533          	sll	a0,a7,a1

00107ec4 <i00000011b7>:
  107ec4:	32615f03          	lhu	t5,806(sp)

00107ec8 <i00000011b8>:
  107ec8:	419f5b93          	sra	s7,t5,0x19

00107ecc <i00000011b9>:
  107ecc:	8c011623          	sh	zero,-1844(sp)

00107ed0 <i00000011ba>:
  107ed0:	4d65d037          	lui	zero,0x4d65d
  107ed4:	00007117          	auipc	sp,0x7
  107ed8:	22c10113          	add	sp,sp,556 # 10f100 <mem>
  107edc:	00054337          	lui	t1,0x54
  107ee0:	60830313          	add	t1,t1,1544 # 54608 <tohost+0x34600>
  107ee4:	00610133          	add	sp,sp,t1

00107ee8 <i00000011bb>:
  107ee8:	0d415f03          	lhu	t5,212(sp)

00107eec <i00000011bc>:
  107eec:	bca10d23          	sb	a0,-1062(sp)
  107ef0:	00007117          	auipc	sp,0x7
  107ef4:	21010113          	add	sp,sp,528 # 10f100 <mem>
  107ef8:	00025337          	lui	t1,0x25
  107efc:	4d030313          	add	t1,t1,1232 # 254d0 <tohost+0x54c8>
  107f00:	00610133          	add	sp,sp,t1

00107f04 <i00000011bd>:
  107f04:	956109a3          	sb	s6,-1709(sp)

00107f08 <b00000011be>:
  107f08:	00000e17          	auipc	t3,0x0
  107f0c:	058e0e13          	add	t3,t3,88 # 107f60 <i00000011c7>
  107f10:	000e0567          	jalr	a0,t3

00107f14 <i00000011be>:
  107f14:	dce10ea3          	sb	a4,-547(sp)

00107f18 <i00000011bf>:
  107f18:	3ab10203          	lb	tp,939(sp)

00107f1c <i00000011c0>:
  107f1c:	51e11503          	lh	a0,1310(sp)

00107f20 <i00000011c1>:
  107f20:	1658cf13          	xor	t5,a7,357

00107f24 <i00000011c2>:
  107f24:	a888cb13          	xor	s6,a7,-1400
  107f28:	00007117          	auipc	sp,0x7
  107f2c:	1d810113          	add	sp,sp,472 # 10f100 <mem>
  107f30:	0002e337          	lui	t1,0x2e
  107f34:	2c030313          	add	t1,t1,704 # 2e2c0 <tohost+0xe2b8>
  107f38:	00610133          	add	sp,sp,t1

00107f3c <i00000011c3>:
  107f3c:	bc910203          	lb	tp,-1079(sp)

00107f40 <i00000011c4>:
  107f40:	011a9033          	sll	zero,s5,a7
  107f44:	00007117          	auipc	sp,0x7
  107f48:	1bc10113          	add	sp,sp,444 # 10f100 <mem>
  107f4c:	0005a337          	lui	t1,0x5a
  107f50:	f3030313          	add	t1,t1,-208 # 59f30 <tohost+0x39f28>
  107f54:	00610133          	add	sp,sp,t1

00107f58 <i00000011c5>:
  107f58:	eaa106a3          	sb	a0,-339(sp)

00107f5c <i00000011c6>:
  107f5c:	2d512c23          	sw	s5,728(sp)

00107f60 <i00000011c7>:
  107f60:	01b9a733          	slt	a4,s3,s11

00107f64 <i00000011c8>:
  107f64:	02a11f03          	lh	t5,42(sp)

00107f68 <i00000011c9>:
  107f68:	e7db7e93          	and	t4,s6,-387

00107f6c <i00000011ca>:
  107f6c:	9ad23513          	sltiu	a0,tp,-1619

00107f70 <i00000011cb>:
  107f70:	406a88b3          	sub	a7,s5,t1

00107f74 <i00000011cc>:
  107f74:	01654233          	xor	tp,a0,s6

00107f78 <i00000011cd>:
  107f78:	41ef0233          	sub	tp,t5,t5

00107f7c <i00000011ce>:
  107f7c:	36410d83          	lb	s11,868(sp)

00107f80 <i00000011cf>:
  107f80:	0057f533          	and	a0,a5,t0

00107f84 <i00000011d0>:
  107f84:	98a11723          	sh	a0,-1650(sp)
  107f88:	00900893          	li	a7,9

00107f8c <b00000011d1>:
  107f8c:	00000033          	add	zero,zero,zero
  107f90:	fd1d44e3          	blt	s10,a7,107f58 <i00000011c5>
  107f94:	00000033          	add	zero,zero,zero
  107f98:	00a00d13          	li	s10,10

00107f9c <i00000011d1>:
  107f9c:	41eb53b3          	sra	t2,s6,t5

00107fa0 <i00000011d2>:
  107fa0:	04015283          	lhu	t0,64(sp)

00107fa4 <i00000011d3>:
  107fa4:	41195e93          	sra	t4,s2,0x11

00107fa8 <i00000011d4>:
  107fa8:	12010183          	lb	gp,288(sp)

00107fac <i00000011d5>:
  107fac:	c1411f23          	sh	s4,-994(sp)

00107fb0 <i00000011d6>:
  107fb0:	02812b03          	lw	s6,40(sp)

00107fb4 <i00000011d7>:
  107fb4:	c0012903          	lw	s2,-1024(sp)

00107fb8 <i00000011d8>:
  107fb8:	a1c12903          	lw	s2,-1508(sp)
  107fbc:	00007117          	auipc	sp,0x7
  107fc0:	14410113          	add	sp,sp,324 # 10f100 <mem>
  107fc4:	00039337          	lui	t1,0x39
  107fc8:	27830313          	add	t1,t1,632 # 39278 <tohost+0x19270>
  107fcc:	00610133          	add	sp,sp,t1

00107fd0 <i00000011d9>:
  107fd0:	70a11d23          	sh	a0,1818(sp)

00107fd4 <i00000011da>:
  107fd4:	ce012423          	sw	zero,-792(sp)

00107fd8 <i00000011db>:
  107fd8:	00ef1f93          	sll	t6,t5,0xe

00107fdc <i00000011dc>:
  107fdc:	016b1233          	sll	tp,s6,s6

00107fe0 <i00000011dd>:
  107fe0:	cd612c23          	sw	s6,-808(sp)

00107fe4 <i00000011de>:
  107fe4:	016b2233          	slt	tp,s6,s6

00107fe8 <i00000011df>:
  107fe8:	5ca11e83          	lh	t4,1482(sp)

00107fec <i00000011e0>:
  107fec:	01dabb33          	sltu	s6,s5,t4

00107ff0 <i00000011e1>:
  107ff0:	ee222713          	slti	a4,tp,-286

00107ff4 <i00000011e2>:
  107ff4:	038bcf13          	xor	t5,s7,56

00107ff8 <i00000011e3>:
  107ff8:	635eb193          	sltiu	gp,t4,1589
  107ffc:	00000b13          	li	s6,0

00108000 <b00000011e4>:
  108000:	00000033          	add	zero,zero,zero
  108004:	056d0463          	beq	s10,s6,10804c <i00000011ee>
  108008:	00000033          	add	zero,zero,zero
  10800c:	00a00d13          	li	s10,10

00108010 <i00000011e4>:
  108010:	01eb4f33          	xor	t5,s6,t5

00108014 <i00000011e5>:
  108014:	7a3cff17          	auipc	t5,0x7a3cf

00108018 <i00000011e6>:
  108018:	0b710903          	lb	s2,183(sp)

0010801c <i00000011e7>:
  10801c:	d6012b03          	lw	s6,-672(sp)

00108020 <i00000011e8>:
  108020:	00401cb3          	sll	s9,zero,tp

00108024 <i00000011e9>:
  108024:	7164f993          	and	s3,s1,1814

00108028 <i00000011ea>:
  108028:	01607f33          	and	t5,zero,s6

0010802c <i00000011eb>:
  10802c:	01dbcb33          	xor	s6,s7,t4

00108030 <i00000011ec>:
  108030:	eab10ba3          	sb	a1,-329(sp)
  108034:	00007117          	auipc	sp,0x7
  108038:	0cc10113          	add	sp,sp,204 # 10f100 <mem>
  10803c:	0004c337          	lui	t1,0x4c
  108040:	49830313          	add	t1,t1,1176 # 4c498 <tohost+0x2c490>
  108044:	00610133          	add	sp,sp,t1

00108048 <i00000011ed>:
  108048:	1ca101a3          	sb	a0,451(sp)

0010804c <i00000011ee>:
  10804c:	00a523b3          	slt	t2,a0,a0

00108050 <i00000011ef>:
  108050:	e5307793          	and	a5,zero,-429

00108054 <i00000011f0>:
  108054:	40ba5433          	sra	s0,s4,a1

00108058 <i00000011f1>:
  108058:	00050533          	add	a0,a0,zero

0010805c <i00000011f2>:
  10805c:	40555193          	sra	gp,a0,0x5

00108060 <i00000011f3>:
  108060:	016f4633          	xor	a2,t5,s6

00108064 <i00000011f4>:
  108064:	a451c513          	xor	a0,gp,-1467

00108068 <i00000011f5>:
  108068:	45154213          	xor	tp,a0,1105

0010806c <i00000011f6>:
  10806c:	02050313          	add	t1,a0,32 # bdc1020 <fromhost+0xbc39010>
  108070:	00c00f93          	li	t6,12
  108074:	00a00d13          	li	s10,10

00108078 <b00000011f7>:
  108078:	00000033          	add	zero,zero,zero
  10807c:	05fd4463          	blt	s10,t6,1080c4 <i0000001201>
  108080:	00000033          	add	zero,zero,zero
  108084:	00a00d13          	li	s10,10

00108088 <i00000011f7>:
  108088:	d0c11c03          	lh	s8,-756(sp)

0010808c <i00000011f8>:
  10808c:	86623213          	sltiu	tp,tp,-1946

00108090 <i00000011f9>:
  108090:	9e215e83          	lhu	t4,-1566(sp)

00108094 <i00000011fa>:
  108094:	40415d83          	lhu	s11,1028(sp)

00108098 <i00000011fb>:
  108098:	01e51fb3          	sll	t6,a0,t5

0010809c <i00000011fc>:
  10809c:	017c6cb3          	or	s9,s8,s7

001080a0 <i00000011fd>:
  1080a0:	3c011883          	lh	a7,960(sp)

001080a4 <i00000011fe>:
  1080a4:	be254f13          	xor	t5,a0,-1054
  1080a8:	00007117          	auipc	sp,0x7
  1080ac:	05810113          	add	sp,sp,88 # 10f100 <mem>
  1080b0:	00069337          	lui	t1,0x69
  1080b4:	2d030313          	add	t1,t1,720 # 692d0 <tohost+0x492c8>
  1080b8:	00610133          	add	sp,sp,t1

001080bc <i00000011ff>:
  1080bc:	0bc11503          	lh	a0,188(sp)

001080c0 <i0000001200>:
  1080c0:	01620e33          	add	t3,tp,s6

001080c4 <i0000001201>:
  1080c4:	95611523          	sh	s6,-1718(sp)
  1080c8:	00007117          	auipc	sp,0x7
  1080cc:	03810113          	add	sp,sp,56 # 10f100 <mem>
  1080d0:	0006d337          	lui	t1,0x6d
  1080d4:	e2830313          	add	t1,t1,-472 # 6ce28 <tohost+0x4ce20>
  1080d8:	00610133          	add	sp,sp,t1

001080dc <i0000001202>:
  1080dc:	fcc12983          	lw	s3,-52(sp)

001080e0 <i0000001203>:
  1080e0:	f8b10003          	lb	zero,-117(sp)

001080e4 <i0000001204>:
  1080e4:	184d4f37          	lui	t5,0x184d4

001080e8 <i0000001205>:
  1080e8:	000b5293          	srl	t0,s6,0x0

001080ec <i0000001206>:
  1080ec:	014adb33          	srl	s6,s5,s4
  1080f0:	00007117          	auipc	sp,0x7
  1080f4:	01010113          	add	sp,sp,16 # 10f100 <mem>
  1080f8:	0000e337          	lui	t1,0xe
  1080fc:	63030313          	add	t1,t1,1584 # e630 <_stack_len+0x6630>
  108100:	00610133          	add	sp,sp,t1

00108104 <i0000001207>:
  108104:	7a011823          	sh	zero,1968(sp)

00108108 <i0000001208>:
  108108:	1e35b413          	sltiu	s0,a1,483

0010810c <i0000001209>:
  10810c:	b5011f83          	lh	t6,-1200(sp)
  108110:	00a00b13          	li	s6,10

00108114 <b000000120a>:
  108114:	00000033          	add	zero,zero,zero
  108118:	fd6d12e3          	bne	s10,s6,1080dc <i0000001202>
  10811c:	00000033          	add	zero,zero,zero
  108120:	00a00d13          	li	s10,10

00108124 <i000000120a>:
  108124:	0aa12023          	sw	a0,160(sp)

00108128 <i000000120b>:
  108128:	70446713          	or	a4,s0,1796

0010812c <i000000120c>:
  10812c:	18a12823          	sw	a0,400(sp)

00108130 <i000000120d>:
  108130:	75050f13          	add	t5,a0,1872
  108134:	00007117          	auipc	sp,0x7
  108138:	fcc10113          	add	sp,sp,-52 # 10f100 <mem>
  10813c:	00065337          	lui	t1,0x65
  108140:	51030313          	add	t1,t1,1296 # 65510 <tohost+0x45508>
  108144:	00610133          	add	sp,sp,t1

00108148 <i000000120e>:
  108148:	97a11783          	lh	a5,-1670(sp)

0010814c <i000000120f>:
  10814c:	018bef33          	or	t5,s7,s8

00108150 <i0000001210>:
  108150:	95811003          	lh	zero,-1704(sp)

00108154 <i0000001211>:
  108154:	abe14b03          	lbu	s6,-1346(sp)

00108158 <i0000001212>:
  108158:	cfe15b03          	lhu	s6,-770(sp)

0010815c <i0000001213>:
  10815c:	bfe11883          	lh	a7,-1026(sp)

00108160 <i0000001214>:
  108160:	663f6913          	or	s2,t5,1635

00108164 <i0000001215>:
  108164:	4d310f03          	lb	t5,1235(sp)

00108168 <i0000001216>:
  108168:	26b11f23          	sh	a1,638(sp)

0010816c <i0000001217>:
  10816c:	6d567993          	and	s3,a2,1749

00108170 <i0000001218>:
  108170:	96bf6213          	or	tp,t5,-1685

00108174 <i0000001219>:
  108174:	412e8533          	sub	a0,t4,s2

00108178 <i000000121a>:
  108178:	12238617          	auipc	a2,0x12238

0010817c <i000000121b>:
  10817c:	89c12e03          	lw	t3,-1892(sp)

00108180 <i000000121c>:
  108180:	419c5f33          	sra	t5,s8,s9
  108184:	00a00813          	li	a6,10

00108188 <b000000121d>:
  108188:	00000033          	add	zero,zero,zero
  10818c:	050d0863          	beq	s10,a6,1081dc <i0000001229>
  108190:	00000033          	add	zero,zero,zero
  108194:	00a00d13          	li	s10,10

00108198 <i000000121d>:
  108198:	01e24f33          	xor	t5,tp,t5

0010819c <i000000121e>:
  10819c:	5c1c3693          	sltiu	a3,s8,1473

001081a0 <i000000121f>:
  1081a0:	9a910b03          	lb	s6,-1623(sp)

001081a4 <i0000001220>:
  1081a4:	a09e0713          	add	a4,t3,-1527

001081a8 <i0000001221>:
  1081a8:	48cd9f17          	auipc	t5,0x48cd9

001081ac <i0000001222>:
  1081ac:	010cbe33          	sltu	t3,s9,a6

001081b0 <i0000001223>:
  1081b0:	01333533          	sltu	a0,t1,s3

001081b4 <i0000001224>:
  1081b4:	41c708b3          	sub	a7,a4,t3

001081b8 <i0000001225>:
  1081b8:	4b5e1e97          	auipc	t4,0x4b5e1

001081bc <i0000001226>:
  1081bc:	01539b13          	sll	s6,t2,0x15
  1081c0:	00007117          	auipc	sp,0x7
  1081c4:	f4010113          	add	sp,sp,-192 # 10f100 <mem>
  1081c8:	00001337          	lui	t1,0x1
  1081cc:	5c030313          	add	t1,t1,1472 # 15c0 <_min_stack-0xa40>
  1081d0:	00610133          	add	sp,sp,t1

001081d4 <i0000001227>:
  1081d4:	f3412a23          	sw	s4,-204(sp)

001081d8 <i0000001228>:
  1081d8:	6e5a6013          	or	zero,s4,1765

001081dc <i0000001229>:
  1081dc:	f3b12023          	sw	s11,-224(sp)

001081e0 <i000000122a>:
  1081e0:	69ebaf13          	slti	t5,s7,1694

001081e4 <i000000122b>:
  1081e4:	bc412003          	lw	zero,-1084(sp)

001081e8 <i000000122c>:
  1081e8:	4c48bf17          	auipc	t5,0x4c48b

001081ec <i000000122d>:
  1081ec:	65910d23          	sb	s9,1626(sp)
  1081f0:	00007117          	auipc	sp,0x7
  1081f4:	f1010113          	add	sp,sp,-240 # 10f100 <mem>
  1081f8:	00055337          	lui	t1,0x55
  1081fc:	2e830313          	add	t1,t1,744 # 552e8 <tohost+0x352e0>
  108200:	00610133          	add	sp,sp,t1

00108204 <i000000122e>:
  108204:	27215003          	lhu	zero,626(sp)

00108208 <i000000122f>:
  108208:	1a015203          	lhu	tp,416(sp)
  10820c:	00c00993          	li	s3,12
  108210:	00a00d13          	li	s10,10

00108214 <b0000001230>:
  108214:	00000033          	add	zero,zero,zero
  108218:	033d4a63          	blt	s10,s3,10824c <i0000001235>
  10821c:	00000033          	add	zero,zero,zero
  108220:	00a00d13          	li	s10,10

00108224 <i0000001230>:
  108224:	404f5733          	sra	a4,t5,tp

00108228 <i0000001231>:
  108228:	019c74b3          	and	s1,s8,s9

0010822c <i0000001232>:
  10822c:	012b8c33          	add	s8,s7,s2

00108230 <i0000001233>:
  108230:	92b40f13          	add	t5,s0,-1749 # 1fae092b <fromhost+0x1f95891b>
  108234:	00007117          	auipc	sp,0x7
  108238:	ecc10113          	add	sp,sp,-308 # 10f100 <mem>
  10823c:	00014337          	lui	t1,0x14
  108240:	58830313          	add	t1,t1,1416 # 14588 <_stack_len+0xc588>
  108244:	00610133          	add	sp,sp,t1

00108248 <i0000001234>:
  108248:	a9711d23          	sh	s7,-1382(sp)

0010824c <i0000001235>:
  10824c:	0743bf13          	sltiu	t5,t2,116

00108250 <i0000001236>:
  108250:	1f011c03          	lh	s8,496(sp)

00108254 <i0000001237>:
  108254:	ee09c293          	xor	t0,s3,-288

00108258 <i0000001238>:
  108258:	41625533          	sra	a0,tp,s6
  10825c:	00007117          	auipc	sp,0x7
  108260:	ea410113          	add	sp,sp,-348 # 10f100 <mem>
  108264:	00046337          	lui	t1,0x46
  108268:	28830313          	add	t1,t1,648 # 46288 <tohost+0x26280>
  10826c:	00610133          	add	sp,sp,t1

00108270 <i0000001239>:
  108270:	47412c23          	sw	s4,1144(sp)

00108274 <i000000123a>:
  108274:	00052b33          	sltz	s6,a0

00108278 <i000000123b>:
  108278:	74910c03          	lb	s8,1865(sp)

0010827c <i000000123c>:
  10827c:	eef83513          	sltiu	a0,a6,-273

00108280 <i000000123d>:
  108280:	b1612e23          	sw	s6,-1252(sp)

00108284 <i000000123e>:
  108284:	55610923          	sb	s6,1362(sp)

00108288 <i000000123f>:
  108288:	1931af13          	slti	t5,gp,403

0010828c <i0000001240>:
  10828c:	69e58893          	add	a7,a1,1694 # 1461369e <fromhost+0x1448b68e>
  108290:	00007117          	auipc	sp,0x7
  108294:	e7010113          	add	sp,sp,-400 # 10f100 <mem>
  108298:	00020337          	lui	t1,0x20
  10829c:	1a830313          	add	t1,t1,424 # 201a8 <tohost+0x1a0>
  1082a0:	00610133          	add	sp,sp,t1

001082a4 <i0000001241>:
  1082a4:	46012623          	sw	zero,1132(sp)

001082a8 <i0000001242>:
  1082a8:	01b21513          	sll	a0,tp,0x1b
  1082ac:	00a00e93          	li	t4,10
  1082b0:	00a00d13          	li	s10,10

001082b4 <b0000001243>:
  1082b4:	00000033          	add	zero,zero,zero
  1082b8:	03dd1663          	bne	s10,t4,1082e4 <i000000124b>
  1082bc:	00000033          	add	zero,zero,zero
  1082c0:	00a00d13          	li	s10,10

001082c4 <i0000001243>:
  1082c4:	2b812303          	lw	t1,696(sp)

001082c8 <i0000001244>:
  1082c8:	40b85513          	sra	a0,a6,0xb

001082cc <i0000001245>:
  1082cc:	ea412b03          	lw	s6,-348(sp)

001082d0 <i0000001246>:
  1082d0:	00d49713          	sll	a4,s1,0xd

001082d4 <i0000001247>:
  1082d4:	36457f13          	and	t5,a0,868

001082d8 <i0000001248>:
  1082d8:	81b14683          	lbu	a3,-2021(sp)

001082dc <i0000001249>:
  1082dc:	ef812b03          	lw	s6,-264(sp)

001082e0 <i000000124a>:
  1082e0:	9df57693          	and	a3,a0,-1569

001082e4 <i000000124b>:
  1082e4:	016b3ab3          	sltu	s5,s6,s6

001082e8 <i000000124c>:
  1082e8:	efc52213          	slti	tp,a0,-260

001082ec <i000000124d>:
  1082ec:	00a07b33          	and	s6,zero,a0

001082f0 <i000000124e>:
  1082f0:	48ee6693          	or	a3,t3,1166

001082f4 <i000000124f>:
  1082f4:	9ca12e23          	sw	a0,-1572(sp)

001082f8 <i0000001250>:
  1082f8:	d4a11503          	lh	a0,-694(sp)

001082fc <i0000001251>:
  1082fc:	29510f03          	lb	t5,661(sp)

00108300 <i0000001252>:
  108300:	70b10003          	lb	zero,1803(sp)

00108304 <i0000001253>:
  108304:	45611023          	sh	s6,1088(sp)

00108308 <i0000001254>:
  108308:	57011203          	lh	tp,1392(sp)

0010830c <i0000001255>:
  10830c:	01e509b3          	add	s3,a0,t5
  108310:	00c00c93          	li	s9,12
  108314:	001d0d13          	add	s10,s10,1

00108318 <b0000001256>:
  108318:	00000033          	add	zero,zero,zero
  10831c:	fdacd2e3          	bge	s9,s10,1082e0 <i000000124a>
  108320:	00000033          	add	zero,zero,zero
  108324:	00a00d13          	li	s10,10

00108328 <i0000001256>:
  108328:	e2210203          	lb	tp,-478(sp)

0010832c <i0000001257>:
  10832c:	598e6db7          	lui	s11,0x598e6

00108330 <i0000001258>:
  108330:	61c12003          	lw	zero,1564(sp)

00108334 <i0000001259>:
  108334:	b8acbe93          	sltiu	t4,s9,-1142

00108338 <i000000125a>:
  108338:	31415e83          	lhu	t4,788(sp)

0010833c <i000000125b>:
  10833c:	76a106a3          	sb	a0,1901(sp)

00108340 <i000000125c>:
  108340:	3e514f03          	lbu	t5,997(sp)

00108344 <i000000125d>:
  108344:	af138513          	add	a0,t2,-1295 # 6174caf1 <fromhost+0x615c4ae1>

00108348 <i000000125e>:
  108348:	080102a3          	sb	zero,133(sp)

0010834c <i000000125f>:
  10834c:	41d3db33          	sra	s6,t2,t4

00108350 <i0000001260>:
  108350:	409fd533          	sra	a0,t6,s1

00108354 <i0000001261>:
  108354:	4dd10003          	lb	zero,1245(sp)

00108358 <i0000001262>:
  108358:	87c11f23          	sh	t3,-1922(sp)

0010835c <i0000001263>:
  10835c:	efe11c23          	sh	t5,-264(sp)

00108360 <i0000001264>:
  108360:	00581c93          	sll	s9,a6,0x5

00108364 <i0000001265>:
  108364:	00cdc833          	xor	a6,s11,a2

00108368 <i0000001266>:
  108368:	01603eb3          	snez	t4,s6

0010836c <i0000001267>:
  10836c:	c06cb513          	sltiu	a0,s9,-1018

00108370 <i0000001268>:
  108370:	000f58b3          	srl	a7,t5,zero
  108374:	00b00c93          	li	s9,11
  108378:	00a00d13          	li	s10,10

0010837c <b0000001269>:
  10837c:	00000033          	add	zero,zero,zero
  108380:	05acd663          	bge	s9,s10,1083cc <i000000126f>
  108384:	00000033          	add	zero,zero,zero
  108388:	00a00d13          	li	s10,10
  10838c:	00007117          	auipc	sp,0x7
  108390:	d7410113          	add	sp,sp,-652 # 10f100 <mem>
  108394:	00035337          	lui	t1,0x35
  108398:	d6830313          	add	t1,t1,-664 # 34d68 <tohost+0x14d60>
  10839c:	00610133          	add	sp,sp,t1

001083a0 <i0000001269>:
  1083a0:	27612423          	sw	s6,616(sp)
  1083a4:	00007117          	auipc	sp,0x7
  1083a8:	d5c10113          	add	sp,sp,-676 # 10f100 <mem>
  1083ac:	00025337          	lui	t1,0x25
  1083b0:	dc030313          	add	t1,t1,-576 # 24dc0 <tohost+0x4db8>
  1083b4:	00610133          	add	sp,sp,t1

001083b8 <i000000126a>:
  1083b8:	28010c03          	lb	s8,640(sp)

001083bc <i000000126b>:
  1083bc:	00a20533          	add	a0,tp,a0

001083c0 <i000000126c>:
  1083c0:	40455b33          	sra	s6,a0,tp

001083c4 <i000000126d>:
  1083c4:	6defe513          	or	a0,t6,1758

001083c8 <i000000126e>:
  1083c8:	df710623          	sb	s7,-532(sp)

001083cc <i000000126f>:
  1083cc:	c838b313          	sltiu	t1,a7,-893

001083d0 <i0000001270>:
  1083d0:	01601433          	sll	s0,zero,s6

001083d4 <i0000001271>:
  1083d4:	00a25633          	srl	a2,tp,a0

001083d8 <i0000001272>:
  1083d8:	dba14203          	lbu	tp,-582(sp)

001083dc <i0000001273>:
  1083dc:	c3cbef13          	or	t5,s7,-964
  1083e0:	00007117          	auipc	sp,0x7
  1083e4:	d2010113          	add	sp,sp,-736 # 10f100 <mem>
  1083e8:	00013337          	lui	t1,0x13
  1083ec:	7f830313          	add	t1,t1,2040 # 137f8 <_stack_len+0xb7f8>
  1083f0:	00610133          	add	sp,sp,t1

001083f4 <i0000001274>:
  1083f4:	02512a23          	sw	t0,52(sp)

001083f8 <i0000001275>:
  1083f8:	407f5713          	sra	a4,t5,0x7

001083fc <i0000001276>:
  1083fc:	00fbe233          	or	tp,s7,a5
  108400:	00007117          	auipc	sp,0x7
  108404:	d0010113          	add	sp,sp,-768 # 10f100 <mem>
  108408:	00004337          	lui	t1,0x4
  10840c:	20030313          	add	t1,t1,512 # 4200 <_min_stack+0x2200>
  108410:	00610133          	add	sp,sp,t1

00108414 <i0000001277>:
  108414:	e3a14983          	lbu	s3,-454(sp)
  108418:	00007117          	auipc	sp,0x7
  10841c:	ce810113          	add	sp,sp,-792 # 10f100 <mem>
  108420:	00018337          	lui	t1,0x18
  108424:	04030313          	add	t1,t1,64 # 18040 <_stack_len+0x10040>
  108428:	00610133          	add	sp,sp,t1

0010842c <i0000001278>:
  10842c:	84812623          	sw	s0,-1972(sp)

00108430 <i0000001279>:
  108430:	0f16ff13          	and	t5,a3,241

00108434 <i000000127a>:
  108434:	69110f03          	lb	t5,1681(sp)

00108438 <i000000127b>:
  108438:	01881b33          	sll	s6,a6,s8
  10843c:	00b00a13          	li	s4,11
  108440:	001d0d13          	add	s10,s10,1

00108444 <b000000127c>:
  108444:	00000033          	add	zero,zero,zero
  108448:	f94d0ae3          	beq	s10,s4,1083dc <i0000001273>
  10844c:	00000033          	add	zero,zero,zero
  108450:	00a00d13          	li	s10,10

00108454 <i000000127c>:
  108454:	2a602013          	slti	zero,zero,678

00108458 <i000000127d>:
  108458:	5b91ef13          	or	t5,gp,1465

0010845c <i000000127e>:
  10845c:	70914003          	lbu	zero,1801(sp)

00108460 <i000000127f>:
  108460:	000b5b13          	srl	s6,s6,0x0

00108464 <i0000001280>:
  108464:	5cd7b813          	sltiu	a6,a5,1485

00108468 <i0000001281>:
  108468:	ff815603          	lhu	a2,-8(sp)

0010846c <i0000001282>:
  10846c:	19e87f13          	and	t5,a6,414

00108470 <i0000001283>:
  108470:	38010503          	lb	a0,896(sp)

00108474 <i0000001284>:
  108474:	41d98f33          	sub	t5,s3,t4

00108478 <i0000001285>:
  108478:	2bf102a3          	sb	t6,677(sp)

0010847c <i0000001286>:
  10847c:	062b7a13          	and	s4,s6,98

00108480 <i0000001287>:
  108480:	004b4f33          	xor	t5,s6,tp

00108484 <i0000001288>:
  108484:	00ef8b33          	add	s6,t6,a4

00108488 <i0000001289>:
  108488:	01e07eb3          	and	t4,zero,t5

0010848c <i000000128a>:
  10848c:	9b912023          	sw	s9,-1632(sp)
  108490:	00007117          	auipc	sp,0x7
  108494:	c7010113          	add	sp,sp,-912 # 10f100 <mem>
  108498:	0003c337          	lui	t1,0x3c
  10849c:	4f830313          	add	t1,t1,1272 # 3c4f8 <tohost+0x1c4f0>
  1084a0:	00610133          	add	sp,sp,t1

001084a4 <i000000128b>:
  1084a4:	c0812303          	lw	t1,-1016(sp)

001084a8 <i000000128c>:
  1084a8:	70791817          	auipc	a6,0x70791

001084ac <i000000128d>:
  1084ac:	cf1f7793          	and	a5,t5,-783

001084b0 <i000000128e>:
  1084b0:	40fadb33          	sra	s6,s5,a5
  1084b4:	00900893          	li	a7,9
  1084b8:	00a00d13          	li	s10,10

001084bc <b000000128f>:
  1084bc:	00000033          	add	zero,zero,zero
  1084c0:	09a8d663          	bge	a7,s10,10854c <i000000129b>
  1084c4:	00000033          	add	zero,zero,zero
  1084c8:	00a00d13          	li	s10,10

001084cc <i000000128f>:
  1084cc:	c7f11323          	sh	t6,-922(sp)
  1084d0:	00007117          	auipc	sp,0x7
  1084d4:	c3010113          	add	sp,sp,-976 # 10f100 <mem>
  1084d8:	00029337          	lui	t1,0x29
  1084dc:	0e830313          	add	t1,t1,232 # 290e8 <tohost+0x90e0>
  1084e0:	00610133          	add	sp,sp,t1

001084e4 <i0000001290>:
  1084e4:	02614283          	lbu	t0,38(sp)

001084e8 <i0000001291>:
  1084e8:	dba15303          	lhu	t1,-582(sp)
  1084ec:	00007117          	auipc	sp,0x7
  1084f0:	c1410113          	add	sp,sp,-1004 # 10f100 <mem>
  1084f4:	0006f337          	lui	t1,0x6f
  1084f8:	cd830313          	add	t1,t1,-808 # 6ecd8 <tohost+0x4ecd0>
  1084fc:	00610133          	add	sp,sp,t1

00108500 <i0000001292>:
  108500:	58415b03          	lhu	s6,1412(sp)

00108504 <i0000001293>:
  108504:	5ad14e83          	lbu	t4,1453(sp)

00108508 <i0000001294>:
  108508:	31682013          	slti	zero,a6,790
  10850c:	00007117          	auipc	sp,0x7
  108510:	bf410113          	add	sp,sp,-1036 # 10f100 <mem>
  108514:	00025337          	lui	t1,0x25
  108518:	0e030313          	add	t1,t1,224 # 250e0 <tohost+0x50d8>
  10851c:	00610133          	add	sp,sp,t1

00108520 <i0000001295>:
  108520:	0e412623          	sw	tp,236(sp)

00108524 <i0000001296>:
  108524:	97811523          	sh	s8,-1686(sp)

00108528 <i0000001297>:
  108528:	f5e10183          	lb	gp,-162(sp)

0010852c <i0000001298>:
  10852c:	06215f83          	lhu	t6,98(sp)

00108530 <i0000001299>:
  108530:	6c615503          	lhu	a0,1734(sp)

00108534 <i000000129a>:
  108534:	01161e33          	sll	t3,a2,a7
  108538:	00007117          	auipc	sp,0x7
  10853c:	bc810113          	add	sp,sp,-1080 # 10f100 <mem>
  108540:	00044337          	lui	t1,0x44
  108544:	37830313          	add	t1,t1,888 # 44378 <tohost+0x24370>
  108548:	00610133          	add	sp,sp,t1

0010854c <i000000129b>:
  10854c:	a6c12503          	lw	a0,-1428(sp)

00108550 <i000000129c>:
  108550:	6cc11003          	lh	zero,1740(sp)

00108554 <i000000129d>:
  108554:	76d4e313          	or	t1,s1,1901

00108558 <i000000129e>:
  108558:	416f5c33          	sra	s8,t5,s6

0010855c <i000000129f>:
  10855c:	00407eb3          	and	t4,zero,tp

00108560 <i00000012a0>:
  108560:	0c012a23          	sw	zero,212(sp)

00108564 <i00000012a1>:
  108564:	00d6afb3          	slt	t6,a3,a3
  108568:	00a00c13          	li	s8,10
  10856c:	00a00d13          	li	s10,10

00108570 <b00000012a2>:
  108570:	00000033          	add	zero,zero,zero
  108574:	038d1263          	bne	s10,s8,108598 <i00000012a8>
  108578:	00000033          	add	zero,zero,zero
  10857c:	00a00d13          	li	s10,10

00108580 <i00000012a2>:
  108580:	54412003          	lw	zero,1348(sp)

00108584 <i00000012a3>:
  108584:	016f62b3          	or	t0,t5,s6

00108588 <i00000012a4>:
  108588:	016b12b3          	sll	t0,s6,s6

0010858c <i00000012a5>:
  10858c:	00051033          	sll	zero,a0,zero

00108590 <i00000012a6>:
  108590:	c1312223          	sw	s3,-1020(sp)

00108594 <i00000012a7>:
  108594:	01f51b13          	sll	s6,a0,0x1f

00108598 <i00000012a8>:
  108598:	eb612623          	sw	s6,-340(sp)

0010859c <i00000012a9>:
  10859c:	1f304a93          	xor	s5,zero,499

001085a0 <i00000012aa>:
  1085a0:	41e9d493          	sra	s1,s3,0x1e

001085a4 <i00000012ab>:
  1085a4:	06910723          	sb	s1,110(sp)

001085a8 <i00000012ac>:
  1085a8:	10c12823          	sw	a2,272(sp)

001085ac <i00000012ad>:
  1085ac:	58012003          	lw	zero,1408(sp)

001085b0 <i00000012ae>:
  1085b0:	d9e12c23          	sw	t5,-616(sp)

001085b4 <i00000012af>:
  1085b4:	42407237          	lui	tp,0x42407

001085b8 <i00000012b0>:
  1085b8:	40c05513          	sra	a0,zero,0xc

001085bc <i00000012b1>:
  1085bc:	04222b17          	auipc	s6,0x4222

001085c0 <i00000012b2>:
  1085c0:	17f58513          	add	a0,a1,383

001085c4 <i00000012b3>:
  1085c4:	15714003          	lbu	zero,343(sp)

001085c8 <i00000012b4>:
  1085c8:	01e02f33          	sgtz	t5,t5
  1085cc:	00900a13          	li	s4,9
  1085d0:	00a00d13          	li	s10,10

001085d4 <b00000012b5>:
  1085d4:	00000033          	add	zero,zero,zero
  1085d8:	034d4863          	blt	s10,s4,108608 <i00000012be>
  1085dc:	00000033          	add	zero,zero,zero
  1085e0:	00a00d13          	li	s10,10

001085e4 <i00000012b5>:
  1085e4:	78f12823          	sw	a5,1936(sp)

001085e8 <i00000012b6>:
  1085e8:	2aeb0f13          	add	t5,s6,686 # 432a86a <fromhost+0x41a285a>

001085ec <i00000012b7>:
  1085ec:	adc12783          	lw	a5,-1316(sp)

001085f0 <i00000012b8>:
  1085f0:	01eb19b3          	sll	s3,s6,t5

001085f4 <i00000012b9>:
  1085f4:	01623333          	sltu	t1,tp,s6

001085f8 <i00000012ba>:
  1085f8:	40975ab3          	sra	s5,a4,s1

001085fc <i00000012bb>:
  1085fc:	5f812783          	lw	a5,1528(sp)

00108600 <i00000012bc>:
  108600:	00c1ddb3          	srl	s11,gp,a2

00108604 <i00000012bd>:
  108604:	e8811203          	lh	tp,-376(sp)

00108608 <i00000012be>:
  108608:	00f65733          	srl	a4,a2,a5

0010860c <i00000012bf>:
  10860c:	d6f6f213          	and	tp,a3,-657

00108610 <i00000012c0>:
  108610:	016f5db3          	srl	s11,t5,s6

00108614 <i00000012c1>:
  108614:	4125d233          	sra	tp,a1,s2

00108618 <i00000012c2>:
  108618:	011a9233          	sll	tp,s5,a7

0010861c <i00000012c3>:
  10861c:	9ca10203          	lb	tp,-1590(sp)

00108620 <i00000012c4>:
  108620:	d5b14a83          	lbu	s5,-677(sp)

00108624 <i00000012c5>:
  108624:	f3c10b03          	lb	s6,-196(sp)

00108628 <i00000012c6>:
  108628:	1a3f4713          	xor	a4,t5,419

0010862c <i00000012c7>:
  10862c:	00ab6f33          	or	t5,s6,a0

00108630 <b00000012c8>:
  108630:	0180056f          	jal	a0,108648 <i00000012cd>

00108634 <i00000012c8>:
  108634:	31723b13          	sltiu	s6,tp,791

00108638 <i00000012c9>:
  108638:	cc811223          	sh	s0,-828(sp)

0010863c <i00000012ca>:
  10863c:	d3314b03          	lbu	s6,-717(sp)

00108640 <i00000012cb>:
  108640:	f6012423          	sw	zero,-152(sp)

00108644 <i00000012cc>:
  108644:	4ec10503          	lb	a0,1260(sp)

00108648 <i00000012cd>:
  108648:	06aba017          	auipc	zero,0x6aba

0010864c <i00000012ce>:
  10864c:	51a84a93          	xor	s5,a6,1306
  108650:	00007117          	auipc	sp,0x7
  108654:	ab010113          	add	sp,sp,-1360 # 10f100 <mem>
  108658:	0002e337          	lui	t1,0x2e
  10865c:	db030313          	add	t1,t1,-592 # 2ddb0 <tohost+0xdda8>
  108660:	00610133          	add	sp,sp,t1

00108664 <i00000012cf>:
  108664:	44914b83          	lbu	s7,1097(sp)

00108668 <i00000012d0>:
  108668:	c9c10023          	sb	t3,-896(sp)

0010866c <i00000012d1>:
  10866c:	cfe10623          	sb	t5,-788(sp)

00108670 <i00000012d2>:
  108670:	01627233          	and	tp,tp,s6

00108674 <i00000012d3>:
  108674:	40875f13          	sra	t5,a4,0x8

00108678 <i00000012d4>:
  108678:	fbf14f03          	lbu	t5,-65(sp)

0010867c <i00000012d5>:
  10867c:	7d412a23          	sw	s4,2004(sp)

00108680 <i00000012d6>:
  108680:	21910723          	sb	s9,526(sp)
  108684:	00007117          	auipc	sp,0x7
  108688:	a7c10113          	add	sp,sp,-1412 # 10f100 <mem>
  10868c:	00047337          	lui	t1,0x47
  108690:	6a830313          	add	t1,t1,1704 # 476a8 <tohost+0x276a0>
  108694:	00610133          	add	sp,sp,t1

00108698 <i00000012d7>:
  108698:	4fc10e83          	lb	t4,1276(sp)

0010869c <i00000012d8>:
  10869c:	00231913          	sll	s2,t1,0x2

001086a0 <i00000012d9>:
  1086a0:	7f995537          	lui	a0,0x7f995

001086a4 <i00000012da>:
  1086a4:	1ee11b03          	lh	s6,494(sp)
  1086a8:	00000d93          	li	s11,0

001086ac <b00000012db>:
  1086ac:	00000033          	add	zero,zero,zero
  1086b0:	fbbd0ae3          	beq	s10,s11,108664 <i00000012cf>
  1086b4:	00000033          	add	zero,zero,zero
  1086b8:	00a00d13          	li	s10,10

001086bc <i00000012db>:
  1086bc:	016b6233          	or	tp,s6,s6

001086c0 <i00000012dc>:
  1086c0:	1c5abf17          	auipc	t5,0x1c5ab
  1086c4:	00007117          	auipc	sp,0x7
  1086c8:	a3c10113          	add	sp,sp,-1476 # 10f100 <mem>
  1086cc:	00034337          	lui	t1,0x34
  1086d0:	3e830313          	add	t1,t1,1000 # 343e8 <tohost+0x143e0>
  1086d4:	00610133          	add	sp,sp,t1

001086d8 <i00000012dd>:
  1086d8:	baa12023          	sw	a0,-1120(sp)

001086dc <i00000012de>:
  1086dc:	3a4c7537          	lui	a0,0x3a4c7

001086e0 <i00000012df>:
  1086e0:	00023533          	sltu	a0,tp,zero

001086e4 <i00000012e0>:
  1086e4:	aa752293          	slti	t0,a0,-1369

001086e8 <i00000012e1>:
  1086e8:	c1611323          	sh	s6,-1018(sp)

001086ec <i00000012e2>:
  1086ec:	dd527613          	and	a2,tp,-555

001086f0 <i00000012e3>:
  1086f0:	e22b3f13          	sltiu	t5,s6,-478

001086f4 <i00000012e4>:
  1086f4:	011fb6b3          	sltu	a3,t6,a7

001086f8 <i00000012e5>:
  1086f8:	47815d83          	lhu	s11,1144(sp)

001086fc <i00000012e6>:
  1086fc:	c9d03313          	sltiu	t1,zero,-867
  108700:	00007117          	auipc	sp,0x7
  108704:	a0010113          	add	sp,sp,-1536 # 10f100 <mem>
  108708:	00022337          	lui	t1,0x22
  10870c:	be830313          	add	t1,t1,-1048 # 21be8 <tohost+0x1be0>
  108710:	00610133          	add	sp,sp,t1

00108714 <i00000012e7>:
  108714:	39a15503          	lhu	a0,922(sp)

00108718 <i00000012e8>:
  108718:	3e310803          	lb	a6,995(sp)

0010871c <i00000012e9>:
  10871c:	01f6e8b3          	or	a7,a3,t6

00108720 <i00000012ea>:
  108720:	af612e23          	sw	s6,-1284(sp)
  108724:	00007117          	auipc	sp,0x7
  108728:	9dc10113          	add	sp,sp,-1572 # 10f100 <mem>
  10872c:	0003f337          	lui	t1,0x3f
  108730:	2c030313          	add	t1,t1,704 # 3f2c0 <tohost+0x1f2b8>
  108734:	00610133          	add	sp,sp,t1

00108738 <i00000012eb>:
  108738:	b4411523          	sh	tp,-1206(sp)

0010873c <i00000012ec>:
  10873c:	01919733          	sll	a4,gp,s9

00108740 <i00000012ed>:
  108740:	ea510483          	lb	s1,-347(sp)
  108744:	00b00993          	li	s3,11
  108748:	00a00d13          	li	s10,10

0010874c <b00000012ee>:
  10874c:	00000033          	add	zero,zero,zero
  108750:	033d1463          	bne	s10,s3,108778 <i00000012f5>
  108754:	00000033          	add	zero,zero,zero
  108758:	00a00d13          	li	s10,10

0010875c <i00000012ee>:
  10875c:	cbca2f93          	slti	t6,s4,-836

00108760 <i00000012ef>:
  108760:	40a557b3          	sra	a5,a0,a0

00108764 <i00000012f0>:
  108764:	01e50033          	add	zero,a0,t5

00108768 <i00000012f1>:
  108768:	404258b3          	sra	a7,tp,tp

0010876c <i00000012f2>:
  10876c:	ec412f03          	lw	t5,-316(sp)

00108770 <i00000012f3>:
  108770:	c6936c13          	or	s8,t1,-919

00108774 <i00000012f4>:
  108774:	00bff533          	and	a0,t6,a1

00108778 <i00000012f5>:
  108778:	94b5fe13          	and	t3,a1,-1717
  10877c:	00007117          	auipc	sp,0x7
  108780:	98410113          	add	sp,sp,-1660 # 10f100 <mem>
  108784:	0000d337          	lui	t1,0xd
  108788:	e6030313          	add	t1,t1,-416 # ce60 <_stack_len+0x4e60>
  10878c:	00610133          	add	sp,sp,t1

00108790 <i00000012f6>:
  108790:	54412f03          	lw	t5,1348(sp)

00108794 <i00000012f7>:
  108794:	3b411d23          	sh	s4,954(sp)

00108798 <i00000012f8>:
  108798:	147cf737          	lui	a4,0x147cf

0010879c <i00000012f9>:
  10879c:	70410d83          	lb	s11,1796(sp)

001087a0 <i00000012fa>:
  1087a0:	b6f14003          	lbu	zero,-1169(sp)

001087a4 <i00000012fb>:
  1087a4:	92012e23          	sw	zero,-1732(sp)

001087a8 <i00000012fc>:
  1087a8:	7e804913          	xor	s2,zero,2024

001087ac <i00000012fd>:
  1087ac:	1c412a23          	sw	tp,468(sp)

001087b0 <i00000012fe>:
  1087b0:	00df1b13          	sll	s6,t5,0xd
  1087b4:	00007117          	auipc	sp,0x7
  1087b8:	94c10113          	add	sp,sp,-1716 # 10f100 <mem>
  1087bc:	0003e337          	lui	t1,0x3e
  1087c0:	64030313          	add	t1,t1,1600 # 3e640 <tohost+0x1e638>
  1087c4:	00610133          	add	sp,sp,t1

001087c8 <i00000012ff>:
  1087c8:	33910f03          	lb	t5,825(sp)
  1087cc:	00007117          	auipc	sp,0x7
  1087d0:	93410113          	add	sp,sp,-1740 # 10f100 <mem>
  1087d4:	0006c337          	lui	t1,0x6c
  1087d8:	8c830313          	add	t1,t1,-1848 # 6b8c8 <tohost+0x4b8c0>
  1087dc:	00610133          	add	sp,sp,t1

001087e0 <i0000001300>:
  1087e0:	da011b23          	sh	zero,-586(sp)
  1087e4:	00a00813          	li	a6,10

001087e8 <b0000001301>:
  1087e8:	00000033          	add	zero,zero,zero
  1087ec:	030d0063          	beq	s10,a6,10880c <i0000001306>
  1087f0:	00000033          	add	zero,zero,zero
  1087f4:	00a00d13          	li	s10,10

001087f8 <i0000001301>:
  1087f8:	016f2e33          	slt	t3,t5,s6

001087fc <i0000001302>:
  1087fc:	12412623          	sw	tp,300(sp)

00108800 <i0000001303>:
  108800:	31815883          	lhu	a7,792(sp)

00108804 <i0000001304>:
  108804:	3cc11183          	lh	gp,972(sp)

00108808 <i0000001305>:
  108808:	31f11923          	sh	t6,786(sp)

0010880c <i0000001306>:
  10880c:	00af7733          	and	a4,t5,a0
  108810:	00007117          	auipc	sp,0x7
  108814:	8f010113          	add	sp,sp,-1808 # 10f100 <mem>
  108818:	00040337          	lui	t1,0x40
  10881c:	13830313          	add	t1,t1,312 # 40138 <tohost+0x20130>
  108820:	00610133          	add	sp,sp,t1

00108824 <i0000001307>:
  108824:	93a14203          	lbu	tp,-1734(sp)

00108828 <i0000001308>:
  108828:	07812e23          	sw	s8,124(sp)

0010882c <i0000001309>:
  10882c:	01e55933          	srl	s2,a0,t5

00108830 <i000000130a>:
  108830:	416b5d93          	sra	s11,s6,0x16

00108834 <i000000130b>:
  108834:	289b9237          	lui	tp,0x289b9

00108838 <i000000130c>:
  108838:	61112c23          	sw	a7,1560(sp)

0010883c <i000000130d>:
  10883c:	00a19513          	sll	a0,gp,0xa

00108840 <i000000130e>:
  108840:	ec4102a3          	sb	tp,-315(sp)

00108844 <i000000130f>:
  108844:	b2a12e23          	sw	a0,-1220(sp)

00108848 <i0000001310>:
  108848:	015dfab3          	and	s5,s11,s5

0010884c <i0000001311>:
  10884c:	36011b03          	lh	s6,864(sp)

00108850 <i0000001312>:
  108850:	2b510a83          	lb	s5,693(sp)

00108854 <i0000001313>:
  108854:	01189b33          	sll	s6,a7,a7
  108858:	00b00a13          	li	s4,11
  10885c:	00a00d13          	li	s10,10

00108860 <b0000001314>:
  108860:	00000033          	add	zero,zero,zero
  108864:	03aa5e63          	bge	s4,s10,1088a0 <i0000001320>
  108868:	00000033          	add	zero,zero,zero
  10886c:	00a00d13          	li	s10,10

00108870 <i0000001314>:
  108870:	9a011123          	sh	zero,-1630(sp)

00108874 <i0000001315>:
  108874:	5aa11b23          	sh	a0,1462(sp)

00108878 <i0000001316>:
  108878:	773f2213          	slti	tp,t5,1907

0010887c <i0000001317>:
  10887c:	412ed513          	sra	a0,t4,0x12

00108880 <i0000001318>:
  108880:	69a15003          	lhu	zero,1690(sp)

00108884 <i0000001319>:
  108884:	96a14183          	lbu	gp,-1686(sp)

00108888 <i000000131a>:
  108888:	0129a533          	slt	a0,s3,s2

0010888c <i000000131b>:
  10888c:	5354ce37          	lui	t3,0x5354c

00108890 <i000000131c>:
  108890:	01620db3          	add	s11,tp,s6

00108894 <i000000131d>:
  108894:	42514503          	lbu	a0,1061(sp)

00108898 <i000000131e>:
  108898:	000f0533          	add	a0,t5,zero

0010889c <i000000131f>:
  10889c:	16bec5b7          	lui	a1,0x16bec

001088a0 <i0000001320>:
  1088a0:	464797b7          	lui	a5,0x46479
  1088a4:	00007117          	auipc	sp,0x7
  1088a8:	85c10113          	add	sp,sp,-1956 # 10f100 <mem>
  1088ac:	00022337          	lui	t1,0x22
  1088b0:	d8030313          	add	t1,t1,-640 # 21d80 <tohost+0x1d78>
  1088b4:	00610133          	add	sp,sp,t1

001088b8 <i0000001321>:
  1088b8:	f6a11223          	sh	a0,-156(sp)

001088bc <i0000001322>:
  1088bc:	b9b11d23          	sh	s11,-1126(sp)

001088c0 <i0000001323>:
  1088c0:	73011623          	sh	a6,1836(sp)

001088c4 <i0000001324>:
  1088c4:	40cfd533          	sra	a0,t6,a2

001088c8 <i0000001325>:
  1088c8:	01ce0ab3          	add	s5,t3,t3

001088cc <i0000001326>:
  1088cc:	33f38f13          	add	t5,t2,831
  1088d0:	00900d93          	li	s11,9
  1088d4:	00a00d13          	li	s10,10

001088d8 <b0000001327>:
  1088d8:	00000033          	add	zero,zero,zero
  1088dc:	03bd4e63          	blt	s10,s11,108918 <i0000001333>
  1088e0:	00000033          	add	zero,zero,zero
  1088e4:	00a00d13          	li	s10,10

001088e8 <i0000001327>:
  1088e8:	58410da3          	sb	tp,1435(sp)

001088ec <i0000001328>:
  1088ec:	d6878e13          	add	t3,a5,-664 # 46478d68 <fromhost+0x462f0d58>

001088f0 <i0000001329>:
  1088f0:	0bf10883          	lb	a7,191(sp)

001088f4 <i000000132a>:
  1088f4:	00581413          	sll	s0,a6,0x5

001088f8 <i000000132b>:
  1088f8:	83e9bb13          	sltiu	s6,s3,-1986

001088fc <i000000132c>:
  1088fc:	57367c13          	and	s8,a2,1395

00108900 <i000000132d>:
  108900:	fd3f2493          	slti	s1,t5,-45

00108904 <i000000132e>:
  108904:	40aa5c93          	sra	s9,s4,0xa

00108908 <i000000132f>:
  108908:	01579733          	sll	a4,a5,s5

0010890c <i0000001330>:
  10890c:	6ea11d23          	sh	a0,1786(sp)

00108910 <i0000001331>:
  108910:	00d65f33          	srl	t5,a2,a3

00108914 <i0000001332>:
  108914:	3f790293          	add	t0,s2,1015 # 49dd01df <fromhost+0x49c481cf>

00108918 <i0000001333>:
  108918:	00454433          	xor	s0,a0,tp

0010891c <i0000001334>:
  10891c:	3da15783          	lhu	a5,986(sp)

00108920 <i0000001335>:
  108920:	00df1613          	sll	a2,t5,0xd

00108924 <i0000001336>:
  108924:	0194abb3          	slt	s7,s1,s9

00108928 <i0000001337>:
  108928:	016f7a33          	and	s4,t5,s6

0010892c <i0000001338>:
  10892c:	78012f03          	lw	t5,1920(sp)

00108930 <i0000001339>:
  108930:	58020c93          	add	s9,tp,1408 # 289b9580 <fromhost+0x28831570>
  108934:	00a00813          	li	a6,10

00108938 <b000000133a>:
  108938:	00000033          	add	zero,zero,zero
  10893c:	fd0d10e3          	bne	s10,a6,1088fc <i000000132c>
  108940:	00000033          	add	zero,zero,zero
  108944:	00a00d13          	li	s10,10

00108948 <i000000133a>:
  108948:	414104a3          	sb	s4,1033(sp)

0010894c <i000000133b>:
  10894c:	00c90e33          	add	t3,s2,a2

00108950 <i000000133c>:
  108950:	00f1b533          	sltu	a0,gp,a5

00108954 <i000000133d>:
  108954:	bb214483          	lbu	s1,-1102(sp)

00108958 <i000000133e>:
  108958:	8b712423          	sw	s7,-1880(sp)

0010895c <i000000133f>:
  10895c:	00024233          	xor	tp,tp,zero

00108960 <i0000001340>:
  108960:	42610f03          	lb	t5,1062(sp)

00108964 <i0000001341>:
  108964:	3094ab37          	lui	s6,0x3094a

00108968 <i0000001342>:
  108968:	a5211503          	lh	a0,-1454(sp)

0010896c <i0000001343>:
  10896c:	015f5d93          	srl	s11,t5,0x15

00108970 <i0000001344>:
  108970:	e46cc513          	xor	a0,s9,-442

00108974 <i0000001345>:
  108974:	30d5c197          	auipc	gp,0x30d5c

00108978 <i0000001346>:
  108978:	20012823          	sw	zero,528(sp)

0010897c <i0000001347>:
  10897c:	0ab10f03          	lb	t5,171(sp)

00108980 <i0000001348>:
  108980:	2d410123          	sb	s4,706(sp)

00108984 <i0000001349>:
  108984:	7cf10a03          	lb	s4,1999(sp)

00108988 <i000000134a>:
  108988:	07cf2513          	slti	a0,t5,124

0010898c <i000000134b>:
  10898c:	01501213          	sll	tp,zero,0x15

00108990 <i000000134c>:
  108990:	0a412003          	lw	zero,164(sp)
  108994:	00c00993          	li	s3,12
  108998:	001d0d13          	add	s10,s10,1

0010899c <b000000134d>:
  10899c:	00000033          	add	zero,zero,zero
  1089a0:	fda9d4e3          	bge	s3,s10,108968 <i0000001342>
  1089a4:	00000033          	add	zero,zero,zero
  1089a8:	00a00d13          	li	s10,10

001089ac <i000000134d>:
  1089ac:	2ad4af13          	slti	t5,s1,685

001089b0 <i000000134e>:
  1089b0:	43a11f83          	lh	t6,1082(sp)

001089b4 <i000000134f>:
  1089b4:	03612c23          	sw	s6,56(sp)

001089b8 <i0000001350>:
  1089b8:	0176adb3          	slt	s11,a3,s7

001089bc <i0000001351>:
  1089bc:	fbe11e23          	sh	t5,-68(sp)

001089c0 <i0000001352>:
  1089c0:	ce910203          	lb	tp,-791(sp)

001089c4 <i0000001353>:
  1089c4:	3266f713          	and	a4,a3,806

001089c8 <i0000001354>:
  1089c8:	01de1213          	sll	tp,t3,0x1d

001089cc <i0000001355>:
  1089cc:	0108df33          	srl	t5,a7,a6

001089d0 <i0000001356>:
  1089d0:	4a85e213          	or	tp,a1,1192

001089d4 <i0000001357>:
  1089d4:	004566b3          	or	a3,a0,tp

001089d8 <i0000001358>:
  1089d8:	4078d533          	sra	a0,a7,t2

001089dc <i0000001359>:
  1089dc:	9b98ef93          	or	t6,a7,-1607

001089e0 <i000000135a>:
  1089e0:	012ad033          	srl	zero,s5,s2

001089e4 <i000000135b>:
  1089e4:	01c31813          	sll	a6,t1,0x1c

001089e8 <i000000135c>:
  1089e8:	d0012423          	sw	zero,-760(sp)

001089ec <i000000135d>:
  1089ec:	21e11123          	sh	t5,514(sp)

001089f0 <i000000135e>:
  1089f0:	4b412503          	lw	a0,1204(sp)

001089f4 <i000000135f>:
  1089f4:	6d166a13          	or	s4,a2,1745
  1089f8:	00c00893          	li	a7,12
  1089fc:	001d0d13          	add	s10,s10,1

00108a00 <b0000001360>:
  108a00:	011d0863          	beq	s10,a7,108a10 <b0000001360+0x10>
  108a04:	00000897          	auipc	a7,0x0
  108a08:	fcc88893          	add	a7,a7,-52 # 1089d0 <i0000001356>
  108a0c:	00088567          	jalr	a0,a7
  108a10:	00a00d13          	li	s10,10

00108a14 <i0000001360>:
  108a14:	40d1df33          	sra	t5,gp,a3

00108a18 <i0000001361>:
  108a18:	6fb6f537          	lui	a0,0x6fb6f

00108a1c <i0000001362>:
  108a1c:	00c688b3          	add	a7,a3,a2

00108a20 <i0000001363>:
  108a20:	d3c11383          	lh	t2,-708(sp)

00108a24 <i0000001364>:
  108a24:	3103a513          	slti	a0,t2,784

00108a28 <i0000001365>:
  108a28:	00ecbeb3          	sltu	t4,s9,a4

00108a2c <i0000001366>:
  108a2c:	056451b7          	lui	gp,0x5645

00108a30 <i0000001367>:
  108a30:	00a57033          	and	zero,a0,a0

00108a34 <i0000001368>:
  108a34:	8c710b23          	sb	t2,-1834(sp)

00108a38 <i0000001369>:
  108a38:	24d11923          	sh	a3,594(sp)

00108a3c <i000000136a>:
  108a3c:	8cd22993          	slti	s3,tp,-1843

00108a40 <i000000136b>:
  108a40:	01ec5493          	srl	s1,s8,0x1e

00108a44 <i000000136c>:
  108a44:	c1e11883          	lh	a7,-994(sp)

00108a48 <i000000136d>:
  108a48:	d5e10003          	lb	zero,-674(sp)

00108a4c <i000000136e>:
  108a4c:	b2810003          	lb	zero,-1240(sp)

00108a50 <i000000136f>:
  108a50:	aa411623          	sh	tp,-1364(sp)

00108a54 <i0000001370>:
  108a54:	0125bb33          	sltu	s6,a1,s2
  108a58:	00006117          	auipc	sp,0x6
  108a5c:	6a810113          	add	sp,sp,1704 # 10f100 <mem>
  108a60:	0005c337          	lui	t1,0x5c
  108a64:	a0830313          	add	t1,t1,-1528 # 5ba08 <tohost+0x3ba00>
  108a68:	00610133          	add	sp,sp,t1

00108a6c <i0000001371>:
  108a6c:	57615403          	lhu	s0,1398(sp)

00108a70 <i0000001372>:
  108a70:	7036cd93          	xor	s11,a3,1795
  108a74:	00900b13          	li	s6,9
  108a78:	00a00d13          	li	s10,10

00108a7c <b0000001373>:
  108a7c:	00000033          	add	zero,zero,zero
  108a80:	05ab5063          	bge	s6,s10,108ac0 <i000000137b>
  108a84:	00000033          	add	zero,zero,zero
  108a88:	00a00d13          	li	s10,10
  108a8c:	00006117          	auipc	sp,0x6
  108a90:	67410113          	add	sp,sp,1652 # 10f100 <mem>
  108a94:	0003d337          	lui	t1,0x3d
  108a98:	e2830313          	add	t1,t1,-472 # 3ce28 <tohost+0x1ce20>
  108a9c:	00610133          	add	sp,sp,t1

00108aa0 <i0000001373>:
  108aa0:	40012c23          	sw	zero,1048(sp)

00108aa4 <i0000001374>:
  108aa4:	2ca11323          	sh	a0,710(sp)

00108aa8 <i0000001375>:
  108aa8:	26314503          	lbu	a0,611(sp)

00108aac <i0000001376>:
  108aac:	90f57993          	and	s3,a0,-1777

00108ab0 <i0000001377>:
  108ab0:	a2c14803          	lbu	a6,-1492(sp)

00108ab4 <i0000001378>:
  108ab4:	d7212023          	sw	s2,-672(sp)

00108ab8 <i0000001379>:
  108ab8:	08f10203          	lb	tp,143(sp)

00108abc <i000000137a>:
  108abc:	000b23b3          	sltz	t2,s6

00108ac0 <i000000137b>:
  108ac0:	ab8108a3          	sb	s8,-1359(sp)

00108ac4 <i000000137c>:
  108ac4:	93a11883          	lh	a7,-1734(sp)

00108ac8 <i000000137d>:
  108ac8:	fa411f23          	sh	tp,-66(sp)

00108acc <i000000137e>:
  108acc:	3eb5bb13          	sltiu	s6,a1,1003

00108ad0 <i000000137f>:
  108ad0:	dd811403          	lh	s0,-552(sp)

00108ad4 <i0000001380>:
  108ad4:	79a11703          	lh	a4,1946(sp)

00108ad8 <i0000001381>:
  108ad8:	7f812423          	sw	s8,2024(sp)

00108adc <i0000001382>:
  108adc:	0d812203          	lw	tp,216(sp)

00108ae0 <i0000001383>:
  108ae0:	41190db3          	sub	s11,s2,a7

00108ae4 <i0000001384>:
  108ae4:	11726513          	or	a0,tp,279

00108ae8 <i0000001385>:
  108ae8:	e7a88e93          	add	t4,a7,-390
  108aec:	00a00c13          	li	s8,10

00108af0 <b0000001386>:
  108af0:	018d0863          	beq	s10,s8,108b00 <b0000001386+0x10>
  108af4:	00000c17          	auipc	s8,0x0
  108af8:	fc4c0c13          	add	s8,s8,-60 # 108ab8 <i0000001379>
  108afc:	000c0567          	jalr	a0,s8
  108b00:	00a00d13          	li	s10,10

00108b04 <i0000001386>:
  108b04:	42e12e23          	sw	a4,1084(sp)

00108b08 <i0000001387>:
  108b08:	0fa32313          	slti	t1,t1,250

00108b0c <i0000001388>:
  108b0c:	1d011003          	lh	zero,464(sp)

00108b10 <i0000001389>:
  108b10:	c0e11923          	sh	a4,-1006(sp)

00108b14 <i000000138a>:
  108b14:	0078f033          	and	zero,a7,t2

00108b18 <i000000138b>:
  108b18:	8d110e23          	sb	a7,-1828(sp)

00108b1c <i000000138c>:
  108b1c:	006c9633          	sll	a2,s9,t1

00108b20 <i000000138d>:
  108b20:	0b230397          	auipc	t2,0xb230

00108b24 <i000000138e>:
  108b24:	00525213          	srl	tp,tp,0x5
  108b28:	00006117          	auipc	sp,0x6
  108b2c:	5d810113          	add	sp,sp,1496 # 10f100 <mem>
  108b30:	00053337          	lui	t1,0x53
  108b34:	02830313          	add	t1,t1,40 # 53028 <tohost+0x33020>
  108b38:	00610133          	add	sp,sp,t1

00108b3c <i000000138f>:
  108b3c:	04410823          	sb	tp,80(sp)

00108b40 <i0000001390>:
  108b40:	01be5813          	srl	a6,t3,0x1b

00108b44 <i0000001391>:
  108b44:	99415503          	lhu	a0,-1644(sp)

00108b48 <i0000001392>:
  108b48:	0074f4b3          	and	s1,s1,t2

00108b4c <i0000001393>:
  108b4c:	0e872593          	slti	a1,a4,232

00108b50 <i0000001394>:
  108b50:	8ca100a3          	sb	a0,-1855(sp)

00108b54 <i0000001395>:
  108b54:	01087233          	and	tp,a6,a6

00108b58 <i0000001396>:
  108b58:	418c84b3          	sub	s1,s9,s8

00108b5c <i0000001397>:
  108b5c:	01379f13          	sll	t5,a5,0x13

00108b60 <i0000001398>:
  108b60:	00355913          	srl	s2,a0,0x3
  108b64:	00c00893          	li	a7,12
  108b68:	001d0d13          	add	s10,s10,1

00108b6c <b0000001399>:
  108b6c:	011d0463          	beq	s10,a7,108b74 <b0000001399+0x8>
  108b70:	fd5ff56f          	jal	a0,108b44 <i0000001391>
  108b74:	00a00d13          	li	s10,10

00108b78 <i0000001399>:
  108b78:	5f812f03          	lw	t5,1528(sp)

00108b7c <i000000139a>:
  108b7c:	cf815583          	lhu	a1,-776(sp)
  108b80:	00006117          	auipc	sp,0x6
  108b84:	58010113          	add	sp,sp,1408 # 10f100 <mem>
  108b88:	00019337          	lui	t1,0x19
  108b8c:	e9030313          	add	t1,t1,-368 # 18e90 <_stack_len+0x10e90>
  108b90:	00610133          	add	sp,sp,t1

00108b94 <i000000139b>:
  108b94:	2ea15b03          	lhu	s6,746(sp)

00108b98 <i000000139c>:
  108b98:	489c2f13          	slti	t5,s8,1161

00108b9c <i000000139d>:
  108b9c:	00105893          	srl	a7,zero,0x1

00108ba0 <i000000139e>:
  108ba0:	89e40b13          	add	s6,s0,-1890

00108ba4 <i000000139f>:
  108ba4:	e4e11003          	lh	zero,-434(sp)

00108ba8 <i00000013a0>:
  108ba8:	013ad233          	srl	tp,s5,s3

00108bac <i00000013a1>:
  108bac:	40055f33          	sra	t5,a0,zero

00108bb0 <i00000013a2>:
  108bb0:	f2011c23          	sh	zero,-200(sp)

00108bb4 <i00000013a3>:
  108bb4:	00a26533          	or	a0,tp,a0

00108bb8 <i00000013a4>:
  108bb8:	65c12503          	lw	a0,1628(sp)
  108bbc:	00006117          	auipc	sp,0x6
  108bc0:	54410113          	add	sp,sp,1348 # 10f100 <mem>
  108bc4:	00034337          	lui	t1,0x34
  108bc8:	f0030313          	add	t1,t1,-256 # 33f00 <tohost+0x13ef8>
  108bcc:	00610133          	add	sp,sp,t1

00108bd0 <i00000013a5>:
  108bd0:	1ae12023          	sw	a4,416(sp)

00108bd4 <i00000013a6>:
  108bd4:	20215203          	lhu	tp,514(sp)

00108bd8 <i00000013a7>:
  108bd8:	b6a11003          	lh	zero,-1174(sp)
  108bdc:	00006117          	auipc	sp,0x6
  108be0:	52410113          	add	sp,sp,1316 # 10f100 <mem>
  108be4:	0003d337          	lui	t1,0x3d
  108be8:	d1030313          	add	t1,t1,-752 # 3cd10 <tohost+0x1cd08>
  108bec:	00610133          	add	sp,sp,t1

00108bf0 <i00000013a8>:
  108bf0:	7b014303          	lbu	t1,1968(sp)

00108bf4 <i00000013a9>:
  108bf4:	b4810003          	lb	zero,-1208(sp)

00108bf8 <i00000013aa>:
  108bf8:	e2012a83          	lw	s5,-480(sp)

00108bfc <i00000013ab>:
  108bfc:	faa10d23          	sb	a0,-70(sp)
  108c00:	00a00893          	li	a7,10

00108c04 <b00000013ac>:
  108c04:	00000033          	add	zero,zero,zero
  108c08:	f91d1ce3          	bne	s10,a7,108ba0 <i000000139e>
  108c0c:	00000033          	add	zero,zero,zero
  108c10:	00a00d13          	li	s10,10

00108c14 <i00000013ac>:
  108c14:	98c12c23          	sw	a2,-1640(sp)

00108c18 <i00000013ad>:
  108c18:	00007033          	and	zero,zero,zero

00108c1c <i00000013ae>:
  108c1c:	f6611b03          	lh	s6,-154(sp)

00108c20 <i00000013af>:
  108c20:	01626333          	or	t1,tp,s6

00108c24 <i00000013b0>:
  108c24:	57c11503          	lh	a0,1404(sp)
  108c28:	00006117          	auipc	sp,0x6
  108c2c:	4d810113          	add	sp,sp,1240 # 10f100 <mem>
  108c30:	0002a337          	lui	t1,0x2a
  108c34:	9e830313          	add	t1,t1,-1560 # 299e8 <tohost+0x99e0>
  108c38:	00610133          	add	sp,sp,t1

00108c3c <i00000013b1>:
  108c3c:	6e110503          	lb	a0,1761(sp)

00108c40 <i00000013b2>:
  108c40:	83a15b03          	lhu	s6,-1990(sp)

00108c44 <i00000013b3>:
  108c44:	98c12823          	sw	a2,-1648(sp)

00108c48 <i00000013b4>:
  108c48:	a4411d83          	lh	s11,-1468(sp)

00108c4c <i00000013b5>:
  108c4c:	79c12d83          	lw	s11,1948(sp)

00108c50 <i00000013b6>:
  108c50:	45910503          	lb	a0,1113(sp)

00108c54 <i00000013b7>:
  108c54:	00580fb3          	add	t6,a6,t0

00108c58 <i00000013b8>:
  108c58:	c3e10503          	lb	a0,-962(sp)

00108c5c <i00000013b9>:
  108c5c:	41650f33          	sub	t5,a0,s6

00108c60 <i00000013ba>:
  108c60:	95a11a83          	lh	s5,-1702(sp)

00108c64 <i00000013bb>:
  108c64:	00a521b3          	slt	gp,a0,a0
  108c68:	00006117          	auipc	sp,0x6
  108c6c:	49810113          	add	sp,sp,1176 # 10f100 <mem>
  108c70:	00066337          	lui	t1,0x66
  108c74:	a1030313          	add	t1,t1,-1520 # 65a10 <tohost+0x45a08>
  108c78:	00610133          	add	sp,sp,t1

00108c7c <i00000013bc>:
  108c7c:	66411203          	lh	tp,1636(sp)

00108c80 <i00000013bd>:
  108c80:	416b58b3          	sra	a7,s6,s6

00108c84 <i00000013be>:
  108c84:	4053d013          	sra	zero,t2,0x5
  108c88:	00b00b13          	li	s6,11
  108c8c:	001d0d13          	add	s10,s10,1

00108c90 <b00000013bf>:
  108c90:	00000033          	add	zero,zero,zero
  108c94:	fd6d02e3          	beq	s10,s6,108c58 <i00000013b8>
  108c98:	00000033          	add	zero,zero,zero
  108c9c:	00a00d13          	li	s10,10

00108ca0 <i00000013bf>:
  108ca0:	00a04db3          	xor	s11,zero,a0

00108ca4 <i00000013c0>:
  108ca4:	8ea11723          	sh	a0,-1810(sp)

00108ca8 <i00000013c1>:
  108ca8:	fd811003          	lh	zero,-40(sp)

00108cac <i00000013c2>:
  108cac:	8686b393          	sltiu	t2,a3,-1944

00108cb0 <i00000013c3>:
  108cb0:	00b4ab33          	slt	s6,s1,a1

00108cb4 <i00000013c4>:
  108cb4:	f9c12303          	lw	t1,-100(sp)

00108cb8 <i00000013c5>:
  108cb8:	97c11003          	lh	zero,-1668(sp)

00108cbc <i00000013c6>:
  108cbc:	48e10683          	lb	a3,1166(sp)

00108cc0 <i00000013c7>:
  108cc0:	47011783          	lh	a5,1136(sp)

00108cc4 <i00000013c8>:
  108cc4:	007e2fb3          	slt	t6,t3,t2
  108cc8:	00006117          	auipc	sp,0x6
  108ccc:	43810113          	add	sp,sp,1080 # 10f100 <mem>
  108cd0:	0003c337          	lui	t1,0x3c
  108cd4:	26830313          	add	t1,t1,616 # 3c268 <tohost+0x1c260>
  108cd8:	00610133          	add	sp,sp,t1

00108cdc <i00000013c9>:
  108cdc:	e1e12223          	sw	t5,-508(sp)
  108ce0:	00006117          	auipc	sp,0x6
  108ce4:	42010113          	add	sp,sp,1056 # 10f100 <mem>
  108ce8:	00025337          	lui	t1,0x25
  108cec:	6f030313          	add	t1,t1,1776 # 256f0 <tohost+0x56e8>
  108cf0:	00610133          	add	sp,sp,t1

00108cf4 <i00000013ca>:
  108cf4:	06211f03          	lh	t5,98(sp)

00108cf8 <i00000013cb>:
  108cf8:	4bc11b03          	lh	s6,1212(sp)

00108cfc <i00000013cc>:
  108cfc:	70f03793          	sltiu	a5,zero,1807

00108d00 <i00000013cd>:
  108d00:	30811503          	lh	a0,776(sp)

00108d04 <i00000013ce>:
  108d04:	00663533          	sltu	a0,a2,t1

00108d08 <i00000013cf>:
  108d08:	94011783          	lh	a5,-1728(sp)

00108d0c <i00000013d0>:
  108d0c:	96c10f03          	lb	t5,-1684(sp)

00108d10 <i00000013d1>:
  108d10:	003e5313          	srl	t1,t3,0x3
  108d14:	00c00e13          	li	t3,12
  108d18:	001d0d13          	add	s10,s10,1

00108d1c <b00000013d2>:
  108d1c:	01cd0863          	beq	s10,t3,108d2c <b00000013d2+0x10>
  108d20:	00000e17          	auipc	t3,0x0
  108d24:	f9ce0e13          	add	t3,t3,-100 # 108cbc <i00000013c6>
  108d28:	000e0567          	jalr	a0,t3
  108d2c:	00a00d13          	li	s10,10

00108d30 <i00000013d2>:
  108d30:	414add93          	sra	s11,s5,0x14

00108d34 <i00000013d3>:
  108d34:	d5492313          	slti	t1,s2,-684

00108d38 <i00000013d4>:
  108d38:	01ca8ab3          	add	s5,s5,t3

00108d3c <i00000013d5>:
  108d3c:	380105a3          	sb	zero,907(sp)

00108d40 <i00000013d6>:
  108d40:	8c411c23          	sh	tp,-1832(sp)

00108d44 <i00000013d7>:
  108d44:	000f6533          	or	a0,t5,zero

00108d48 <i00000013d8>:
  108d48:	60a100a3          	sb	a0,1537(sp)

00108d4c <i00000013d9>:
  108d4c:	00721013          	sll	zero,tp,0x7

00108d50 <i00000013da>:
  108d50:	6c97ab13          	slti	s6,a5,1737

00108d54 <i00000013db>:
  108d54:	2c302013          	slti	zero,zero,707

00108d58 <i00000013dc>:
  108d58:	00737e33          	and	t3,t1,t2

00108d5c <i00000013dd>:
  108d5c:	08194237          	lui	tp,0x8194
  108d60:	00006117          	auipc	sp,0x6
  108d64:	3a010113          	add	sp,sp,928 # 10f100 <mem>
  108d68:	00055337          	lui	t1,0x55
  108d6c:	33030313          	add	t1,t1,816 # 55330 <tohost+0x35328>
  108d70:	00610133          	add	sp,sp,t1

00108d74 <i00000013de>:
  108d74:	30714003          	lbu	zero,775(sp)

00108d78 <i00000013df>:
  108d78:	019fd6b3          	srl	a3,t6,s9

00108d7c <i00000013e0>:
  108d7c:	35d10a83          	lb	s5,861(sp)

00108d80 <i00000013e1>:
  108d80:	1bc14603          	lbu	a2,444(sp)

00108d84 <i00000013e2>:
  108d84:	1769a493          	slti	s1,s3,374

00108d88 <i00000013e3>:
  108d88:	40318233          	sub	tp,gp,gp

00108d8c <i00000013e4>:
  108d8c:	e8015b83          	lhu	s7,-384(sp)
  108d90:	00a00d93          	li	s11,10

00108d94 <b00000013e5>:
  108d94:	01bd0863          	beq	s10,s11,108da4 <b00000013e5+0x10>
  108d98:	00000d97          	auipc	s11,0x0
  108d9c:	fc4d8d93          	add	s11,s11,-60 # 108d5c <i00000013dd>
  108da0:	000d8567          	jalr	a0,s11
  108da4:	00a00d13          	li	s10,10

00108da8 <i00000013e5>:
  108da8:	12eb0593          	add	a1,s6,302 # 3094a12e <fromhost+0x307c211e>

00108dac <i00000013e6>:
  108dac:	bce14803          	lbu	a6,-1074(sp)

00108db0 <i00000013e7>:
  108db0:	00a06bb3          	or	s7,zero,a0

00108db4 <i00000013e8>:
  108db4:	00401033          	sll	zero,zero,tp

00108db8 <i00000013e9>:
  108db8:	35b14d83          	lbu	s11,859(sp)

00108dbc <i00000013ea>:
  108dbc:	00d3d533          	srl	a0,t2,a3

00108dc0 <i00000013eb>:
  108dc0:	41c1d613          	sra	a2,gp,0x1c
  108dc4:	00006117          	auipc	sp,0x6
  108dc8:	33c10113          	add	sp,sp,828 # 10f100 <mem>
  108dcc:	00026337          	lui	t1,0x26
  108dd0:	4f030313          	add	t1,t1,1264 # 264f0 <tohost+0x64e8>
  108dd4:	00610133          	add	sp,sp,t1

00108dd8 <i00000013ec>:
  108dd8:	52812503          	lw	a0,1320(sp)
  108ddc:	00006117          	auipc	sp,0x6
  108de0:	32410113          	add	sp,sp,804 # 10f100 <mem>
  108de4:	00068337          	lui	t1,0x68
  108de8:	d1030313          	add	t1,t1,-752 # 67d10 <tohost+0x47d08>
  108dec:	00610133          	add	sp,sp,t1

00108df0 <i00000013ed>:
  108df0:	f5c109a3          	sb	t3,-173(sp)

00108df4 <i00000013ee>:
  108df4:	00e7e733          	or	a4,a5,a4
  108df8:	00006117          	auipc	sp,0x6
  108dfc:	30810113          	add	sp,sp,776 # 10f100 <mem>
  108e00:	00001337          	lui	t1,0x1
  108e04:	7c030313          	add	t1,t1,1984 # 17c0 <_min_stack-0x840>
  108e08:	00610133          	add	sp,sp,t1

00108e0c <i00000013ef>:
  108e0c:	47610aa3          	sb	s6,1141(sp)

00108e10 <i00000013f0>:
  108e10:	6a215f03          	lhu	t5,1698(sp)

00108e14 <i00000013f1>:
  108e14:	ee3c3593          	sltiu	a1,s8,-285

00108e18 <i00000013f2>:
  108e18:	36015503          	lhu	a0,864(sp)

00108e1c <i00000013f3>:
  108e1c:	476b0313          	add	t1,s6,1142
  108e20:	00006117          	auipc	sp,0x6
  108e24:	2e010113          	add	sp,sp,736 # 10f100 <mem>
  108e28:	00037337          	lui	t1,0x37
  108e2c:	6f830313          	add	t1,t1,1784 # 376f8 <tohost+0x176f0>
  108e30:	00610133          	add	sp,sp,t1

00108e34 <i00000013f4>:
  108e34:	9c415203          	lhu	tp,-1596(sp)

00108e38 <i00000013f5>:
  108e38:	e1456293          	or	t0,a0,-492

00108e3c <i00000013f6>:
  108e3c:	71e10123          	sb	t5,1794(sp)

00108e40 <i00000013f7>:
  108e40:	000539b3          	sltu	s3,a0,zero
  108e44:	00b00d93          	li	s11,11
  108e48:	001d0d13          	add	s10,s10,1

00108e4c <b00000013f8>:
  108e4c:	00000033          	add	zero,zero,zero
  108e50:	f9bd04e3          	beq	s10,s11,108dd8 <i00000013ec>
  108e54:	00000033          	add	zero,zero,zero
  108e58:	00a00d13          	li	s10,10

00108e5c <i00000013f8>:
  108e5c:	7ef11523          	sh	a5,2026(sp)

00108e60 <i00000013f9>:
  108e60:	b1c11b83          	lh	s7,-1252(sp)

00108e64 <i00000013fa>:
  108e64:	f74bfb13          	and	s6,s7,-140

00108e68 <i00000013fb>:
  108e68:	4a314283          	lbu	t0,1187(sp)

00108e6c <i00000013fc>:
  108e6c:	004217b3          	sll	a5,tp,tp

00108e70 <i00000013fd>:
  108e70:	28711723          	sh	t2,654(sp)
  108e74:	00006117          	auipc	sp,0x6
  108e78:	28c10113          	add	sp,sp,652 # 10f100 <mem>
  108e7c:	00012337          	lui	t1,0x12
  108e80:	b2030313          	add	t1,t1,-1248 # 11b20 <_stack_len+0x9b20>
  108e84:	00610133          	add	sp,sp,t1

00108e88 <i00000013fe>:
  108e88:	b7012f03          	lw	t5,-1168(sp)

00108e8c <i00000013ff>:
  108e8c:	6ce15703          	lhu	a4,1742(sp)

00108e90 <i0000001400>:
  108e90:	85f11d23          	sh	t6,-1958(sp)
  108e94:	00006117          	auipc	sp,0x6
  108e98:	26c10113          	add	sp,sp,620 # 10f100 <mem>
  108e9c:	0004b337          	lui	t1,0x4b
  108ea0:	20830313          	add	t1,t1,520 # 4b208 <tohost+0x2b200>
  108ea4:	00610133          	add	sp,sp,t1

00108ea8 <i0000001401>:
  108ea8:	94512623          	sw	t0,-1716(sp)

00108eac <i0000001402>:
  108eac:	01e246b3          	xor	a3,tp,t5

00108eb0 <i0000001403>:
  108eb0:	7c911123          	sh	s1,1986(sp)

00108eb4 <i0000001404>:
  108eb4:	25610ea3          	sb	s6,605(sp)

00108eb8 <i0000001405>:
  108eb8:	0087ae33          	slt	t3,a5,s0

00108ebc <i0000001406>:
  108ebc:	00fda033          	slt	zero,s11,a5

00108ec0 <i0000001407>:
  108ec0:	d1314a03          	lbu	s4,-749(sp)

00108ec4 <i0000001408>:
  108ec4:	6fac4b93          	xor	s7,s8,1786
  108ec8:	00006117          	auipc	sp,0x6
  108ecc:	23810113          	add	sp,sp,568 # 10f100 <mem>
  108ed0:	00002337          	lui	t1,0x2
  108ed4:	ed030313          	add	t1,t1,-304 # 1ed0 <_min_stack-0x130>
  108ed8:	00610133          	add	sp,sp,t1

00108edc <i0000001409>:
  108edc:	4fa11203          	lh	tp,1274(sp)

00108ee0 <i000000140a>:
  108ee0:	e8a64513          	xor	a0,a2,-374
  108ee4:	00a00813          	li	a6,10

00108ee8 <b000000140b>:
  108ee8:	00000033          	add	zero,zero,zero
  108eec:	050d0863          	beq	s10,a6,108f3c <i0000001417>
  108ef0:	00000033          	add	zero,zero,zero
  108ef4:	00a00d13          	li	s10,10
  108ef8:	00006117          	auipc	sp,0x6
  108efc:	20810113          	add	sp,sp,520 # 10f100 <mem>
  108f00:	00024337          	lui	t1,0x24
  108f04:	77030313          	add	t1,t1,1904 # 24770 <tohost+0x4768>
  108f08:	00610133          	add	sp,sp,t1

00108f0c <i000000140b>:
  108f0c:	b5112823          	sw	a7,-1200(sp)

00108f10 <i000000140c>:
  108f10:	28ff6b93          	or	s7,t5,655

00108f14 <i000000140d>:
  108f14:	afd50313          	add	t1,a0,-1283 # 6fb6eafd <fromhost+0x6f9e6aed>

00108f18 <i000000140e>:
  108f18:	01a15703          	lhu	a4,26(sp)

00108f1c <i000000140f>:
  108f1c:	0051ae33          	slt	t3,gp,t0

00108f20 <i0000001410>:
  108f20:	0177c733          	xor	a4,a5,s7

00108f24 <i0000001411>:
  108f24:	2e5e7f13          	and	t5,t3,741

00108f28 <i0000001412>:
  108f28:	000f5ab3          	srl	s5,t5,zero

00108f2c <i0000001413>:
  108f2c:	73d07213          	and	tp,zero,1853

00108f30 <i0000001414>:
  108f30:	01441833          	sll	a6,s0,s4

00108f34 <i0000001415>:
  108f34:	b9610c23          	sb	s6,-1128(sp)

00108f38 <i0000001416>:
  108f38:	b8610f23          	sb	t1,-1122(sp)

00108f3c <i0000001417>:
  108f3c:	59c20513          	add	a0,tp,1436 # 819459c <fromhost+0x800c58c>

00108f40 <i0000001418>:
  108f40:	9ca15403          	lhu	s0,-1590(sp)

00108f44 <i0000001419>:
  108f44:	a4710523          	sb	t2,-1462(sp)

00108f48 <i000000141a>:
  108f48:	8fb9e013          	or	zero,s3,-1797

00108f4c <i000000141b>:
  108f4c:	cc810523          	sb	s0,-822(sp)

00108f50 <i000000141c>:
  108f50:	4b8f0197          	auipc	gp,0x4b8f0

00108f54 <i000000141d>:
  108f54:	272105a3          	sb	s2,619(sp)
  108f58:	00c00a13          	li	s4,12
  108f5c:	00a00d13          	li	s10,10

00108f60 <b000000141e>:
  108f60:	00000033          	add	zero,zero,zero
  108f64:	054d4063          	blt	s10,s4,108fa4 <i0000001426>
  108f68:	00000033          	add	zero,zero,zero
  108f6c:	00a00d13          	li	s10,10
  108f70:	00006117          	auipc	sp,0x6
  108f74:	19010113          	add	sp,sp,400 # 10f100 <mem>
  108f78:	00017337          	lui	t1,0x17
  108f7c:	17830313          	add	t1,t1,376 # 17178 <_stack_len+0xf178>
  108f80:	00610133          	add	sp,sp,t1

00108f84 <i000000141e>:
  108f84:	53810a83          	lb	s5,1336(sp)

00108f88 <i000000141f>:
  108f88:	8d912223          	sw	s9,-1852(sp)

00108f8c <i0000001420>:
  108f8c:	40705e93          	sra	t4,zero,0x7

00108f90 <i0000001421>:
  108f90:	b9610ba3          	sb	s6,-1129(sp)

00108f94 <i0000001422>:
  108f94:	85e11183          	lh	gp,-1954(sp)

00108f98 <i0000001423>:
  108f98:	df211b03          	lh	s6,-526(sp)

00108f9c <i0000001424>:
  108f9c:	00b2fdb3          	and	s11,t0,a1

00108fa0 <i0000001425>:
  108fa0:	d8ab4513          	xor	a0,s6,-630

00108fa4 <i0000001426>:
  108fa4:	17711e23          	sh	s7,380(sp)

00108fa8 <i0000001427>:
  108fa8:	1be10d23          	sb	t5,442(sp)
  108fac:	00006117          	auipc	sp,0x6
  108fb0:	15410113          	add	sp,sp,340 # 10f100 <mem>
  108fb4:	0001c337          	lui	t1,0x1c
  108fb8:	e0030313          	add	t1,t1,-512 # 1be00 <_stack_len+0x13e00>
  108fbc:	00610133          	add	sp,sp,t1

00108fc0 <i0000001428>:
  108fc0:	79611f03          	lh	t5,1942(sp)

00108fc4 <i0000001429>:
  108fc4:	6f514203          	lbu	tp,1781(sp)

00108fc8 <i000000142a>:
  108fc8:	a2415c83          	lhu	s9,-1500(sp)

00108fcc <i000000142b>:
  108fcc:	01e51b33          	sll	s6,a0,t5

00108fd0 <i000000142c>:
  108fd0:	e4012023          	sw	zero,-448(sp)
  108fd4:	00006117          	auipc	sp,0x6
  108fd8:	12c10113          	add	sp,sp,300 # 10f100 <mem>
  108fdc:	0003b337          	lui	t1,0x3b
  108fe0:	f9830313          	add	t1,t1,-104 # 3af98 <tohost+0x1af90>
  108fe4:	00610133          	add	sp,sp,t1

00108fe8 <i000000142d>:
  108fe8:	80611503          	lh	a0,-2042(sp)

00108fec <i000000142e>:
  108fec:	97312823          	sw	s3,-1680(sp)

00108ff0 <i000000142f>:
  108ff0:	db214f03          	lbu	t5,-590(sp)
  108ff4:	00006117          	auipc	sp,0x6
  108ff8:	10c10113          	add	sp,sp,268 # 10f100 <mem>
  108ffc:	00011337          	lui	t1,0x11
  109000:	12030313          	add	t1,t1,288 # 11120 <_stack_len+0x9120>
  109004:	00610133          	add	sp,sp,t1

00109008 <i0000001430>:
  109008:	b1612a23          	sw	s6,-1260(sp)
  10900c:	00000e13          	li	t3,0

00109010 <b0000001431>:
  109010:	00000033          	add	zero,zero,zero
  109014:	03cd0463          	beq	s10,t3,10903c <i0000001438>
  109018:	00000033          	add	zero,zero,zero
  10901c:	00a00d13          	li	s10,10

00109020 <i0000001431>:
  109020:	260106a3          	sb	zero,621(sp)

00109024 <i0000001432>:
  109024:	87f14d83          	lbu	s11,-1921(sp)

00109028 <i0000001433>:
  109028:	2e8105a3          	sb	s0,747(sp)

0010902c <i0000001434>:
  10902c:	2f712c23          	sw	s7,760(sp)

00109030 <i0000001435>:
  109030:	39912423          	sw	s9,904(sp)

00109034 <i0000001436>:
  109034:	e4d10123          	sb	a3,-446(sp)

00109038 <i0000001437>:
  109038:	00ca8633          	add	a2,s5,a2

0010903c <i0000001438>:
  10903c:	01e542b3          	xor	t0,a0,t5

00109040 <i0000001439>:
  109040:	5f37ce17          	auipc	t3,0x5f37c
  109044:	00006117          	auipc	sp,0x6
  109048:	0bc10113          	add	sp,sp,188 # 10f100 <mem>
  10904c:	00048337          	lui	t1,0x48
  109050:	77030313          	add	t1,t1,1904 # 48770 <tohost+0x28768>
  109054:	00610133          	add	sp,sp,t1

00109058 <i000000143a>:
  109058:	d8714503          	lbu	a0,-633(sp)

0010905c <i000000143b>:
  10905c:	d6e11f23          	sh	a4,-642(sp)
  109060:	00006117          	auipc	sp,0x6
  109064:	0a010113          	add	sp,sp,160 # 10f100 <mem>
  109068:	00064337          	lui	t1,0x64
  10906c:	39030313          	add	t1,t1,912 # 64390 <tohost+0x44388>
  109070:	00610133          	add	sp,sp,t1

00109074 <i000000143c>:
  109074:	21612823          	sw	s6,528(sp)

00109078 <i000000143d>:
  109078:	5c414b03          	lbu	s6,1476(sp)

0010907c <i000000143e>:
  10907c:	67e7e813          	or	a6,a5,1662
  109080:	00006117          	auipc	sp,0x6
  109084:	08010113          	add	sp,sp,128 # 10f100 <mem>
  109088:	00046337          	lui	t1,0x46
  10908c:	4c830313          	add	t1,t1,1224 # 464c8 <tohost+0x264c0>
  109090:	00610133          	add	sp,sp,t1

00109094 <i000000143f>:
  109094:	7d615b83          	lhu	s7,2006(sp)

00109098 <i0000001440>:
  109098:	003caf33          	slt	t5,s9,gp

0010909c <i0000001441>:
  10909c:	220dc617          	auipc	a2,0x220dc

001090a0 <i0000001442>:
  1090a0:	d9011503          	lh	a0,-624(sp)

001090a4 <i0000001443>:
  1090a4:	01170e33          	add	t3,a4,a7
  1090a8:	00b00a13          	li	s4,11
  1090ac:	00a00d13          	li	s10,10

001090b0 <b0000001444>:
  1090b0:	00000033          	add	zero,zero,zero
  1090b4:	034d1063          	bne	s10,s4,1090d4 <i0000001449>
  1090b8:	00000033          	add	zero,zero,zero
  1090bc:	00a00d13          	li	s10,10

001090c0 <i0000001444>:
  1090c0:	731ab893          	sltiu	a7,s5,1841

001090c4 <i0000001445>:
  1090c4:	fa4109a3          	sb	tp,-77(sp)

001090c8 <i0000001446>:
  1090c8:	00579b33          	sll	s6,a5,t0

001090cc <i0000001447>:
  1090cc:	70514503          	lbu	a0,1797(sp)

001090d0 <i0000001448>:
  1090d0:	efe12223          	sw	t5,-284(sp)

001090d4 <i0000001449>:
  1090d4:	404556b3          	sra	a3,a0,tp

001090d8 <i000000144a>:
  1090d8:	431b4f13          	xor	t5,s6,1073

001090dc <i000000144b>:
  1090dc:	004f0f33          	add	t5,t5,tp

001090e0 <i000000144c>:
  1090e0:	bca11323          	sh	a0,-1082(sp)

001090e4 <i000000144d>:
  1090e4:	004b5233          	srl	tp,s6,tp

001090e8 <i000000144e>:
  1090e8:	1847ab17          	auipc	s6,0x1847a

001090ec <i000000144f>:
  1090ec:	f0d11423          	sh	a3,-248(sp)

001090f0 <i0000001450>:
  1090f0:	cdc10123          	sb	t3,-830(sp)

001090f4 <i0000001451>:
  1090f4:	bd914483          	lbu	s1,-1063(sp)

001090f8 <i0000001452>:
  1090f8:	01e02333          	sgtz	t1,t5

001090fc <i0000001453>:
  1090fc:	013a9f93          	sll	t6,s5,0x13

00109100 <i0000001454>:
  109100:	00ab4eb3          	xor	t4,s6,a0

00109104 <i0000001455>:
  109104:	76050e13          	add	t3,a0,1888

00109108 <i0000001456>:
  109108:	00054f33          	xor	t5,a0,zero
  10910c:	00b00993          	li	s3,11
  109110:	001d0d13          	add	s10,s10,1

00109114 <b0000001457>:
  109114:	00000033          	add	zero,zero,zero
  109118:	fd3d0ae3          	beq	s10,s3,1090ec <i000000144f>
  10911c:	00000033          	add	zero,zero,zero
  109120:	00a00d13          	li	s10,10

00109124 <i0000001457>:
  109124:	0ac47213          	and	tp,s0,172
  109128:	00006117          	auipc	sp,0x6
  10912c:	fd810113          	add	sp,sp,-40 # 10f100 <mem>
  109130:	0003f337          	lui	t1,0x3f
  109134:	9e830313          	add	t1,t1,-1560 # 3e9e8 <tohost+0x1e9e0>
  109138:	00610133          	add	sp,sp,t1

0010913c <i0000001458>:
  10913c:	8f910203          	lb	tp,-1799(sp)

00109140 <i0000001459>:
  109140:	417bd233          	sra	tp,s7,s7

00109144 <i000000145a>:
  109144:	83f28213          	add	tp,t0,-1985

00109148 <i000000145b>:
  109148:	40ab0933          	sub	s2,s6,a0

0010914c <i000000145c>:
  10914c:	9b214603          	lbu	a2,-1614(sp)

00109150 <i000000145d>:
  109150:	f2b5bb13          	sltiu	s6,a1,-213

00109154 <i000000145e>:
  109154:	2d215c83          	lhu	s9,722(sp)

00109158 <i000000145f>:
  109158:	d0a10fa3          	sb	a0,-737(sp)

0010915c <i0000001460>:
  10915c:	01eb7b33          	and	s6,s6,t5

00109160 <i0000001461>:
  109160:	d0a12c23          	sw	a0,-744(sp)

00109164 <i0000001462>:
  109164:	cb711223          	sh	s7,-860(sp)

00109168 <i0000001463>:
  109168:	00a24ab3          	xor	s5,tp,a0

0010916c <i0000001464>:
  10916c:	0147cfb3          	xor	t6,a5,s4

00109170 <i0000001465>:
  109170:	44a15a03          	lhu	s4,1098(sp)

00109174 <i0000001466>:
  109174:	a6411203          	lh	tp,-1436(sp)
  109178:	00006117          	auipc	sp,0x6
  10917c:	f8810113          	add	sp,sp,-120 # 10f100 <mem>
  109180:	00062337          	lui	t1,0x62
  109184:	0f030313          	add	t1,t1,240 # 620f0 <tohost+0x420e8>
  109188:	00610133          	add	sp,sp,t1

0010918c <i0000001467>:
  10918c:	68a11323          	sh	a0,1670(sp)

00109190 <i0000001468>:
  109190:	c077b213          	sltiu	tp,a5,-1017

00109194 <i0000001469>:
  109194:	416f0633          	sub	a2,t5,s6

00109198 <b000000146a>:
  109198:	00000a97          	auipc	s5,0x0
  10919c:	058a8a93          	add	s5,s5,88 # 1091f0 <i0000001473>
  1091a0:	000a8567          	jalr	a0,s5

001091a4 <i000000146a>:
  1091a4:	e7012f03          	lw	t5,-400(sp)

001091a8 <i000000146b>:
  1091a8:	82d56993          	or	s3,a0,-2003

001091ac <i000000146c>:
  1091ac:	28312223          	sw	gp,644(sp)
  1091b0:	00006117          	auipc	sp,0x6
  1091b4:	f5010113          	add	sp,sp,-176 # 10f100 <mem>
  1091b8:	0006a337          	lui	t1,0x6a
  1091bc:	b7830313          	add	t1,t1,-1160 # 69b78 <tohost+0x49b70>
  1091c0:	00610133          	add	sp,sp,t1

001091c4 <i000000146d>:
  1091c4:	46415e83          	lhu	t4,1124(sp)

001091c8 <i000000146e>:
  1091c8:	095b5f37          	lui	t5,0x95b5

001091cc <i000000146f>:
  1091cc:	99012303          	lw	t1,-1648(sp)

001091d0 <i0000001470>:
  1091d0:	d8c12e83          	lw	t4,-628(sp)

001091d4 <i0000001471>:
  1091d4:	771e2913          	slti	s2,t3,1905

001091d8 <i0000001472>:
  1091d8:	ade12223          	sw	t5,-1340(sp)
  1091dc:	00006117          	auipc	sp,0x6
  1091e0:	f2410113          	add	sp,sp,-220 # 10f100 <mem>
  1091e4:	0004b337          	lui	t1,0x4b
  1091e8:	49030313          	add	t1,t1,1168 # 4b490 <tohost+0x2b488>
  1091ec:	00610133          	add	sp,sp,t1

001091f0 <i0000001473>:
  1091f0:	cf610623          	sb	s6,-788(sp)

001091f4 <i0000001474>:
  1091f4:	25a11f03          	lh	t5,602(sp)

001091f8 <i0000001475>:
  1091f8:	77711e23          	sh	s7,1916(sp)

001091fc <i0000001476>:
  1091fc:	40195013          	sra	zero,s2,0x1

00109200 <i0000001477>:
  109200:	31110d23          	sb	a7,794(sp)

00109204 <i0000001478>:
  109204:	00027bb3          	and	s7,tp,zero

00109208 <i0000001479>:
  109208:	005e1f33          	sll	t5,t3,t0

0010920c <i000000147a>:
  10920c:	a5412203          	lw	tp,-1452(sp)

00109210 <i000000147b>:
  109210:	013be9b3          	or	s3,s7,s3

00109214 <i000000147c>:
  109214:	5ec10603          	lb	a2,1516(sp)
  109218:	00000a93          	li	s5,0

0010921c <b000000147d>:
  10921c:	00000033          	add	zero,zero,zero
  109220:	fb5d08e3          	beq	s10,s5,1091d0 <i0000001470>
  109224:	00000033          	add	zero,zero,zero
  109228:	00a00d13          	li	s10,10

0010922c <i000000147d>:
  10922c:	0123bb33          	sltu	s6,t2,s2

00109230 <i000000147e>:
  109230:	82910fa3          	sb	s1,-1985(sp)

00109234 <i000000147f>:
  109234:	aae10583          	lb	a1,-1362(sp)

00109238 <i0000001480>:
  109238:	01201313          	sll	t1,zero,0x12

0010923c <i0000001481>:
  10923c:	012cfbb3          	and	s7,s9,s2
  109240:	00006117          	auipc	sp,0x6
  109244:	ec010113          	add	sp,sp,-320 # 10f100 <mem>
  109248:	0006f337          	lui	t1,0x6f
  10924c:	f1030313          	add	t1,t1,-240 # 6ef10 <tohost+0x4ef08>
  109250:	00610133          	add	sp,sp,t1

00109254 <i0000001482>:
  109254:	2d911223          	sh	s9,708(sp)

00109258 <i0000001483>:
  109258:	4059d213          	sra	tp,s3,0x5

0010925c <i0000001484>:
  10925c:	caa11d83          	lh	s11,-854(sp)

00109260 <i0000001485>:
  109260:	44422393          	slti	t2,tp,1092

00109264 <i0000001486>:
  109264:	00e297b3          	sll	a5,t0,a4

00109268 <i0000001487>:
  109268:	008e1213          	sll	tp,t3,0x8

0010926c <i0000001488>:
  10926c:	ddc12183          	lw	gp,-548(sp)

00109270 <i0000001489>:
  109270:	018969b3          	or	s3,s2,s8

00109274 <i000000148a>:
  109274:	40055213          	sra	tp,a0,0x0

00109278 <i000000148b>:
  109278:	b8a10723          	sb	a0,-1138(sp)

0010927c <i000000148c>:
  10927c:	afe11023          	sh	t5,-1312(sp)

00109280 <i000000148d>:
  109280:	999b6293          	or	t0,s6,-1639

00109284 <i000000148e>:
  109284:	0be11c83          	lh	s9,190(sp)

00109288 <i000000148f>:
  109288:	70c12203          	lw	tp,1804(sp)
  10928c:	00900b93          	li	s7,9
  109290:	00a00d13          	li	s10,10

00109294 <b0000001490>:
  109294:	00000033          	add	zero,zero,zero
  109298:	037d4c63          	blt	s10,s7,1092d0 <i0000001496>
  10929c:	00000033          	add	zero,zero,zero
  1092a0:	00a00d13          	li	s10,10

001092a4 <i0000001490>:
  1092a4:	4178d013          	sra	zero,a7,0x17

001092a8 <i0000001491>:
  1092a8:	0055f633          	and	a2,a1,t0
  1092ac:	00006117          	auipc	sp,0x6
  1092b0:	e5410113          	add	sp,sp,-428 # 10f100 <mem>
  1092b4:	0004b337          	lui	t1,0x4b
  1092b8:	dc830313          	add	t1,t1,-568 # 4adc8 <tohost+0x2adc0>
  1092bc:	00610133          	add	sp,sp,t1

001092c0 <i0000001492>:
  1092c0:	7fe10523          	sb	t5,2026(sp)

001092c4 <i0000001493>:
  1092c4:	01965cb3          	srl	s9,a2,s9

001092c8 <i0000001494>:
  1092c8:	00453233          	sltu	tp,a0,tp

001092cc <i0000001495>:
  1092cc:	00a26b33          	or	s6,tp,a0

001092d0 <i0000001496>:
  1092d0:	e0d14b83          	lbu	s7,-499(sp)

001092d4 <i0000001497>:
  1092d4:	01064933          	xor	s2,a2,a6

001092d8 <i0000001498>:
  1092d8:	c0fb0a13          	add	s4,s6,-1009 # 18582cf7 <fromhost+0x183face7>

001092dc <i0000001499>:
  1092dc:	21ad3c37          	lui	s8,0x21ad3

001092e0 <i000000149a>:
  1092e0:	008389b3          	add	s3,t2,s0

001092e4 <i000000149b>:
  1092e4:	6a62a517          	auipc	a0,0x6a62a

001092e8 <i000000149c>:
  1092e8:	0fe12e23          	sw	t5,252(sp)

001092ec <i000000149d>:
  1092ec:	4af14b03          	lbu	s6,1199(sp)

001092f0 <i000000149e>:
  1092f0:	2ac11983          	lh	s3,684(sp)

001092f4 <i000000149f>:
  1092f4:	10215503          	lhu	a0,258(sp)

001092f8 <i00000014a0>:
  1092f8:	08cac013          	xor	zero,s5,140
  1092fc:	00006117          	auipc	sp,0x6
  109300:	e0410113          	add	sp,sp,-508 # 10f100 <mem>
  109304:	00022337          	lui	t1,0x22
  109308:	03830313          	add	t1,t1,56 # 22038 <tohost+0x2030>
  10930c:	00610133          	add	sp,sp,t1

00109310 <i00000014a1>:
  109310:	83311e23          	sh	s3,-1988(sp)

00109314 <i00000014a2>:
  109314:	84a10fa3          	sb	a0,-1953(sp)
  109318:	00c00c93          	li	s9,12
  10931c:	001d0d13          	add	s10,s10,1

00109320 <b00000014a3>:
  109320:	00000033          	add	zero,zero,zero
  109324:	fb9d44e3          	blt	s10,s9,1092cc <i0000001495>
  109328:	00000033          	add	zero,zero,zero
  10932c:	00a00d13          	li	s10,10

00109330 <i00000014a3>:
  109330:	47b10583          	lb	a1,1147(sp)

00109334 <i00000014a4>:
  109334:	02012023          	sw	zero,32(sp)

00109338 <i00000014a5>:
  109338:	298ac513          	xor	a0,s5,664

0010933c <i00000014a6>:
  10933c:	f5811423          	sh	s8,-184(sp)

00109340 <i00000014a7>:
  109340:	d1c10d23          	sb	t3,-742(sp)

00109344 <i00000014a8>:
  109344:	37214183          	lbu	gp,882(sp)

00109348 <i00000014a9>:
  109348:	0093d4b3          	srl	s1,t2,s1

0010934c <i00000014aa>:
  10934c:	009dab33          	slt	s6,s11,s1

00109350 <i00000014ab>:
  109350:	00a00f33          	add	t5,zero,a0

00109354 <i00000014ac>:
  109354:	c6910203          	lb	tp,-919(sp)
  109358:	00006117          	auipc	sp,0x6
  10935c:	da810113          	add	sp,sp,-600 # 10f100 <mem>
  109360:	0001f337          	lui	t1,0x1f
  109364:	38030313          	add	t1,t1,896 # 1f380 <_stack_len+0x17380>
  109368:	00610133          	add	sp,sp,t1

0010936c <i00000014ad>:
  10936c:	4be11723          	sh	t5,1198(sp)

00109370 <i00000014ae>:
  109370:	39d38537          	lui	a0,0x39d38

00109374 <i00000014af>:
  109374:	a8410b03          	lb	s6,-1404(sp)

00109378 <i00000014b0>:
  109378:	0d412503          	lw	a0,212(sp)

0010937c <i00000014b1>:
  10937c:	46412a03          	lw	s4,1124(sp)

00109380 <i00000014b2>:
  109380:	415f5013          	sra	zero,t5,0x15

00109384 <i00000014b3>:
  109384:	01e019b3          	sll	s3,zero,t5

00109388 <i00000014b4>:
  109388:	003cd833          	srl	a6,s9,gp
  10938c:	00006117          	auipc	sp,0x6
  109390:	d7410113          	add	sp,sp,-652 # 10f100 <mem>
  109394:	0004c337          	lui	t1,0x4c
  109398:	a1030313          	add	t1,t1,-1520 # 4ba10 <tohost+0x2ba08>
  10939c:	00610133          	add	sp,sp,t1

001093a0 <i00000014b5>:
  1093a0:	43d12623          	sw	t4,1068(sp)
  1093a4:	00c00893          	li	a7,12
  1093a8:	00a00d13          	li	s10,10

001093ac <b00000014b6>:
  1093ac:	00000033          	add	zero,zero,zero
  1093b0:	051d4e63          	blt	s10,a7,10940c <i00000014c0>
  1093b4:	00000033          	add	zero,zero,zero
  1093b8:	00a00d13          	li	s10,10

001093bc <i00000014b6>:
  1093bc:	01485433          	srl	s0,a6,s4
  1093c0:	00006117          	auipc	sp,0x6
  1093c4:	d4010113          	add	sp,sp,-704 # 10f100 <mem>
  1093c8:	0005e337          	lui	t1,0x5e
  1093cc:	58030313          	add	t1,t1,1408 # 5e580 <tohost+0x3e578>
  1093d0:	00610133          	add	sp,sp,t1

001093d4 <i00000014b7>:
  1093d4:	7ed12e23          	sw	a3,2044(sp)

001093d8 <i00000014b8>:
  1093d8:	2d011a83          	lh	s5,720(sp)

001093dc <i00000014b9>:
  1093dc:	01d25513          	srl	a0,tp,0x1d

001093e0 <i00000014ba>:
  1093e0:	00df9f33          	sll	t5,t6,a3

001093e4 <i00000014bb>:
  1093e4:	002b5e93          	srl	t4,s6,0x2
  1093e8:	00006117          	auipc	sp,0x6
  1093ec:	d1810113          	add	sp,sp,-744 # 10f100 <mem>
  1093f0:	00064337          	lui	t1,0x64
  1093f4:	59030313          	add	t1,t1,1424 # 64590 <tohost+0x44588>
  1093f8:	00610133          	add	sp,sp,t1

001093fc <i00000014bc>:
  1093fc:	a1812503          	lw	a0,-1512(sp)

00109400 <i00000014bd>:
  109400:	406fd013          	sra	zero,t6,0x6

00109404 <i00000014be>:
  109404:	1a0f7f13          	and	t5,t5,416

00109408 <i00000014bf>:
  109408:	72012983          	lw	s3,1824(sp)

0010940c <i00000014c0>:
  10940c:	7fe11783          	lh	a5,2046(sp)

00109410 <i00000014c1>:
  109410:	6c70e1b7          	lui	gp,0x6c70e

00109414 <i00000014c2>:
  109414:	00e25f13          	srl	t5,tp,0xe
  109418:	00006117          	auipc	sp,0x6
  10941c:	ce810113          	add	sp,sp,-792 # 10f100 <mem>
  109420:	00021337          	lui	t1,0x21
  109424:	d9030313          	add	t1,t1,-624 # 20d90 <tohost+0xd88>
  109428:	00610133          	add	sp,sp,t1

0010942c <i00000014c3>:
  10942c:	bbe11823          	sh	t5,-1104(sp)

00109430 <i00000014c4>:
  109430:	87d10f03          	lb	t5,-1923(sp)

00109434 <i00000014c5>:
  109434:	83f11223          	sh	t6,-2012(sp)

00109438 <i00000014c6>:
  109438:	26811b03          	lh	s6,616(sp)

0010943c <i00000014c7>:
  10943c:	74215983          	lhu	s3,1858(sp)

00109440 <i00000014c8>:
  109440:	01652933          	slt	s2,a0,s6
  109444:	00900893          	li	a7,9

00109448 <b00000014c9>:
  109448:	00000033          	add	zero,zero,zero
  10944c:	fb1d48e3          	blt	s10,a7,1093fc <i00000014bc>
  109450:	00000033          	add	zero,zero,zero
  109454:	00a00d13          	li	s10,10

00109458 <i00000014c9>:
  109458:	0179b533          	sltu	a0,s3,s7

0010945c <i00000014ca>:
  10945c:	c6644793          	xor	a5,s0,-922

00109460 <i00000014cb>:
  109460:	6049ef13          	or	t5,s3,1540

00109464 <i00000014cc>:
  109464:	411f5613          	sra	a2,t5,0x11

00109468 <i00000014cd>:
  109468:	00b4f933          	and	s2,s1,a1

0010946c <i00000014ce>:
  10946c:	7b812823          	sw	s8,1968(sp)

00109470 <i00000014cf>:
  109470:	c7412203          	lw	tp,-908(sp)

00109474 <i00000014d0>:
  109474:	7c011a83          	lh	s5,1984(sp)

00109478 <i00000014d1>:
  109478:	25bcb693          	sltiu	a3,s9,603

0010947c <i00000014d2>:
  10947c:	00421b33          	sll	s6,tp,tp

00109480 <i00000014d3>:
  109480:	00021533          	sll	a0,tp,zero

00109484 <i00000014d4>:
  109484:	97c15b03          	lhu	s6,-1668(sp)

00109488 <i00000014d5>:
  109488:	21911f23          	sh	s9,542(sp)

0010948c <i00000014d6>:
  10948c:	29a14503          	lbu	a0,666(sp)

00109490 <i00000014d7>:
  109490:	31815203          	lhu	tp,792(sp)

00109494 <i00000014d8>:
  109494:	e7814003          	lbu	zero,-392(sp)

00109498 <i00000014d9>:
  109498:	45098913          	add	s2,s3,1104

0010949c <i00000014da>:
  10949c:	403edb33          	sra	s6,t4,gp

001094a0 <i00000014db>:
  1094a0:	e3f11e23          	sh	t6,-452(sp)
  1094a4:	00a00a93          	li	s5,10

001094a8 <b00000014dc>:
  1094a8:	015d0863          	beq	s10,s5,1094b8 <b00000014dc+0x10>
  1094ac:	00000a97          	auipc	s5,0x0
  1094b0:	fe4a8a93          	add	s5,s5,-28 # 109490 <i00000014d7>
  1094b4:	000a8567          	jalr	a0,s5
  1094b8:	00a00d13          	li	s10,10

001094bc <i00000014dc>:
  1094bc:	2457a693          	slti	a3,a5,581

001094c0 <i00000014dd>:
  1094c0:	44c53293          	sltiu	t0,a0,1100

001094c4 <i00000014de>:
  1094c4:	00ccf333          	and	t1,s9,a2

001094c8 <i00000014df>:
  1094c8:	6070a537          	lui	a0,0x6070a

001094cc <i00000014e0>:
  1094cc:	45b23217          	auipc	tp,0x45b23

001094d0 <i00000014e1>:
  1094d0:	48a11f23          	sh	a0,1182(sp)
  1094d4:	00006117          	auipc	sp,0x6
  1094d8:	c2c10113          	add	sp,sp,-980 # 10f100 <mem>
  1094dc:	00033337          	lui	t1,0x33
  1094e0:	45030313          	add	t1,t1,1104 # 33450 <tohost+0x13448>
  1094e4:	00610133          	add	sp,sp,t1

001094e8 <i00000014e2>:
  1094e8:	42014f03          	lbu	t5,1056(sp)

001094ec <i00000014e3>:
  1094ec:	45790b13          	add	s6,s2,1111

001094f0 <i00000014e4>:
  1094f0:	a1e101a3          	sb	t5,-1533(sp)

001094f4 <i00000014e5>:
  1094f4:	530dbb13          	sltiu	s6,s11,1328
  1094f8:	00006117          	auipc	sp,0x6
  1094fc:	c0810113          	add	sp,sp,-1016 # 10f100 <mem>
  109500:	0006d337          	lui	t1,0x6d
  109504:	d1830313          	add	t1,t1,-744 # 6cd18 <tohost+0x4cd10>
  109508:	00610133          	add	sp,sp,t1

0010950c <i00000014e6>:
  10950c:	f6e10703          	lb	a4,-146(sp)

00109510 <i00000014e7>:
  109510:	b5c15503          	lhu	a0,-1188(sp)

00109514 <i00000014e8>:
  109514:	4ed11023          	sh	a3,1248(sp)

00109518 <i00000014e9>:
  109518:	00039493          	sll	s1,t2,0x0

0010951c <i00000014ea>:
  10951c:	415606b3          	sub	a3,a2,s5

00109520 <i00000014eb>:
  109520:	04c545b7          	lui	a1,0x4c54

00109524 <i00000014ec>:
  109524:	b2412503          	lw	a0,-1244(sp)

00109528 <i00000014ed>:
  109528:	4b510e23          	sb	s5,1212(sp)
  10952c:	00006117          	auipc	sp,0x6
  109530:	bd410113          	add	sp,sp,-1068 # 10f100 <mem>
  109534:	00030337          	lui	t1,0x30
  109538:	b8030313          	add	t1,t1,-1152 # 2fb80 <tohost+0xfb78>
  10953c:	00610133          	add	sp,sp,t1

00109540 <i00000014ee>:
  109540:	6a411203          	lh	tp,1700(sp)
  109544:	00900e93          	li	t4,9
  109548:	00a00d13          	li	s10,10

0010954c <b00000014ef>:
  10954c:	00000033          	add	zero,zero,zero
  109550:	03aed463          	bge	t4,s10,109578 <i00000014f6>
  109554:	00000033          	add	zero,zero,zero
  109558:	00a00d13          	li	s10,10

0010955c <i00000014ef>:
  10955c:	b2c12503          	lw	a0,-1236(sp)

00109560 <i00000014f0>:
  109560:	42912623          	sw	s1,1068(sp)

00109564 <i00000014f1>:
  109564:	7e614003          	lbu	zero,2022(sp)

00109568 <i00000014f2>:
  109568:	413e5fb3          	sra	t6,t3,s3

0010956c <i00000014f3>:
  10956c:	00a23533          	sltu	a0,tp,a0

00109570 <i00000014f4>:
  109570:	fda14003          	lbu	zero,-38(sp)

00109574 <i00000014f5>:
  109574:	76412503          	lw	a0,1892(sp)

00109578 <i00000014f6>:
  109578:	b2006213          	or	tp,zero,-1248

0010957c <i00000014f7>:
  10957c:	01481b33          	sll	s6,a6,s4

00109580 <i00000014f8>:
  109580:	28714003          	lbu	zero,647(sp)

00109584 <i00000014f9>:
  109584:	00406033          	or	zero,zero,tp

00109588 <i00000014fa>:
  109588:	68812203          	lw	tp,1672(sp)

0010958c <i00000014fb>:
  10958c:	3be11123          	sh	t5,930(sp)

00109590 <i00000014fc>:
  109590:	8ddf4b13          	xor	s6,t5,-1827

00109594 <i00000014fd>:
  109594:	d9210203          	lb	tp,-622(sp)

00109598 <i00000014fe>:
  109598:	e8011c83          	lh	s9,-384(sp)

0010959c <i00000014ff>:
  10959c:	41a8df13          	sra	t5,a7,0x1a

001095a0 <i0000001500>:
  1095a0:	4d110e03          	lb	t3,1233(sp)

001095a4 <i0000001501>:
  1095a4:	de411423          	sh	tp,-536(sp)
  1095a8:	00900a13          	li	s4,9

001095ac <b0000001502>:
  1095ac:	00000033          	add	zero,zero,zero
  1095b0:	fd4d4ce3          	blt	s10,s4,109588 <i00000014fa>
  1095b4:	00000033          	add	zero,zero,zero
  1095b8:	00a00d13          	li	s10,10

001095bc <i0000001502>:
  1095bc:	e5c12503          	lw	a0,-420(sp)
  1095c0:	00006117          	auipc	sp,0x6
  1095c4:	b4010113          	add	sp,sp,-1216 # 10f100 <mem>
  1095c8:	00041337          	lui	t1,0x41
  1095cc:	61030313          	add	t1,t1,1552 # 41610 <tohost+0x21608>
  1095d0:	00610133          	add	sp,sp,t1

001095d4 <i0000001503>:
  1095d4:	80410523          	sb	tp,-2038(sp)

001095d8 <i0000001504>:
  1095d8:	6e0a87b7          	lui	a5,0x6e0a8

001095dc <i0000001505>:
  1095dc:	b0e11123          	sh	a4,-1278(sp)

001095e0 <i0000001506>:
  1095e0:	78014283          	lbu	t0,1920(sp)

001095e4 <i0000001507>:
  1095e4:	01eb01b3          	add	gp,s6,t5

001095e8 <i0000001508>:
  1095e8:	16c12803          	lw	a6,364(sp)

001095ec <i0000001509>:
  1095ec:	0b612423          	sw	s6,168(sp)

001095f0 <i000000150a>:
  1095f0:	2ca103a3          	sb	a0,711(sp)

001095f4 <i000000150b>:
  1095f4:	006ac9b3          	xor	s3,s5,t1

001095f8 <i000000150c>:
  1095f8:	00cbfab3          	and	s5,s7,a2

001095fc <i000000150d>:
  1095fc:	3ec11b83          	lh	s7,1004(sp)

00109600 <i000000150e>:
  109600:	6cc15183          	lhu	gp,1740(sp)

00109604 <i000000150f>:
  109604:	e1d10c03          	lb	s8,-483(sp)

00109608 <i0000001510>:
  109608:	14714183          	lbu	gp,327(sp)

0010960c <i0000001511>:
  10960c:	21c50b13          	add	s6,a0,540 # 6070a21c <fromhost+0x6058220c>

00109610 <i0000001512>:
  109610:	0c912c23          	sw	s1,216(sp)
  109614:	00006117          	auipc	sp,0x6
  109618:	aec10113          	add	sp,sp,-1300 # 10f100 <mem>
  10961c:	0000e337          	lui	t1,0xe
  109620:	87830313          	add	t1,t1,-1928 # d878 <_stack_len+0x5878>
  109624:	00610133          	add	sp,sp,t1

00109628 <i0000001513>:
  109628:	05610503          	lb	a0,86(sp)

0010962c <i0000001514>:
  10962c:	e5811b23          	sh	s8,-426(sp)
  109630:	00a00c13          	li	s8,10

00109634 <b0000001515>:
  109634:	00000033          	add	zero,zero,zero
  109638:	058d0463          	beq	s10,s8,109680 <i000000151a>
  10963c:	00000033          	add	zero,zero,zero
  109640:	00a00d13          	li	s10,10

00109644 <i0000001515>:
  109644:	005c9833          	sll	a6,s9,t0

00109648 <i0000001516>:
  109648:	13e11f23          	sh	t5,318(sp)

0010964c <i0000001517>:
  10964c:	8c672d93          	slti	s11,a4,-1850

00109650 <i0000001518>:
  109650:	a64ae513          	or	a0,s5,-1436
  109654:	00006117          	auipc	sp,0x6
  109658:	aac10113          	add	sp,sp,-1364 # 10f100 <mem>
  10965c:	0001e337          	lui	t1,0x1e
  109660:	ad030313          	add	t1,t1,-1328 # 1dad0 <_stack_len+0x15ad0>
  109664:	00610133          	add	sp,sp,t1

00109668 <i0000001519>:
  109668:	7ce11203          	lh	tp,1998(sp)
  10966c:	00006117          	auipc	sp,0x6
  109670:	a9410113          	add	sp,sp,-1388 # 10f100 <mem>
  109674:	00031337          	lui	t1,0x31
  109678:	91030313          	add	t1,t1,-1776 # 30910 <tohost+0x10908>
  10967c:	00610133          	add	sp,sp,t1

00109680 <i000000151a>:
  109680:	8c412223          	sw	tp,-1852(sp)

00109684 <i000000151b>:
  109684:	0e810383          	lb	t2,232(sp)

00109688 <i000000151c>:
  109688:	013fde33          	srl	t3,t6,s3

0010968c <i000000151d>:
  10968c:	cee26013          	or	zero,tp,-786

00109690 <i000000151e>:
  109690:	e1611723          	sh	s6,-498(sp)

00109694 <i000000151f>:
  109694:	0131a633          	slt	a2,gp,s3

00109698 <i0000001520>:
  109698:	6a012603          	lw	a2,1696(sp)

0010969c <i0000001521>:
  10969c:	1f412303          	lw	t1,500(sp)

001096a0 <i0000001522>:
  1096a0:	66ce4b13          	xor	s6,t3,1644

001096a4 <i0000001523>:
  1096a4:	41e10803          	lb	a6,1054(sp)

001096a8 <i0000001524>:
  1096a8:	017a5d93          	srl	s11,s4,0x17

001096ac <i0000001525>:
  1096ac:	41545013          	sra	zero,s0,0x15

001096b0 <i0000001526>:
  1096b0:	96010f03          	lb	t5,-1696(sp)

001096b4 <i0000001527>:
  1096b4:	00004cb3          	xor	s9,zero,zero
  1096b8:	00b00993          	li	s3,11
  1096bc:	00a00d13          	li	s10,10

001096c0 <b0000001528>:
  1096c0:	00000033          	add	zero,zero,zero
  1096c4:	03a9da63          	bge	s3,s10,1096f8 <i000000152d>
  1096c8:	00000033          	add	zero,zero,zero
  1096cc:	00a00d13          	li	s10,10
  1096d0:	00006117          	auipc	sp,0x6
  1096d4:	a3010113          	add	sp,sp,-1488 # 10f100 <mem>
  1096d8:	00054337          	lui	t1,0x54
  1096dc:	ad830313          	add	t1,t1,-1320 # 53ad8 <tohost+0x33ad0>
  1096e0:	00610133          	add	sp,sp,t1

001096e4 <i0000001528>:
  1096e4:	4ca11983          	lh	s3,1226(sp)

001096e8 <i0000001529>:
  1096e8:	2f8104a3          	sb	s8,745(sp)

001096ec <i000000152a>:
  1096ec:	30a108a3          	sb	a0,785(sp)

001096f0 <i000000152b>:
  1096f0:	32c12783          	lw	a5,812(sp)

001096f4 <i000000152c>:
  1096f4:	26e1c713          	xor	a4,gp,622

001096f8 <i000000152d>:
  1096f8:	0b410aa3          	sb	s4,181(sp)

001096fc <i000000152e>:
  1096fc:	04c12c23          	sw	a2,88(sp)

00109700 <i000000152f>:
  109700:	95611583          	lh	a1,-1706(sp)

00109704 <i0000001530>:
  109704:	00425513          	srl	a0,tp,0x4

00109708 <i0000001531>:
  109708:	1e412003          	lw	zero,484(sp)

0010970c <i0000001532>:
  10970c:	01ce9213          	sll	tp,t4,0x1c

00109710 <i0000001533>:
  109710:	40db5713          	sra	a4,s6,0xd

00109714 <i0000001534>:
  109714:	01963bb3          	sltu	s7,a2,s9

00109718 <i0000001535>:
  109718:	411b8b33          	sub	s6,s7,a7

0010971c <i0000001536>:
  10971c:	40050bb3          	sub	s7,a0,zero

00109720 <i0000001537>:
  109720:	0174c333          	xor	t1,s1,s7

00109724 <i0000001538>:
  109724:	002dd793          	srl	a5,s11,0x2

00109728 <i0000001539>:
  109728:	abe11d23          	sh	t5,-1350(sp)

0010972c <i000000153a>:
  10972c:	00b5bfb3          	sltu	t6,a1,a1
  109730:	00b00a13          	li	s4,11
  109734:	00a00d13          	li	s10,10

00109738 <b000000153b>:
  109738:	00000033          	add	zero,zero,zero
  10973c:	03aa5c63          	bge	s4,s10,109774 <i0000001546>
  109740:	00000033          	add	zero,zero,zero
  109744:	00a00d13          	li	s10,10

00109748 <i000000153b>:
  109748:	5c812423          	sw	s0,1480(sp)

0010974c <i000000153c>:
  10974c:	000f5233          	srl	tp,t5,zero

00109750 <i000000153d>:
  109750:	28f26f37          	lui	t5,0x28f26

00109754 <i000000153e>:
  109754:	1df109a3          	sb	t6,467(sp)

00109758 <i000000153f>:
  109758:	a6b11323          	sh	a1,-1434(sp)

0010975c <i0000001540>:
  10975c:	d1a14603          	lbu	a2,-742(sp)

00109760 <i0000001541>:
  109760:	75311123          	sh	s3,1858(sp)

00109764 <i0000001542>:
  109764:	00a50533          	add	a0,a0,a0

00109768 <i0000001543>:
  109768:	012f9533          	sll	a0,t6,s2

0010976c <i0000001544>:
  10976c:	8777bf13          	sltiu	t5,a5,-1929

00109770 <i0000001545>:
  109770:	a982c513          	xor	a0,t0,-1384

00109774 <i0000001546>:
  109774:	aba15503          	lhu	a0,-1350(sp)
  109778:	00006117          	auipc	sp,0x6
  10977c:	98810113          	add	sp,sp,-1656 # 10f100 <mem>
  109780:	00029337          	lui	t1,0x29
  109784:	7f030313          	add	t1,t1,2032 # 297f0 <tohost+0x97e8>
  109788:	00610133          	add	sp,sp,t1

0010978c <i0000001547>:
  10978c:	6b210f83          	lb	t6,1714(sp)

00109790 <i0000001548>:
  109790:	47611123          	sh	s6,1122(sp)

00109794 <i0000001549>:
  109794:	004009b3          	add	s3,zero,tp

00109798 <i000000154a>:
  109798:	b6a07593          	and	a1,zero,-1174

0010979c <i000000154b>:
  10979c:	ffe06b93          	or	s7,zero,-2

001097a0 <i000000154c>:
  1097a0:	22411303          	lh	t1,548(sp)

001097a4 <i000000154d>:
  1097a4:	403cdab3          	sra	s5,s9,gp
  1097a8:	00900d93          	li	s11,9

001097ac <b000000154e>:
  1097ac:	00000033          	add	zero,zero,zero
  1097b0:	fbbd4ee3          	blt	s10,s11,10976c <i0000001544>
  1097b4:	00000033          	add	zero,zero,zero
  1097b8:	00a00d13          	li	s10,10
  1097bc:	00006117          	auipc	sp,0x6
  1097c0:	94410113          	add	sp,sp,-1724 # 10f100 <mem>
  1097c4:	0004a337          	lui	t1,0x4a
  1097c8:	5d830313          	add	t1,t1,1496 # 4a5d8 <tohost+0x2a5d0>
  1097cc:	00610133          	add	sp,sp,t1

001097d0 <i000000154e>:
  1097d0:	37a10003          	lb	zero,890(sp)

001097d4 <i000000154f>:
  1097d4:	69073c13          	sltiu	s8,a4,1680
  1097d8:	00006117          	auipc	sp,0x6
  1097dc:	92810113          	add	sp,sp,-1752 # 10f100 <mem>
  1097e0:	0003b337          	lui	t1,0x3b
  1097e4:	97830313          	add	t1,t1,-1672 # 3a978 <tohost+0x1a970>
  1097e8:	00610133          	add	sp,sp,t1

001097ec <i0000001550>:
  1097ec:	e7215983          	lhu	s3,-398(sp)
  1097f0:	00006117          	auipc	sp,0x6
  1097f4:	91010113          	add	sp,sp,-1776 # 10f100 <mem>
  1097f8:	00055337          	lui	t1,0x55
  1097fc:	c6030313          	add	t1,t1,-928 # 54c60 <tohost+0x34c58>
  109800:	00610133          	add	sp,sp,t1

00109804 <i0000001551>:
  109804:	89811003          	lh	zero,-1896(sp)

00109808 <i0000001552>:
  109808:	000b3c33          	sltu	s8,s6,zero

0010980c <i0000001553>:
  10980c:	013e7f33          	and	t5,t3,s3

00109810 <i0000001554>:
  109810:	016b2233          	slt	tp,s6,s6

00109814 <i0000001555>:
  109814:	00d39c33          	sll	s8,t2,a3

00109818 <i0000001556>:
  109818:	40af5633          	sra	a2,t5,a0

0010981c <i0000001557>:
  10981c:	41e55b33          	sra	s6,a0,t5

00109820 <i0000001558>:
  109820:	0085f7b3          	and	a5,a1,s0

00109824 <i0000001559>:
  109824:	c4611203          	lh	tp,-954(sp)
  109828:	00006117          	auipc	sp,0x6
  10982c:	8d810113          	add	sp,sp,-1832 # 10f100 <mem>
  109830:	00018337          	lui	t1,0x18
  109834:	7a030313          	add	t1,t1,1952 # 187a0 <_stack_len+0x107a0>
  109838:	00610133          	add	sp,sp,t1

0010983c <i000000155a>:
  10983c:	6f012003          	lw	zero,1776(sp)

00109840 <i000000155b>:
  109840:	490ecf13          	xor	t5,t4,1168
  109844:	00006117          	auipc	sp,0x6
  109848:	8bc10113          	add	sp,sp,-1860 # 10f100 <mem>
  10984c:	0001c337          	lui	t1,0x1c
  109850:	14830313          	add	t1,t1,328 # 1c148 <_stack_len+0x14148>
  109854:	00610133          	add	sp,sp,t1

00109858 <i000000155c>:
  109858:	71f14283          	lbu	t0,1823(sp)

0010985c <i000000155d>:
  10985c:	69e12823          	sw	t5,1680(sp)

00109860 <i000000155e>:
  109860:	d0738b13          	add	s6,t2,-761 # b338827 <fromhost+0xb1b0817>

00109864 <i000000155f>:
  109864:	01622f33          	slt	t5,tp,s6

00109868 <i0000001560>:
  109868:	7b012503          	lw	a0,1968(sp)
  10986c:	00a00c13          	li	s8,10

00109870 <b0000001561>:
  109870:	00000033          	add	zero,zero,zero
  109874:	058d0a63          	beq	s10,s8,1098c8 <i000000156e>
  109878:	00000033          	add	zero,zero,zero
  10987c:	00a00d13          	li	s10,10

00109880 <i0000001561>:
  109880:	70512423          	sw	t0,1800(sp)

00109884 <i0000001562>:
  109884:	e5611023          	sh	s6,-448(sp)

00109888 <i0000001563>:
  109888:	54a11c83          	lh	s9,1354(sp)

0010988c <i0000001564>:
  10988c:	01cadb13          	srl	s6,s5,0x1c

00109890 <i0000001565>:
  109890:	5f614e03          	lbu	t3,1526(sp)

00109894 <i0000001566>:
  109894:	6f815e83          	lhu	t4,1784(sp)

00109898 <i0000001567>:
  109898:	01301293          	sll	t0,zero,0x13

0010989c <i0000001568>:
  10989c:	fe011523          	sh	zero,-22(sp)

001098a0 <i0000001569>:
  1098a0:	6a100013          	li	zero,1697

001098a4 <i000000156a>:
  1098a4:	bf012883          	lw	a7,-1040(sp)
  1098a8:	00006117          	auipc	sp,0x6
  1098ac:	85810113          	add	sp,sp,-1960 # 10f100 <mem>
  1098b0:	00042337          	lui	t1,0x42
  1098b4:	a2830313          	add	t1,t1,-1496 # 41a28 <tohost+0x21a20>
  1098b8:	00610133          	add	sp,sp,t1

001098bc <i000000156b>:
  1098bc:	47c11703          	lh	a4,1148(sp)

001098c0 <i000000156c>:
  1098c0:	50310683          	lb	a3,1283(sp)

001098c4 <i000000156d>:
  1098c4:	efe11203          	lh	tp,-258(sp)

001098c8 <i000000156e>:
  1098c8:	eae15b83          	lhu	s7,-338(sp)

001098cc <i000000156f>:
  1098cc:	b6296f93          	or	t6,s2,-1182

001098d0 <i0000001570>:
  1098d0:	2a910283          	lb	t0,681(sp)
  1098d4:	00006117          	auipc	sp,0x6
  1098d8:	82c10113          	add	sp,sp,-2004 # 10f100 <mem>
  1098dc:	0006d337          	lui	t1,0x6d
  1098e0:	8d830313          	add	t1,t1,-1832 # 6c8d8 <tohost+0x4c8d0>
  1098e4:	00610133          	add	sp,sp,t1

001098e8 <i0000001571>:
  1098e8:	7e011b03          	lh	s6,2016(sp)

001098ec <i0000001572>:
  1098ec:	e9e11d23          	sh	t5,-358(sp)

001098f0 <i0000001573>:
  1098f0:	90b10483          	lb	s1,-1781(sp)
  1098f4:	00900813          	li	a6,9

001098f8 <b0000001574>:
  1098f8:	00000033          	add	zero,zero,zero
  1098fc:	f90d4ee3          	blt	s10,a6,109898 <i0000001567>
  109900:	00000033          	add	zero,zero,zero
  109904:	00a00d13          	li	s10,10

00109908 <i0000001574>:
  109908:	00af3033          	sltu	zero,t5,a0

0010990c <i0000001575>:
  10990c:	7e510ea3          	sb	t0,2045(sp)

00109910 <i0000001576>:
  109910:	80211c03          	lh	s8,-2046(sp)

00109914 <i0000001577>:
  109914:	000f3bb3          	sltu	s7,t5,zero
  109918:	00005117          	auipc	sp,0x5
  10991c:	7e810113          	add	sp,sp,2024 # 10f100 <mem>
  109920:	0006c337          	lui	t1,0x6c
  109924:	2c030313          	add	t1,t1,704 # 6c2c0 <tohost+0x4c2b8>
  109928:	00610133          	add	sp,sp,t1

0010992c <i0000001578>:
  10992c:	c2815b03          	lhu	s6,-984(sp)

00109930 <i0000001579>:
  109930:	00fd9013          	sll	zero,s11,0xf

00109934 <i000000157a>:
  109934:	23ab0013          	add	zero,s6,570

00109938 <i000000157b>:
  109938:	00050ab3          	add	s5,a0,zero

0010993c <i000000157c>:
  10993c:	436e7537          	lui	a0,0x436e7

00109940 <i000000157d>:
  109940:	f6a103a3          	sb	a0,-153(sp)

00109944 <i000000157e>:
  109944:	012a42b3          	xor	t0,s4,s2
  109948:	00005117          	auipc	sp,0x5
  10994c:	7b810113          	add	sp,sp,1976 # 10f100 <mem>
  109950:	0004a337          	lui	t1,0x4a
  109954:	ae030313          	add	t1,t1,-1312 # 49ae0 <tohost+0x29ad8>
  109958:	00610133          	add	sp,sp,t1

0010995c <i000000157f>:
  10995c:	92510923          	sb	t0,-1742(sp)

00109960 <i0000001580>:
  109960:	41435d93          	sra	s11,t1,0x14

00109964 <i0000001581>:
  109964:	44c12403          	lw	s0,1100(sp)

00109968 <i0000001582>:
  109968:	51812203          	lw	tp,1304(sp)

0010996c <i0000001583>:
  10996c:	68a11223          	sh	a0,1668(sp)

00109970 <i0000001584>:
  109970:	3d812003          	lw	zero,984(sp)

00109974 <i0000001585>:
  109974:	26010f83          	lb	t6,608(sp)

00109978 <i0000001586>:
  109978:	41018c33          	sub	s8,gp,a6
  10997c:	00900993          	li	s3,9

00109980 <b0000001587>:
  109980:	00000033          	add	zero,zero,zero
  109984:	fb3d46e3          	blt	s10,s3,109930 <i0000001579>
  109988:	00000033          	add	zero,zero,zero
  10998c:	00a00d13          	li	s10,10

00109990 <i0000001587>:
  109990:	0d714603          	lbu	a2,215(sp)

00109994 <i0000001588>:
  109994:	04e11503          	lh	a0,78(sp)

00109998 <i0000001589>:
  109998:	3c658f93          	add	t6,a1,966 # 4c543c6 <fromhost+0x4acc3b6>

0010999c <i000000158a>:
  10999c:	ba010e03          	lb	t3,-1120(sp)

001099a0 <i000000158b>:
  1099a0:	35296b13          	or	s6,s2,850

001099a4 <i000000158c>:
  1099a4:	d6a10423          	sb	a0,-664(sp)

001099a8 <i000000158d>:
  1099a8:	e1812b03          	lw	s6,-488(sp)

001099ac <i000000158e>:
  1099ac:	73bb8713          	add	a4,s7,1851 # 4496c73b <fromhost+0x447e472b>

001099b0 <i000000158f>:
  1099b0:	01101513          	sll	a0,zero,0x11

001099b4 <i0000001590>:
  1099b4:	01cfb733          	sltu	a4,t6,t3

001099b8 <i0000001591>:
  1099b8:	01f425b3          	slt	a1,s0,t6
  1099bc:	00005117          	auipc	sp,0x5
  1099c0:	74410113          	add	sp,sp,1860 # 10f100 <mem>
  1099c4:	0002d337          	lui	t1,0x2d
  1099c8:	ab830313          	add	t1,t1,-1352 # 2cab8 <tohost+0xcab0>
  1099cc:	00610133          	add	sp,sp,t1

001099d0 <i0000001592>:
  1099d0:	09112623          	sw	a7,140(sp)
  1099d4:	00005117          	auipc	sp,0x5
  1099d8:	72c10113          	add	sp,sp,1836 # 10f100 <mem>
  1099dc:	0001b337          	lui	t1,0x1b
  1099e0:	35830313          	add	t1,t1,856 # 1b358 <_stack_len+0x13358>
  1099e4:	00610133          	add	sp,sp,t1

001099e8 <i0000001593>:
  1099e8:	78512223          	sw	t0,1924(sp)

001099ec <i0000001594>:
  1099ec:	aa814f03          	lbu	t5,-1368(sp)
  1099f0:	00005117          	auipc	sp,0x5
  1099f4:	71010113          	add	sp,sp,1808 # 10f100 <mem>
  1099f8:	00049337          	lui	t1,0x49
  1099fc:	c6830313          	add	t1,t1,-920 # 48c68 <tohost+0x28c60>
  109a00:	00610133          	add	sp,sp,t1

00109a04 <i0000001595>:
  109a04:	aaa15a03          	lhu	s4,-1366(sp)

00109a08 <i0000001596>:
  109a08:	57512623          	sw	s5,1388(sp)

00109a0c <i0000001597>:
  109a0c:	17012023          	sw	a6,352(sp)

00109a10 <i0000001598>:
  109a10:	00e957b3          	srl	a5,s2,a4

00109a14 <i0000001599>:
  109a14:	40f78f33          	sub	t5,a5,a5
  109a18:	00a00a13          	li	s4,10

00109a1c <b000000159a>:
  109a1c:	00000033          	add	zero,zero,zero
  109a20:	034d0a63          	beq	s10,s4,109a54 <i000000159f>
  109a24:	00000033          	add	zero,zero,zero
  109a28:	00a00d13          	li	s10,10

00109a2c <i000000159a>:
  109a2c:	01f30ab3          	add	s5,t1,t6

00109a30 <i000000159b>:
  109a30:	79415203          	lhu	tp,1940(sp)

00109a34 <i000000159c>:
  109a34:	5df58693          	add	a3,a1,1503

00109a38 <i000000159d>:
  109a38:	00451033          	sll	zero,a0,tp

00109a3c <i000000159e>:
  109a3c:	52c11203          	lh	tp,1324(sp)
  109a40:	00005117          	auipc	sp,0x5
  109a44:	6c010113          	add	sp,sp,1728 # 10f100 <mem>
  109a48:	00051337          	lui	t1,0x51
  109a4c:	12030313          	add	t1,t1,288 # 51120 <tohost+0x31118>
  109a50:	00610133          	add	sp,sp,t1

00109a54 <i000000159f>:
  109a54:	da314603          	lbu	a2,-605(sp)

00109a58 <i00000015a0>:
  109a58:	a5720513          	add	a0,tp,-1449 # 45c2bf23 <fromhost+0x45aa3f13>

00109a5c <i00000015a1>:
  109a5c:	016f0433          	add	s0,t5,s6

00109a60 <i00000015a2>:
  109a60:	e9611623          	sh	s6,-372(sp)

00109a64 <i00000015a3>:
  109a64:	01855213          	srl	tp,a0,0x18

00109a68 <i00000015a4>:
  109a68:	ff812683          	lw	a3,-8(sp)

00109a6c <i00000015a5>:
  109a6c:	57314203          	lbu	tp,1395(sp)

00109a70 <i00000015a6>:
  109a70:	91611523          	sh	s6,-1782(sp)

00109a74 <i00000015a7>:
  109a74:	14011d23          	sh	zero,346(sp)

00109a78 <i00000015a8>:
  109a78:	ba812d83          	lw	s11,-1112(sp)

00109a7c <i00000015a9>:
  109a7c:	41080333          	sub	t1,a6,a6

00109a80 <i00000015aa>:
  109a80:	d9c10823          	sb	t3,-624(sp)

00109a84 <i00000015ab>:
  109a84:	12e10503          	lb	a0,302(sp)

00109a88 <i00000015ac>:
  109a88:	6e326413          	or	s0,tp,1763
  109a8c:	00c00b93          	li	s7,12
  109a90:	00a00d13          	li	s10,10

00109a94 <b00000015ad>:
  109a94:	00000033          	add	zero,zero,zero
  109a98:	057d4a63          	blt	s10,s7,109aec <i00000015ba>
  109a9c:	00000033          	add	zero,zero,zero
  109aa0:	00a00d13          	li	s10,10

00109aa4 <i00000015ad>:
  109aa4:	01976bb3          	or	s7,a4,s9

00109aa8 <i00000015ae>:
  109aa8:	0017db13          	srl	s6,a5,0x1

00109aac <i00000015af>:
  109aac:	004f78b3          	and	a7,t5,tp

00109ab0 <i00000015b0>:
  109ab0:	01fa4933          	xor	s2,s4,t6

00109ab4 <i00000015b1>:
  109ab4:	a1015583          	lhu	a1,-1520(sp)

00109ab8 <i00000015b2>:
  109ab8:	6786bb17          	auipc	s6,0x6786b

00109abc <i00000015b3>:
  109abc:	0054bc33          	sltu	s8,s1,t0

00109ac0 <i00000015b4>:
  109ac0:	cd015203          	lhu	tp,-816(sp)
  109ac4:	00005117          	auipc	sp,0x5
  109ac8:	63c10113          	add	sp,sp,1596 # 10f100 <mem>
  109acc:	00010337          	lui	t1,0x10
  109ad0:	a6830313          	add	t1,t1,-1432 # fa68 <_stack_len+0x7a68>
  109ad4:	00610133          	add	sp,sp,t1

00109ad8 <i00000015b5>:
  109ad8:	a8012303          	lw	t1,-1408(sp)

00109adc <i00000015b6>:
  109adc:	ea1cf213          	and	tp,s9,-351

00109ae0 <i00000015b7>:
  109ae0:	f2012683          	lw	a3,-224(sp)

00109ae4 <i00000015b8>:
  109ae4:	36d14883          	lbu	a7,877(sp)

00109ae8 <i00000015b9>:
  109ae8:	ca811f83          	lh	t6,-856(sp)

00109aec <i00000015ba>:
  109aec:	5af54e13          	xor	t3,a0,1455

00109af0 <i00000015bb>:
  109af0:	00423f33          	sltu	t5,tp,tp

00109af4 <i00000015bc>:
  109af4:	00d47b33          	and	s6,s0,a3

00109af8 <i00000015bd>:
  109af8:	402cd793          	sra	a5,s9,0x2

00109afc <i00000015be>:
  109afc:	40c88a33          	sub	s4,a7,a2

00109b00 <i00000015bf>:
  109b00:	08a11f03          	lh	t5,138(sp)

00109b04 <b00000015c0>:
  109b04:	0380056f          	jal	a0,109b3c <i00000015cd>

00109b08 <i00000015c0>:
  109b08:	7aa11523          	sh	a0,1962(sp)

00109b0c <i00000015c1>:
  109b0c:	e2310e03          	lb	t3,-477(sp)

00109b10 <i00000015c2>:
  109b10:	7f812683          	lw	a3,2040(sp)

00109b14 <i00000015c3>:
  109b14:	91c14703          	lbu	a4,-1764(sp)

00109b18 <i00000015c4>:
  109b18:	ad676213          	or	tp,a4,-1322

00109b1c <i00000015c5>:
  109b1c:	eda10f03          	lb	t5,-294(sp)

00109b20 <i00000015c6>:
  109b20:	002b1513          	sll	a0,s6,0x2

00109b24 <i00000015c7>:
  109b24:	0132af33          	slt	t5,t0,s3

00109b28 <i00000015c8>:
  109b28:	87215283          	lhu	t0,-1934(sp)

00109b2c <i00000015c9>:
  109b2c:	2aeb0213          	add	tp,s6,686 # 67974d66 <fromhost+0x677ecd56>

00109b30 <i00000015ca>:
  109b30:	94b24513          	xor	a0,tp,-1717

00109b34 <i00000015cb>:
  109b34:	f6811583          	lh	a1,-152(sp)

00109b38 <i00000015cc>:
  109b38:	01779013          	sll	zero,a5,0x17

00109b3c <i00000015cd>:
  109b3c:	ec350393          	add	t2,a0,-317 # 436e6ec3 <fromhost+0x4355eeb3>

00109b40 <i00000015ce>:
  109b40:	40b95a93          	sra	s5,s2,0xb

00109b44 <i00000015cf>:
  109b44:	d6f11023          	sh	a5,-672(sp)

00109b48 <i00000015d0>:
  109b48:	95012a23          	sw	a6,-1708(sp)

00109b4c <i00000015d1>:
  109b4c:	b1810da3          	sb	s8,-1253(sp)

00109b50 <i00000015d2>:
  109b50:	c2414003          	lbu	zero,-988(sp)
  109b54:	00c00a13          	li	s4,12
  109b58:	001d0d13          	add	s10,s10,1

00109b5c <b00000015d3>:
  109b5c:	014d0463          	beq	s10,s4,109b64 <b00000015d3+0x8>
  109b60:	fc9ff56f          	jal	a0,109b28 <i00000015c8>
  109b64:	00a00d13          	li	s10,10

00109b68 <i00000015d3>:
  109b68:	09c14b03          	lbu	s6,156(sp)

00109b6c <i00000015d4>:
  109b6c:	01089f33          	sll	t5,a7,a6

00109b70 <i00000015d5>:
  109b70:	3d412b03          	lw	s6,980(sp)

00109b74 <i00000015d6>:
  109b74:	a0257c93          	and	s9,a0,-1534
  109b78:	00005117          	auipc	sp,0x5
  109b7c:	58810113          	add	sp,sp,1416 # 10f100 <mem>
  109b80:	0000c337          	lui	t1,0xc
  109b84:	04030313          	add	t1,t1,64 # c040 <_stack_len+0x4040>
  109b88:	00610133          	add	sp,sp,t1

00109b8c <i00000015d7>:
  109b8c:	f7611223          	sh	s6,-156(sp)

00109b90 <i00000015d8>:
  109b90:	01f48933          	add	s2,s1,t6
  109b94:	00005117          	auipc	sp,0x5
  109b98:	56c10113          	add	sp,sp,1388 # 10f100 <mem>
  109b9c:	00050337          	lui	t1,0x50
  109ba0:	ab830313          	add	t1,t1,-1352 # 4fab8 <tohost+0x2fab0>
  109ba4:	00610133          	add	sp,sp,t1

00109ba8 <i00000015d9>:
  109ba8:	d6012703          	lw	a4,-672(sp)

00109bac <i00000015da>:
  109bac:	00054233          	xor	tp,a0,zero

00109bb0 <i00000015db>:
  109bb0:	cf810f03          	lb	t5,-776(sp)

00109bb4 <i00000015dc>:
  109bb4:	7ac12203          	lw	tp,1964(sp)

00109bb8 <i00000015dd>:
  109bb8:	b8411623          	sh	tp,-1140(sp)

00109bbc <i00000015de>:
  109bbc:	85c12b03          	lw	s6,-1956(sp)

00109bc0 <i00000015df>:
  109bc0:	e2415a83          	lhu	s5,-476(sp)

00109bc4 <i00000015e0>:
  109bc4:	038b2993          	slti	s3,s6,56

00109bc8 <i00000015e1>:
  109bc8:	01964033          	xor	zero,a2,s9

00109bcc <i00000015e2>:
  109bcc:	00f80fb3          	add	t6,a6,a5

00109bd0 <i00000015e3>:
  109bd0:	8f052193          	slti	gp,a0,-1808

00109bd4 <i00000015e4>:
  109bd4:	44cc9537          	lui	a0,0x44cc9

00109bd8 <i00000015e5>:
  109bd8:	02a10a23          	sb	a0,52(sp)
  109bdc:	00b00a13          	li	s4,11
  109be0:	00a00d13          	li	s10,10

00109be4 <b00000015e6>:
  109be4:	00000033          	add	zero,zero,zero
  109be8:	074d1463          	bne	s10,s4,109c50 <i00000015f3>
  109bec:	00000033          	add	zero,zero,zero
  109bf0:	00a00d13          	li	s10,10
  109bf4:	00005117          	auipc	sp,0x5
  109bf8:	50c10113          	add	sp,sp,1292 # 10f100 <mem>
  109bfc:	00053337          	lui	t1,0x53
  109c00:	65030313          	add	t1,t1,1616 # 53650 <tohost+0x33648>
  109c04:	00610133          	add	sp,sp,t1

00109c08 <i00000015e6>:
  109c08:	fac12803          	lw	a6,-84(sp)

00109c0c <i00000015e7>:
  109c0c:	01fb5193          	srl	gp,s6,0x1f

00109c10 <i00000015e8>:
  109c10:	a1a4c213          	xor	tp,s1,-1510

00109c14 <i00000015e9>:
  109c14:	01ef1b33          	sll	s6,t5,t5
  109c18:	00005117          	auipc	sp,0x5
  109c1c:	4e810113          	add	sp,sp,1256 # 10f100 <mem>
  109c20:	00018337          	lui	t1,0x18
  109c24:	d2830313          	add	t1,t1,-728 # 17d28 <_stack_len+0xfd28>
  109c28:	00610133          	add	sp,sp,t1

00109c2c <i00000015ea>:
  109c2c:	14e15f03          	lhu	t5,334(sp)

00109c30 <i00000015eb>:
  109c30:	4ed50e13          	add	t3,a0,1261 # 44cc94ed <fromhost+0x44b414dd>

00109c34 <i00000015ec>:
  109c34:	51810f23          	sb	s8,1310(sp)

00109c38 <i00000015ed>:
  109c38:	00f5c7b3          	xor	a5,a1,a5

00109c3c <i00000015ee>:
  109c3c:	46b11f23          	sh	a1,1150(sp)

00109c40 <i00000015ef>:
  109c40:	01e256b3          	srl	a3,tp,t5

00109c44 <i00000015f0>:
  109c44:	0154cb33          	xor	s6,s1,s5

00109c48 <i00000015f1>:
  109c48:	a7bf6e93          	or	t4,t5,-1413

00109c4c <i00000015f2>:
  109c4c:	e52101a3          	sb	s2,-445(sp)

00109c50 <i00000015f3>:
  109c50:	66f12017          	auipc	zero,0x66f12

00109c54 <i00000015f4>:
  109c54:	012ec733          	xor	a4,t4,s2

00109c58 <i00000015f5>:
  109c58:	56ef4593          	xor	a1,t5,1390

00109c5c <i00000015f6>:
  109c5c:	05197b37          	lui	s6,0x5197

00109c60 <i00000015f7>:
  109c60:	83e66e13          	or	t3,a2,-1986

00109c64 <i00000015f8>:
  109c64:	00a57233          	and	tp,a0,a0
  109c68:	00c00b13          	li	s6,12
  109c6c:	001d0d13          	add	s10,s10,1

00109c70 <b00000015f9>:
  109c70:	016d0863          	beq	s10,s6,109c80 <b00000015f9+0x10>
  109c74:	00000b17          	auipc	s6,0x0
  109c78:	fccb0b13          	add	s6,s6,-52 # 109c40 <i00000015ef>
  109c7c:	000b0567          	jalr	a0,s6
  109c80:	00a00d13          	li	s10,10

00109c84 <i00000015f9>:
  109c84:	01f7ab33          	slt	s6,a5,t6
  109c88:	00005117          	auipc	sp,0x5
  109c8c:	47810113          	add	sp,sp,1144 # 10f100 <mem>
  109c90:	00063337          	lui	t1,0x63
  109c94:	7c030313          	add	t1,t1,1984 # 637c0 <tohost+0x437b8>
  109c98:	00610133          	add	sp,sp,t1

00109c9c <i00000015fa>:
  109c9c:	5d6107a3          	sb	s6,1487(sp)

00109ca0 <i00000015fb>:
  109ca0:	c0312c23          	sw	gp,-1000(sp)

00109ca4 <i00000015fc>:
  109ca4:	1ed12623          	sw	a3,492(sp)

00109ca8 <i00000015fd>:
  109ca8:	40b9d193          	sra	gp,s3,0xb

00109cac <i00000015fe>:
  109cac:	d9211503          	lh	a0,-622(sp)

00109cb0 <i00000015ff>:
  109cb0:	42bd6237          	lui	tp,0x42bd6

00109cb4 <i0000001600>:
  109cb4:	00c05c13          	srl	s8,zero,0xc

00109cb8 <i0000001601>:
  109cb8:	7a104513          	xor	a0,zero,1953

00109cbc <i0000001602>:
  109cbc:	8ea10fa3          	sb	a0,-1793(sp)
  109cc0:	00005117          	auipc	sp,0x5
  109cc4:	44010113          	add	sp,sp,1088 # 10f100 <mem>
  109cc8:	0005a337          	lui	t1,0x5a
  109ccc:	94830313          	add	t1,t1,-1720 # 59948 <tohost+0x39940>
  109cd0:	00610133          	add	sp,sp,t1

00109cd4 <i0000001603>:
  109cd4:	55910903          	lb	s2,1369(sp)

00109cd8 <i0000001604>:
  109cd8:	00c3d933          	srl	s2,t2,a2

00109cdc <i0000001605>:
  109cdc:	5f611c23          	sh	s6,1528(sp)
  109ce0:	00005117          	auipc	sp,0x5
  109ce4:	42010113          	add	sp,sp,1056 # 10f100 <mem>
  109ce8:	00061337          	lui	t1,0x61
  109cec:	7a030313          	add	t1,t1,1952 # 617a0 <tohost+0x41798>
  109cf0:	00610133          	add	sp,sp,t1

00109cf4 <i0000001606>:
  109cf4:	48010823          	sb	zero,1168(sp)

00109cf8 <i0000001607>:
  109cf8:	01e22f33          	slt	t5,tp,t5

00109cfc <i0000001608>:
  109cfc:	f8411123          	sh	tp,-126(sp)

00109d00 <i0000001609>:
  109d00:	7d615483          	lhu	s1,2006(sp)

00109d04 <i000000160a>:
  109d04:	00af6733          	or	a4,t5,a0

00109d08 <i000000160b>:
  109d08:	d7e11923          	sh	t5,-654(sp)
  109d0c:	00900c93          	li	s9,9

00109d10 <b000000160c>:
  109d10:	00000033          	add	zero,zero,zero
  109d14:	f99d4ee3          	blt	s10,s9,109cb0 <i00000015ff>
  109d18:	00000033          	add	zero,zero,zero
  109d1c:	00a00d13          	li	s10,10
  109d20:	00005117          	auipc	sp,0x5
  109d24:	3e010113          	add	sp,sp,992 # 10f100 <mem>
  109d28:	00029337          	lui	t1,0x29
  109d2c:	24830313          	add	t1,t1,584 # 29248 <tohost+0x9240>
  109d30:	00610133          	add	sp,sp,t1

00109d34 <i000000160c>:
  109d34:	6bf11923          	sh	t6,1714(sp)

00109d38 <i000000160d>:
  109d38:	e2611a83          	lh	s5,-474(sp)

00109d3c <i000000160e>:
  109d3c:	00d28833          	add	a6,t0,a3

00109d40 <i000000160f>:
  109d40:	c7703213          	sltiu	tp,zero,-905

00109d44 <i0000001610>:
  109d44:	2127a5b7          	lui	a1,0x2127a

00109d48 <i0000001611>:
  109d48:	339f4513          	xor	a0,t5,825
  109d4c:	00005117          	auipc	sp,0x5
  109d50:	3b410113          	add	sp,sp,948 # 10f100 <mem>
  109d54:	00030337          	lui	t1,0x30
  109d58:	89030313          	add	t1,t1,-1904 # 2f890 <tohost+0xf888>
  109d5c:	00610133          	add	sp,sp,t1

00109d60 <i0000001612>:
  109d60:	e4c11f03          	lh	t5,-436(sp)

00109d64 <i0000001613>:
  109d64:	71015f83          	lhu	t6,1808(sp)

00109d68 <i0000001614>:
  109d68:	e7415983          	lhu	s3,-396(sp)

00109d6c <i0000001615>:
  109d6c:	01940533          	add	a0,s0,s9

00109d70 <i0000001616>:
  109d70:	50ae3917          	auipc	s2,0x50ae3

00109d74 <i0000001617>:
  109d74:	42523593          	sltiu	a1,tp,1061
  109d78:	00005117          	auipc	sp,0x5
  109d7c:	38810113          	add	sp,sp,904 # 10f100 <mem>
  109d80:	00058337          	lui	t1,0x58
  109d84:	c9830313          	add	t1,t1,-872 # 57c98 <tohost+0x37c90>
  109d88:	00610133          	add	sp,sp,t1

00109d8c <i0000001618>:
  109d8c:	6ea11323          	sh	a0,1766(sp)

00109d90 <i0000001619>:
  109d90:	04f05f97          	auipc	t6,0x4f05

00109d94 <i000000161a>:
  109d94:	85310f03          	lb	t5,-1965(sp)

00109d98 <i000000161b>:
  109d98:	416b5b33          	sra	s6,s6,s6

00109d9c <i000000161c>:
  109d9c:	ea0101a3          	sb	zero,-349(sp)

00109da0 <i000000161d>:
  109da0:	90e11483          	lh	s1,-1778(sp)

00109da4 <i000000161e>:
  109da4:	25200713          	li	a4,594
  109da8:	00b00b93          	li	s7,11
  109dac:	001d0d13          	add	s10,s10,1

00109db0 <b000000161f>:
  109db0:	00000033          	add	zero,zero,zero
  109db4:	fb7d0ae3          	beq	s10,s7,109d68 <i0000001614>
  109db8:	00000033          	add	zero,zero,zero
  109dbc:	00a00d13          	li	s10,10

00109dc0 <i000000161f>:
  109dc0:	ac814f03          	lbu	t5,-1336(sp)

00109dc4 <i0000001620>:
  109dc4:	c5857a13          	and	s4,a0,-936

00109dc8 <i0000001621>:
  109dc8:	8e811723          	sh	s0,-1810(sp)

00109dcc <i0000001622>:
  109dcc:	00a00db3          	add	s11,zero,a0

00109dd0 <i0000001623>:
  109dd0:	e9c15803          	lhu	a6,-356(sp)
  109dd4:	00005117          	auipc	sp,0x5
  109dd8:	32c10113          	add	sp,sp,812 # 10f100 <mem>
  109ddc:	0006d337          	lui	t1,0x6d
  109de0:	a3830313          	add	t1,t1,-1480 # 6ca38 <tohost+0x4ca30>
  109de4:	00610133          	add	sp,sp,t1

00109de8 <i0000001624>:
  109de8:	cb310e83          	lb	t4,-845(sp)

00109dec <i0000001625>:
  109dec:	0c310da3          	sb	gp,219(sp)
  109df0:	00005117          	auipc	sp,0x5
  109df4:	31010113          	add	sp,sp,784 # 10f100 <mem>
  109df8:	00024337          	lui	t1,0x24
  109dfc:	51030313          	add	t1,t1,1296 # 24510 <tohost+0x4508>
  109e00:	00610133          	add	sp,sp,t1

00109e04 <i0000001626>:
  109e04:	6f011203          	lh	tp,1776(sp)

00109e08 <i0000001627>:
  109e08:	78310183          	lb	gp,1923(sp)

00109e0c <i0000001628>:
  109e0c:	01e21833          	sll	a6,tp,t5

00109e10 <i0000001629>:
  109e10:	6d812003          	lw	zero,1752(sp)

00109e14 <i000000162a>:
  109e14:	10411123          	sh	tp,258(sp)

00109e18 <i000000162b>:
  109e18:	45410b03          	lb	s6,1108(sp)

00109e1c <i000000162c>:
  109e1c:	6ca3a013          	slti	zero,t2,1738

00109e20 <i000000162d>:
  109e20:	83927513          	and	a0,tp,-1991

00109e24 <i000000162e>:
  109e24:	1ff14b03          	lbu	s6,511(sp)

00109e28 <i000000162f>:
  109e28:	01650f33          	add	t5,a0,s6

00109e2c <i0000001630>:
  109e2c:	2e412023          	sw	tp,736(sp)

00109e30 <i0000001631>:
  109e30:	c9512223          	sw	s5,-892(sp)
  109e34:	00900893          	li	a7,9

00109e38 <b0000001632>:
  109e38:	00000033          	add	zero,zero,zero
  109e3c:	fda8dee3          	bge	a7,s10,109e18 <i000000162b>
  109e40:	00000033          	add	zero,zero,zero
  109e44:	00a00d13          	li	s10,10
  109e48:	00005117          	auipc	sp,0x5
  109e4c:	2b810113          	add	sp,sp,696 # 10f100 <mem>
  109e50:	00054337          	lui	t1,0x54
  109e54:	69030313          	add	t1,t1,1680 # 54690 <tohost+0x34688>
  109e58:	00610133          	add	sp,sp,t1

00109e5c <i0000001632>:
  109e5c:	a75104a3          	sb	s5,-1431(sp)

00109e60 <i0000001633>:
  109e60:	00e421b3          	slt	gp,s0,a4

00109e64 <i0000001634>:
  109e64:	01891033          	sll	zero,s2,s8

00109e68 <i0000001635>:
  109e68:	5cbdc513          	xor	a0,s11,1483

00109e6c <i0000001636>:
  109e6c:	00b29533          	sll	a0,t0,a1

00109e70 <i0000001637>:
  109e70:	bc012783          	lw	a5,-1088(sp)

00109e74 <i0000001638>:
  109e74:	4d1af513          	and	a0,s5,1233

00109e78 <i0000001639>:
  109e78:	41e50933          	sub	s2,a0,t5

00109e7c <i000000163a>:
  109e7c:	e6a15403          	lhu	s0,-406(sp)

00109e80 <i000000163b>:
  109e80:	01284533          	xor	a0,a6,s2

00109e84 <i000000163c>:
  109e84:	d96100a3          	sb	s6,-639(sp)
  109e88:	00005117          	auipc	sp,0x5
  109e8c:	27810113          	add	sp,sp,632 # 10f100 <mem>
  109e90:	0002a337          	lui	t1,0x2a
  109e94:	f0030313          	add	t1,t1,-256 # 29f00 <tohost+0x9ef8>
  109e98:	00610133          	add	sp,sp,t1

00109e9c <i000000163d>:
  109e9c:	97e11823          	sh	t5,-1680(sp)

00109ea0 <i000000163e>:
  109ea0:	30cb7213          	and	tp,s6,780

00109ea4 <i000000163f>:
  109ea4:	b8a14203          	lbu	tp,-1142(sp)

00109ea8 <i0000001640>:
  109ea8:	0116ef33          	or	t5,a3,a7

00109eac <i0000001641>:
  109eac:	be710a03          	lb	s4,-1049(sp)

00109eb0 <i0000001642>:
  109eb0:	edd11023          	sh	t4,-320(sp)

00109eb4 <i0000001643>:
  109eb4:	54810b83          	lb	s7,1352(sp)

00109eb8 <i0000001644>:
  109eb8:	00427233          	and	tp,tp,tp
  109ebc:	00c00993          	li	s3,12
  109ec0:	001d0d13          	add	s10,s10,1

00109ec4 <b0000001645>:
  109ec4:	00000033          	add	zero,zero,zero
  109ec8:	fb3d4ce3          	blt	s10,s3,109e80 <i000000163b>
  109ecc:	00000033          	add	zero,zero,zero
  109ed0:	00a00d13          	li	s10,10

00109ed4 <i0000001645>:
  109ed4:	970c0f13          	add	t5,s8,-1680 # 21ad2970 <fromhost+0x2194a960>

00109ed8 <i0000001646>:
  109ed8:	400f0733          	sub	a4,t5,zero

00109edc <i0000001647>:
  109edc:	0154d533          	srl	a0,s1,s5

00109ee0 <i0000001648>:
  109ee0:	00b83033          	sltu	zero,a6,a1

00109ee4 <i0000001649>:
  109ee4:	0102eb33          	or	s6,t0,a6
  109ee8:	00005117          	auipc	sp,0x5
  109eec:	21810113          	add	sp,sp,536 # 10f100 <mem>
  109ef0:	0003f337          	lui	t1,0x3f
  109ef4:	c6030313          	add	t1,t1,-928 # 3ec60 <tohost+0x1ec58>
  109ef8:	00610133          	add	sp,sp,t1

00109efc <i000000164a>:
  109efc:	58c12783          	lw	a5,1420(sp)

00109f00 <i000000164b>:
  109f00:	01155b93          	srl	s7,a0,0x11

00109f04 <i000000164c>:
  109f04:	312cf693          	and	a3,s9,786

00109f08 <i000000164d>:
  109f08:	d3a15003          	lhu	zero,-710(sp)

00109f0c <i000000164e>:
  109f0c:	24a12c23          	sw	a0,600(sp)

00109f10 <i000000164f>:
  109f10:	7353b737          	lui	a4,0x7353b

00109f14 <i0000001650>:
  109f14:	00730db3          	add	s11,t1,t2

00109f18 <i0000001651>:
  109f18:	b0703513          	sltiu	a0,zero,-1273

00109f1c <i0000001652>:
  109f1c:	01602533          	sgtz	a0,s6

00109f20 <i0000001653>:
  109f20:	5b510c23          	sb	s5,1464(sp)

00109f24 <i0000001654>:
  109f24:	4073da13          	sra	s4,t2,0x7

00109f28 <i0000001655>:
  109f28:	7fc12203          	lw	tp,2044(sp)
  109f2c:	00005117          	auipc	sp,0x5
  109f30:	1d410113          	add	sp,sp,468 # 10f100 <mem>
  109f34:	0004e337          	lui	t1,0x4e
  109f38:	68830313          	add	t1,t1,1672 # 4e688 <tohost+0x2e680>
  109f3c:	00610133          	add	sp,sp,t1

00109f40 <i0000001656>:
  109f40:	bbe11723          	sh	t5,-1106(sp)

00109f44 <i0000001657>:
  109f44:	4034d4b3          	sra	s1,s1,gp
  109f48:	00c00913          	li	s2,12
  109f4c:	001d0d13          	add	s10,s10,1

00109f50 <b0000001658>:
  109f50:	012d0863          	beq	s10,s2,109f60 <b0000001658+0x10>
  109f54:	00000917          	auipc	s2,0x0
  109f58:	fb490913          	add	s2,s2,-76 # 109f08 <i000000164d>
  109f5c:	00090567          	jalr	a0,s2
  109f60:	00a00d13          	li	s10,10

00109f64 <i0000001658>:
  109f64:	03011f03          	lh	t5,48(sp)

00109f68 <i0000001659>:
  109f68:	8b45b913          	sltiu	s2,a1,-1868

00109f6c <i000000165a>:
  109f6c:	4fe10e23          	sb	t5,1276(sp)

00109f70 <i000000165b>:
  109f70:	6bab5b97          	auipc	s7,0x6bab5

00109f74 <i000000165c>:
  109f74:	414ed3b3          	sra	t2,t4,s4

00109f78 <i000000165d>:
  109f78:	2bd12223          	sw	t4,676(sp)

00109f7c <i000000165e>:
  109f7c:	0a757b13          	and	s6,a0,167

00109f80 <i000000165f>:
  109f80:	11852513          	slti	a0,a0,280

00109f84 <i0000001660>:
  109f84:	9fe15e83          	lhu	t4,-1538(sp)

00109f88 <i0000001661>:
  109f88:	cc2b2013          	slti	zero,s6,-830

00109f8c <i0000001662>:
  109f8c:	5a217597          	auipc	a1,0x5a217

00109f90 <i0000001663>:
  109f90:	3ce11903          	lh	s2,974(sp)

00109f94 <i0000001664>:
  109f94:	41ded4b3          	sra	s1,t4,t4

00109f98 <i0000001665>:
  109f98:	9681ff93          	and	t6,gp,-1688

00109f9c <i0000001666>:
  109f9c:	98f12c23          	sw	a5,-1640(sp)
  109fa0:	00005117          	auipc	sp,0x5
  109fa4:	16010113          	add	sp,sp,352 # 10f100 <mem>
  109fa8:	00041337          	lui	t1,0x41
  109fac:	7f830313          	add	t1,t1,2040 # 417f8 <tohost+0x217f0>
  109fb0:	00610133          	add	sp,sp,t1

00109fb4 <i0000001667>:
  109fb4:	03e10503          	lb	a0,62(sp)
  109fb8:	00005117          	auipc	sp,0x5
  109fbc:	14810113          	add	sp,sp,328 # 10f100 <mem>
  109fc0:	00044337          	lui	t1,0x44
  109fc4:	dd030313          	add	t1,t1,-560 # 43dd0 <tohost+0x23dc8>
  109fc8:	00610133          	add	sp,sp,t1

00109fcc <i0000001668>:
  109fcc:	bd612c23          	sw	s6,-1064(sp)
  109fd0:	00005117          	auipc	sp,0x5
  109fd4:	13010113          	add	sp,sp,304 # 10f100 <mem>
  109fd8:	00026337          	lui	t1,0x26
  109fdc:	80830313          	add	t1,t1,-2040 # 25808 <tohost+0x5800>
  109fe0:	00610133          	add	sp,sp,t1

00109fe4 <i0000001669>:
  109fe4:	f3914003          	lbu	zero,-199(sp)

00109fe8 <i000000166a>:
  109fe8:	6babcf37          	lui	t5,0x6babc
  109fec:	00a00a93          	li	s5,10

00109ff0 <b000000166b>:
  109ff0:	00000033          	add	zero,zero,zero
  109ff4:	fb5d12e3          	bne	s10,s5,109f98 <i0000001665>
  109ff8:	00000033          	add	zero,zero,zero
  109ffc:	00a00d13          	li	s10,10

0010a000 <i000000166b>:
  10a000:	de068f13          	add	t5,a3,-544 # 265144f4 <fromhost+0x2638c4e4>

0010a004 <i000000166c>:
  10a004:	a4015803          	lhu	a6,-1472(sp)

0010a008 <i000000166d>:
  10a008:	40a50933          	sub	s2,a0,a0

0010a00c <i000000166e>:
  10a00c:	fa9b4593          	xor	a1,s6,-87

0010a010 <i000000166f>:
  10a010:	98a12e23          	sw	a0,-1636(sp)

0010a014 <i0000001670>:
  10a014:	80410b23          	sb	tp,-2026(sp)

0010a018 <i0000001671>:
  10a018:	9b912623          	sw	s9,-1620(sp)

0010a01c <i0000001672>:
  10a01c:	7cae3213          	sltiu	tp,t3,1994
  10a020:	00005117          	auipc	sp,0x5
  10a024:	0e010113          	add	sp,sp,224 # 10f100 <mem>
  10a028:	00021337          	lui	t1,0x21
  10a02c:	99830313          	add	t1,t1,-1640 # 20998 <tohost+0x990>
  10a030:	00610133          	add	sp,sp,t1

0010a034 <i0000001673>:
  10a034:	af010883          	lb	a7,-1296(sp)
  10a038:	00005117          	auipc	sp,0x5
  10a03c:	0c810113          	add	sp,sp,200 # 10f100 <mem>
  10a040:	00051337          	lui	t1,0x51
  10a044:	23030313          	add	t1,t1,560 # 51230 <tohost+0x31228>
  10a048:	00610133          	add	sp,sp,t1

0010a04c <i0000001674>:
  10a04c:	1ec12483          	lw	s1,492(sp)

0010a050 <i0000001675>:
  10a050:	000f7033          	and	zero,t5,zero

0010a054 <i0000001676>:
  10a054:	78a2a537          	lui	a0,0x78a2a

0010a058 <i0000001677>:
  10a058:	413b5c93          	sra	s9,s6,0x13

0010a05c <i0000001678>:
  10a05c:	44012e23          	sw	zero,1116(sp)

0010a060 <i0000001679>:
  10a060:	41d55993          	sra	s3,a0,0x1d

0010a064 <i000000167a>:
  10a064:	00321f13          	sll	t5,tp,0x3

0010a068 <i000000167b>:
  10a068:	5e412203          	lw	tp,1508(sp)

0010a06c <i000000167c>:
  10a06c:	42f14f03          	lbu	t5,1071(sp)

0010a070 <i000000167d>:
  10a070:	8c8f3213          	sltiu	tp,t5,-1848
  10a074:	00c00e13          	li	t3,12
  10a078:	001d0d13          	add	s10,s10,1

0010a07c <b000000167e>:
  10a07c:	01cd0863          	beq	s10,t3,10a08c <b000000167e+0x10>
  10a080:	00000e17          	auipc	t3,0x0
  10a084:	fd0e0e13          	add	t3,t3,-48 # 10a050 <i0000001675>
  10a088:	000e0567          	jalr	a0,t3
  10a08c:	00a00d13          	li	s10,10

0010a090 <i000000167e>:
  10a090:	b87b6493          	or	s1,s6,-1145

0010a094 <i000000167f>:
  10a094:	414b5b93          	sra	s7,s6,0x14

0010a098 <i0000001680>:
  10a098:	05914f03          	lbu	t5,89(sp)

0010a09c <i0000001681>:
  10a09c:	00201593          	sll	a1,zero,0x2

0010a0a0 <i0000001682>:
  10a0a0:	00560eb3          	add	t4,a2,t0

0010a0a4 <i0000001683>:
  10a0a4:	00379213          	sll	tp,a5,0x3

0010a0a8 <i0000001684>:
  10a0a8:	84812503          	lw	a0,-1976(sp)

0010a0ac <i0000001685>:
  10a0ac:	00a00033          	add	zero,zero,a0

0010a0b0 <i0000001686>:
  10a0b0:	00de5ab3          	srl	s5,t3,a3

0010a0b4 <i0000001687>:
  10a0b4:	e5c12b03          	lw	s6,-420(sp)

0010a0b8 <i0000001688>:
  10a0b8:	55245017          	auipc	zero,0x55245

0010a0bc <i0000001689>:
  10a0bc:	50a11d23          	sh	a0,1306(sp)

0010a0c0 <i000000168a>:
  10a0c0:	9b012f03          	lw	t5,-1616(sp)

0010a0c4 <i000000168b>:
  10a0c4:	f0a11583          	lh	a1,-246(sp)

0010a0c8 <i000000168c>:
  10a0c8:	26712c23          	sw	t2,632(sp)

0010a0cc <i000000168d>:
  10a0cc:	40fc8b33          	sub	s6,s9,a5

0010a0d0 <i000000168e>:
  10a0d0:	ab854593          	xor	a1,a0,-1352

0010a0d4 <i000000168f>:
  10a0d4:	dbe11223          	sh	t5,-604(sp)

0010a0d8 <i0000001690>:
  10a0d8:	29707213          	and	tp,zero,663
  10a0dc:	00900893          	li	a7,9
  10a0e0:	00a00d13          	li	s10,10

0010a0e4 <b0000001691>:
  10a0e4:	00000033          	add	zero,zero,zero
  10a0e8:	031d4c63          	blt	s10,a7,10a120 <i0000001697>
  10a0ec:	00000033          	add	zero,zero,zero
  10a0f0:	00a00d13          	li	s10,10
  10a0f4:	00005117          	auipc	sp,0x5
  10a0f8:	00c10113          	add	sp,sp,12 # 10f100 <mem>
  10a0fc:	0003c337          	lui	t1,0x3c
  10a100:	0c830313          	add	t1,t1,200 # 3c0c8 <tohost+0x1c0c0>
  10a104:	00610133          	add	sp,sp,t1

0010a108 <i0000001691>:
  10a108:	b0215503          	lhu	a0,-1278(sp)

0010a10c <i0000001692>:
  10a10c:	e2710483          	lb	s1,-473(sp)

0010a110 <i0000001693>:
  10a110:	76ef7a13          	and	s4,t5,1902

0010a114 <i0000001694>:
  10a114:	00450cb3          	add	s9,a0,tp

0010a118 <i0000001695>:
  10a118:	00402233          	sgtz	tp,tp

0010a11c <i0000001696>:
  10a11c:	01c99333          	sll	t1,s3,t3

0010a120 <i0000001697>:
  10a120:	0104ec33          	or	s8,s1,a6

0010a124 <i0000001698>:
  10a124:	02d11a23          	sh	a3,52(sp)
  10a128:	00005117          	auipc	sp,0x5
  10a12c:	fd810113          	add	sp,sp,-40 # 10f100 <mem>
  10a130:	0006e337          	lui	t1,0x6e
  10a134:	98030313          	add	t1,t1,-1664 # 6d980 <tohost+0x4d978>
  10a138:	00610133          	add	sp,sp,t1

0010a13c <i0000001699>:
  10a13c:	17311c23          	sh	s3,376(sp)

0010a140 <i000000169a>:
  10a140:	c6e15903          	lhu	s2,-914(sp)

0010a144 <i000000169b>:
  10a144:	01565e33          	srl	t3,a2,s5

0010a148 <i000000169c>:
  10a148:	aaa12223          	sw	a0,-1372(sp)

0010a14c <i000000169d>:
  10a14c:	72812a83          	lw	s5,1832(sp)

0010a150 <i000000169e>:
  10a150:	17011a03          	lh	s4,368(sp)

0010a154 <i000000169f>:
  10a154:	413adf13          	sra	t5,s5,0x13

0010a158 <i00000016a0>:
  10a158:	409756b3          	sra	a3,a4,s1

0010a15c <i00000016a1>:
  10a15c:	016f4b33          	xor	s6,t5,s6

0010a160 <i00000016a2>:
  10a160:	a0510803          	lb	a6,-1531(sp)

0010a164 <i00000016a3>:
  10a164:	48178217          	auipc	tp,0x48178
  10a168:	00a00913          	li	s2,10

0010a16c <b00000016a4>:
  10a16c:	00000033          	add	zero,zero,zero
  10a170:	fd2d1ce3          	bne	s10,s2,10a148 <i000000169c>
  10a174:	00000033          	add	zero,zero,zero
  10a178:	00a00d13          	li	s10,10

0010a17c <i00000016a4>:
  10a17c:	6be12623          	sw	t5,1708(sp)

0010a180 <i00000016a5>:
  10a180:	2a388b17          	auipc	s6,0x2a388

0010a184 <i00000016a6>:
  10a184:	00451033          	sll	zero,a0,tp

0010a188 <i00000016a7>:
  10a188:	40a00f33          	neg	t5,a0

0010a18c <i00000016a8>:
  10a18c:	47c12b03          	lw	s6,1148(sp)

0010a190 <i00000016a9>:
  10a190:	013f8233          	add	tp,t6,s3

0010a194 <i00000016aa>:
  10a194:	8eb03993          	sltiu	s3,zero,-1813

0010a198 <i00000016ab>:
  10a198:	005ed533          	srl	a0,t4,t0

0010a19c <i00000016ac>:
  10a19c:	016b3b33          	sltu	s6,s6,s6

0010a1a0 <i00000016ad>:
  10a1a0:	004f22b3          	slt	t0,t5,tp

0010a1a4 <i00000016ae>:
  10a1a4:	aa7b6e93          	or	t4,s6,-1369

0010a1a8 <i00000016af>:
  10a1a8:	42914f03          	lbu	t5,1065(sp)

0010a1ac <i00000016b0>:
  10a1ac:	5b011303          	lh	t1,1456(sp)

0010a1b0 <i00000016b1>:
  10a1b0:	fff04f13          	not	t5,zero

0010a1b4 <i00000016b2>:
  10a1b4:	41c40bb3          	sub	s7,s0,t3

0010a1b8 <i00000016b3>:
  10a1b8:	04b82393          	slti	t2,a6,75

0010a1bc <i00000016b4>:
  10a1bc:	1d611f23          	sh	s6,478(sp)

0010a1c0 <i00000016b5>:
  10a1c0:	716b0f13          	add	t5,s6,1814 # 2a492896 <fromhost+0x2a30a886>

0010a1c4 <i00000016b6>:
  10a1c4:	00b35813          	srl	a6,t1,0xb
  10a1c8:	00c00c93          	li	s9,12
  10a1cc:	001d0d13          	add	s10,s10,1

0010a1d0 <b00000016b7>:
  10a1d0:	00000033          	add	zero,zero,zero
  10a1d4:	fd9d4ce3          	blt	s10,s9,10a1ac <i00000016b0>
  10a1d8:	00000033          	add	zero,zero,zero
  10a1dc:	00a00d13          	li	s10,10

0010a1e0 <i00000016b7>:
  10a1e0:	00a53a33          	sltu	s4,a0,a0

0010a1e4 <i00000016b8>:
  10a1e4:	17356517          	auipc	a0,0x17356

0010a1e8 <i00000016b9>:
  10a1e8:	b9d4e993          	or	s3,s1,-1123

0010a1ec <i00000016ba>:
  10a1ec:	63412b83          	lw	s7,1588(sp)

0010a1f0 <i00000016bb>:
  10a1f0:	01589513          	sll	a0,a7,0x15

0010a1f4 <i00000016bc>:
  10a1f4:	00ce2513          	slti	a0,t3,12

0010a1f8 <i00000016bd>:
  10a1f8:	44c11983          	lh	s3,1100(sp)

0010a1fc <i00000016be>:
  10a1fc:	86414283          	lbu	t0,-1948(sp)

0010a200 <i00000016bf>:
  10a200:	45a03917          	auipc	s2,0x45a03

0010a204 <i00000016c0>:
  10a204:	009ea2b3          	slt	t0,t4,s1

0010a208 <i00000016c1>:
  10a208:	01eb4eb3          	xor	t4,s6,t5

0010a20c <i00000016c2>:
  10a20c:	ed211503          	lh	a0,-302(sp)

0010a210 <i00000016c3>:
  10a210:	000b3f33          	sltu	t5,s6,zero

0010a214 <i00000016c4>:
  10a214:	40cad733          	sra	a4,s5,a2

0010a218 <i00000016c5>:
  10a218:	56610223          	sb	t1,1380(sp)

0010a21c <i00000016c6>:
  10a21c:	013f1f93          	sll	t6,t5,0x13

0010a220 <i00000016c7>:
  10a220:	00810e23          	sb	s0,28(sp)

0010a224 <i00000016c8>:
  10a224:	003ecf33          	xor	t5,t4,gp

0010a228 <i00000016c9>:
  10a228:	57a87213          	and	tp,a6,1402
  10a22c:	00900f93          	li	t6,9

0010a230 <b00000016ca>:
  10a230:	00000033          	add	zero,zero,zero
  10a234:	fdafd6e3          	bge	t6,s10,10a200 <i00000016bf>
  10a238:	00000033          	add	zero,zero,zero
  10a23c:	00a00d13          	li	s10,10

0010a240 <i00000016ca>:
  10a240:	40a8d893          	sra	a7,a7,0xa

0010a244 <i00000016cb>:
  10a244:	ee411b23          	sh	tp,-266(sp)

0010a248 <i00000016cc>:
  10a248:	8b911c23          	sh	s9,-1864(sp)

0010a24c <i00000016cd>:
  10a24c:	74d107a3          	sb	a3,1871(sp)

0010a250 <i00000016ce>:
  10a250:	b9b14903          	lbu	s2,-1125(sp)

0010a254 <i00000016cf>:
  10a254:	084b8217          	auipc	tp,0x84b8

0010a258 <i00000016d0>:
  10a258:	1b412583          	lw	a1,436(sp)

0010a25c <i00000016d1>:
  10a25c:	41c7d033          	sra	zero,a5,t3

0010a260 <i00000016d2>:
  10a260:	377e7b13          	and	s6,t3,887

0010a264 <i00000016d3>:
  10a264:	40a50033          	sub	zero,a0,a0

0010a268 <i00000016d4>:
  10a268:	fd154f13          	xor	t5,a0,-47

0010a26c <i00000016d5>:
  10a26c:	18a10523          	sb	a0,394(sp)

0010a270 <i00000016d6>:
  10a270:	d1011723          	sh	a6,-754(sp)

0010a274 <i00000016d7>:
  10a274:	d6c12e23          	sw	a2,-644(sp)

0010a278 <i00000016d8>:
  10a278:	01e27b33          	and	s6,tp,t5

0010a27c <i00000016d9>:
  10a27c:	cf714003          	lbu	zero,-777(sp)

0010a280 <i00000016da>:
  10a280:	00af31b3          	sltu	gp,t5,a0

0010a284 <i00000016db>:
  10a284:	9aa12a23          	sw	a0,-1612(sp)

0010a288 <i00000016dc>:
  10a288:	4c1b2013          	slti	zero,s6,1217
  10a28c:	00000e13          	li	t3,0

0010a290 <b00000016dd>:
  10a290:	00000033          	add	zero,zero,zero
  10a294:	fdcd0ae3          	beq	s10,t3,10a268 <i00000016d4>
  10a298:	00000033          	add	zero,zero,zero
  10a29c:	00a00d13          	li	s10,10

0010a2a0 <i00000016dd>:
  10a2a0:	41e20933          	sub	s2,tp,t5

0010a2a4 <i00000016de>:
  10a2a4:	6aa11e23          	sh	a0,1724(sp)

0010a2a8 <i00000016df>:
  10a2a8:	004b36b3          	sltu	a3,s6,tp
  10a2ac:	00005117          	auipc	sp,0x5
  10a2b0:	e5410113          	add	sp,sp,-428 # 10f100 <mem>
  10a2b4:	0002d337          	lui	t1,0x2d
  10a2b8:	7a030313          	add	t1,t1,1952 # 2d7a0 <tohost+0xd798>
  10a2bc:	00610133          	add	sp,sp,t1

0010a2c0 <i00000016e0>:
  10a2c0:	74a10e83          	lb	t4,1866(sp)
  10a2c4:	00005117          	auipc	sp,0x5
  10a2c8:	e3c10113          	add	sp,sp,-452 # 10f100 <mem>
  10a2cc:	00053337          	lui	t1,0x53
  10a2d0:	1e030313          	add	t1,t1,480 # 531e0 <tohost+0x331d8>
  10a2d4:	00610133          	add	sp,sp,t1

0010a2d8 <i00000016e1>:
  10a2d8:	ad012a23          	sw	a6,-1324(sp)

0010a2dc <i00000016e2>:
  10a2dc:	73812e23          	sw	s8,1852(sp)

0010a2e0 <i00000016e3>:
  10a2e0:	41f6d213          	sra	tp,a3,0x1f

0010a2e4 <i00000016e4>:
  10a2e4:	35237213          	and	tp,t1,850

0010a2e8 <i00000016e5>:
  10a2e8:	74611b03          	lh	s6,1862(sp)

0010a2ec <i00000016e6>:
  10a2ec:	40425cb3          	sra	s9,tp,tp

0010a2f0 <i00000016e7>:
  10a2f0:	f1c12203          	lw	tp,-228(sp)

0010a2f4 <i00000016e8>:
  10a2f4:	01c9db93          	srl	s7,s3,0x1c

0010a2f8 <i00000016e9>:
  10a2f8:	2f550413          	add	s0,a0,757 # 174604d9 <fromhost+0x172d84c9>

0010a2fc <i00000016ea>:
  10a2fc:	509105a3          	sb	s1,1291(sp)

0010a300 <i00000016eb>:
  10a300:	79c12703          	lw	a4,1948(sp)

0010a304 <i00000016ec>:
  10a304:	f6815783          	lhu	a5,-152(sp)

0010a308 <i00000016ed>:
  10a308:	b5412003          	lw	zero,-1196(sp)

0010a30c <i00000016ee>:
  10a30c:	41348e33          	sub	t3,s1,s3

0010a310 <i00000016ef>:
  10a310:	01651b33          	sll	s6,a0,s6
  10a314:	00c00d93          	li	s11,12
  10a318:	001d0d13          	add	s10,s10,1

0010a31c <b00000016f0>:
  10a31c:	01bd0863          	beq	s10,s11,10a32c <b00000016f0+0x10>
  10a320:	00000d97          	auipc	s11,0x0
  10a324:	fc8d8d93          	add	s11,s11,-56 # 10a2e8 <i00000016e5>
  10a328:	000d8567          	jalr	a0,s11
  10a32c:	00a00d13          	li	s10,10

0010a330 <i00000016f0>:
  10a330:	fac11683          	lh	a3,-84(sp)

0010a334 <i00000016f1>:
  10a334:	9d6f2513          	slti	a0,t5,-1578

0010a338 <i00000016f2>:
  10a338:	ff015803          	lhu	a6,-16(sp)
  10a33c:	00005117          	auipc	sp,0x5
  10a340:	dc410113          	add	sp,sp,-572 # 10f100 <mem>
  10a344:	00035337          	lui	t1,0x35
  10a348:	d1030313          	add	t1,t1,-752 # 34d10 <tohost+0x14d08>
  10a34c:	00610133          	add	sp,sp,t1

0010a350 <i00000016f3>:
  10a350:	11c10203          	lb	tp,284(sp)

0010a354 <i00000016f4>:
  10a354:	10a83693          	sltiu	a3,a6,266

0010a358 <i00000016f5>:
  10a358:	0057de93          	srl	t4,a5,0x5

0010a35c <i00000016f6>:
  10a35c:	61e101a3          	sb	t5,1539(sp)

0010a360 <i00000016f7>:
  10a360:	00fa75b3          	and	a1,s4,a5

0010a364 <i00000016f8>:
  10a364:	90c12b03          	lw	s6,-1780(sp)

0010a368 <i00000016f9>:
  10a368:	00921d93          	sll	s11,tp,0x9

0010a36c <i00000016fa>:
  10a36c:	6ca12223          	sw	a0,1732(sp)

0010a370 <i00000016fb>:
  10a370:	cab10803          	lb	a6,-853(sp)
  10a374:	00005117          	auipc	sp,0x5
  10a378:	d8c10113          	add	sp,sp,-628 # 10f100 <mem>
  10a37c:	00012337          	lui	t1,0x12
  10a380:	05830313          	add	t1,t1,88 # 12058 <_stack_len+0xa058>
  10a384:	00610133          	add	sp,sp,t1

0010a388 <i00000016fc>:
  10a388:	9d210f03          	lb	t5,-1582(sp)

0010a38c <i00000016fd>:
  10a38c:	c52f2213          	slti	tp,t5,-942

0010a390 <i00000016fe>:
  10a390:	b4012503          	lw	a0,-1216(sp)
  10a394:	00005117          	auipc	sp,0x5
  10a398:	d6c10113          	add	sp,sp,-660 # 10f100 <mem>
  10a39c:	00049337          	lui	t1,0x49
  10a3a0:	2b830313          	add	t1,t1,696 # 492b8 <tohost+0x292b0>
  10a3a4:	00610133          	add	sp,sp,t1

0010a3a8 <i00000016ff>:
  10a3a8:	13514203          	lbu	tp,309(sp)

0010a3ac <i0000001700>:
  10a3ac:	40ff5b13          	sra	s6,t5,0xf

0010a3b0 <i0000001701>:
  10a3b0:	00d4f433          	and	s0,s1,a3

0010a3b4 <i0000001702>:
  10a3b4:	f9a15f03          	lhu	t5,-102(sp)
  10a3b8:	00000b93          	li	s7,0

0010a3bc <b0000001703>:
  10a3bc:	00000033          	add	zero,zero,zero
  10a3c0:	057d0a63          	beq	s10,s7,10a414 <i0000001710>
  10a3c4:	00000033          	add	zero,zero,zero
  10a3c8:	00a00d13          	li	s10,10

0010a3cc <i0000001703>:
  10a3cc:	414e5313          	sra	t1,t3,0x14

0010a3d0 <i0000001704>:
  10a3d0:	3b0fb217          	auipc	tp,0x3b0fb

0010a3d4 <i0000001705>:
  10a3d4:	41d8db13          	sra	s6,a7,0x1d

0010a3d8 <i0000001706>:
  10a3d8:	005b5513          	srl	a0,s6,0x5

0010a3dc <i0000001707>:
  10a3dc:	4da14203          	lbu	tp,1242(sp)

0010a3e0 <i0000001708>:
  10a3e0:	0f114503          	lbu	a0,241(sp)

0010a3e4 <i0000001709>:
  10a3e4:	01ef5a33          	srl	s4,t5,t5

0010a3e8 <i000000170a>:
  10a3e8:	40e25f13          	sra	t5,tp,0xe
  10a3ec:	00005117          	auipc	sp,0x5
  10a3f0:	d1410113          	add	sp,sp,-748 # 10f100 <mem>
  10a3f4:	0004b337          	lui	t1,0x4b
  10a3f8:	ca830313          	add	t1,t1,-856 # 4aca8 <tohost+0x2aca0>
  10a3fc:	00610133          	add	sp,sp,t1

0010a400 <i000000170b>:
  10a400:	76011523          	sh	zero,1898(sp)

0010a404 <i000000170c>:
  10a404:	20415c03          	lhu	s8,516(sp)

0010a408 <i000000170d>:
  10a408:	016b21b3          	slt	gp,s6,s6

0010a40c <i000000170e>:
  10a40c:	6a411323          	sh	tp,1702(sp)

0010a410 <i000000170f>:
  10a410:	82012503          	lw	a0,-2016(sp)

0010a414 <i0000001710>:
  10a414:	44054213          	xor	tp,a0,1088

0010a418 <i0000001711>:
  10a418:	00d55b13          	srl	s6,a0,0xd

0010a41c <i0000001712>:
  10a41c:	de410203          	lb	tp,-540(sp)

0010a420 <i0000001713>:
  10a420:	7b015b03          	lhu	s6,1968(sp)

0010a424 <i0000001714>:
  10a424:	013589b3          	add	s3,a1,s3

0010a428 <i0000001715>:
  10a428:	8ddb2f13          	slti	t5,s6,-1827
  10a42c:	00c00c13          	li	s8,12
  10a430:	001d0d13          	add	s10,s10,1

0010a434 <b0000001716>:
  10a434:	018d0463          	beq	s10,s8,10a43c <b0000001716+0x8>
  10a438:	fc9ff56f          	jal	a0,10a400 <i000000170b>
  10a43c:	00a00d13          	li	s10,10

0010a440 <i0000001716>:
  10a440:	e1e11323          	sh	t5,-506(sp)

0010a444 <i0000001717>:
  10a444:	12611b03          	lh	s6,294(sp)
  10a448:	00005117          	auipc	sp,0x5
  10a44c:	cb810113          	add	sp,sp,-840 # 10f100 <mem>
  10a450:	00029337          	lui	t1,0x29
  10a454:	39030313          	add	t1,t1,912 # 29390 <tohost+0x9388>
  10a458:	00610133          	add	sp,sp,t1

0010a45c <i0000001718>:
  10a45c:	10614503          	lbu	a0,262(sp)

0010a460 <i0000001719>:
  10a460:	ba314883          	lbu	a7,-1117(sp)

0010a464 <i000000171a>:
  10a464:	f3462293          	slti	t0,a2,-204

0010a468 <i000000171b>:
  10a468:	000b4b33          	xor	s6,s6,zero

0010a46c <i000000171c>:
  10a46c:	12e15203          	lhu	tp,302(sp)

0010a470 <i000000171d>:
  10a470:	c5d10503          	lb	a0,-931(sp)

0010a474 <i000000171e>:
  10a474:	40c25793          	sra	a5,tp,0xc

0010a478 <i000000171f>:
  10a478:	00b43f33          	sltu	t5,s0,a1
  10a47c:	00005117          	auipc	sp,0x5
  10a480:	c8410113          	add	sp,sp,-892 # 10f100 <mem>
  10a484:	00025337          	lui	t1,0x25
  10a488:	78830313          	add	t1,t1,1928 # 25788 <tohost+0x5780>
  10a48c:	00610133          	add	sp,sp,t1

0010a490 <i0000001720>:
  10a490:	0aa11823          	sh	a0,176(sp)

0010a494 <i0000001721>:
  10a494:	00a267b3          	or	a5,tp,a0

0010a498 <i0000001722>:
  10a498:	00721013          	sll	zero,tp,0x7

0010a49c <i0000001723>:
  10a49c:	00bdda93          	srl	s5,s11,0xb

0010a4a0 <i0000001724>:
  10a4a0:	be17eb13          	or	s6,a5,-1055

0010a4a4 <i0000001725>:
  10a4a4:	b6eb2713          	slti	a4,s6,-1170

0010a4a8 <i0000001726>:
  10a4a8:	cc222213          	slti	tp,tp,-830

0010a4ac <i0000001727>:
  10a4ac:	c8412783          	lw	a5,-892(sp)

0010a4b0 <i0000001728>:
  10a4b0:	05811183          	lh	gp,88(sp)
  10a4b4:	00c00f93          	li	t6,12
  10a4b8:	001d0d13          	add	s10,s10,1

0010a4bc <b0000001729>:
  10a4bc:	00000033          	add	zero,zero,zero
  10a4c0:	fbafd4e3          	bge	t6,s10,10a468 <i000000171b>
  10a4c4:	00000033          	add	zero,zero,zero
  10a4c8:	00a00d13          	li	s10,10

0010a4cc <i0000001729>:
  10a4cc:	013fa8b3          	slt	a7,t6,s3

0010a4d0 <i000000172a>:
  10a4d0:	40450db3          	sub	s11,a0,tp

0010a4d4 <i000000172b>:
  10a4d4:	59eb3537          	lui	a0,0x59eb3

0010a4d8 <i000000172c>:
  10a4d8:	832f3493          	sltiu	s1,t5,-1998

0010a4dc <i000000172d>:
  10a4dc:	09510583          	lb	a1,149(sp)
  10a4e0:	00005117          	auipc	sp,0x5
  10a4e4:	c2010113          	add	sp,sp,-992 # 10f100 <mem>
  10a4e8:	00018337          	lui	t1,0x18
  10a4ec:	c5830313          	add	t1,t1,-936 # 17c58 <_stack_len+0xfc58>
  10a4f0:	00610133          	add	sp,sp,t1

0010a4f4 <i000000172e>:
  10a4f4:	f3010503          	lb	a0,-208(sp)

0010a4f8 <i000000172f>:
  10a4f8:	4ee11e23          	sh	a4,1276(sp)

0010a4fc <i0000001730>:
  10a4fc:	cec12903          	lw	s2,-788(sp)

0010a500 <i0000001731>:
  10a500:	b7314003          	lbu	zero,-1165(sp)
  10a504:	00005117          	auipc	sp,0x5
  10a508:	bfc10113          	add	sp,sp,-1028 # 10f100 <mem>
  10a50c:	00045337          	lui	t1,0x45
  10a510:	51830313          	add	t1,t1,1304 # 45518 <tohost+0x25510>
  10a514:	00610133          	add	sp,sp,t1

0010a518 <i0000001732>:
  10a518:	10612023          	sw	t1,256(sp)

0010a51c <i0000001733>:
  10a51c:	40a508b3          	sub	a7,a0,a0

0010a520 <i0000001734>:
  10a520:	46e15783          	lhu	a5,1134(sp)

0010a524 <i0000001735>:
  10a524:	01b25413          	srl	s0,tp,0x1b

0010a528 <i0000001736>:
  10a528:	417c8ab3          	sub	s5,s9,s7

0010a52c <i0000001737>:
  10a52c:	34a11e23          	sh	a0,860(sp)

0010a530 <i0000001738>:
  10a530:	9f812583          	lw	a1,-1544(sp)

0010a534 <i0000001739>:
  10a534:	3c8f2c93          	slti	s9,t5,968
  10a538:	00005117          	auipc	sp,0x5
  10a53c:	bc810113          	add	sp,sp,-1080 # 10f100 <mem>
  10a540:	00039337          	lui	t1,0x39
  10a544:	bd830313          	add	t1,t1,-1064 # 38bd8 <tohost+0x18bd0>
  10a548:	00610133          	add	sp,sp,t1

0010a54c <i000000173a>:
  10a54c:	ce6109a3          	sb	t1,-781(sp)

0010a550 <i000000173b>:
  10a550:	8f450213          	add	tp,a0,-1804 # 59eb28f4 <fromhost+0x59d2a8e4>
  10a554:	00a00893          	li	a7,10

0010a558 <b000000173c>:
  10a558:	00000033          	add	zero,zero,zero
  10a55c:	031d0c63          	beq	s10,a7,10a594 <i0000001742>
  10a560:	00000033          	add	zero,zero,zero
  10a564:	00a00d13          	li	s10,10

0010a568 <i000000173c>:
  10a568:	6d283193          	sltiu	gp,a6,1746

0010a56c <i000000173d>:
  10a56c:	17410583          	lb	a1,372(sp)

0010a570 <i000000173e>:
  10a570:	29114483          	lbu	s1,657(sp)

0010a574 <i000000173f>:
  10a574:	00ef1a93          	sll	s5,t5,0xe
  10a578:	00005117          	auipc	sp,0x5
  10a57c:	b8810113          	add	sp,sp,-1144 # 10f100 <mem>
  10a580:	00039337          	lui	t1,0x39
  10a584:	e8830313          	add	t1,t1,-376 # 38e88 <tohost+0x18e80>
  10a588:	00610133          	add	sp,sp,t1

0010a58c <i0000001740>:
  10a58c:	8fb10c23          	sb	s11,-1800(sp)

0010a590 <i0000001741>:
  10a590:	58815b03          	lhu	s6,1416(sp)

0010a594 <i0000001742>:
  10a594:	db615303          	lhu	t1,-586(sp)

0010a598 <i0000001743>:
  10a598:	00bddf13          	srl	t5,s11,0xb

0010a59c <i0000001744>:
  10a59c:	01d87a33          	and	s4,a6,t4

0010a5a0 <i0000001745>:
  10a5a0:	0106b8b3          	sltu	a7,a3,a6

0010a5a4 <i0000001746>:
  10a5a4:	31610223          	sb	s6,772(sp)

0010a5a8 <i0000001747>:
  10a5a8:	1897d717          	auipc	a4,0x1897d

0010a5ac <i0000001748>:
  10a5ac:	00e85c33          	srl	s8,a6,a4
  10a5b0:	00005117          	auipc	sp,0x5
  10a5b4:	b5010113          	add	sp,sp,-1200 # 10f100 <mem>
  10a5b8:	00047337          	lui	t1,0x47
  10a5bc:	bc030313          	add	t1,t1,-1088 # 46bc0 <tohost+0x26bb8>
  10a5c0:	00610133          	add	sp,sp,t1

0010a5c4 <i0000001749>:
  10a5c4:	15a11b03          	lh	s6,346(sp)

0010a5c8 <i000000174a>:
  10a5c8:	5a412823          	sw	tp,1456(sp)

0010a5cc <i000000174b>:
  10a5cc:	000f2ab3          	sltz	s5,t5
  10a5d0:	00005117          	auipc	sp,0x5
  10a5d4:	b3010113          	add	sp,sp,-1232 # 10f100 <mem>
  10a5d8:	0005f337          	lui	t1,0x5f
  10a5dc:	29030313          	add	t1,t1,656 # 5f290 <tohost+0x3f288>
  10a5e0:	00610133          	add	sp,sp,t1

0010a5e4 <i000000174c>:
  10a5e4:	36215b83          	lhu	s7,866(sp)

0010a5e8 <i000000174d>:
  10a5e8:	00002333          	sltz	t1,zero

0010a5ec <i000000174e>:
  10a5ec:	e0012383          	lw	t2,-512(sp)
  10a5f0:	00a00a93          	li	s5,10

0010a5f4 <b000000174f>:
  10a5f4:	015d0863          	beq	s10,s5,10a604 <b000000174f+0x10>
  10a5f8:	00000a97          	auipc	s5,0x0
  10a5fc:	fb4a8a93          	add	s5,s5,-76 # 10a5ac <i0000001748>
  10a600:	000a8567          	jalr	a0,s5
  10a604:	00a00d13          	li	s10,10

0010a608 <i000000174f>:
  10a608:	40a55513          	sra	a0,a0,0xa

0010a60c <i0000001750>:
  10a60c:	83c15883          	lhu	a7,-1988(sp)
  10a610:	00005117          	auipc	sp,0x5
  10a614:	af010113          	add	sp,sp,-1296 # 10f100 <mem>
  10a618:	00038337          	lui	t1,0x38
  10a61c:	68830313          	add	t1,t1,1672 # 38688 <tohost+0x18680>
  10a620:	00610133          	add	sp,sp,t1

0010a624 <i0000001751>:
  10a624:	b7211023          	sh	s2,-1184(sp)

0010a628 <i0000001752>:
  10a628:	90c12223          	sw	a2,-1788(sp)

0010a62c <i0000001753>:
  10a62c:	67611f23          	sh	s6,1662(sp)
  10a630:	00005117          	auipc	sp,0x5
  10a634:	ad010113          	add	sp,sp,-1328 # 10f100 <mem>
  10a638:	00052337          	lui	t1,0x52
  10a63c:	ed030313          	add	t1,t1,-304 # 51ed0 <tohost+0x31ec8>
  10a640:	00610133          	add	sp,sp,t1

0010a644 <i0000001754>:
  10a644:	de410023          	sb	tp,-544(sp)

0010a648 <i0000001755>:
  10a648:	01094b33          	xor	s6,s2,a6

0010a64c <i0000001756>:
  10a64c:	ef012183          	lw	gp,-272(sp)
  10a650:	00005117          	auipc	sp,0x5
  10a654:	ab010113          	add	sp,sp,-1360 # 10f100 <mem>
  10a658:	00019337          	lui	t1,0x19
  10a65c:	34830313          	add	t1,t1,840 # 19348 <_stack_len+0x11348>
  10a660:	00610133          	add	sp,sp,t1

0010a664 <i0000001757>:
  10a664:	f8412203          	lw	tp,-124(sp)

0010a668 <i0000001758>:
  10a668:	41965f33          	sra	t5,a2,s9

0010a66c <i0000001759>:
  10a66c:	60506493          	or	s1,zero,1541

0010a670 <i000000175a>:
  10a670:	e2811d83          	lh	s11,-472(sp)

0010a674 <i000000175b>:
  10a674:	01650237          	lui	tp,0x1650

0010a678 <i000000175c>:
  10a678:	9097b193          	sltiu	gp,a5,-1783

0010a67c <i000000175d>:
  10a67c:	404b0b33          	sub	s6,s6,tp

0010a680 <i000000175e>:
  10a680:	a4011b03          	lh	s6,-1472(sp)

0010a684 <i000000175f>:
  10a684:	0fe15b03          	lhu	s6,254(sp)

0010a688 <i0000001760>:
  10a688:	69412223          	sw	s4,1668(sp)
  10a68c:	00005117          	auipc	sp,0x5
  10a690:	a7410113          	add	sp,sp,-1420 # 10f100 <mem>
  10a694:	0003e337          	lui	t1,0x3e
  10a698:	79830313          	add	t1,t1,1944 # 3e798 <tohost+0x1e790>
  10a69c:	00610133          	add	sp,sp,t1

0010a6a0 <i0000001761>:
  10a6a0:	88a11503          	lh	a0,-1910(sp)
  10a6a4:	00c00d93          	li	s11,12
  10a6a8:	001d0d13          	add	s10,s10,1

0010a6ac <b0000001762>:
  10a6ac:	00000033          	add	zero,zero,zero
  10a6b0:	fbaddce3          	bge	s11,s10,10a668 <i0000001758>
  10a6b4:	00000033          	add	zero,zero,zero
  10a6b8:	00a00d13          	li	s10,10

0010a6bc <i0000001762>:
  10a6bc:	01ef3b33          	sltu	s6,t5,t5

0010a6c0 <i0000001763>:
  10a6c0:	01787db3          	and	s11,a6,s7
  10a6c4:	00005117          	auipc	sp,0x5
  10a6c8:	a3c10113          	add	sp,sp,-1476 # 10f100 <mem>
  10a6cc:	00059337          	lui	t1,0x59
  10a6d0:	68030313          	add	t1,t1,1664 # 59680 <tohost+0x39678>
  10a6d4:	00610133          	add	sp,sp,t1

0010a6d8 <i0000001764>:
  10a6d8:	e6114583          	lbu	a1,-415(sp)
  10a6dc:	00005117          	auipc	sp,0x5
  10a6e0:	a2410113          	add	sp,sp,-1500 # 10f100 <mem>
  10a6e4:	0002c337          	lui	t1,0x2c
  10a6e8:	35830313          	add	t1,t1,856 # 2c358 <tohost+0xc350>
  10a6ec:	00610133          	add	sp,sp,t1

0010a6f0 <i0000001765>:
  10a6f0:	47812b03          	lw	s6,1144(sp)

0010a6f4 <i0000001766>:
  10a6f4:	82a10aa3          	sb	a0,-1995(sp)

0010a6f8 <i0000001767>:
  10a6f8:	00548b33          	add	s6,s1,t0

0010a6fc <i0000001768>:
  10a6fc:	4f222e13          	slti	t3,tp,1266

0010a700 <i0000001769>:
  10a700:	bb114203          	lbu	tp,-1103(sp)

0010a704 <i000000176a>:
  10a704:	01948233          	add	tp,s1,s9

0010a708 <i000000176b>:
  10a708:	0e411923          	sh	tp,242(sp)

0010a70c <i000000176c>:
  10a70c:	f0e11923          	sh	a4,-238(sp)

0010a710 <i000000176d>:
  10a710:	35812003          	lw	zero,856(sp)

0010a714 <i000000176e>:
  10a714:	78118f37          	lui	t5,0x78118

0010a718 <i000000176f>:
  10a718:	0aa12023          	sw	a0,160(sp)

0010a71c <i0000001770>:
  10a71c:	6e6a8f17          	auipc	t5,0x6e6a8

0010a720 <i0000001771>:
  10a720:	6e5406b7          	lui	a3,0x6e540

0010a724 <i0000001772>:
  10a724:	0085feb3          	and	t4,a1,s0

0010a728 <i0000001773>:
  10a728:	000f63b3          	or	t2,t5,zero

0010a72c <i0000001774>:
  10a72c:	78af2213          	slti	tp,t5,1930
  10a730:	00900a13          	li	s4,9

0010a734 <b0000001775>:
  10a734:	00000033          	add	zero,zero,zero
  10a738:	fd4d40e3          	blt	s10,s4,10a6f8 <i0000001767>
  10a73c:	00000033          	add	zero,zero,zero
  10a740:	00a00d13          	li	s10,10

0010a744 <i0000001775>:
  10a744:	3e812503          	lw	a0,1000(sp)

0010a748 <i0000001776>:
  10a748:	58e14003          	lbu	zero,1422(sp)

0010a74c <i0000001777>:
  10a74c:	01a41b13          	sll	s6,s0,0x1a

0010a750 <i0000001778>:
  10a750:	80714e03          	lbu	t3,-2041(sp)

0010a754 <i0000001779>:
  10a754:	f6811f83          	lh	t6,-152(sp)

0010a758 <i000000177a>:
  10a758:	00455393          	srl	t2,a0,0x4

0010a75c <i000000177b>:
  10a75c:	91afe213          	or	tp,t6,-1766

0010a760 <i000000177c>:
  10a760:	43c10d83          	lb	s11,1084(sp)

0010a764 <i000000177d>:
  10a764:	5f612423          	sw	s6,1512(sp)

0010a768 <i000000177e>:
  10a768:	a2110483          	lb	s1,-1503(sp)

0010a76c <i000000177f>:
  10a76c:	4cf10003          	lb	zero,1231(sp)

0010a770 <i0000001780>:
  10a770:	00a24733          	xor	a4,tp,a0

0010a774 <i0000001781>:
  10a774:	e5211a83          	lh	s5,-430(sp)
  10a778:	00005117          	auipc	sp,0x5
  10a77c:	98810113          	add	sp,sp,-1656 # 10f100 <mem>
  10a780:	0005b337          	lui	t1,0x5b
  10a784:	29030313          	add	t1,t1,656 # 5b290 <tohost+0x3b288>
  10a788:	00610133          	add	sp,sp,t1

0010a78c <i0000001782>:
  10a78c:	e8c12203          	lw	tp,-372(sp)
  10a790:	00005117          	auipc	sp,0x5
  10a794:	97010113          	add	sp,sp,-1680 # 10f100 <mem>
  10a798:	00018337          	lui	t1,0x18
  10a79c:	39030313          	add	t1,t1,912 # 18390 <_stack_len+0x10390>
  10a7a0:	00610133          	add	sp,sp,t1

0010a7a4 <i0000001783>:
  10a7a4:	c2b14f03          	lbu	t5,-981(sp)

0010a7a8 <i0000001784>:
  10a7a8:	01367533          	and	a0,a2,s3

0010a7ac <i0000001785>:
  10a7ac:	2d812f83          	lw	t6,728(sp)

0010a7b0 <i0000001786>:
  10a7b0:	016b58b3          	srl	a7,s6,s6

0010a7b4 <i0000001787>:
  10a7b4:	419fdc33          	sra	s8,t6,s9
  10a7b8:	00a00b93          	li	s7,10

0010a7bc <b0000001788>:
  10a7bc:	00000033          	add	zero,zero,zero
  10a7c0:	fb7d18e3          	bne	s10,s7,10a770 <i0000001780>
  10a7c4:	00000033          	add	zero,zero,zero
  10a7c8:	00a00d13          	li	s10,10

0010a7cc <i0000001788>:
  10a7cc:	03611f23          	sh	s6,62(sp)

0010a7d0 <i0000001789>:
  10a7d0:	0106d033          	srl	zero,a3,a6

0010a7d4 <i000000178a>:
  10a7d4:	97d52813          	slti	a6,a0,-1667

0010a7d8 <i000000178b>:
  10a7d8:	404201b3          	sub	gp,tp,tp
  10a7dc:	00005117          	auipc	sp,0x5
  10a7e0:	92410113          	add	sp,sp,-1756 # 10f100 <mem>
  10a7e4:	00066337          	lui	t1,0x66
  10a7e8:	04030313          	add	t1,t1,64 # 66040 <tohost+0x46038>
  10a7ec:	00610133          	add	sp,sp,t1

0010a7f0 <i000000178c>:
  10a7f0:	df912023          	sw	s9,-544(sp)

0010a7f4 <i000000178d>:
  10a7f4:	72211183          	lh	gp,1826(sp)

0010a7f8 <i000000178e>:
  10a7f8:	01e23333          	sltu	t1,tp,t5

0010a7fc <i000000178f>:
  10a7fc:	01fa9513          	sll	a0,s5,0x1f

0010a800 <i0000001790>:
  10a800:	15e15503          	lhu	a0,350(sp)

0010a804 <i0000001791>:
  10a804:	f2410f23          	sb	tp,-194(sp)

0010a808 <i0000001792>:
  10a808:	008a1f13          	sll	t5,s4,0x8

0010a80c <i0000001793>:
  10a80c:	16012823          	sw	zero,368(sp)

0010a810 <i0000001794>:
  10a810:	73426b17          	auipc	s6,0x73426

0010a814 <i0000001795>:
  10a814:	81710803          	lb	a6,-2025(sp)
  10a818:	00005117          	auipc	sp,0x5
  10a81c:	8e810113          	add	sp,sp,-1816 # 10f100 <mem>
  10a820:	00045337          	lui	t1,0x45
  10a824:	75830313          	add	t1,t1,1880 # 45758 <tohost+0x25750>
  10a828:	00610133          	add	sp,sp,t1

0010a82c <i0000001796>:
  10a82c:	69011c03          	lh	s8,1680(sp)

0010a830 <i0000001797>:
  10a830:	41e25fb3          	sra	t6,tp,t5

0010a834 <i0000001798>:
  10a834:	f63cf313          	and	t1,s9,-157

0010a838 <i0000001799>:
  10a838:	4115d013          	sra	zero,a1,0x11

0010a83c <i000000179a>:
  10a83c:	408e8733          	sub	a4,t4,s0
  10a840:	00c00c13          	li	s8,12
  10a844:	001d0d13          	add	s10,s10,1

0010a848 <b000000179b>:
  10a848:	018d0463          	beq	s10,s8,10a850 <b000000179b+0x8>
  10a84c:	fc1ff56f          	jal	a0,10a80c <i0000001793>
  10a850:	00a00d13          	li	s10,10

0010a854 <i000000179b>:
  10a854:	f2810b03          	lb	s6,-216(sp)

0010a858 <i000000179c>:
  10a858:	01e06233          	or	tp,zero,t5

0010a85c <i000000179d>:
  10a85c:	f8514883          	lbu	a7,-123(sp)

0010a860 <i000000179e>:
  10a860:	01035013          	srl	zero,t1,0x10

0010a864 <i000000179f>:
  10a864:	3a412c23          	sw	tp,952(sp)

0010a868 <i00000017a0>:
  10a868:	01293033          	sltu	zero,s2,s2
  10a86c:	00005117          	auipc	sp,0x5
  10a870:	89410113          	add	sp,sp,-1900 # 10f100 <mem>
  10a874:	0000c337          	lui	t1,0xc
  10a878:	60030313          	add	t1,t1,1536 # c600 <_stack_len+0x4600>
  10a87c:	00610133          	add	sp,sp,t1

0010a880 <i00000017a1>:
  10a880:	d5e11523          	sh	t5,-694(sp)

0010a884 <i00000017a2>:
  10a884:	40730533          	sub	a0,t1,t2

0010a888 <i00000017a3>:
  10a888:	5f8af237          	lui	tp,0x5f8af

0010a88c <i00000017a4>:
  10a88c:	31653c93          	sltiu	s9,a0,790

0010a890 <i00000017a5>:
  10a890:	ae8cc593          	xor	a1,s9,-1304

0010a894 <i00000017a6>:
  10a894:	320109a3          	sb	zero,819(sp)

0010a898 <i00000017a7>:
  10a898:	d9110f83          	lb	t6,-623(sp)

0010a89c <i00000017a8>:
  10a89c:	92215203          	lhu	tp,-1758(sp)

0010a8a0 <i00000017a9>:
  10a8a0:	7a412183          	lw	gp,1956(sp)

0010a8a4 <i00000017aa>:
  10a8a4:	414a5033          	sra	zero,s4,s4

0010a8a8 <i00000017ab>:
  10a8a8:	45d98b93          	add	s7,s3,1117

0010a8ac <i00000017ac>:
  10a8ac:	40020533          	sub	a0,tp,zero
  10a8b0:	00005117          	auipc	sp,0x5
  10a8b4:	85010113          	add	sp,sp,-1968 # 10f100 <mem>
  10a8b8:	00041337          	lui	t1,0x41
  10a8bc:	36830313          	add	t1,t1,872 # 41368 <tohost+0x21360>
  10a8c0:	00610133          	add	sp,sp,t1

0010a8c4 <i00000017ad>:
  10a8c4:	7ad10e83          	lb	t4,1965(sp)
  10a8c8:	00c00913          	li	s2,12
  10a8cc:	001d0d13          	add	s10,s10,1

0010a8d0 <b00000017ae>:
  10a8d0:	012d0463          	beq	s10,s2,10a8d8 <b00000017ae+0x8>
  10a8d4:	fadff56f          	jal	a0,10a880 <i00000017a1>
  10a8d8:	00a00d13          	li	s10,10

0010a8dc <i00000017ae>:
  10a8dc:	003adb33          	srl	s6,s5,gp

0010a8e0 <i00000017af>:
  10a8e0:	d4a5b013          	sltiu	zero,a1,-694

0010a8e4 <i00000017b0>:
  10a8e4:	92414203          	lbu	tp,-1756(sp)

0010a8e8 <i00000017b1>:
  10a8e8:	5c162fb7          	lui	t6,0x5c162

0010a8ec <i00000017b2>:
  10a8ec:	a1e11023          	sh	t5,-1536(sp)

0010a8f0 <i00000017b3>:
  10a8f0:	32811123          	sh	s0,802(sp)

0010a8f4 <i00000017b4>:
  10a8f4:	72611f03          	lh	t5,1830(sp)

0010a8f8 <i00000017b5>:
  10a8f8:	24410ea3          	sb	tp,605(sp)

0010a8fc <i00000017b6>:
  10a8fc:	b6824e13          	xor	t3,tp,-1176

0010a900 <i00000017b7>:
  10a900:	200a6717          	auipc	a4,0x200a6

0010a904 <i00000017b8>:
  10a904:	65510ba3          	sb	s5,1623(sp)

0010a908 <i00000017b9>:
  10a908:	009e1d93          	sll	s11,t3,0x9

0010a90c <i00000017ba>:
  10a90c:	c3114b03          	lbu	s6,-975(sp)

0010a910 <i00000017bb>:
  10a910:	00a50b33          	add	s6,a0,a0

0010a914 <i00000017bc>:
  10a914:	009e5393          	srl	t2,t3,0x9

0010a918 <i00000017bd>:
  10a918:	95c15403          	lhu	s0,-1700(sp)

0010a91c <i00000017be>:
  10a91c:	004503b3          	add	t2,a0,tp
  10a920:	00004117          	auipc	sp,0x4
  10a924:	7e010113          	add	sp,sp,2016 # 10f100 <mem>
  10a928:	00005337          	lui	t1,0x5
  10a92c:	cb030313          	add	t1,t1,-848 # 4cb0 <_min_stack+0x2cb0>
  10a930:	00610133          	add	sp,sp,t1

0010a934 <i00000017bf>:
  10a934:	09a15b03          	lhu	s6,154(sp)

0010a938 <i00000017c0>:
  10a938:	01602cb3          	sgtz	s9,s6
  10a93c:	00c00e13          	li	t3,12
  10a940:	00a00d13          	li	s10,10

0010a944 <b00000017c1>:
  10a944:	00000033          	add	zero,zero,zero
  10a948:	03cd4a63          	blt	s10,t3,10a97c <i00000017c6>
  10a94c:	00000033          	add	zero,zero,zero
  10a950:	00a00d13          	li	s10,10
  10a954:	00004117          	auipc	sp,0x4
  10a958:	7ac10113          	add	sp,sp,1964 # 10f100 <mem>
  10a95c:	00048337          	lui	t1,0x48
  10a960:	53030313          	add	t1,t1,1328 # 48530 <tohost+0x28528>
  10a964:	00610133          	add	sp,sp,t1

0010a968 <i00000017c1>:
  10a968:	89d14203          	lbu	tp,-1891(sp)

0010a96c <i00000017c2>:
  10a96c:	93015183          	lhu	gp,-1744(sp)

0010a970 <i00000017c3>:
  10a970:	00eec533          	xor	a0,t4,a4

0010a974 <i00000017c4>:
  10a974:	92a12023          	sw	a0,-1760(sp)

0010a978 <i00000017c5>:
  10a978:	00c1cf33          	xor	t5,gp,a2

0010a97c <i00000017c6>:
  10a97c:	7d910b03          	lb	s6,2009(sp)

0010a980 <i00000017c7>:
  10a980:	00301713          	sll	a4,zero,0x3

0010a984 <i00000017c8>:
  10a984:	415f5f93          	sra	t6,t5,0x15

0010a988 <i00000017c9>:
  10a988:	014bd833          	srl	a6,s7,s4

0010a98c <i00000017ca>:
  10a98c:	c8a10b03          	lb	s6,-886(sp)

0010a990 <i00000017cb>:
  10a990:	3d683f13          	sltiu	t5,a6,982

0010a994 <i00000017cc>:
  10a994:	0097c4b3          	xor	s1,a5,s1

0010a998 <i00000017cd>:
  10a998:	44ff3037          	lui	zero,0x44ff3

0010a99c <i00000017ce>:
  10a99c:	1abb0013          	add	zero,s6,427 # 735309bb <fromhost+0x733a89ab>
  10a9a0:	00004117          	auipc	sp,0x4
  10a9a4:	76010113          	add	sp,sp,1888 # 10f100 <mem>
  10a9a8:	0004f337          	lui	t1,0x4f
  10a9ac:	08030313          	add	t1,t1,128 # 4f080 <tohost+0x2f078>
  10a9b0:	00610133          	add	sp,sp,t1

0010a9b4 <i00000017cf>:
  10a9b4:	9c815483          	lhu	s1,-1592(sp)

0010a9b8 <i00000017d0>:
  10a9b8:	bd65c013          	xor	zero,a1,-1066

0010a9bc <i00000017d1>:
  10a9bc:	0ffe0993          	add	s3,t3,255

0010a9c0 <i00000017d2>:
  10a9c0:	72c12203          	lw	tp,1836(sp)

0010a9c4 <i00000017d3>:
  10a9c4:	016f4033          	xor	zero,t5,s6
  10a9c8:	00c00b93          	li	s7,12
  10a9cc:	00a00d13          	li	s10,10

0010a9d0 <b00000017d4>:
  10a9d0:	00000033          	add	zero,zero,zero
  10a9d4:	037d4a63          	blt	s10,s7,10aa08 <i00000017de>
  10a9d8:	00000033          	add	zero,zero,zero
  10a9dc:	00a00d13          	li	s10,10

0010a9e0 <i00000017d4>:
  10a9e0:	ec710483          	lb	s1,-313(sp)

0010a9e4 <i00000017d5>:
  10a9e4:	cfe15003          	lhu	zero,-770(sp)

0010a9e8 <i00000017d6>:
  10a9e8:	6f411a83          	lh	s5,1780(sp)

0010a9ec <i00000017d7>:
  10a9ec:	099b5517          	auipc	a0,0x99b5

0010a9f0 <i00000017d8>:
  10a9f0:	0a1a6f93          	or	t6,s4,161

0010a9f4 <i00000017d9>:
  10a9f4:	01fc78b3          	and	a7,s8,t6

0010a9f8 <i00000017da>:
  10a9f8:	00e3c233          	xor	tp,t2,a4

0010a9fc <i00000017db>:
  10a9fc:	f3112223          	sw	a7,-220(sp)

0010aa00 <i00000017dc>:
  10aa00:	01301c93          	sll	s9,zero,0x13

0010aa04 <i00000017dd>:
  10aa04:	00a21433          	sll	s0,tp,a0

0010aa08 <i00000017de>:
  10aa08:	004f64b3          	or	s1,t5,tp

0010aa0c <i00000017df>:
  10aa0c:	4abff037          	lui	zero,0x4abff
  10aa10:	00004117          	auipc	sp,0x4
  10aa14:	6f010113          	add	sp,sp,1776 # 10f100 <mem>
  10aa18:	0005c337          	lui	t1,0x5c
  10aa1c:	10830313          	add	t1,t1,264 # 5c108 <tohost+0x3c100>
  10aa20:	00610133          	add	sp,sp,t1

0010aa24 <i00000017e0>:
  10aa24:	dd815a03          	lhu	s4,-552(sp)

0010aa28 <i00000017e1>:
  10aa28:	acc15283          	lhu	t0,-1332(sp)

0010aa2c <i00000017e2>:
  10aa2c:	2b0aaa17          	auipc	s4,0x2b0aa

0010aa30 <i00000017e3>:
  10aa30:	6a911c23          	sh	s1,1720(sp)

0010aa34 <i00000017e4>:
  10aa34:	b3dba513          	slti	a0,s7,-1219

0010aa38 <i00000017e5>:
  10aa38:	14fbab13          	slti	s6,s7,335

0010aa3c <i00000017e6>:
  10aa3c:	418dd433          	sra	s0,s11,s8
  10aa40:	00c00b93          	li	s7,12
  10aa44:	001d0d13          	add	s10,s10,1

0010aa48 <b00000017e7>:
  10aa48:	00000033          	add	zero,zero,zero
  10aa4c:	fd7d4ee3          	blt	s10,s7,10aa28 <i00000017e1>
  10aa50:	00000033          	add	zero,zero,zero
  10aa54:	00a00d13          	li	s10,10

0010aa58 <i00000017e7>:
  10aa58:	b249bf93          	sltiu	t6,s3,-1244

0010aa5c <i00000017e8>:
  10aa5c:	47840f13          	add	t5,s0,1144

0010aa60 <i00000017e9>:
  10aa60:	3117b393          	sltiu	t2,a5,785

0010aa64 <i00000017ea>:
  10aa64:	40025f33          	sra	t5,tp,zero

0010aa68 <i00000017eb>:
  10aa68:	3178d237          	lui	tp,0x3178d

0010aa6c <i00000017ec>:
  10aa6c:	01fad5b3          	srl	a1,s5,t6

0010aa70 <i00000017ed>:
  10aa70:	e6012b03          	lw	s6,-416(sp)

0010aa74 <i00000017ee>:
  10aa74:	41f35b33          	sra	s6,t1,t6

0010aa78 <i00000017ef>:
  10aa78:	014fdf33          	srl	t5,t6,s4

0010aa7c <i00000017f0>:
  10aa7c:	8e4101a3          	sb	tp,-1821(sp)

0010aa80 <i00000017f1>:
  10aa80:	016f6fb3          	or	t6,t5,s6

0010aa84 <i00000017f2>:
  10aa84:	46c11203          	lh	tp,1132(sp)

0010aa88 <i00000017f3>:
  10aa88:	6fd12223          	sw	t4,1764(sp)

0010aa8c <i00000017f4>:
  10aa8c:	bbc15b03          	lhu	s6,-1092(sp)

0010aa90 <i00000017f5>:
  10aa90:	dac11b03          	lh	s6,-596(sp)

0010aa94 <i00000017f6>:
  10aa94:	009a9733          	sll	a4,s5,s1

0010aa98 <i00000017f7>:
  10aa98:	40a20ab3          	sub	s5,tp,a0

0010aa9c <i00000017f8>:
  10aa9c:	64411c23          	sh	tp,1624(sp)

0010aaa0 <i00000017f9>:
  10aaa0:	41f68433          	sub	s0,a3,t6
  10aaa4:	00a00913          	li	s2,10
  10aaa8:	00a00d13          	li	s10,10

0010aaac <b00000017fa>:
  10aaac:	00000033          	add	zero,zero,zero
  10aab0:	032d1e63          	bne	s10,s2,10aaec <i0000001801>
  10aab4:	00000033          	add	zero,zero,zero
  10aab8:	00a00d13          	li	s10,10

0010aabc <i00000017fa>:
  10aabc:	5bd93017          	auipc	zero,0x5bd93

0010aac0 <i00000017fb>:
  10aac0:	59e39f37          	lui	t5,0x59e39

0010aac4 <i00000017fc>:
  10aac4:	32f70b93          	add	s7,a4,815 # 201b0c2f <fromhost+0x20028c1f>

0010aac8 <i00000017fd>:
  10aac8:	d2011823          	sh	zero,-720(sp)
  10aacc:	00004117          	auipc	sp,0x4
  10aad0:	63410113          	add	sp,sp,1588 # 10f100 <mem>
  10aad4:	00048337          	lui	t1,0x48
  10aad8:	42830313          	add	t1,t1,1064 # 48428 <tohost+0x28420>
  10aadc:	00610133          	add	sp,sp,t1

0010aae0 <i00000017fe>:
  10aae0:	e7c11b83          	lh	s7,-388(sp)

0010aae4 <i00000017ff>:
  10aae4:	00af4233          	xor	tp,t5,a0

0010aae8 <i0000001800>:
  10aae8:	aadb6213          	or	tp,s6,-1363

0010aaec <i0000001801>:
  10aaec:	e9d12a23          	sw	t4,-364(sp)

0010aaf0 <i0000001802>:
  10aaf0:	006beeb3          	or	t4,s7,t1

0010aaf4 <i0000001803>:
  10aaf4:	63e11423          	sh	t5,1576(sp)
  10aaf8:	00004117          	auipc	sp,0x4
  10aafc:	60810113          	add	sp,sp,1544 # 10f100 <mem>
  10ab00:	0006b337          	lui	t1,0x6b
  10ab04:	7f830313          	add	t1,t1,2040 # 6b7f8 <tohost+0x4b7f0>
  10ab08:	00610133          	add	sp,sp,t1

0010ab0c <i0000001804>:
  10ab0c:	be810123          	sb	s0,-1054(sp)

0010ab10 <i0000001805>:
  10ab10:	40505213          	sra	tp,zero,0x5

0010ab14 <i0000001806>:
  10ab14:	5f611223          	sh	s6,1508(sp)

0010ab18 <i0000001807>:
  10ab18:	26a14b83          	lbu	s7,618(sp)

0010ab1c <i0000001808>:
  10ab1c:	71344eb7          	lui	t4,0x71344

0010ab20 <i0000001809>:
  10ab20:	4095d033          	sra	zero,a1,s1

0010ab24 <i000000180a>:
  10ab24:	01e018b3          	sll	a7,zero,t5

0010ab28 <i000000180b>:
  10ab28:	00668b33          	add	s6,a3,t1

0010ab2c <i000000180c>:
  10ab2c:	004ad513          	srl	a0,s5,0x4
  10ab30:	00000a13          	li	s4,0

0010ab34 <b000000180d>:
  10ab34:	00000033          	add	zero,zero,zero
  10ab38:	fb4d0ee3          	beq	s10,s4,10aaf4 <i0000001803>
  10ab3c:	00000033          	add	zero,zero,zero
  10ab40:	00a00d13          	li	s10,10

0010ab44 <i000000180d>:
  10ab44:	eb906f13          	or	t5,zero,-327

0010ab48 <i000000180e>:
  10ab48:	6ee7f013          	and	zero,a5,1774

0010ab4c <i000000180f>:
  10ab4c:	e5e11823          	sh	t5,-432(sp)

0010ab50 <i0000001810>:
  10ab50:	b2011a23          	sh	zero,-1228(sp)

0010ab54 <i0000001811>:
  10ab54:	01021293          	sll	t0,tp,0x10

0010ab58 <i0000001812>:
  10ab58:	41e55633          	sra	a2,a0,t5

0010ab5c <i0000001813>:
  10ab5c:	00d71bb3          	sll	s7,a4,a3

0010ab60 <i0000001814>:
  10ab60:	5ff5e013          	or	zero,a1,1535

0010ab64 <i0000001815>:
  10ab64:	1dc12283          	lw	t0,476(sp)

0010ab68 <i0000001816>:
  10ab68:	00055b33          	srl	s6,a0,zero
  10ab6c:	00004117          	auipc	sp,0x4
  10ab70:	59410113          	add	sp,sp,1428 # 10f100 <mem>
  10ab74:	00067337          	lui	t1,0x67
  10ab78:	20030313          	add	t1,t1,512 # 67200 <tohost+0x471f8>
  10ab7c:	00610133          	add	sp,sp,t1

0010ab80 <i0000001817>:
  10ab80:	9e411d23          	sh	tp,-1542(sp)

0010ab84 <i0000001818>:
  10ab84:	5ce12423          	sw	a4,1480(sp)

0010ab88 <i0000001819>:
  10ab88:	34012483          	lw	s1,832(sp)

0010ab8c <i000000181a>:
  10ab8c:	b228e193          	or	gp,a7,-1246

0010ab90 <i000000181b>:
  10ab90:	37110b03          	lb	s6,881(sp)

0010ab94 <i000000181c>:
  10ab94:	65011683          	lh	a3,1616(sp)

0010ab98 <i000000181d>:
  10ab98:	beb14583          	lbu	a1,-1045(sp)

0010ab9c <i000000181e>:
  10ab9c:	00a00833          	add	a6,zero,a0
  10aba0:	00004117          	auipc	sp,0x4
  10aba4:	56010113          	add	sp,sp,1376 # 10f100 <mem>
  10aba8:	00052337          	lui	t1,0x52
  10abac:	ec830313          	add	t1,t1,-312 # 51ec8 <tohost+0x31ec0>
  10abb0:	00610133          	add	sp,sp,t1

0010abb4 <i000000181f>:
  10abb4:	35012803          	lw	a6,848(sp)
  10abb8:	00900b93          	li	s7,9
  10abbc:	00a00d13          	li	s10,10

0010abc0 <b0000001820>:
  10abc0:	00000033          	add	zero,zero,zero
  10abc4:	057d4a63          	blt	s10,s7,10ac18 <i000000182d>
  10abc8:	00000033          	add	zero,zero,zero
  10abcc:	00a00d13          	li	s10,10

0010abd0 <i0000001820>:
  10abd0:	5b310237          	lui	tp,0x5b310

0010abd4 <i0000001821>:
  10abd4:	01e505b3          	add	a1,a0,t5

0010abd8 <i0000001822>:
  10abd8:	40615e83          	lhu	t4,1030(sp)

0010abdc <i0000001823>:
  10abdc:	d8503013          	sltiu	zero,zero,-635

0010abe0 <i0000001824>:
  10abe0:	88fb4293          	xor	t0,s6,-1905

0010abe4 <i0000001825>:
  10abe4:	06372993          	slti	s3,a4,99

0010abe8 <i0000001826>:
  10abe8:	2cc44537          	lui	a0,0x2cc44

0010abec <i0000001827>:
  10abec:	016f7033          	and	zero,t5,s6

0010abf0 <i0000001828>:
  10abf0:	7d411a03          	lh	s4,2004(sp)

0010abf4 <i0000001829>:
  10abf4:	3a39f617          	auipc	a2,0x3a39f

0010abf8 <i000000182a>:
  10abf8:	66d12c23          	sw	a3,1656(sp)

0010abfc <i000000182b>:
  10abfc:	6d2f2e13          	slti	t3,t5,1746

0010ac00 <i000000182c>:
  10ac00:	41b68597          	auipc	a1,0x41b68
  10ac04:	00004117          	auipc	sp,0x4
  10ac08:	4fc10113          	add	sp,sp,1276 # 10f100 <mem>
  10ac0c:	0004b337          	lui	t1,0x4b
  10ac10:	9a830313          	add	t1,t1,-1624 # 4a9a8 <tohost+0x2a9a0>
  10ac14:	00610133          	add	sp,sp,t1

0010ac18 <i000000182d>:
  10ac18:	73011f83          	lh	t6,1840(sp)
  10ac1c:	00004117          	auipc	sp,0x4
  10ac20:	4e410113          	add	sp,sp,1252 # 10f100 <mem>
  10ac24:	00064337          	lui	t1,0x64
  10ac28:	9c830313          	add	t1,t1,-1592 # 639c8 <tohost+0x439c0>
  10ac2c:	00610133          	add	sp,sp,t1

0010ac30 <i000000182e>:
  10ac30:	44611283          	lh	t0,1094(sp)

0010ac34 <i000000182f>:
  10ac34:	c1c12483          	lw	s1,-996(sp)

0010ac38 <i0000001830>:
  10ac38:	41ef5b33          	sra	s6,t5,t5

0010ac3c <i0000001831>:
  10ac3c:	00a52f33          	slt	t5,a0,a0

0010ac40 <i0000001832>:
  10ac40:	404f5233          	sra	tp,t5,tp
  10ac44:	00c00b13          	li	s6,12
  10ac48:	001d0d13          	add	s10,s10,1

0010ac4c <b0000001833>:
  10ac4c:	00000033          	add	zero,zero,zero
  10ac50:	fd6d44e3          	blt	s10,s6,10ac18 <i000000182d>
  10ac54:	00000033          	add	zero,zero,zero
  10ac58:	00a00d13          	li	s10,10

0010ac5c <i0000001833>:
  10ac5c:	17010503          	lb	a0,368(sp)

0010ac60 <i0000001834>:
  10ac60:	40bb5513          	sra	a0,s6,0xb
  10ac64:	00004117          	auipc	sp,0x4
  10ac68:	49c10113          	add	sp,sp,1180 # 10f100 <mem>
  10ac6c:	00039337          	lui	t1,0x39
  10ac70:	e7030313          	add	t1,t1,-400 # 38e70 <tohost+0x18e68>
  10ac74:	00610133          	add	sp,sp,t1

0010ac78 <i0000001835>:
  10ac78:	86a11723          	sh	a0,-1938(sp)

0010ac7c <i0000001836>:
  10ac7c:	3221e697          	auipc	a3,0x3221e

0010ac80 <i0000001837>:
  10ac80:	48011e23          	sh	zero,1180(sp)

0010ac84 <i0000001838>:
  10ac84:	b8411523          	sh	tp,-1142(sp)

0010ac88 <i0000001839>:
  10ac88:	41e25533          	sra	a0,tp,t5

0010ac8c <i000000183a>:
  10ac8c:	cc615e83          	lhu	t4,-826(sp)

0010ac90 <i000000183b>:
  10ac90:	42010823          	sb	zero,1072(sp)

0010ac94 <i000000183c>:
  10ac94:	ac114503          	lbu	a0,-1343(sp)

0010ac98 <i000000183d>:
  10ac98:	dce14f03          	lbu	t5,-562(sp)

0010ac9c <i000000183e>:
  10ac9c:	02a12e23          	sw	a0,60(sp)

0010aca0 <i000000183f>:
  10aca0:	000021b3          	sltz	gp,zero

0010aca4 <i0000001840>:
  10aca4:	f7012903          	lw	s2,-144(sp)

0010aca8 <i0000001841>:
  10aca8:	66012e23          	sw	zero,1660(sp)

0010acac <i0000001842>:
  10acac:	ce411b03          	lh	s6,-796(sp)

0010acb0 <i0000001843>:
  10acb0:	5c812683          	lw	a3,1480(sp)

0010acb4 <i0000001844>:
  10acb4:	da412183          	lw	gp,-604(sp)

0010acb8 <i0000001845>:
  10acb8:	d5510903          	lb	s2,-683(sp)
  10acbc:	00900e93          	li	t4,9

0010acc0 <b0000001846>:
  10acc0:	00000033          	add	zero,zero,zero
  10acc4:	fddd4ee3          	blt	s10,t4,10aca0 <i000000183f>
  10acc8:	00000033          	add	zero,zero,zero
  10accc:	00a00d13          	li	s10,10
  10acd0:	00004117          	auipc	sp,0x4
  10acd4:	43010113          	add	sp,sp,1072 # 10f100 <mem>
  10acd8:	00017337          	lui	t1,0x17
  10acdc:	cd830313          	add	t1,t1,-808 # 16cd8 <_stack_len+0xecd8>
  10ace0:	00610133          	add	sp,sp,t1

0010ace4 <i0000001846>:
  10ace4:	9ff14b03          	lbu	s6,-1537(sp)

0010ace8 <i0000001847>:
  10ace8:	01eb0b33          	add	s6,s6,t5

0010acec <i0000001848>:
  10acec:	bc926013          	or	zero,tp,-1079

0010acf0 <i0000001849>:
  10acf0:	000046b3          	xor	a3,zero,zero

0010acf4 <i000000184a>:
  10acf4:	41c25293          	sra	t0,tp,0x1c

0010acf8 <i000000184b>:
  10acf8:	00f5ec33          	or	s8,a1,a5

0010acfc <i000000184c>:
  10acfc:	15a57393          	and	t2,a0,346
  10ad00:	00004117          	auipc	sp,0x4
  10ad04:	40010113          	add	sp,sp,1024 # 10f100 <mem>
  10ad08:	00055337          	lui	t1,0x55
  10ad0c:	49030313          	add	t1,t1,1168 # 55490 <tohost+0x35488>
  10ad10:	00610133          	add	sp,sp,t1

0010ad14 <i000000184d>:
  10ad14:	74114203          	lbu	tp,1857(sp)

0010ad18 <i000000184e>:
  10ad18:	8fdfb793          	sltiu	a5,t6,-1795
  10ad1c:	00004117          	auipc	sp,0x4
  10ad20:	3e410113          	add	sp,sp,996 # 10f100 <mem>
  10ad24:	00017337          	lui	t1,0x17
  10ad28:	1d830313          	add	t1,t1,472 # 171d8 <_stack_len+0xf1d8>
  10ad2c:	00610133          	add	sp,sp,t1

0010ad30 <i000000184f>:
  10ad30:	f3b10203          	lb	tp,-197(sp)

0010ad34 <i0000001850>:
  10ad34:	004b7b33          	and	s6,s6,tp

0010ad38 <i0000001851>:
  10ad38:	01c5fe33          	and	t3,a1,t3

0010ad3c <i0000001852>:
  10ad3c:	68812503          	lw	a0,1672(sp)

0010ad40 <i0000001853>:
  10ad40:	4ef14003          	lbu	zero,1263(sp)

0010ad44 <i0000001854>:
  10ad44:	4084d533          	sra	a0,s1,s0

0010ad48 <i0000001855>:
  10ad48:	d3912023          	sw	s9,-736(sp)

0010ad4c <i0000001856>:
  10ad4c:	40f75b13          	sra	s6,a4,0xf

0010ad50 <i0000001857>:
  10ad50:	016b2833          	slt	a6,s6,s6

0010ad54 <i0000001858>:
  10ad54:	41765533          	sra	a0,a2,s7
  10ad58:	00c00a13          	li	s4,12
  10ad5c:	001d0d13          	add	s10,s10,1

0010ad60 <b0000001859>:
  10ad60:	00000033          	add	zero,zero,zero
  10ad64:	fdaa58e3          	bge	s4,s10,10ad34 <i0000001850>
  10ad68:	00000033          	add	zero,zero,zero
  10ad6c:	00a00d13          	li	s10,10

0010ad70 <i0000001859>:
  10ad70:	01621f13          	sll	t5,tp,0x16

0010ad74 <i000000185a>:
  10ad74:	00a279b3          	and	s3,tp,a0

0010ad78 <i000000185b>:
  10ad78:	01fee033          	or	zero,t4,t6

0010ad7c <i000000185c>:
  10ad7c:	eb615803          	lhu	a6,-330(sp)
  10ad80:	00004117          	auipc	sp,0x4
  10ad84:	38010113          	add	sp,sp,896 # 10f100 <mem>
  10ad88:	00056337          	lui	t1,0x56
  10ad8c:	1c030313          	add	t1,t1,448 # 561c0 <tohost+0x361b8>
  10ad90:	00610133          	add	sp,sp,t1

0010ad94 <i000000185d>:
  10ad94:	6ea11d83          	lh	s11,1770(sp)

0010ad98 <i000000185e>:
  10ad98:	01551013          	sll	zero,a0,0x15

0010ad9c <i000000185f>:
  10ad9c:	24610403          	lb	s0,582(sp)

0010ada0 <i0000001860>:
  10ada0:	62a12223          	sw	a0,1572(sp)

0010ada4 <i0000001861>:
  10ada4:	3c1fda17          	auipc	s4,0x3c1fd

0010ada8 <i0000001862>:
  10ada8:	d99f8b93          	add	s7,t6,-615 # 5c161d99 <fromhost+0x5bfd9d89>

0010adac <i0000001863>:
  10adac:	01b49b33          	sll	s6,s1,s11

0010adb0 <i0000001864>:
  10adb0:	3f900213          	li	tp,1017

0010adb4 <i0000001865>:
  10adb4:	27811583          	lh	a1,632(sp)

0010adb8 <i0000001866>:
  10adb8:	62611583          	lh	a1,1574(sp)

0010adbc <i0000001867>:
  10adbc:	30a47217          	auipc	tp,0x30a47

0010adc0 <i0000001868>:
  10adc0:	a88e3a13          	sltiu	s4,t3,-1400

0010adc4 <i0000001869>:
  10adc4:	e5b12a23          	sw	s11,-428(sp)

0010adc8 <i000000186a>:
  10adc8:	50410723          	sb	tp,1294(sp)

0010adcc <i000000186b>:
  10adcc:	01ef5933          	srl	s2,t5,t5

0010add0 <b000000186c>:
  10add0:	00000a17          	auipc	s4,0x0
  10add4:	024a0a13          	add	s4,s4,36 # 10adf4 <i0000001872>
  10add8:	000a0567          	jalr	a0,s4

0010addc <i000000186c>:
  10addc:	400f0b33          	sub	s6,t5,zero

0010ade0 <i000000186d>:
  10ade0:	51d85737          	lui	a4,0x51d85

0010ade4 <i000000186e>:
  10ade4:	81c06213          	or	tp,zero,-2020

0010ade8 <i000000186f>:
  10ade8:	015583b3          	add	t2,a1,s5

0010adec <i0000001870>:
  10adec:	60815003          	lhu	zero,1544(sp)

0010adf0 <i0000001871>:
  10adf0:	011ca3b3          	slt	t2,s9,a7

0010adf4 <i0000001872>:
  10adf4:	8de10323          	sb	t5,-1850(sp)

0010adf8 <i0000001873>:
  10adf8:	ac0f7513          	and	a0,t5,-1344

0010adfc <i0000001874>:
  10adfc:	44014003          	lbu	zero,1088(sp)

0010ae00 <i0000001875>:
  10ae00:	f2615003          	lhu	zero,-218(sp)

0010ae04 <i0000001876>:
  10ae04:	c7714b03          	lbu	s6,-905(sp)

0010ae08 <i0000001877>:
  10ae08:	33510b03          	lb	s6,821(sp)

0010ae0c <i0000001878>:
  10ae0c:	013b8b33          	add	s6,s7,s3

0010ae10 <i0000001879>:
  10ae10:	52010e03          	lb	t3,1312(sp)

0010ae14 <i000000187a>:
  10ae14:	41e55b13          	sra	s6,a0,0x1e

0010ae18 <i000000187b>:
  10ae18:	004f7cb3          	and	s9,t5,tp

0010ae1c <i000000187c>:
  10ae1c:	22f14203          	lbu	tp,559(sp)

0010ae20 <i000000187d>:
  10ae20:	c7f12a23          	sw	t6,-908(sp)

0010ae24 <i000000187e>:
  10ae24:	01f7c1b3          	xor	gp,a5,t6
  10ae28:	00c00893          	li	a7,12
  10ae2c:	001d0d13          	add	s10,s10,1

0010ae30 <b000000187f>:
  10ae30:	00000033          	add	zero,zero,zero
  10ae34:	fd1d42e3          	blt	s10,a7,10adf8 <i0000001873>
  10ae38:	00000033          	add	zero,zero,zero
  10ae3c:	00a00d13          	li	s10,10

0010ae40 <i000000187f>:
  10ae40:	b9c14b03          	lbu	s6,-1124(sp)

0010ae44 <i0000001880>:
  10ae44:	65d10923          	sb	t4,1618(sp)

0010ae48 <i0000001881>:
  10ae48:	c7b07193          	and	gp,zero,-901

0010ae4c <i0000001882>:
  10ae4c:	05015f03          	lhu	t5,80(sp)

0010ae50 <i0000001883>:
  10ae50:	000b6f33          	or	t5,s6,zero

0010ae54 <i0000001884>:
  10ae54:	0d614b03          	lbu	s6,214(sp)

0010ae58 <i0000001885>:
  10ae58:	de2e3f13          	sltiu	t5,t3,-542

0010ae5c <i0000001886>:
  10ae5c:	00002b33          	sltz	s6,zero

0010ae60 <i0000001887>:
  10ae60:	19e15503          	lhu	a0,414(sp)
  10ae64:	00004117          	auipc	sp,0x4
  10ae68:	29c10113          	add	sp,sp,668 # 10f100 <mem>
  10ae6c:	00058337          	lui	t1,0x58
  10ae70:	4b030313          	add	t1,t1,1200 # 584b0 <tohost+0x384a8>
  10ae74:	00610133          	add	sp,sp,t1

0010ae78 <i0000001888>:
  10ae78:	c4415203          	lhu	tp,-956(sp)

0010ae7c <i0000001889>:
  10ae7c:	01c85f13          	srl	t5,a6,0x1c

0010ae80 <i000000188a>:
  10ae80:	4e812f03          	lw	t5,1256(sp)

0010ae84 <i000000188b>:
  10ae84:	6350c017          	auipc	zero,0x6350c

0010ae88 <i000000188c>:
  10ae88:	a5f40a13          	add	s4,s0,-1441

0010ae8c <i000000188d>:
  10ae8c:	00388533          	add	a0,a7,gp

0010ae90 <i000000188e>:
  10ae90:	51e11b83          	lh	s7,1310(sp)

0010ae94 <i000000188f>:
  10ae94:	004f1213          	sll	tp,t5,0x4

0010ae98 <i0000001890>:
  10ae98:	010ee533          	or	a0,t4,a6
  10ae9c:	00004117          	auipc	sp,0x4
  10aea0:	26410113          	add	sp,sp,612 # 10f100 <mem>
  10aea4:	0002d337          	lui	t1,0x2d
  10aea8:	d8830313          	add	t1,t1,-632 # 2cd88 <tohost+0xcd80>
  10aeac:	00610133          	add	sp,sp,t1

0010aeb0 <i0000001891>:
  10aeb0:	26815003          	lhu	zero,616(sp)
  10aeb4:	00c00c13          	li	s8,12
  10aeb8:	001d0d13          	add	s10,s10,1

0010aebc <b0000001892>:
  10aebc:	00000033          	add	zero,zero,zero
  10aec0:	f98d4ae3          	blt	s10,s8,10ae54 <i0000001884>
  10aec4:	00000033          	add	zero,zero,zero
  10aec8:	00a00d13          	li	s10,10

0010aecc <i0000001892>:
  10aecc:	d3b14f03          	lbu	t5,-709(sp)

0010aed0 <i0000001893>:
  10aed0:	01397433          	and	s0,s2,s3

0010aed4 <i0000001894>:
  10aed4:	404b0c33          	sub	s8,s6,tp

0010aed8 <i0000001895>:
  10aed8:	5b612a23          	sw	s6,1460(sp)

0010aedc <i0000001896>:
  10aedc:	00c8e8b3          	or	a7,a7,a2

0010aee0 <i0000001897>:
  10aee0:	2fe15703          	lhu	a4,766(sp)

0010aee4 <i0000001898>:
  10aee4:	88012f03          	lw	t5,-1920(sp)

0010aee8 <i0000001899>:
  10aee8:	00024233          	xor	tp,tp,zero

0010aeec <i000000189a>:
  10aeec:	4b523413          	sltiu	s0,tp,1205

0010aef0 <i000000189b>:
  10aef0:	23e10423          	sb	t5,552(sp)

0010aef4 <i000000189c>:
  10aef4:	67831237          	lui	tp,0x67831

0010aef8 <i000000189d>:
  10aef8:	6fb0bb37          	lui	s6,0x6fb0b

0010aefc <i000000189e>:
  10aefc:	01d65493          	srl	s1,a2,0x1d

0010af00 <i000000189f>:
  10af00:	5ea10203          	lb	tp,1514(sp)

0010af04 <i00000018a0>:
  10af04:	f8411483          	lh	s1,-124(sp)

0010af08 <i00000018a1>:
  10af08:	bfdb4b93          	xor	s7,s6,-1027

0010af0c <i00000018a2>:
  10af0c:	1b2eb513          	sltiu	a0,t4,434

0010af10 <i00000018a3>:
  10af10:	00b4a533          	slt	a0,s1,a1

0010af14 <i00000018a4>:
  10af14:	40b05513          	sra	a0,zero,0xb
  10af18:	00b00e13          	li	t3,11
  10af1c:	00a00d13          	li	s10,10

0010af20 <b00000018a5>:
  10af20:	00000033          	add	zero,zero,zero
  10af24:	03ae5a63          	bge	t3,s10,10af58 <i00000018aa>
  10af28:	00000033          	add	zero,zero,zero
  10af2c:	00a00d13          	li	s10,10

0010af30 <i00000018a5>:
  10af30:	e2b10923          	sb	a1,-462(sp)

0010af34 <i00000018a6>:
  10af34:	4ea11c23          	sh	a0,1272(sp)
  10af38:	00004117          	auipc	sp,0x4
  10af3c:	1c810113          	add	sp,sp,456 # 10f100 <mem>
  10af40:	00001337          	lui	t1,0x1
  10af44:	fd830313          	add	t1,t1,-40 # fd8 <_min_stack-0x1028>
  10af48:	00610133          	add	sp,sp,t1

0010af4c <i00000018a7>:
  10af4c:	ec310703          	lb	a4,-317(sp)

0010af50 <i00000018a8>:
  10af50:	1b210b03          	lb	s6,434(sp)

0010af54 <i00000018a9>:
  10af54:	00031b93          	sll	s7,t1,0x0

0010af58 <i00000018aa>:
  10af58:	b8c12223          	sw	a2,-1148(sp)

0010af5c <i00000018ab>:
  10af5c:	41df5c13          	sra	s8,t5,0x1d

0010af60 <i00000018ac>:
  10af60:	fc2f6f13          	or	t5,t5,-62

0010af64 <i00000018ad>:
  10af64:	2cf14b03          	lbu	s6,719(sp)
  10af68:	00004117          	auipc	sp,0x4
  10af6c:	19810113          	add	sp,sp,408 # 10f100 <mem>
  10af70:	00040337          	lui	t1,0x40
  10af74:	64030313          	add	t1,t1,1600 # 40640 <tohost+0x20638>
  10af78:	00610133          	add	sp,sp,t1

0010af7c <i00000018ae>:
  10af7c:	39a14203          	lbu	tp,922(sp)

0010af80 <i00000018af>:
  10af80:	f70100a3          	sb	a6,-159(sp)

0010af84 <i00000018b0>:
  10af84:	2b662037          	lui	zero,0x2b662

0010af88 <i00000018b1>:
  10af88:	8b812203          	lw	tp,-1864(sp)

0010af8c <i00000018b2>:
  10af8c:	deb11723          	sh	a1,-530(sp)

0010af90 <i00000018b3>:
  10af90:	2e5f4313          	xor	t1,t5,741

0010af94 <i00000018b4>:
  10af94:	356a0f13          	add	t5,s4,854

0010af98 <i00000018b5>:
  10af98:	41d90033          	sub	zero,s2,t4

0010af9c <i00000018b6>:
  10af9c:	408b5d93          	sra	s11,s6,0x8

0010afa0 <i00000018b7>:
  10afa0:	004531b3          	sltu	gp,a0,tp
  10afa4:	00900f93          	li	t6,9

0010afa8 <b00000018b8>:
  10afa8:	00000033          	add	zero,zero,zero
  10afac:	fbfd4ce3          	blt	s10,t6,10af64 <i00000018ad>
  10afb0:	00000033          	add	zero,zero,zero
  10afb4:	00a00d13          	li	s10,10

0010afb8 <i00000018b8>:
  10afb8:	a6011a83          	lh	s5,-1440(sp)

0010afbc <i00000018b9>:
  10afbc:	4e753313          	sltiu	t1,a0,1255

0010afc0 <i00000018ba>:
  10afc0:	019b5f13          	srl	t5,s6,0x19

0010afc4 <i00000018bb>:
  10afc4:	41840533          	sub	a0,s0,s8

0010afc8 <i00000018bc>:
  10afc8:	22811e03          	lh	t3,552(sp)

0010afcc <i00000018bd>:
  10afcc:	c0e14003          	lbu	zero,-1010(sp)

0010afd0 <i00000018be>:
  10afd0:	01e57ab3          	and	s5,a0,t5

0010afd4 <i00000018bf>:
  10afd4:	014e9513          	sll	a0,t4,0x14

0010afd8 <i00000018c0>:
  10afd8:	15c14783          	lbu	a5,348(sp)

0010afdc <i00000018c1>:
  10afdc:	01211483          	lh	s1,18(sp)

0010afe0 <i00000018c2>:
  10afe0:	95510b23          	sb	s5,-1706(sp)

0010afe4 <i00000018c3>:
  10afe4:	00e63233          	sltu	tp,a2,a4

0010afe8 <i00000018c4>:
  10afe8:	01651533          	sll	a0,a0,s6

0010afec <i00000018c5>:
  10afec:	a905a593          	slti	a1,a1,-1392

0010aff0 <i00000018c6>:
  10aff0:	c4c10023          	sb	a2,-960(sp)

0010aff4 <i00000018c7>:
  10aff4:	07762b13          	slti	s6,a2,119

0010aff8 <i00000018c8>:
  10aff8:	4df14003          	lbu	zero,1247(sp)
  10affc:	00004117          	auipc	sp,0x4
  10b000:	10410113          	add	sp,sp,260 # 10f100 <mem>
  10b004:	00064337          	lui	t1,0x64
  10b008:	31830313          	add	t1,t1,792 # 64318 <tohost+0x44310>
  10b00c:	00610133          	add	sp,sp,t1

0010b010 <i00000018c9>:
  10b010:	49015203          	lhu	tp,1168(sp)

0010b014 <i00000018ca>:
  10b014:	98215d83          	lhu	s11,-1662(sp)
  10b018:	00900b93          	li	s7,9

0010b01c <b00000018cb>:
  10b01c:	00000033          	add	zero,zero,zero
  10b020:	fd7d46e3          	blt	s10,s7,10afec <i00000018c5>
  10b024:	00000033          	add	zero,zero,zero
  10b028:	00a00d13          	li	s10,10

0010b02c <i00000018cb>:
  10b02c:	61a9bd93          	sltiu	s11,s3,1562

0010b030 <i00000018cc>:
  10b030:	27411e23          	sh	s4,636(sp)

0010b034 <i00000018cd>:
  10b034:	404adb13          	sra	s6,s5,0x4
  10b038:	00004117          	auipc	sp,0x4
  10b03c:	0c810113          	add	sp,sp,200 # 10f100 <mem>
  10b040:	00019337          	lui	t1,0x19
  10b044:	ec030313          	add	t1,t1,-320 # 18ec0 <_stack_len+0x10ec0>
  10b048:	00610133          	add	sp,sp,t1

0010b04c <i00000018ce>:
  10b04c:	810102a3          	sb	a6,-2043(sp)

0010b050 <i00000018cf>:
  10b050:	00e55b13          	srl	s6,a0,0xe

0010b054 <i00000018d0>:
  10b054:	416edb13          	sra	s6,t4,0x16

0010b058 <i00000018d1>:
  10b058:	01e4d193          	srl	gp,s1,0x1e

0010b05c <i00000018d2>:
  10b05c:	43e12a23          	sw	t5,1076(sp)

0010b060 <i00000018d3>:
  10b060:	d9412503          	lw	a0,-620(sp)

0010b064 <i00000018d4>:
  10b064:	47907513          	and	a0,zero,1145

0010b068 <i00000018d5>:
  10b068:	4301eb37          	lui	s6,0x4301e

0010b06c <i00000018d6>:
  10b06c:	87912a23          	sw	s9,-1932(sp)

0010b070 <i00000018d7>:
  10b070:	03514203          	lbu	tp,53(sp)

0010b074 <i00000018d8>:
  10b074:	8ff7ee93          	or	t4,a5,-1793

0010b078 <i00000018d9>:
  10b078:	9a210c83          	lb	s9,-1630(sp)
  10b07c:	00004117          	auipc	sp,0x4
  10b080:	08410113          	add	sp,sp,132 # 10f100 <mem>
  10b084:	0003b337          	lui	t1,0x3b
  10b088:	9f830313          	add	t1,t1,-1544 # 3a9f8 <tohost+0x1a9f0>
  10b08c:	00610133          	add	sp,sp,t1

0010b090 <i00000018da>:
  10b090:	21910783          	lb	a5,537(sp)
  10b094:	00004117          	auipc	sp,0x4
  10b098:	06c10113          	add	sp,sp,108 # 10f100 <mem>
  10b09c:	00045337          	lui	t1,0x45
  10b0a0:	f9830313          	add	t1,t1,-104 # 44f98 <tohost+0x24f90>
  10b0a4:	00610133          	add	sp,sp,t1

0010b0a8 <i00000018db>:
  10b0a8:	1a710003          	lb	zero,423(sp)

0010b0ac <i00000018dc>:
  10b0ac:	d28c7293          	and	t0,s8,-728
  10b0b0:	00004117          	auipc	sp,0x4
  10b0b4:	05010113          	add	sp,sp,80 # 10f100 <mem>
  10b0b8:	00014337          	lui	t1,0x14
  10b0bc:	3e030313          	add	t1,t1,992 # 143e0 <_stack_len+0xc3e0>
  10b0c0:	00610133          	add	sp,sp,t1

0010b0c4 <i00000018dd>:
  10b0c4:	6a4105a3          	sb	tp,1707(sp)
  10b0c8:	00900b93          	li	s7,9

0010b0cc <b00000018de>:
  10b0cc:	00000033          	add	zero,zero,zero
  10b0d0:	f97d48e3          	blt	s10,s7,10b060 <i00000018d3>
  10b0d4:	00000033          	add	zero,zero,zero
  10b0d8:	00a00d13          	li	s10,10

0010b0dc <i00000018de>:
  10b0dc:	00f838b3          	sltu	a7,a6,a5

0010b0e0 <i00000018df>:
  10b0e0:	d2b10023          	sb	a1,-736(sp)

0010b0e4 <i00000018e0>:
  10b0e4:	1e402f93          	slti	t6,zero,484

0010b0e8 <i00000018e1>:
  10b0e8:	413f5793          	sra	a5,t5,0x13

0010b0ec <i00000018e2>:
  10b0ec:	26015303          	lhu	t1,608(sp)
  10b0f0:	00004117          	auipc	sp,0x4
  10b0f4:	01010113          	add	sp,sp,16 # 10f100 <mem>
  10b0f8:	00042337          	lui	t1,0x42
  10b0fc:	f9030313          	add	t1,t1,-112 # 41f90 <tohost+0x21f88>
  10b100:	00610133          	add	sp,sp,t1

0010b104 <i00000018e3>:
  10b104:	42a108a3          	sb	a0,1073(sp)

0010b108 <i00000018e4>:
  10b108:	00f51513          	sll	a0,a0,0xf

0010b10c <i00000018e5>:
  10b10c:	93ae7213          	and	tp,t3,-1734

0010b110 <i00000018e6>:
  10b110:	73810f23          	sb	s8,1854(sp)
  10b114:	00004117          	auipc	sp,0x4
  10b118:	fec10113          	add	sp,sp,-20 # 10f100 <mem>
  10b11c:	0001b337          	lui	t1,0x1b
  10b120:	2e830313          	add	t1,t1,744 # 1b2e8 <_stack_len+0x132e8>
  10b124:	00610133          	add	sp,sp,t1

0010b128 <i00000018e7>:
  10b128:	c6411483          	lh	s1,-924(sp)

0010b12c <i00000018e8>:
  10b12c:	0154cab3          	xor	s5,s1,s5

0010b130 <i00000018e9>:
  10b130:	b1612823          	sw	s6,-1264(sp)

0010b134 <i00000018ea>:
  10b134:	16f12423          	sw	a5,360(sp)

0010b138 <i00000018eb>:
  10b138:	00427533          	and	a0,tp,tp

0010b13c <i00000018ec>:
  10b13c:	0068d533          	srl	a0,a7,t1

0010b140 <i00000018ed>:
  10b140:	00f75333          	srl	t1,a4,a5

0010b144 <i00000018ee>:
  10b144:	0a290217          	auipc	tp,0xa290

0010b148 <i00000018ef>:
  10b148:	38610f03          	lb	t5,902(sp)

0010b14c <i00000018f0>:
  10b14c:	75c12803          	lw	a6,1884(sp)
  10b150:	00c00e13          	li	t3,12
  10b154:	00a00d13          	li	s10,10

0010b158 <b00000018f1>:
  10b158:	00000033          	add	zero,zero,zero
  10b15c:	05cd4e63          	blt	s10,t3,10b1b8 <i00000018fb>
  10b160:	00000033          	add	zero,zero,zero
  10b164:	00a00d13          	li	s10,10

0010b168 <i00000018f1>:
  10b168:	61410fa3          	sb	s4,1567(sp)

0010b16c <i00000018f2>:
  10b16c:	09c11903          	lh	s2,156(sp)

0010b170 <i00000018f3>:
  10b170:	7ac11383          	lh	t2,1964(sp)

0010b174 <i00000018f4>:
  10b174:	77f10483          	lb	s1,1919(sp)

0010b178 <i00000018f5>:
  10b178:	82cf2893          	slti	a7,t5,-2004
  10b17c:	00004117          	auipc	sp,0x4
  10b180:	f8410113          	add	sp,sp,-124 # 10f100 <mem>
  10b184:	00011337          	lui	t1,0x11
  10b188:	1e030313          	add	t1,t1,480 # 111e0 <_stack_len+0x91e0>
  10b18c:	00610133          	add	sp,sp,t1

0010b190 <i00000018f6>:
  10b190:	bdb11923          	sh	s11,-1070(sp)

0010b194 <i00000018f7>:
  10b194:	6ac15203          	lhu	tp,1708(sp)

0010b198 <i00000018f8>:
  10b198:	003b1313          	sll	t1,s6,0x3
  10b19c:	00004117          	auipc	sp,0x4
  10b1a0:	f6410113          	add	sp,sp,-156 # 10f100 <mem>
  10b1a4:	0005d337          	lui	t1,0x5d
  10b1a8:	1b030313          	add	t1,t1,432 # 5d1b0 <tohost+0x3d1a8>
  10b1ac:	00610133          	add	sp,sp,t1

0010b1b0 <i00000018f9>:
  10b1b0:	3e4105a3          	sb	tp,1003(sp)

0010b1b4 <i00000018fa>:
  10b1b4:	8b136f93          	or	t6,t1,-1871

0010b1b8 <i00000018fb>:
  10b1b8:	00e48db3          	add	s11,s1,a4

0010b1bc <i00000018fc>:
  10b1bc:	418ed933          	sra	s2,t4,s8

0010b1c0 <i00000018fd>:
  10b1c0:	598b0b13          	add	s6,s6,1432 # 4301e598 <fromhost+0x42e96588>

0010b1c4 <i00000018fe>:
  10b1c4:	4f612e23          	sw	s6,1276(sp)

0010b1c8 <i00000018ff>:
  10b1c8:	10810b03          	lb	s6,264(sp)

0010b1cc <i0000001900>:
  10b1cc:	000274b3          	and	s1,tp,zero

0010b1d0 <i0000001901>:
  10b1d0:	8d510d83          	lb	s11,-1835(sp)

0010b1d4 <i0000001902>:
  10b1d4:	cfc11003          	lh	zero,-772(sp)

0010b1d8 <i0000001903>:
  10b1d8:	1d34e917          	auipc	s2,0x1d34e
  10b1dc:	00b00b93          	li	s7,11
  10b1e0:	00a00d13          	li	s10,10

0010b1e4 <b0000001904>:
  10b1e4:	00000033          	add	zero,zero,zero
  10b1e8:	03abd063          	bge	s7,s10,10b208 <i0000001909>
  10b1ec:	00000033          	add	zero,zero,zero
  10b1f0:	00a00d13          	li	s10,10

0010b1f4 <i0000001904>:
  10b1f4:	cdc11503          	lh	a0,-804(sp)

0010b1f8 <i0000001905>:
  10b1f8:	1e47f793          	and	a5,a5,484

0010b1fc <i0000001906>:
  10b1fc:	400b5533          	sra	a0,s6,zero

0010b200 <i0000001907>:
  10b200:	c4027393          	and	t2,tp,-960

0010b204 <i0000001908>:
  10b204:	88811b83          	lh	s7,-1912(sp)

0010b208 <i0000001909>:
  10b208:	015ee933          	or	s2,t4,s5

0010b20c <i000000190a>:
  10b20c:	004b31b3          	sltu	gp,s6,tp

0010b210 <i000000190b>:
  10b210:	d38f3213          	sltiu	tp,t5,-712

0010b214 <i000000190c>:
  10b214:	16c15b03          	lhu	s6,364(sp)

0010b218 <i000000190d>:
  10b218:	3be12423          	sw	t5,936(sp)

0010b21c <i000000190e>:
  10b21c:	d8611003          	lh	zero,-634(sp)

0010b220 <i000000190f>:
  10b220:	c8a15303          	lhu	t1,-886(sp)

0010b224 <i0000001910>:
  10b224:	c4906213          	or	tp,zero,-951

0010b228 <i0000001911>:
  10b228:	d5615383          	lhu	t2,-682(sp)
  10b22c:	00004117          	auipc	sp,0x4
  10b230:	ed410113          	add	sp,sp,-300 # 10f100 <mem>
  10b234:	00060337          	lui	t1,0x60
  10b238:	47830313          	add	t1,t1,1144 # 60478 <tohost+0x40470>
  10b23c:	00610133          	add	sp,sp,t1

0010b240 <i0000001912>:
  10b240:	0c014183          	lbu	gp,192(sp)

0010b244 <i0000001913>:
  10b244:	964aa393          	slti	t2,s5,-1692

0010b248 <i0000001914>:
  10b248:	841b6f13          	or	t5,s6,-1983

0010b24c <i0000001915>:
  10b24c:	51c11823          	sh	t3,1296(sp)
  10b250:	00004117          	auipc	sp,0x4
  10b254:	eb010113          	add	sp,sp,-336 # 10f100 <mem>
  10b258:	0001b337          	lui	t1,0x1b
  10b25c:	15030313          	add	t1,t1,336 # 1b150 <_stack_len+0x13150>
  10b260:	00610133          	add	sp,sp,t1

0010b264 <i0000001916>:
  10b264:	3eb14903          	lbu	s2,1003(sp)

0010b268 <b0000001917>:
  10b268:	00000c97          	auipc	s9,0x0
  10b26c:	034c8c93          	add	s9,s9,52 # 10b29c <i0000001921>
  10b270:	000c8567          	jalr	a0,s9

0010b274 <i0000001917>:
  10b274:	4e414c03          	lbu	s8,1252(sp)

0010b278 <i0000001918>:
  10b278:	4f404713          	xor	a4,zero,1268

0010b27c <i0000001919>:
  10b27c:	36d102a3          	sb	a3,869(sp)

0010b280 <i000000191a>:
  10b280:	a6efcb13          	xor	s6,t6,-1426

0010b284 <i000000191b>:
  10b284:	40388b33          	sub	s6,a7,gp

0010b288 <i000000191c>:
  10b288:	e7510503          	lb	a0,-395(sp)

0010b28c <i000000191d>:
  10b28c:	93e15783          	lhu	a5,-1730(sp)

0010b290 <i000000191e>:
  10b290:	00006533          	or	a0,zero,zero

0010b294 <i000000191f>:
  10b294:	7ac12f03          	lw	t5,1964(sp)

0010b298 <i0000001920>:
  10b298:	41ef0533          	sub	a0,t5,t5

0010b29c <i0000001921>:
  10b29c:	419e8f33          	sub	t5,t4,s9

0010b2a0 <i0000001922>:
  10b2a0:	41eb5fb3          	sra	t6,s6,t5

0010b2a4 <i0000001923>:
  10b2a4:	c9812a83          	lw	s5,-872(sp)

0010b2a8 <i0000001924>:
  10b2a8:	8d311623          	sh	s3,-1844(sp)
  10b2ac:	00004117          	auipc	sp,0x4
  10b2b0:	e5410113          	add	sp,sp,-428 # 10f100 <mem>
  10b2b4:	0005d337          	lui	t1,0x5d
  10b2b8:	1e830313          	add	t1,t1,488 # 5d1e8 <tohost+0x3d1e0>
  10b2bc:	00610133          	add	sp,sp,t1

0010b2c0 <i0000001925>:
  10b2c0:	cc011503          	lh	a0,-832(sp)
  10b2c4:	00004117          	auipc	sp,0x4
  10b2c8:	e3c10113          	add	sp,sp,-452 # 10f100 <mem>
  10b2cc:	00027337          	lui	t1,0x27
  10b2d0:	5d030313          	add	t1,t1,1488 # 275d0 <tohost+0x75c8>
  10b2d4:	00610133          	add	sp,sp,t1

0010b2d8 <i0000001926>:
  10b2d8:	3fc12203          	lw	tp,1020(sp)

0010b2dc <i0000001927>:
  10b2dc:	c6e14003          	lbu	zero,-914(sp)

0010b2e0 <i0000001928>:
  10b2e0:	e0d07293          	and	t0,zero,-499

0010b2e4 <i0000001929>:
  10b2e4:	000b7b33          	and	s6,s6,zero
  10b2e8:	00a00993          	li	s3,10
  10b2ec:	00a00d13          	li	s10,10

0010b2f0 <b000000192a>:
  10b2f0:	00000033          	add	zero,zero,zero
  10b2f4:	053d1863          	bne	s10,s3,10b344 <i0000001931>
  10b2f8:	00000033          	add	zero,zero,zero
  10b2fc:	00a00d13          	li	s10,10

0010b300 <i000000192a>:
  10b300:	01ef4233          	xor	tp,t5,t5

0010b304 <i000000192b>:
  10b304:	77815003          	lhu	zero,1912(sp)
  10b308:	00004117          	auipc	sp,0x4
  10b30c:	df810113          	add	sp,sp,-520 # 10f100 <mem>
  10b310:	00044337          	lui	t1,0x44
  10b314:	95030313          	add	t1,t1,-1712 # 43950 <tohost+0x23948>
  10b318:	00610133          	add	sp,sp,t1

0010b31c <i000000192c>:
  10b31c:	f2815b03          	lhu	s6,-216(sp)

0010b320 <i000000192d>:
  10b320:	34045217          	auipc	tp,0x34045

0010b324 <i000000192e>:
  10b324:	26cf9437          	lui	s0,0x26cf9

0010b328 <i000000192f>:
  10b328:	92310f03          	lb	t5,-1757(sp)
  10b32c:	00004117          	auipc	sp,0x4
  10b330:	dd410113          	add	sp,sp,-556 # 10f100 <mem>
  10b334:	00035337          	lui	t1,0x35
  10b338:	d6030313          	add	t1,t1,-672 # 34d60 <tohost+0x14d58>
  10b33c:	00610133          	add	sp,sp,t1

0010b340 <i0000001930>:
  10b340:	56412e23          	sw	tp,1404(sp)

0010b344 <i0000001931>:
  10b344:	042b3193          	sltiu	gp,s6,66
  10b348:	00004117          	auipc	sp,0x4
  10b34c:	db810113          	add	sp,sp,-584 # 10f100 <mem>
  10b350:	00040337          	lui	t1,0x40
  10b354:	da030313          	add	t1,t1,-608 # 3fda0 <tohost+0x1fd98>
  10b358:	00610133          	add	sp,sp,t1

0010b35c <i0000001932>:
  10b35c:	4ab11f23          	sh	a1,1214(sp)

0010b360 <i0000001933>:
  10b360:	40ab0fb3          	sub	t6,s6,a0

0010b364 <i0000001934>:
  10b364:	00027f33          	and	t5,tp,zero
  10b368:	00004117          	auipc	sp,0x4
  10b36c:	d9810113          	add	sp,sp,-616 # 10f100 <mem>
  10b370:	00006337          	lui	t1,0x6
  10b374:	7d830313          	add	t1,t1,2008 # 67d8 <_min_stack+0x47d8>
  10b378:	00610133          	add	sp,sp,t1

0010b37c <i0000001935>:
  10b37c:	e4615503          	lhu	a0,-442(sp)

0010b380 <i0000001936>:
  10b380:	28815203          	lhu	tp,648(sp)

0010b384 <i0000001937>:
  10b384:	def23393          	sltiu	t2,tp,-529

0010b388 <i0000001938>:
  10b388:	3b811383          	lh	t2,952(sp)

0010b38c <i0000001939>:
  10b38c:	e4e48213          	add	tp,s1,-434 # 6c75a612 <fromhost+0x6c5d2602>
  10b390:	00004117          	auipc	sp,0x4
  10b394:	d7010113          	add	sp,sp,-656 # 10f100 <mem>
  10b398:	00063337          	lui	t1,0x63
  10b39c:	fd830313          	add	t1,t1,-40 # 62fd8 <tohost+0x42fd0>
  10b3a0:	00610133          	add	sp,sp,t1

0010b3a4 <i000000193a>:
  10b3a4:	39310b03          	lb	s6,915(sp)
  10b3a8:	00004117          	auipc	sp,0x4
  10b3ac:	d5810113          	add	sp,sp,-680 # 10f100 <mem>
  10b3b0:	00018337          	lui	t1,0x18
  10b3b4:	28030313          	add	t1,t1,640 # 18280 <_stack_len+0x10280>
  10b3b8:	00610133          	add	sp,sp,t1

0010b3bc <i000000193b>:
  10b3bc:	32c12003          	lw	zero,812(sp)

0010b3c0 <i000000193c>:
  10b3c0:	62610803          	lb	a6,1574(sp)
  10b3c4:	00000913          	li	s2,0

0010b3c8 <b000000193d>:
  10b3c8:	00000033          	add	zero,zero,zero
  10b3cc:	fb2d0ee3          	beq	s10,s2,10b388 <i0000001938>
  10b3d0:	00000033          	add	zero,zero,zero
  10b3d4:	00a00d13          	li	s10,10

0010b3d8 <i000000193d>:
  10b3d8:	5ebe8217          	auipc	tp,0x5ebe8

0010b3dc <i000000193e>:
  10b3dc:	7e611e83          	lh	t4,2022(sp)

0010b3e0 <i000000193f>:
  10b3e0:	46811283          	lh	t0,1128(sp)

0010b3e4 <i0000001940>:
  10b3e4:	af61a213          	slti	tp,gp,-1290

0010b3e8 <i0000001941>:
  10b3e8:	2d72ff37          	lui	t5,0x2d72f

0010b3ec <i0000001942>:
  10b3ec:	e2580193          	add	gp,a6,-475 # 708992cd <fromhost+0x707112bd>

0010b3f0 <i0000001943>:
  10b3f0:	fd612e23          	sw	s6,-36(sp)

0010b3f4 <i0000001944>:
  10b3f4:	ba412c23          	sw	tp,-1096(sp)

0010b3f8 <i0000001945>:
  10b3f8:	c6114f83          	lbu	t6,-927(sp)

0010b3fc <i0000001946>:
  10b3fc:	01f9ab33          	slt	s6,s3,t6

0010b400 <i0000001947>:
  10b400:	4a012783          	lw	a5,1184(sp)

0010b404 <i0000001948>:
  10b404:	d0412223          	sw	tp,-764(sp)

0010b408 <i0000001949>:
  10b408:	6b812603          	lw	a2,1720(sp)

0010b40c <i000000194a>:
  10b40c:	e8110503          	lb	a0,-383(sp)

0010b410 <i000000194b>:
  10b410:	28da9b17          	auipc	s6,0x28da9

0010b414 <i000000194c>:
  10b414:	a6811503          	lh	a0,-1432(sp)

0010b418 <i000000194d>:
  10b418:	014ff333          	and	t1,t6,s4

0010b41c <i000000194e>:
  10b41c:	bfe11d83          	lh	s11,-1026(sp)

0010b420 <i000000194f>:
  10b420:	d1510503          	lb	a0,-747(sp)
  10b424:	00b00a93          	li	s5,11
  10b428:	00a00d13          	li	s10,10

0010b42c <b0000001950>:
  10b42c:	00000033          	add	zero,zero,zero
  10b430:	03aad463          	bge	s5,s10,10b458 <i0000001957>
  10b434:	00000033          	add	zero,zero,zero
  10b438:	00a00d13          	li	s10,10

0010b43c <i0000001950>:
  10b43c:	7c698f17          	auipc	t5,0x7c698

0010b440 <i0000001951>:
  10b440:	f2e12623          	sw	a4,-212(sp)

0010b444 <i0000001952>:
  10b444:	80012a23          	sw	zero,-2028(sp)

0010b448 <i0000001953>:
  10b448:	c6eb0f13          	add	t5,s6,-914 # 28eb407e <fromhost+0x28d2c06e>

0010b44c <i0000001954>:
  10b44c:	13052b13          	slti	s6,a0,304

0010b450 <i0000001955>:
  10b450:	e7010203          	lb	tp,-400(sp)

0010b454 <i0000001956>:
  10b454:	01623db3          	sltu	s11,tp,s6

0010b458 <i0000001957>:
  10b458:	36440e97          	auipc	t4,0x36440

0010b45c <i0000001958>:
  10b45c:	003734b3          	sltu	s1,a4,gp

0010b460 <i0000001959>:
  10b460:	86b11423          	sh	a1,-1944(sp)

0010b464 <i000000195a>:
  10b464:	81910b23          	sb	s9,-2026(sp)

0010b468 <i000000195b>:
  10b468:	8e012823          	sw	zero,-1808(sp)
  10b46c:	00004117          	auipc	sp,0x4
  10b470:	c9410113          	add	sp,sp,-876 # 10f100 <mem>
  10b474:	0000b337          	lui	t1,0xb
  10b478:	09830313          	add	t1,t1,152 # b098 <_stack_len+0x3098>
  10b47c:	00610133          	add	sp,sp,t1

0010b480 <i000000195c>:
  10b480:	e1a11c83          	lh	s9,-486(sp)

0010b484 <i000000195d>:
  10b484:	37b108a3          	sb	s11,881(sp)

0010b488 <i000000195e>:
  10b488:	d4011523          	sh	zero,-694(sp)

0010b48c <i000000195f>:
  10b48c:	022f6c13          	or	s8,t5,34

0010b490 <i0000001960>:
  10b490:	ddd22493          	slti	s1,tp,-547

0010b494 <i0000001961>:
  10b494:	00402ab3          	sgtz	s5,tp

0010b498 <i0000001962>:
  10b498:	ca010423          	sb	zero,-856(sp)
  10b49c:	00c00b93          	li	s7,12
  10b4a0:	001d0d13          	add	s10,s10,1

0010b4a4 <b0000001963>:
  10b4a4:	00000033          	add	zero,zero,zero
  10b4a8:	fbabd4e3          	bge	s7,s10,10b450 <i0000001955>
  10b4ac:	00000033          	add	zero,zero,zero
  10b4b0:	00a00d13          	li	s10,10

0010b4b4 <i0000001963>:
  10b4b4:	00a26ab3          	or	s5,tp,a0

0010b4b8 <i0000001964>:
  10b4b8:	f2510a23          	sb	t0,-204(sp)

0010b4bc <i0000001965>:
  10b4bc:	40a05713          	sra	a4,zero,0xa

0010b4c0 <i0000001966>:
  10b4c0:	e0910223          	sb	s1,-508(sp)

0010b4c4 <i0000001967>:
  10b4c4:	400f09b3          	sub	s3,t5,zero

0010b4c8 <i0000001968>:
  10b4c8:	95cf6513          	or	a0,t5,-1700
  10b4cc:	00004117          	auipc	sp,0x4
  10b4d0:	c3410113          	add	sp,sp,-972 # 10f100 <mem>
  10b4d4:	00013337          	lui	t1,0x13
  10b4d8:	ea030313          	add	t1,t1,-352 # 12ea0 <_stack_len+0xaea0>
  10b4dc:	00610133          	add	sp,sp,t1

0010b4e0 <i0000001969>:
  10b4e0:	b2d11e23          	sh	a3,-1220(sp)

0010b4e4 <i000000196a>:
  10b4e4:	4b666493          	or	s1,a2,1206

0010b4e8 <i000000196b>:
  10b4e8:	26414883          	lbu	a7,612(sp)

0010b4ec <i000000196c>:
  10b4ec:	c7411183          	lh	gp,-908(sp)

0010b4f0 <i000000196d>:
  10b4f0:	6ea11f03          	lh	t5,1770(sp)

0010b4f4 <i000000196e>:
  10b4f4:	4145d593          	sra	a1,a1,0x14

0010b4f8 <i000000196f>:
  10b4f8:	00efd013          	srl	zero,t6,0xe

0010b4fc <i0000001970>:
  10b4fc:	37012183          	lw	gp,880(sp)
  10b500:	00004117          	auipc	sp,0x4
  10b504:	c0010113          	add	sp,sp,-1024 # 10f100 <mem>
  10b508:	00042337          	lui	t1,0x42
  10b50c:	04830313          	add	t1,t1,72 # 42048 <tohost+0x22040>
  10b510:	00610133          	add	sp,sp,t1

0010b514 <i0000001971>:
  10b514:	ec012a23          	sw	zero,-300(sp)

0010b518 <i0000001972>:
  10b518:	2e3f2b13          	slti	s6,t5,739
  10b51c:	00004117          	auipc	sp,0x4
  10b520:	be410113          	add	sp,sp,-1052 # 10f100 <mem>
  10b524:	0003e337          	lui	t1,0x3e
  10b528:	bf830313          	add	t1,t1,-1032 # 3dbf8 <tohost+0x1dbf0>
  10b52c:	00610133          	add	sp,sp,t1

0010b530 <i0000001973>:
  10b530:	c7412503          	lw	a0,-908(sp)

0010b534 <i0000001974>:
  10b534:	9a012f03          	lw	t5,-1632(sp)

0010b538 <i0000001975>:
  10b538:	8bc14203          	lbu	tp,-1860(sp)
  10b53c:	00000f93          	li	t6,0

0010b540 <b0000001976>:
  10b540:	00000033          	add	zero,zero,zero
  10b544:	05fd0063          	beq	s10,t6,10b584 <i0000001983>
  10b548:	00000033          	add	zero,zero,zero
  10b54c:	00a00d13          	li	s10,10

0010b550 <i0000001976>:
  10b550:	4f812003          	lw	zero,1272(sp)

0010b554 <i0000001977>:
  10b554:	00d45cb3          	srl	s9,s0,a3

0010b558 <i0000001978>:
  10b558:	3ac50713          	add	a4,a0,940 # 2cc443ac <fromhost+0x2cabc39c>

0010b55c <i0000001979>:
  10b55c:	4134d533          	sra	a0,s1,s3

0010b560 <i000000197a>:
  10b560:	4e3b2f93          	slti	t6,s6,1251

0010b564 <i000000197b>:
  10b564:	00085b93          	srl	s7,a6,0x0

0010b568 <i000000197c>:
  10b568:	013ca433          	slt	s0,s9,s3

0010b56c <i000000197d>:
  10b56c:	b9412703          	lw	a4,-1132(sp)

0010b570 <i000000197e>:
  10b570:	00422233          	slt	tp,tp,tp

0010b574 <i000000197f>:
  10b574:	00b5f3b3          	and	t2,a1,a1

0010b578 <i0000001980>:
  10b578:	42f6eb93          	or	s7,a3,1071

0010b57c <i0000001981>:
  10b57c:	5f510503          	lb	a0,1525(sp)

0010b580 <i0000001982>:
  10b580:	28812223          	sw	s0,644(sp)

0010b584 <i0000001983>:
  10b584:	7fe11503          	lh	a0,2046(sp)

0010b588 <i0000001984>:
  10b588:	1ed11f23          	sh	a3,510(sp)

0010b58c <i0000001985>:
  10b58c:	41e20ab3          	sub	s5,tp,t5

0010b590 <i0000001986>:
  10b590:	1a615003          	lhu	zero,422(sp)

0010b594 <i0000001987>:
  10b594:	afb12423          	sw	s11,-1304(sp)

0010b598 <i0000001988>:
  10b598:	37b56b37          	lui	s6,0x37b56

0010b59c <b0000001989>:
  10b59c:	00000817          	auipc	a6,0x0
  10b5a0:	07080813          	add	a6,a6,112 # 10b60c <i0000001993>
  10b5a4:	00080567          	jalr	a0,a6
  10b5a8:	00004117          	auipc	sp,0x4
  10b5ac:	b5810113          	add	sp,sp,-1192 # 10f100 <mem>
  10b5b0:	00066337          	lui	t1,0x66
  10b5b4:	72030313          	add	t1,t1,1824 # 66720 <tohost+0x46718>
  10b5b8:	00610133          	add	sp,sp,t1

0010b5bc <i0000001989>:
  10b5bc:	4fa15a83          	lhu	s5,1274(sp)
  10b5c0:	00004117          	auipc	sp,0x4
  10b5c4:	b4010113          	add	sp,sp,-1216 # 10f100 <mem>
  10b5c8:	00033337          	lui	t1,0x33
  10b5cc:	e1030313          	add	t1,t1,-496 # 32e10 <tohost+0x12e08>
  10b5d0:	00610133          	add	sp,sp,t1

0010b5d4 <i000000198a>:
  10b5d4:	f7e14583          	lbu	a1,-130(sp)

0010b5d8 <i000000198b>:
  10b5d8:	37512023          	sw	s5,864(sp)

0010b5dc <i000000198c>:
  10b5dc:	4b713217          	auipc	tp,0x4b713

0010b5e0 <i000000198d>:
  10b5e0:	38aca513          	slti	a0,s9,906

0010b5e4 <i000000198e>:
  10b5e4:	057bbf13          	sltiu	t5,s7,87

0010b5e8 <i000000198f>:
  10b5e8:	d2412623          	sw	tp,-724(sp)

0010b5ec <i0000001990>:
  10b5ec:	e0bff613          	and	a2,t6,-501

0010b5f0 <i0000001991>:
  10b5f0:	b7b14c03          	lbu	s8,-1157(sp)

0010b5f4 <i0000001992>:
  10b5f4:	69910203          	lb	tp,1689(sp)
  10b5f8:	00004117          	auipc	sp,0x4
  10b5fc:	b0810113          	add	sp,sp,-1272 # 10f100 <mem>
  10b600:	00027337          	lui	t1,0x27
  10b604:	22830313          	add	t1,t1,552 # 27228 <tohost+0x7220>
  10b608:	00610133          	add	sp,sp,t1

0010b60c <i0000001993>:
  10b60c:	19812203          	lw	tp,408(sp)

0010b610 <i0000001994>:
  10b610:	00057833          	and	a6,a0,zero

0010b614 <i0000001995>:
  10b614:	0294e013          	or	zero,s1,41

0010b618 <i0000001996>:
  10b618:	00057533          	and	a0,a0,zero

0010b61c <i0000001997>:
  10b61c:	df773813          	sltiu	a6,a4,-521

0010b620 <i0000001998>:
  10b620:	0076f033          	and	zero,a3,t2

0010b624 <i0000001999>:
  10b624:	4e811983          	lh	s3,1256(sp)
  10b628:	00004117          	auipc	sp,0x4
  10b62c:	ad810113          	add	sp,sp,-1320 # 10f100 <mem>
  10b630:	00019337          	lui	t1,0x19
  10b634:	ea830313          	add	t1,t1,-344 # 18ea8 <_stack_len+0x10ea8>
  10b638:	00610133          	add	sp,sp,t1

0010b63c <i000000199a>:
  10b63c:	c3012903          	lw	s2,-976(sp)

0010b640 <i000000199b>:
  10b640:	016f2f33          	slt	t5,t5,s6
  10b644:	00a00893          	li	a7,10

0010b648 <b000000199c>:
  10b648:	00000033          	add	zero,zero,zero
  10b64c:	fd1d18e3          	bne	s10,a7,10b61c <i0000001997>
  10b650:	00000033          	add	zero,zero,zero
  10b654:	00a00d13          	li	s10,10

0010b658 <i000000199c>:
  10b658:	00ab3f33          	sltu	t5,s6,a0

0010b65c <i000000199d>:
  10b65c:	41d58ab3          	sub	s5,a1,t4

0010b660 <i000000199e>:
  10b660:	c3622d93          	slti	s11,tp,-970

0010b664 <i000000199f>:
  10b664:	70426537          	lui	a0,0x70426

0010b668 <i00000019a0>:
  10b668:	00005f33          	srl	t5,zero,zero

0010b66c <i00000019a1>:
  10b66c:	da811c03          	lh	s8,-600(sp)

0010b670 <i00000019a2>:
  10b670:	87e03b13          	sltiu	s6,zero,-1922

0010b674 <i00000019a3>:
  10b674:	40a55233          	sra	tp,a0,a0

0010b678 <i00000019a4>:
  10b678:	5fe57b13          	and	s6,a0,1534

0010b67c <i00000019a5>:
  10b67c:	69faaa13          	slti	s4,s5,1695

0010b680 <i00000019a6>:
  10b680:	3a611f03          	lh	t5,934(sp)

0010b684 <i00000019a7>:
  10b684:	e8bb6913          	or	s2,s6,-373
  10b688:	00004117          	auipc	sp,0x4
  10b68c:	a7810113          	add	sp,sp,-1416 # 10f100 <mem>
  10b690:	0006c337          	lui	t1,0x6c
  10b694:	5b830313          	add	t1,t1,1464 # 6c5b8 <tohost+0x4c5b0>
  10b698:	00610133          	add	sp,sp,t1

0010b69c <i00000019a8>:
  10b69c:	7a512a23          	sw	t0,1972(sp)
  10b6a0:	00004117          	auipc	sp,0x4
  10b6a4:	a6010113          	add	sp,sp,-1440 # 10f100 <mem>
  10b6a8:	00036337          	lui	t1,0x36
  10b6ac:	94830313          	add	t1,t1,-1720 # 35948 <tohost+0x15940>
  10b6b0:	00610133          	add	sp,sp,t1

0010b6b4 <i00000019a9>:
  10b6b4:	93112223          	sw	a7,-1756(sp)

0010b6b8 <i00000019aa>:
  10b6b8:	01240b33          	add	s6,s0,s2

0010b6bc <i00000019ab>:
  10b6bc:	e7911c23          	sh	s9,-392(sp)

0010b6c0 <i00000019ac>:
  10b6c0:	5f211223          	sh	s2,1508(sp)

0010b6c4 <i00000019ad>:
  10b6c4:	82811d83          	lh	s11,-2008(sp)

0010b6c8 <i00000019ae>:
  10b6c8:	1a4102a3          	sb	tp,421(sp)
  10b6cc:	00900a13          	li	s4,9
  10b6d0:	00a00d13          	li	s10,10

0010b6d4 <b00000019af>:
  10b6d4:	00000033          	add	zero,zero,zero
  10b6d8:	05aa5a63          	bge	s4,s10,10b72c <i00000019bc>
  10b6dc:	00000033          	add	zero,zero,zero
  10b6e0:	00a00d13          	li	s10,10

0010b6e4 <i00000019af>:
  10b6e4:	01e03633          	snez	a2,t5

0010b6e8 <i00000019b0>:
  10b6e8:	009a5f13          	srl	t5,s4,0x9

0010b6ec <i00000019b1>:
  10b6ec:	01e25233          	srl	tp,tp,t5

0010b6f0 <i00000019b2>:
  10b6f0:	f3b10b03          	lb	s6,-197(sp)

0010b6f4 <i00000019b3>:
  10b6f4:	004072b3          	and	t0,zero,tp

0010b6f8 <i00000019b4>:
  10b6f8:	ea36a793          	slti	a5,a3,-349

0010b6fc <i00000019b5>:
  10b6fc:	b0010c03          	lb	s8,-1280(sp)

0010b700 <i00000019b6>:
  10b700:	919a6f13          	or	t5,s4,-1767

0010b704 <i00000019b7>:
  10b704:	37414603          	lbu	a2,884(sp)
  10b708:	00004117          	auipc	sp,0x4
  10b70c:	9f810113          	add	sp,sp,-1544 # 10f100 <mem>
  10b710:	00066337          	lui	t1,0x66
  10b714:	dc030313          	add	t1,t1,-576 # 65dc0 <tohost+0x45db8>
  10b718:	00610133          	add	sp,sp,t1

0010b71c <i00000019b8>:
  10b71c:	42612223          	sw	t1,1060(sp)

0010b720 <i00000019b9>:
  10b720:	8d612823          	sw	s6,-1840(sp)

0010b724 <i00000019ba>:
  10b724:	9a910c83          	lb	s9,-1623(sp)

0010b728 <i00000019bb>:
  10b728:	a4f84513          	xor	a0,a6,-1457

0010b72c <i00000019bc>:
  10b72c:	01ce3833          	sltu	a6,t3,t3

0010b730 <i00000019bd>:
  10b730:	1c304013          	xor	zero,zero,451

0010b734 <i00000019be>:
  10b734:	00f81433          	sll	s0,a6,a5

0010b738 <i00000019bf>:
  10b738:	ae514f03          	lbu	t5,-1307(sp)

0010b73c <i00000019c0>:
  10b73c:	01c35793          	srl	a5,t1,0x1c

0010b740 <i00000019c1>:
  10b740:	4be14203          	lbu	tp,1214(sp)
  10b744:	00c00c13          	li	s8,12
  10b748:	001d0d13          	add	s10,s10,1

0010b74c <b00000019c2>:
  10b74c:	00000033          	add	zero,zero,zero
  10b750:	fd8d46e3          	blt	s10,s8,10b71c <i00000019b8>
  10b754:	00000033          	add	zero,zero,zero
  10b758:	00a00d13          	li	s10,10

0010b75c <i00000019c2>:
  10b75c:	60510323          	sb	t0,1542(sp)

0010b760 <i00000019c3>:
  10b760:	9e210003          	lb	zero,-1566(sp)

0010b764 <i00000019c4>:
  10b764:	36411223          	sh	tp,868(sp)

0010b768 <i00000019c5>:
  10b768:	66da0013          	add	zero,s4,1645

0010b76c <i00000019c6>:
  10b76c:	00c5d513          	srl	a0,a1,0xc

0010b770 <i00000019c7>:
  10b770:	4f03fc97          	auipc	s9,0x4f03f

0010b774 <i00000019c8>:
  10b774:	11411a23          	sh	s4,276(sp)

0010b778 <i00000019c9>:
  10b778:	00a23533          	sltu	a0,tp,a0
  10b77c:	00004117          	auipc	sp,0x4
  10b780:	98410113          	add	sp,sp,-1660 # 10f100 <mem>
  10b784:	00035337          	lui	t1,0x35
  10b788:	72030313          	add	t1,t1,1824 # 35720 <tohost+0x15718>
  10b78c:	00610133          	add	sp,sp,t1

0010b790 <i00000019ca>:
  10b790:	60e11903          	lh	s2,1550(sp)

0010b794 <i00000019cb>:
  10b794:	a1554013          	xor	zero,a0,-1515

0010b798 <i00000019cc>:
  10b798:	00421cb3          	sll	s9,tp,tp

0010b79c <i00000019cd>:
  10b79c:	23098317          	auipc	t1,0x23098

0010b7a0 <i00000019ce>:
  10b7a0:	8a611523          	sh	t1,-1878(sp)
  10b7a4:	00004117          	auipc	sp,0x4
  10b7a8:	95c10113          	add	sp,sp,-1700 # 10f100 <mem>
  10b7ac:	00010337          	lui	t1,0x10
  10b7b0:	78830313          	add	t1,t1,1928 # 10788 <_stack_len+0x8788>
  10b7b4:	00610133          	add	sp,sp,t1

0010b7b8 <i00000019cf>:
  10b7b8:	49e11c23          	sh	t5,1176(sp)

0010b7bc <i00000019d0>:
  10b7bc:	71312623          	sw	s3,1804(sp)

0010b7c0 <i00000019d1>:
  10b7c0:	e9a20a13          	add	s4,tp,-358 # 4b81e476 <fromhost+0x4b696466>

0010b7c4 <i00000019d2>:
  10b7c4:	a1015503          	lhu	a0,-1520(sp)

0010b7c8 <i00000019d3>:
  10b7c8:	4078d4b3          	sra	s1,a7,t2

0010b7cc <i00000019d4>:
  10b7cc:	4167df13          	sra	t5,a5,0x16
  10b7d0:	00c00f93          	li	t6,12
  10b7d4:	00a00d13          	li	s10,10

0010b7d8 <b00000019d5>:
  10b7d8:	00000033          	add	zero,zero,zero
  10b7dc:	05fd4063          	blt	s10,t6,10b81c <i00000019dd>
  10b7e0:	00000033          	add	zero,zero,zero
  10b7e4:	00a00d13          	li	s10,10

0010b7e8 <i00000019d5>:
  10b7e8:	416f5533          	sra	a0,t5,s6

0010b7ec <i00000019d6>:
  10b7ec:	01655b33          	srl	s6,a0,s6

0010b7f0 <i00000019d7>:
  10b7f0:	af811503          	lh	a0,-1288(sp)

0010b7f4 <i00000019d8>:
  10b7f4:	0e114283          	lbu	t0,225(sp)

0010b7f8 <i00000019d9>:
  10b7f8:	70fb4493          	xor	s1,s6,1807

0010b7fc <i00000019da>:
  10b7fc:	dba11203          	lh	tp,-582(sp)

0010b800 <i00000019db>:
  10b800:	404f0533          	sub	a0,t5,tp

0010b804 <i00000019dc>:
  10b804:	2c415c03          	lhu	s8,708(sp)
  10b808:	00004117          	auipc	sp,0x4
  10b80c:	8f810113          	add	sp,sp,-1800 # 10f100 <mem>
  10b810:	0003b337          	lui	t1,0x3b
  10b814:	b6830313          	add	t1,t1,-1176 # 3ab68 <tohost+0x1ab60>
  10b818:	00610133          	add	sp,sp,t1

0010b81c <i00000019dd>:
  10b81c:	ac712623          	sw	t2,-1332(sp)

0010b820 <i00000019de>:
  10b820:	01210a23          	sb	s2,20(sp)

0010b824 <i00000019df>:
  10b824:	00979713          	sll	a4,a5,0x9

0010b828 <i00000019e0>:
  10b828:	41e25433          	sra	s0,tp,t5

0010b82c <i00000019e1>:
  10b82c:	09c62297          	auipc	t0,0x9c62

0010b830 <i00000019e2>:
  10b830:	00421b33          	sll	s6,tp,tp

0010b834 <i00000019e3>:
  10b834:	20822013          	slti	zero,tp,520

0010b838 <i00000019e4>:
  10b838:	40420233          	sub	tp,tp,tp

0010b83c <i00000019e5>:
  10b83c:	b6c12683          	lw	a3,-1172(sp)

0010b840 <i00000019e6>:
  10b840:	92190413          	add	s0,s2,-1759 # 1d458af9 <fromhost+0x1d2d0ae9>

0010b844 <i00000019e7>:
  10b844:	0f011383          	lh	t2,240(sp)
  10b848:	00c00813          	li	a6,12
  10b84c:	001d0d13          	add	s10,s10,1

0010b850 <b00000019e8>:
  10b850:	010d0463          	beq	s10,a6,10b858 <b00000019e8+0x8>
  10b854:	fd5ff56f          	jal	a0,10b828 <i00000019e0>
  10b858:	00a00d13          	li	s10,10

0010b85c <i00000019e8>:
  10b85c:	1da15203          	lhu	tp,474(sp)

0010b860 <i00000019e9>:
  10b860:	09923213          	sltiu	tp,tp,153

0010b864 <i00000019ea>:
  10b864:	41e55b33          	sra	s6,a0,t5

0010b868 <i00000019eb>:
  10b868:	00025533          	srl	a0,tp,zero

0010b86c <i00000019ec>:
  10b86c:	0147ff33          	and	t5,a5,s4

0010b870 <i00000019ed>:
  10b870:	39a11003          	lh	zero,922(sp)

0010b874 <i00000019ee>:
  10b874:	00d3da93          	srl	s5,t2,0xd

0010b878 <i00000019ef>:
  10b878:	00457033          	and	zero,a0,tp

0010b87c <i00000019f0>:
  10b87c:	005e1f13          	sll	t5,t3,0x5

0010b880 <i00000019f1>:
  10b880:	690d2217          	auipc	tp,0x690d2

0010b884 <i00000019f2>:
  10b884:	b1811003          	lh	zero,-1256(sp)

0010b888 <i00000019f3>:
  10b888:	00403533          	snez	a0,tp

0010b88c <i00000019f4>:
  10b88c:	00205393          	srl	t2,zero,0x2

0010b890 <i00000019f5>:
  10b890:	31914003          	lbu	zero,793(sp)

0010b894 <i00000019f6>:
  10b894:	2a2f6fb7          	lui	t6,0x2a2f6

0010b898 <i00000019f7>:
  10b898:	554becb7          	lui	s9,0x554be
  10b89c:	00004117          	auipc	sp,0x4
  10b8a0:	86410113          	add	sp,sp,-1948 # 10f100 <mem>
  10b8a4:	0004f337          	lui	t1,0x4f
  10b8a8:	ab030313          	add	t1,t1,-1360 # 4eab0 <tohost+0x2eaa8>
  10b8ac:	00610133          	add	sp,sp,t1

0010b8b0 <i00000019f8>:
  10b8b0:	44c12f03          	lw	t5,1100(sp)

0010b8b4 <i00000019f9>:
  10b8b4:	01bbe333          	or	t1,s7,s11

0010b8b8 <i00000019fa>:
  10b8b8:	000b2233          	sltz	tp,s6
  10b8bc:	00900893          	li	a7,9

0010b8c0 <b00000019fb>:
  10b8c0:	00000033          	add	zero,zero,zero
  10b8c4:	fba8dce3          	bge	a7,s10,10b87c <i00000019f0>
  10b8c8:	00000033          	add	zero,zero,zero
  10b8cc:	00a00d13          	li	s10,10

0010b8d0 <i00000019fb>:
  10b8d0:	e7415503          	lhu	a0,-396(sp)

0010b8d4 <i00000019fc>:
  10b8d4:	19d14503          	lbu	a0,413(sp)

0010b8d8 <i00000019fd>:
  10b8d8:	2e710f03          	lb	t5,743(sp)
  10b8dc:	00004117          	auipc	sp,0x4
  10b8e0:	82410113          	add	sp,sp,-2012 # 10f100 <mem>
  10b8e4:	0001c337          	lui	t1,0x1c
  10b8e8:	3a830313          	add	t1,t1,936 # 1c3a8 <_stack_len+0x143a8>
  10b8ec:	00610133          	add	sp,sp,t1

0010b8f0 <i00000019fe>:
  10b8f0:	87c12b83          	lw	s7,-1924(sp)

0010b8f4 <i00000019ff>:
  10b8f4:	293b0193          	add	gp,s6,659 # 37b56293 <fromhost+0x379ce283>
  10b8f8:	00004117          	auipc	sp,0x4
  10b8fc:	80810113          	add	sp,sp,-2040 # 10f100 <mem>
  10b900:	00065337          	lui	t1,0x65
  10b904:	fb030313          	add	t1,t1,-80 # 64fb0 <tohost+0x44fa8>
  10b908:	00610133          	add	sp,sp,t1

0010b90c <i0000001a00>:
  10b90c:	1b411d83          	lh	s11,436(sp)
  10b910:	00003117          	auipc	sp,0x3
  10b914:	7f010113          	add	sp,sp,2032 # 10f100 <mem>
  10b918:	0003c337          	lui	t1,0x3c
  10b91c:	8f030313          	add	t1,t1,-1808 # 3b8f0 <tohost+0x1b8e8>
  10b920:	00610133          	add	sp,sp,t1

0010b924 <i0000001a01>:
  10b924:	0de12823          	sw	t5,208(sp)

0010b928 <i0000001a02>:
  10b928:	bd852013          	slti	zero,a0,-1064

0010b92c <i0000001a03>:
  10b92c:	ab910a23          	sb	s9,-1356(sp)

0010b930 <i0000001a04>:
  10b930:	7d612a23          	sw	s6,2004(sp)

0010b934 <i0000001a05>:
  10b934:	267ec237          	lui	tp,0x267ec

0010b938 <i0000001a06>:
  10b938:	3d807f93          	and	t6,zero,984

0010b93c <i0000001a07>:
  10b93c:	3313b237          	lui	tp,0x3313b
  10b940:	00003117          	auipc	sp,0x3
  10b944:	7c010113          	add	sp,sp,1984 # 10f100 <mem>
  10b948:	00066337          	lui	t1,0x66
  10b94c:	6a830313          	add	t1,t1,1704 # 666a8 <tohost+0x466a0>
  10b950:	00610133          	add	sp,sp,t1

0010b954 <i0000001a08>:
  10b954:	af914503          	lbu	a0,-1287(sp)

0010b958 <i0000001a09>:
  10b958:	000f6b33          	or	s6,t5,zero

0010b95c <i0000001a0a>:
  10b95c:	01fb1213          	sll	tp,s6,0x1f
  10b960:	00003117          	auipc	sp,0x3
  10b964:	7a010113          	add	sp,sp,1952 # 10f100 <mem>
  10b968:	0006f337          	lui	t1,0x6f
  10b96c:	f7830313          	add	t1,t1,-136 # 6ef78 <tohost+0x4ef70>
  10b970:	00610133          	add	sp,sp,t1

0010b974 <i0000001a0b>:
  10b974:	d7411b23          	sh	s4,-650(sp)

0010b978 <i0000001a0c>:
  10b978:	41bb5513          	sra	a0,s6,0x1b
  10b97c:	00003117          	auipc	sp,0x3
  10b980:	78410113          	add	sp,sp,1924 # 10f100 <mem>
  10b984:	00040337          	lui	t1,0x40
  10b988:	af830313          	add	t1,t1,-1288 # 3faf8 <tohost+0x1faf0>
  10b98c:	00610133          	add	sp,sp,t1

0010b990 <i0000001a0d>:
  10b990:	fca11623          	sh	a0,-52(sp)
  10b994:	00b00a93          	li	s5,11
  10b998:	00a00d13          	li	s10,10

0010b99c <b0000001a0e>:
  10b99c:	00000033          	add	zero,zero,zero
  10b9a0:	07aad063          	bge	s5,s10,10ba00 <i0000001a19>
  10b9a4:	00000033          	add	zero,zero,zero
  10b9a8:	00a00d13          	li	s10,10

0010b9ac <i0000001a0e>:
  10b9ac:	31ca3e93          	sltiu	t4,s4,796

0010b9b0 <i0000001a0f>:
  10b9b0:	b25a6f13          	or	t5,s4,-1243

0010b9b4 <i0000001a10>:
  10b9b4:	33215f83          	lhu	t6,818(sp)

0010b9b8 <i0000001a11>:
  10b9b8:	0fe12623          	sw	t5,236(sp)

0010b9bc <i0000001a12>:
  10b9bc:	b6710883          	lb	a7,-1177(sp)

0010b9c0 <i0000001a13>:
  10b9c0:	40ab57b3          	sra	a5,s6,a0

0010b9c4 <i0000001a14>:
  10b9c4:	b9511323          	sh	s5,-1146(sp)

0010b9c8 <i0000001a15>:
  10b9c8:	00519013          	sll	zero,gp,0x5
  10b9cc:	00003117          	auipc	sp,0x3
  10b9d0:	73410113          	add	sp,sp,1844 # 10f100 <mem>
  10b9d4:	00054337          	lui	t1,0x54
  10b9d8:	ec830313          	add	t1,t1,-312 # 53ec8 <tohost+0x33ec0>
  10b9dc:	00610133          	add	sp,sp,t1

0010b9e0 <i0000001a16>:
  10b9e0:	d5012703          	lw	a4,-688(sp)

0010b9e4 <i0000001a17>:
  10b9e4:	01f86f33          	or	t5,a6,t6
  10b9e8:	00003117          	auipc	sp,0x3
  10b9ec:	71810113          	add	sp,sp,1816 # 10f100 <mem>
  10b9f0:	00030337          	lui	t1,0x30
  10b9f4:	61830313          	add	t1,t1,1560 # 30618 <tohost+0x10610>
  10b9f8:	00610133          	add	sp,sp,t1

0010b9fc <i0000001a18>:
  10b9fc:	f9411f03          	lh	t5,-108(sp)

0010ba00 <i0000001a19>:
  10ba00:	ef011723          	sh	a6,-274(sp)

0010ba04 <i0000001a1a>:
  10ba04:	13cedb17          	auipc	s6,0x13ced

0010ba08 <i0000001a1b>:
  10ba08:	35a10003          	lb	zero,858(sp)
  10ba0c:	00003117          	auipc	sp,0x3
  10ba10:	6f410113          	add	sp,sp,1780 # 10f100 <mem>
  10ba14:	00037337          	lui	t1,0x37
  10ba18:	66030313          	add	t1,t1,1632 # 37660 <tohost+0x17658>
  10ba1c:	00610133          	add	sp,sp,t1

0010ba20 <i0000001a1c>:
  10ba20:	89512a23          	sw	s5,-1900(sp)

0010ba24 <i0000001a1d>:
  10ba24:	559cdf37          	lui	t5,0x559cd

0010ba28 <i0000001a1e>:
  10ba28:	c6088f13          	add	t5,a7,-928

0010ba2c <i0000001a1f>:
  10ba2c:	17a15703          	lhu	a4,378(sp)

0010ba30 <i0000001a20>:
  10ba30:	8deb6f93          	or	t6,s6,-1826
  10ba34:	00900a93          	li	s5,9

0010ba38 <b0000001a21>:
  10ba38:	00000033          	add	zero,zero,zero
  10ba3c:	fdaad0e3          	bge	s5,s10,10b9fc <i0000001a18>
  10ba40:	00000033          	add	zero,zero,zero
  10ba44:	00a00d13          	li	s10,10

0010ba48 <i0000001a21>:
  10ba48:	400b01b3          	sub	gp,s6,zero

0010ba4c <i0000001a22>:
  10ba4c:	01b5b233          	sltu	tp,a1,s11

0010ba50 <i0000001a23>:
  10ba50:	85e12223          	sw	t5,-1980(sp)

0010ba54 <i0000001a24>:
  10ba54:	41198eb3          	sub	t4,s3,a7

0010ba58 <i0000001a25>:
  10ba58:	fa614f03          	lbu	t5,-90(sp)

0010ba5c <i0000001a26>:
  10ba5c:	a7c10003          	lb	zero,-1412(sp)

0010ba60 <i0000001a27>:
  10ba60:	f8a14b83          	lbu	s7,-118(sp)

0010ba64 <i0000001a28>:
  10ba64:	0129c233          	xor	tp,s3,s2

0010ba68 <i0000001a29>:
  10ba68:	409cd233          	sra	tp,s9,s1

0010ba6c <i0000001a2a>:
  10ba6c:	000b2433          	sltz	s0,s6

0010ba70 <i0000001a2b>:
  10ba70:	5f812283          	lw	t0,1528(sp)
  10ba74:	00003117          	auipc	sp,0x3
  10ba78:	68c10113          	add	sp,sp,1676 # 10f100 <mem>
  10ba7c:	00053337          	lui	t1,0x53
  10ba80:	13030313          	add	t1,t1,304 # 53130 <tohost+0x33128>
  10ba84:	00610133          	add	sp,sp,t1

0010ba88 <i0000001a2c>:
  10ba88:	9a910b03          	lb	s6,-1623(sp)

0010ba8c <i0000001a2d>:
  10ba8c:	39eb1237          	lui	tp,0x39eb1

0010ba90 <i0000001a2e>:
  10ba90:	9e312423          	sw	gp,-1560(sp)

0010ba94 <i0000001a2f>:
  10ba94:	4bb14a83          	lbu	s5,1211(sp)

0010ba98 <i0000001a30>:
  10ba98:	69e39ab7          	lui	s5,0x69e39

0010ba9c <i0000001a31>:
  10ba9c:	40a20533          	sub	a0,tp,a0
  10baa0:	00003117          	auipc	sp,0x3
  10baa4:	66010113          	add	sp,sp,1632 # 10f100 <mem>
  10baa8:	00026337          	lui	t1,0x26
  10baac:	1b030313          	add	t1,t1,432 # 261b0 <tohost+0x61a8>
  10bab0:	00610133          	add	sp,sp,t1

0010bab4 <i0000001a32>:
  10bab4:	4d612623          	sw	s6,1228(sp)

0010bab8 <i0000001a33>:
  10bab8:	87815503          	lhu	a0,-1928(sp)
  10babc:	00a00e93          	li	t4,10

0010bac0 <b0000001a34>:
  10bac0:	00000033          	add	zero,zero,zero
  10bac4:	fbdd12e3          	bne	s10,t4,10ba68 <i0000001a29>
  10bac8:	00000033          	add	zero,zero,zero
  10bacc:	00a00d13          	li	s10,10

0010bad0 <i0000001a34>:
  10bad0:	5c211883          	lh	a7,1474(sp)

0010bad4 <i0000001a35>:
  10bad4:	78ef6f17          	auipc	t5,0x78ef6

0010bad8 <i0000001a36>:
  10bad8:	ec411a23          	sh	tp,-300(sp)

0010badc <i0000001a37>:
  10badc:	7ca10023          	sb	a0,1984(sp)

0010bae0 <i0000001a38>:
  10bae0:	60411823          	sh	tp,1552(sp)

0010bae4 <i0000001a39>:
  10bae4:	4a815b03          	lhu	s6,1192(sp)

0010bae8 <i0000001a3a>:
  10bae8:	1fe11123          	sh	t5,482(sp)

0010baec <i0000001a3b>:
  10baec:	d4a12423          	sw	a0,-696(sp)

0010baf0 <i0000001a3c>:
  10baf0:	01163233          	sltu	tp,a2,a7

0010baf4 <i0000001a3d>:
  10baf4:	e3610ca3          	sb	s6,-455(sp)

0010baf8 <i0000001a3e>:
  10baf8:	31e102a3          	sb	t5,773(sp)

0010bafc <i0000001a3f>:
  10bafc:	e4d11323          	sh	a3,-442(sp)

0010bb00 <i0000001a40>:
  10bb00:	82914203          	lbu	tp,-2007(sp)
  10bb04:	00003117          	auipc	sp,0x3
  10bb08:	5fc10113          	add	sp,sp,1532 # 10f100 <mem>
  10bb0c:	0004c337          	lui	t1,0x4c
  10bb10:	8a030313          	add	t1,t1,-1888 # 4b8a0 <tohost+0x2b898>
  10bb14:	00610133          	add	sp,sp,t1

0010bb18 <i0000001a41>:
  10bb18:	71610aa3          	sb	s6,1813(sp)

0010bb1c <i0000001a42>:
  10bb1c:	f48c6b13          	or	s6,s8,-184

0010bb20 <i0000001a43>:
  10bb20:	d7911523          	sh	s9,-662(sp)

0010bb24 <i0000001a44>:
  10bb24:	058f7793          	and	a5,t5,88
  10bb28:	00003117          	auipc	sp,0x3
  10bb2c:	5d810113          	add	sp,sp,1496 # 10f100 <mem>
  10bb30:	0000f337          	lui	t1,0xf
  10bb34:	23030313          	add	t1,t1,560 # f230 <_stack_len+0x7230>
  10bb38:	00610133          	add	sp,sp,t1

0010bb3c <i0000001a45>:
  10bb3c:	60b10783          	lb	a5,1547(sp)

0010bb40 <i0000001a46>:
  10bb40:	22512623          	sw	t0,556(sp)

0010bb44 <b0000001a47>:
  10bb44:	03c0056f          	jal	a0,10bb80 <i0000001a50>

0010bb48 <i0000001a47>:
  10bb48:	01275b33          	srl	s6,a4,s2

0010bb4c <i0000001a48>:
  10bb4c:	d9a56013          	or	zero,a0,-614

0010bb50 <i0000001a49>:
  10bb50:	013bb233          	sltu	tp,s7,s3

0010bb54 <i0000001a4a>:
  10bb54:	0088d533          	srl	a0,a7,s0

0010bb58 <i0000001a4b>:
  10bb58:	a6a15503          	lhu	a0,-1430(sp)

0010bb5c <i0000001a4c>:
  10bb5c:	7bb10303          	lb	t1,1979(sp)

0010bb60 <i0000001a4d>:
  10bb60:	5c324f13          	xor	t5,tp,1475
  10bb64:	00003117          	auipc	sp,0x3
  10bb68:	59c10113          	add	sp,sp,1436 # 10f100 <mem>
  10bb6c:	00046337          	lui	t1,0x46
  10bb70:	1d830313          	add	t1,t1,472 # 461d8 <tohost+0x261d0>
  10bb74:	00610133          	add	sp,sp,t1

0010bb78 <i0000001a4e>:
  10bb78:	b1015583          	lhu	a1,-1264(sp)

0010bb7c <i0000001a4f>:
  10bb7c:	e7af4613          	xor	a2,t5,-390

0010bb80 <i0000001a50>:
  10bb80:	22414883          	lbu	a7,548(sp)

0010bb84 <i0000001a51>:
  10bb84:	012bc4b3          	xor	s1,s7,s2

0010bb88 <i0000001a52>:
  10bb88:	eca11e23          	sh	a0,-292(sp)
  10bb8c:	00003117          	auipc	sp,0x3
  10bb90:	57410113          	add	sp,sp,1396 # 10f100 <mem>
  10bb94:	00024337          	lui	t1,0x24
  10bb98:	88030313          	add	t1,t1,-1920 # 23880 <tohost+0x3878>
  10bb9c:	00610133          	add	sp,sp,t1

0010bba0 <i0000001a53>:
  10bba0:	97714b03          	lbu	s6,-1673(sp)

0010bba4 <i0000001a54>:
  10bba4:	eae11203          	lh	tp,-338(sp)
  10bba8:	00003117          	auipc	sp,0x3
  10bbac:	55810113          	add	sp,sp,1368 # 10f100 <mem>
  10bbb0:	0006c337          	lui	t1,0x6c
  10bbb4:	27030313          	add	t1,t1,624 # 6c270 <tohost+0x4c268>
  10bbb8:	00610133          	add	sp,sp,t1

0010bbbc <i0000001a55>:
  10bbbc:	5f412023          	sw	s4,1504(sp)
  10bbc0:	00003117          	auipc	sp,0x3
  10bbc4:	54010113          	add	sp,sp,1344 # 10f100 <mem>
  10bbc8:	00045337          	lui	t1,0x45
  10bbcc:	3d830313          	add	t1,t1,984 # 453d8 <tohost+0x253d0>
  10bbd0:	00610133          	add	sp,sp,t1

0010bbd4 <i0000001a56>:
  10bbd4:	26811a03          	lh	s4,616(sp)

0010bbd8 <i0000001a57>:
  10bbd8:	004f0033          	add	zero,t5,tp

0010bbdc <i0000001a58>:
  10bbdc:	4077d033          	sra	zero,a5,t2

0010bbe0 <i0000001a59>:
  10bbe0:	22415d83          	lhu	s11,548(sp)
  10bbe4:	00c00b93          	li	s7,12
  10bbe8:	001d0d13          	add	s10,s10,1

0010bbec <b0000001a5a>:
  10bbec:	00000033          	add	zero,zero,zero
  10bbf0:	f97d4ae3          	blt	s10,s7,10bb84 <i0000001a51>
  10bbf4:	00000033          	add	zero,zero,zero
  10bbf8:	00a00d13          	li	s10,10

0010bbfc <i0000001a5a>:
  10bbfc:	23d60217          	auipc	tp,0x23d60

0010bc00 <i0000001a5b>:
  10bc00:	007fcbb3          	xor	s7,t6,t2

0010bc04 <i0000001a5c>:
  10bc04:	00406b33          	or	s6,zero,tp
  10bc08:	00003117          	auipc	sp,0x3
  10bc0c:	4f810113          	add	sp,sp,1272 # 10f100 <mem>
  10bc10:	0001a337          	lui	t1,0x1a
  10bc14:	f8830313          	add	t1,t1,-120 # 19f88 <_stack_len+0x11f88>
  10bc18:	00610133          	add	sp,sp,t1

0010bc1c <i0000001a5d>:
  10bc1c:	eaf10623          	sb	a5,-340(sp)

0010bc20 <i0000001a5e>:
  10bc20:	f7412703          	lw	a4,-140(sp)
  10bc24:	00003117          	auipc	sp,0x3
  10bc28:	4dc10113          	add	sp,sp,1244 # 10f100 <mem>
  10bc2c:	00038337          	lui	t1,0x38
  10bc30:	d3830313          	add	t1,t1,-712 # 37d38 <tohost+0x17d30>
  10bc34:	00610133          	add	sp,sp,t1

0010bc38 <i0000001a5f>:
  10bc38:	7c012e23          	sw	zero,2012(sp)

0010bc3c <i0000001a60>:
  10bc3c:	bec12f03          	lw	t5,-1044(sp)

0010bc40 <i0000001a61>:
  10bc40:	00e373b3          	and	t2,t1,a4

0010bc44 <i0000001a62>:
  10bc44:	00b805b3          	add	a1,a6,a1

0010bc48 <i0000001a63>:
  10bc48:	4810eb17          	auipc	s6,0x4810e

0010bc4c <i0000001a64>:
  10bc4c:	67711823          	sh	s7,1648(sp)

0010bc50 <i0000001a65>:
  10bc50:	0147d693          	srl	a3,a5,0x14

0010bc54 <i0000001a66>:
  10bc54:	58f12a23          	sw	a5,1428(sp)

0010bc58 <i0000001a67>:
  10bc58:	07d14883          	lbu	a7,125(sp)

0010bc5c <i0000001a68>:
  10bc5c:	98968b13          	add	s6,a3,-1655 # 32328605 <fromhost+0x321a05f5>

0010bc60 <i0000001a69>:
  10bc60:	11cb4517          	auipc	a0,0x11cb4

0010bc64 <i0000001a6a>:
  10bc64:	8eb22513          	slti	a0,tp,-1813

0010bc68 <i0000001a6b>:
  10bc68:	aa0102a3          	sb	zero,-1371(sp)

0010bc6c <i0000001a6c>:
  10bc6c:	400a5493          	sra	s1,s4,0x0
  10bc70:	00900f93          	li	t6,9

0010bc74 <b0000001a6d>:
  10bc74:	00000033          	add	zero,zero,zero
  10bc78:	fdafd4e3          	bge	t6,s10,10bc40 <i0000001a61>
  10bc7c:	00000033          	add	zero,zero,zero
  10bc80:	00a00d13          	li	s10,10

0010bc84 <i0000001a6d>:
  10bc84:	28811383          	lh	t2,648(sp)

0010bc88 <i0000001a6e>:
  10bc88:	01021213          	sll	tp,tp,0x10

0010bc8c <i0000001a6f>:
  10bc8c:	a4a11b23          	sh	a0,-1450(sp)

0010bc90 <i0000001a70>:
  10bc90:	0073adb3          	slt	s11,t2,t2
  10bc94:	00003117          	auipc	sp,0x3
  10bc98:	46c10113          	add	sp,sp,1132 # 10f100 <mem>
  10bc9c:	00067337          	lui	t1,0x67
  10bca0:	1b030313          	add	t1,t1,432 # 671b0 <tohost+0x471a8>
  10bca4:	00610133          	add	sp,sp,t1

0010bca8 <i0000001a71>:
  10bca8:	3ce10c83          	lb	s9,974(sp)

0010bcac <i0000001a72>:
  10bcac:	68b12a23          	sw	a1,1684(sp)

0010bcb0 <i0000001a73>:
  10bcb0:	e3354513          	xor	a0,a0,-461

0010bcb4 <i0000001a74>:
  10bcb4:	00af1f33          	sll	t5,t5,a0

0010bcb8 <i0000001a75>:
  10bcb8:	0894e213          	or	tp,s1,137

0010bcbc <i0000001a76>:
  10bcbc:	a4c15203          	lhu	tp,-1460(sp)
  10bcc0:	00003117          	auipc	sp,0x3
  10bcc4:	44010113          	add	sp,sp,1088 # 10f100 <mem>
  10bcc8:	00007337          	lui	t1,0x7
  10bccc:	db030313          	add	t1,t1,-592 # 6db0 <_min_stack+0x4db0>
  10bcd0:	00610133          	add	sp,sp,t1

0010bcd4 <i0000001a77>:
  10bcd4:	d2912223          	sw	s1,-732(sp)

0010bcd8 <i0000001a78>:
  10bcd8:	3b211b23          	sh	s2,950(sp)

0010bcdc <i0000001a79>:
  10bcdc:	62011223          	sh	zero,1572(sp)

0010bce0 <i0000001a7a>:
  10bce0:	7e411223          	sh	tp,2020(sp)

0010bce4 <i0000001a7b>:
  10bce4:	0db5d297          	auipc	t0,0xdb5d

0010bce8 <i0000001a7c>:
  10bce8:	78a11f23          	sh	a0,1950(sp)

0010bcec <i0000001a7d>:
  10bcec:	019c9f33          	sll	t5,s9,s9

0010bcf0 <i0000001a7e>:
  10bcf0:	01c8b8b3          	sltu	a7,a7,t3

0010bcf4 <i0000001a7f>:
  10bcf4:	e3a11b03          	lh	s6,-454(sp)
  10bcf8:	00a00893          	li	a7,10

0010bcfc <b0000001a80>:
  10bcfc:	011d0463          	beq	s10,a7,10bd04 <b0000001a80+0x8>
  10bd00:	fb5ff56f          	jal	a0,10bcb4 <i0000001a74>
  10bd04:	00a00d13          	li	s10,10

0010bd08 <i0000001a80>:
  10bd08:	01b867b3          	or	a5,a6,s11

0010bd0c <i0000001a81>:
  10bd0c:	019708b3          	add	a7,a4,s9

0010bd10 <i0000001a82>:
  10bd10:	8d610723          	sb	s6,-1842(sp)

0010bd14 <i0000001a83>:
  10bd14:	0fc12003          	lw	zero,252(sp)

0010bd18 <i0000001a84>:
  10bd18:	90610b83          	lb	s7,-1786(sp)

0010bd1c <i0000001a85>:
  10bd1c:	010362b3          	or	t0,t1,a6

0010bd20 <i0000001a86>:
  10bd20:	27812503          	lw	a0,632(sp)

0010bd24 <i0000001a87>:
  10bd24:	4d724f13          	xor	t5,tp,1239
  10bd28:	00003117          	auipc	sp,0x3
  10bd2c:	3d810113          	add	sp,sp,984 # 10f100 <mem>
  10bd30:	00036337          	lui	t1,0x36
  10bd34:	86030313          	add	t1,t1,-1952 # 35860 <tohost+0x15858>
  10bd38:	00610133          	add	sp,sp,t1

0010bd3c <i0000001a88>:
  10bd3c:	8f215f03          	lhu	t5,-1806(sp)

0010bd40 <i0000001a89>:
  10bd40:	00a20ab3          	add	s5,tp,a0

0010bd44 <i0000001a8a>:
  10bd44:	7d504f13          	xor	t5,zero,2005

0010bd48 <i0000001a8b>:
  10bd48:	7fc11503          	lh	a0,2044(sp)

0010bd4c <i0000001a8c>:
  10bd4c:	76412b03          	lw	s6,1892(sp)

0010bd50 <i0000001a8d>:
  10bd50:	2e010723          	sb	zero,750(sp)
  10bd54:	00003117          	auipc	sp,0x3
  10bd58:	3ac10113          	add	sp,sp,940 # 10f100 <mem>
  10bd5c:	00022337          	lui	t1,0x22
  10bd60:	bd830313          	add	t1,t1,-1064 # 21bd8 <tohost+0x1bd0>
  10bd64:	00610133          	add	sp,sp,t1

0010bd68 <i0000001a8e>:
  10bd68:	85612c23          	sw	s6,-1960(sp)

0010bd6c <i0000001a8f>:
  10bd6c:	01325013          	srl	zero,tp,0x13

0010bd70 <i0000001a90>:
  10bd70:	59d14003          	lbu	zero,1437(sp)

0010bd74 <i0000001a91>:
  10bd74:	1e55ff93          	and	t6,a1,485

0010bd78 <i0000001a92>:
  10bd78:	40cb8533          	sub	a0,s7,a2
  10bd7c:	00c00893          	li	a7,12
  10bd80:	001d0d13          	add	s10,s10,1

0010bd84 <b0000001a93>:
  10bd84:	00000033          	add	zero,zero,zero
  10bd88:	ffa8d0e3          	bge	a7,s10,10bd68 <i0000001a8e>
  10bd8c:	00000033          	add	zero,zero,zero
  10bd90:	00a00d13          	li	s10,10

0010bd94 <i0000001a93>:
  10bd94:	8fa11603          	lh	a2,-1798(sp)

0010bd98 <i0000001a94>:
  10bd98:	f3910923          	sb	s9,-206(sp)
  10bd9c:	00003117          	auipc	sp,0x3
  10bda0:	36410113          	add	sp,sp,868 # 10f100 <mem>
  10bda4:	0000e337          	lui	t1,0xe
  10bda8:	b4830313          	add	t1,t1,-1208 # db48 <_stack_len+0x5b48>
  10bdac:	00610133          	add	sp,sp,t1

0010bdb0 <i0000001a95>:
  10bdb0:	07015603          	lhu	a2,112(sp)

0010bdb4 <i0000001a96>:
  10bdb4:	cec11703          	lh	a4,-788(sp)

0010bdb8 <i0000001a97>:
  10bdb8:	003408b3          	add	a7,s0,gp

0010bdbc <i0000001a98>:
  10bdbc:	c2611203          	lh	tp,-986(sp)

0010bdc0 <i0000001a99>:
  10bdc0:	00056f33          	or	t5,a0,zero

0010bdc4 <i0000001a9a>:
  10bdc4:	e2a11b23          	sh	a0,-458(sp)

0010bdc8 <i0000001a9b>:
  10bdc8:	01624233          	xor	tp,tp,s6

0010bdcc <i0000001a9c>:
  10bdcc:	0188df33          	srl	t5,a7,s8

0010bdd0 <i0000001a9d>:
  10bdd0:	01069db3          	sll	s11,a3,a6

0010bdd4 <i0000001a9e>:
  10bdd4:	00400b33          	add	s6,zero,tp

0010bdd8 <i0000001a9f>:
  10bdd8:	52be92b7          	lui	t0,0x52be9

0010bddc <i0000001aa0>:
  10bddc:	95412983          	lw	s3,-1708(sp)

0010bde0 <i0000001aa1>:
  10bde0:	00000633          	add	a2,zero,zero

0010bde4 <i0000001aa2>:
  10bde4:	2cc15383          	lhu	t2,716(sp)

0010bde8 <i0000001aa3>:
  10bde8:	00a01233          	sll	tp,zero,a0

0010bdec <i0000001aa4>:
  10bdec:	9a412b03          	lw	s6,-1628(sp)

0010bdf0 <i0000001aa5>:
  10bdf0:	17422f13          	slti	t5,tp,372
  10bdf4:	00900a93          	li	s5,9
  10bdf8:	00a00d13          	li	s10,10

0010bdfc <b0000001aa6>:
  10bdfc:	00000033          	add	zero,zero,zero
  10be00:	055d4a63          	blt	s10,s5,10be54 <i0000001aae>
  10be04:	00000033          	add	zero,zero,zero
  10be08:	00a00d13          	li	s10,10

0010be0c <i0000001aa6>:
  10be0c:	cc8dab13          	slti	s6,s11,-824

0010be10 <i0000001aa7>:
  10be10:	e4c12a23          	sw	a2,-428(sp)
  10be14:	00003117          	auipc	sp,0x3
  10be18:	2ec10113          	add	sp,sp,748 # 10f100 <mem>
  10be1c:	0006d337          	lui	t1,0x6d
  10be20:	08030313          	add	t1,t1,128 # 6d080 <tohost+0x4d078>
  10be24:	00610133          	add	sp,sp,t1

0010be28 <i0000001aa8>:
  10be28:	1fe10503          	lb	a0,510(sp)

0010be2c <i0000001aa9>:
  10be2c:	3be11a23          	sh	t5,948(sp)
  10be30:	00003117          	auipc	sp,0x3
  10be34:	2d010113          	add	sp,sp,720 # 10f100 <mem>
  10be38:	00029337          	lui	t1,0x29
  10be3c:	bf830313          	add	t1,t1,-1032 # 28bf8 <tohost+0x8bf0>
  10be40:	00610133          	add	sp,sp,t1

0010be44 <i0000001aaa>:
  10be44:	74412a23          	sw	tp,1876(sp)

0010be48 <i0000001aab>:
  10be48:	2bf14383          	lbu	t2,703(sp)

0010be4c <i0000001aac>:
  10be4c:	00469893          	sll	a7,a3,0x4

0010be50 <i0000001aad>:
  10be50:	375b0a93          	add	s5,s6,885 # 48219fbd <fromhost+0x48091fad>

0010be54 <i0000001aae>:
  10be54:	23a15b03          	lhu	s6,570(sp)

0010be58 <i0000001aaf>:
  10be58:	56c12203          	lw	tp,1388(sp)
  10be5c:	00003117          	auipc	sp,0x3
  10be60:	2a410113          	add	sp,sp,676 # 10f100 <mem>
  10be64:	00031337          	lui	t1,0x31
  10be68:	ee830313          	add	t1,t1,-280 # 30ee8 <tohost+0x10ee0>
  10be6c:	00610133          	add	sp,sp,t1

0010be70 <i0000001ab0>:
  10be70:	eca10b83          	lb	s7,-310(sp)

0010be74 <i0000001ab1>:
  10be74:	20a10f03          	lb	t5,522(sp)

0010be78 <i0000001ab2>:
  10be78:	0a615703          	lhu	a4,166(sp)

0010be7c <i0000001ab3>:
  10be7c:	005cc8b3          	xor	a7,s9,t0
  10be80:	00003117          	auipc	sp,0x3
  10be84:	28010113          	add	sp,sp,640 # 10f100 <mem>
  10be88:	00007337          	lui	t1,0x7
  10be8c:	b2030313          	add	t1,t1,-1248 # 6b20 <_min_stack+0x4b20>
  10be90:	00610133          	add	sp,sp,t1

0010be94 <i0000001ab4>:
  10be94:	4b215583          	lhu	a1,1202(sp)

0010be98 <i0000001ab5>:
  10be98:	31f39b17          	auipc	s6,0x31f39

0010be9c <i0000001ab6>:
  10be9c:	b6a11203          	lh	tp,-1174(sp)

0010bea0 <i0000001ab7>:
  10bea0:	013c3033          	sltu	zero,s8,s3

0010bea4 <i0000001ab8>:
  10bea4:	406e8833          	sub	a6,t4,t1
  10bea8:	00c00893          	li	a7,12
  10beac:	001d0d13          	add	s10,s10,1

0010beb0 <b0000001ab9>:
  10beb0:	011d0863          	beq	s10,a7,10bec0 <b0000001ab9+0x10>
  10beb4:	00000897          	auipc	a7,0x0
  10beb8:	f9888893          	add	a7,a7,-104 # 10be4c <i0000001aac>
  10bebc:	00088567          	jalr	a0,a7
  10bec0:	00a00d13          	li	s10,10

0010bec4 <i0000001ab9>:
  10bec4:	41625633          	sra	a2,tp,s6

0010bec8 <i0000001aba>:
  10bec8:	86a11923          	sh	a0,-1934(sp)

0010becc <i0000001abb>:
  10becc:	df214183          	lbu	gp,-526(sp)

0010bed0 <i0000001abc>:
  10bed0:	c0914f03          	lbu	t5,-1015(sp)

0010bed4 <i0000001abd>:
  10bed4:	9a854e13          	xor	t3,a0,-1624

0010bed8 <i0000001abe>:
  10bed8:	003ed233          	srl	tp,t4,gp

0010bedc <i0000001abf>:
  10bedc:	005a93b3          	sll	t2,s5,t0

0010bee0 <i0000001ac0>:
  10bee0:	5aacb497          	auipc	s1,0x5aacb

0010bee4 <i0000001ac1>:
  10bee4:	a9a10c83          	lb	s9,-1382(sp)

0010bee8 <i0000001ac2>:
  10bee8:	3e011323          	sh	zero,998(sp)
  10beec:	00003117          	auipc	sp,0x3
  10bef0:	21410113          	add	sp,sp,532 # 10f100 <mem>
  10bef4:	0002f337          	lui	t1,0x2f
  10bef8:	cd030313          	add	t1,t1,-816 # 2ecd0 <tohost+0xecc8>
  10befc:	00610133          	add	sp,sp,t1

0010bf00 <i0000001ac3>:
  10bf00:	2be12623          	sw	t5,684(sp)

0010bf04 <i0000001ac4>:
  10bf04:	ad015503          	lhu	a0,-1328(sp)

0010bf08 <i0000001ac5>:
  10bf08:	00786b33          	or	s6,a6,t2

0010bf0c <i0000001ac6>:
  10bf0c:	d6012203          	lw	tp,-672(sp)

0010bf10 <i0000001ac7>:
  10bf10:	01eb1b33          	sll	s6,s6,t5

0010bf14 <i0000001ac8>:
  10bf14:	9c136e13          	or	t3,t1,-1599

0010bf18 <i0000001ac9>:
  10bf18:	ccc12b03          	lw	s6,-820(sp)

0010bf1c <i0000001aca>:
  10bf1c:	bf4a7f13          	and	t5,s4,-1036

0010bf20 <i0000001acb>:
  10bf20:	019fda13          	srl	s4,t6,0x19
  10bf24:	00900813          	li	a6,9
  10bf28:	00a00d13          	li	s10,10

0010bf2c <b0000001acc>:
  10bf2c:	00000033          	add	zero,zero,zero
  10bf30:	07a85e63          	bge	a6,s10,10bfac <i0000001ad9>
  10bf34:	00000033          	add	zero,zero,zero
  10bf38:	00a00d13          	li	s10,10

0010bf3c <i0000001acc>:
  10bf3c:	41e203b3          	sub	t2,tp,t5

0010bf40 <i0000001acd>:
  10bf40:	01e007b3          	add	a5,zero,t5

0010bf44 <i0000001ace>:
  10bf44:	20310003          	lb	zero,515(sp)

0010bf48 <i0000001acf>:
  10bf48:	55d11123          	sh	t4,1346(sp)
  10bf4c:	00003117          	auipc	sp,0x3
  10bf50:	1b410113          	add	sp,sp,436 # 10f100 <mem>
  10bf54:	00009337          	lui	t1,0x9
  10bf58:	9f030313          	add	t1,t1,-1552 # 89f0 <_stack_len+0x9f0>
  10bf5c:	00610133          	add	sp,sp,t1

0010bf60 <i0000001ad0>:
  10bf60:	bca12223          	sw	a0,-1084(sp)
  10bf64:	00003117          	auipc	sp,0x3
  10bf68:	19c10113          	add	sp,sp,412 # 10f100 <mem>
  10bf6c:	00023337          	lui	t1,0x23
  10bf70:	04030313          	add	t1,t1,64 # 23040 <tohost+0x3038>
  10bf74:	00610133          	add	sp,sp,t1

0010bf78 <i0000001ad1>:
  10bf78:	d9414303          	lbu	t1,-620(sp)

0010bf7c <i0000001ad2>:
  10bf7c:	0174e533          	or	a0,s1,s7

0010bf80 <i0000001ad3>:
  10bf80:	00054933          	xor	s2,a0,zero

0010bf84 <i0000001ad4>:
  10bf84:	39a15003          	lhu	zero,922(sp)

0010bf88 <i0000001ad5>:
  10bf88:	ebe11523          	sh	t5,-342(sp)
  10bf8c:	00003117          	auipc	sp,0x3
  10bf90:	17410113          	add	sp,sp,372 # 10f100 <mem>
  10bf94:	00054337          	lui	t1,0x54
  10bf98:	eb030313          	add	t1,t1,-336 # 53eb0 <tohost+0x33ea8>
  10bf9c:	00610133          	add	sp,sp,t1

0010bfa0 <i0000001ad6>:
  10bfa0:	87215503          	lhu	a0,-1934(sp)

0010bfa4 <i0000001ad7>:
  10bfa4:	65e10323          	sb	t5,1606(sp)

0010bfa8 <i0000001ad8>:
  10bfa8:	00af1033          	sll	zero,t5,a0

0010bfac <i0000001ad9>:
  10bfac:	00673c33          	sltu	s8,a4,t1

0010bfb0 <i0000001ada>:
  10bfb0:	01b46033          	or	zero,s0,s11

0010bfb4 <i0000001adb>:
  10bfb4:	744b7013          	and	zero,s6,1860

0010bfb8 <i0000001adc>:
  10bfb8:	016f7b33          	and	s6,t5,s6

0010bfbc <i0000001add>:
  10bfbc:	19164897          	auipc	a7,0x19164

0010bfc0 <i0000001ade>:
  10bfc0:	f0f10f03          	lb	t5,-241(sp)
  10bfc4:	00c00a93          	li	s5,12
  10bfc8:	001d0d13          	add	s10,s10,1

0010bfcc <b0000001adf>:
  10bfcc:	015d0463          	beq	s10,s5,10bfd4 <b0000001adf+0x8>
  10bfd0:	fb1ff56f          	jal	a0,10bf80 <i0000001ad3>
  10bfd4:	00a00d13          	li	s10,10

0010bfd8 <i0000001adf>:
  10bfd8:	80010b03          	lb	s6,-2048(sp)

0010bfdc <i0000001ae0>:
  10bfdc:	01601513          	sll	a0,zero,0x16
  10bfe0:	00003117          	auipc	sp,0x3
  10bfe4:	12010113          	add	sp,sp,288 # 10f100 <mem>
  10bfe8:	0004d337          	lui	t1,0x4d
  10bfec:	1b830313          	add	t1,t1,440 # 4d1b8 <tohost+0x2d1b0>
  10bff0:	00610133          	add	sp,sp,t1

0010bff4 <i0000001ae1>:
  10bff4:	d5611d23          	sh	s6,-678(sp)

0010bff8 <i0000001ae2>:
  10bff8:	00003c33          	snez	s8,zero

0010bffc <i0000001ae3>:
  10bffc:	014f1213          	sll	tp,t5,0x14

0010c000 <i0000001ae4>:
  10c000:	2314f493          	and	s1,s1,561

0010c004 <i0000001ae5>:
  10c004:	c6a11a23          	sh	a0,-908(sp)

0010c008 <i0000001ae6>:
  10c008:	3c2b6d93          	or	s11,s6,962
  10c00c:	00003117          	auipc	sp,0x3
  10c010:	0f410113          	add	sp,sp,244 # 10f100 <mem>
  10c014:	0006e337          	lui	t1,0x6e
  10c018:	19830313          	add	t1,t1,408 # 6e198 <tohost+0x4e190>
  10c01c:	00610133          	add	sp,sp,t1

0010c020 <i0000001ae7>:
  10c020:	8fe10003          	lb	zero,-1794(sp)

0010c024 <i0000001ae8>:
  10c024:	00452f33          	slt	t5,a0,tp

0010c028 <i0000001ae9>:
  10c028:	12350f37          	lui	t5,0x12350

0010c02c <i0000001aea>:
  10c02c:	8fc12b83          	lw	s7,-1796(sp)

0010c030 <i0000001aeb>:
  10c030:	004576b3          	and	a3,a0,tp
  10c034:	00003117          	auipc	sp,0x3
  10c038:	0cc10113          	add	sp,sp,204 # 10f100 <mem>
  10c03c:	00023337          	lui	t1,0x23
  10c040:	44030313          	add	t1,t1,1088 # 23440 <tohost+0x3438>
  10c044:	00610133          	add	sp,sp,t1

0010c048 <i0000001aec>:
  10c048:	b7c14003          	lbu	zero,-1156(sp)

0010c04c <i0000001aed>:
  10c04c:	f8fcc013          	xor	zero,s9,-113

0010c050 <i0000001aee>:
  10c050:	006a67b3          	or	a5,s4,t1

0010c054 <i0000001aef>:
  10c054:	5a02b513          	sltiu	a0,t0,1440

0010c058 <i0000001af0>:
  10c058:	27011203          	lh	tp,624(sp)

0010c05c <i0000001af1>:
  10c05c:	00f05c93          	srl	s9,zero,0xf
  10c060:	00900e13          	li	t3,9

0010c064 <b0000001af2>:
  10c064:	00000033          	add	zero,zero,zero
  10c068:	fbae50e3          	bge	t3,s10,10c008 <i0000001ae6>
  10c06c:	00000033          	add	zero,zero,zero
  10c070:	00a00d13          	li	s10,10

0010c074 <i0000001af2>:
  10c074:	698b5f17          	auipc	t5,0x698b5

0010c078 <i0000001af3>:
  10c078:	14d14e83          	lbu	t4,333(sp)

0010c07c <i0000001af4>:
  10c07c:	016b5eb3          	srl	t4,s6,s6

0010c080 <i0000001af5>:
  10c080:	351db917          	auipc	s2,0x351db

0010c084 <i0000001af6>:
  10c084:	41eb5ab3          	sra	s5,s6,t5
  10c088:	00003117          	auipc	sp,0x3
  10c08c:	07810113          	add	sp,sp,120 # 10f100 <mem>
  10c090:	00050337          	lui	t1,0x50
  10c094:	3c830313          	add	t1,t1,968 # 503c8 <tohost+0x303c0>
  10c098:	00610133          	add	sp,sp,t1

0010c09c <i0000001af7>:
  10c09c:	b8411b03          	lh	s6,-1148(sp)

0010c0a0 <i0000001af8>:
  10c0a0:	0132ecb3          	or	s9,t0,s3

0010c0a4 <i0000001af9>:
  10c0a4:	4b014183          	lbu	gp,1200(sp)

0010c0a8 <i0000001afa>:
  10c0a8:	58411003          	lh	zero,1412(sp)

0010c0ac <i0000001afb>:
  10c0ac:	40d48233          	sub	tp,s1,a3

0010c0b0 <i0000001afc>:
  10c0b0:	40055033          	sra	zero,a0,zero

0010c0b4 <i0000001afd>:
  10c0b4:	92012423          	sw	zero,-1752(sp)

0010c0b8 <i0000001afe>:
  10c0b8:	90228d93          	add	s11,t0,-1790 # 52be8902 <fromhost+0x52a608f2>

0010c0bc <i0000001aff>:
  10c0bc:	99612e23          	sw	s6,-1636(sp)

0010c0c0 <i0000001b00>:
  10c0c0:	10012a23          	sw	zero,276(sp)

0010c0c4 <i0000001b01>:
  10c0c4:	8ee15203          	lhu	tp,-1810(sp)

0010c0c8 <i0000001b02>:
  10c0c8:	e256af93          	slti	t6,a3,-475
  10c0cc:	00003117          	auipc	sp,0x3
  10c0d0:	03410113          	add	sp,sp,52 # 10f100 <mem>
  10c0d4:	00021337          	lui	t1,0x21
  10c0d8:	a6030313          	add	t1,t1,-1440 # 20a60 <tohost+0xa58>
  10c0dc:	00610133          	add	sp,sp,t1

0010c0e0 <i0000001b03>:
  10c0e0:	54612c23          	sw	t1,1368(sp)

0010c0e4 <i0000001b04>:
  10c0e4:	e4a12023          	sw	a0,-448(sp)
  10c0e8:	00c00893          	li	a7,12
  10c0ec:	001d0d13          	add	s10,s10,1

0010c0f0 <b0000001b05>:
  10c0f0:	00000033          	add	zero,zero,zero
  10c0f4:	fb1d46e3          	blt	s10,a7,10c0a0 <i0000001af8>
  10c0f8:	00000033          	add	zero,zero,zero
  10c0fc:	00a00d13          	li	s10,10

0010c100 <i0000001b05>:
  10c100:	1d812e83          	lw	t4,472(sp)

0010c104 <i0000001b06>:
  10c104:	80748c13          	add	s8,s1,-2041 # 5abd66e7 <fromhost+0x5aa4e6d7>

0010c108 <i0000001b07>:
  10c108:	00055eb3          	srl	t4,a0,zero

0010c10c <i0000001b08>:
  10c10c:	07e12023          	sw	t5,96(sp)

0010c110 <i0000001b09>:
  10c110:	1f014903          	lbu	s2,496(sp)

0010c114 <i0000001b0a>:
  10c114:	30410923          	sb	tp,786(sp)

0010c118 <i0000001b0b>:
  10c118:	a9254f13          	xor	t5,a0,-1390

0010c11c <i0000001b0c>:
  10c11c:	3c910c03          	lb	s8,969(sp)

0010c120 <i0000001b0d>:
  10c120:	9a411f23          	sh	tp,-1602(sp)

0010c124 <i0000001b0e>:
  10c124:	41e20233          	sub	tp,tp,t5

0010c128 <i0000001b0f>:
  10c128:	f5e11c23          	sh	t5,-168(sp)

0010c12c <i0000001b10>:
  10c12c:	35f12423          	sw	t6,840(sp)
  10c130:	00003117          	auipc	sp,0x3
  10c134:	fd010113          	add	sp,sp,-48 # 10f100 <mem>
  10c138:	00006337          	lui	t1,0x6
  10c13c:	28030313          	add	t1,t1,640 # 6280 <_min_stack+0x4280>
  10c140:	00610133          	add	sp,sp,t1

0010c144 <i0000001b11>:
  10c144:	e8812f03          	lw	t5,-376(sp)

0010c148 <i0000001b12>:
  10c148:	17094b13          	xor	s6,s2,368

0010c14c <i0000001b13>:
  10c14c:	01089533          	sll	a0,a7,a6

0010c150 <i0000001b14>:
  10c150:	bc64af13          	slti	t5,s1,-1082

0010c154 <i0000001b15>:
  10c154:	003eea33          	or	s4,t4,gp

0010c158 <i0000001b16>:
  10c158:	d1612023          	sw	s6,-768(sp)

0010c15c <i0000001b17>:
  10c15c:	00a062b3          	or	t0,zero,a0
  10c160:	00900d93          	li	s11,9

0010c164 <b0000001b18>:
  10c164:	00000033          	add	zero,zero,zero
  10c168:	fbbd4ee3          	blt	s10,s11,10c124 <i0000001b0e>
  10c16c:	00000033          	add	zero,zero,zero
  10c170:	00a00d13          	li	s10,10

0010c174 <i0000001b18>:
  10c174:	415d8b33          	sub	s6,s11,s5
  10c178:	00003117          	auipc	sp,0x3
  10c17c:	f8810113          	add	sp,sp,-120 # 10f100 <mem>
  10c180:	0005d337          	lui	t1,0x5d
  10c184:	d6830313          	add	t1,t1,-664 # 5cd68 <tohost+0x3cd60>
  10c188:	00610133          	add	sp,sp,t1

0010c18c <i0000001b19>:
  10c18c:	48815683          	lhu	a3,1160(sp)

0010c190 <i0000001b1a>:
  10c190:	65c15483          	lhu	s1,1628(sp)

0010c194 <i0000001b1b>:
  10c194:	e7014f03          	lbu	t5,-400(sp)

0010c198 <i0000001b1c>:
  10c198:	eb5b7513          	and	a0,s6,-331

0010c19c <i0000001b1d>:
  10c19c:	014c1513          	sll	a0,s8,0x14

0010c1a0 <i0000001b1e>:
  10c1a0:	00255f13          	srl	t5,a0,0x2

0010c1a4 <i0000001b1f>:
  10c1a4:	d7911723          	sh	s9,-658(sp)

0010c1a8 <i0000001b20>:
  10c1a8:	33015503          	lhu	a0,816(sp)

0010c1ac <i0000001b21>:
  10c1ac:	41600b33          	neg	s6,s6

0010c1b0 <i0000001b22>:
  10c1b0:	40fc8a33          	sub	s4,s9,a5

0010c1b4 <i0000001b23>:
  10c1b4:	44012503          	lw	a0,1088(sp)

0010c1b8 <i0000001b24>:
  10c1b8:	3143c2b7          	lui	t0,0x3143c

0010c1bc <i0000001b25>:
  10c1bc:	9ef2ea13          	or	s4,t0,-1553

0010c1c0 <i0000001b26>:
  10c1c0:	9069af13          	slti	t5,s3,-1786

0010c1c4 <i0000001b27>:
  10c1c4:	142f5f37          	lui	t5,0x142f5
  10c1c8:	00003117          	auipc	sp,0x3
  10c1cc:	f3810113          	add	sp,sp,-200 # 10f100 <mem>
  10c1d0:	00022337          	lui	t1,0x22
  10c1d4:	7c030313          	add	t1,t1,1984 # 227c0 <tohost+0x27b8>
  10c1d8:	00610133          	add	sp,sp,t1

0010c1dc <i0000001b28>:
  10c1dc:	f3211603          	lh	a2,-206(sp)
  10c1e0:	00003117          	auipc	sp,0x3
  10c1e4:	f2010113          	add	sp,sp,-224 # 10f100 <mem>
  10c1e8:	00005337          	lui	t1,0x5
  10c1ec:	49030313          	add	t1,t1,1168 # 5490 <_min_stack+0x3490>
  10c1f0:	00610133          	add	sp,sp,t1

0010c1f4 <i0000001b29>:
  10c1f4:	59710b03          	lb	s6,1431(sp)

0010c1f8 <i0000001b2a>:
  10c1f8:	f8a11223          	sh	a0,-124(sp)
  10c1fc:	00900913          	li	s2,9
  10c200:	00a00d13          	li	s10,10

0010c204 <b0000001b2b>:
  10c204:	00000033          	add	zero,zero,zero
  10c208:	052d4a63          	blt	s10,s2,10c25c <i0000001b38>
  10c20c:	00000033          	add	zero,zero,zero
  10c210:	00a00d13          	li	s10,10

0010c214 <i0000001b2b>:
  10c214:	e3c14e03          	lbu	t3,-452(sp)

0010c218 <i0000001b2c>:
  10c218:	56011d23          	sh	zero,1402(sp)

0010c21c <i0000001b2d>:
  10c21c:	00f4c333          	xor	t1,s1,a5

0010c220 <i0000001b2e>:
  10c220:	00ab2ab3          	slt	s5,s6,a0

0010c224 <i0000001b2f>:
  10c224:	92723513          	sltiu	a0,tp,-1753
  10c228:	00003117          	auipc	sp,0x3
  10c22c:	ed810113          	add	sp,sp,-296 # 10f100 <mem>
  10c230:	00059337          	lui	t1,0x59
  10c234:	a4830313          	add	t1,t1,-1464 # 58a48 <tohost+0x38a40>
  10c238:	00610133          	add	sp,sp,t1

0010c23c <i0000001b30>:
  10c23c:	15b14b03          	lbu	s6,347(sp)

0010c240 <i0000001b31>:
  10c240:	ab950593          	add	a1,a0,-1351 # 11dbf719 <fromhost+0x11c37709>

0010c244 <i0000001b32>:
  10c244:	00425533          	srl	a0,tp,tp

0010c248 <i0000001b33>:
  10c248:	41905413          	sra	s0,zero,0x19

0010c24c <i0000001b34>:
  10c24c:	b4412f03          	lw	t5,-1212(sp)

0010c250 <i0000001b35>:
  10c250:	41c7d3b3          	sra	t2,a5,t3

0010c254 <i0000001b36>:
  10c254:	8bc12683          	lw	a3,-1860(sp)

0010c258 <i0000001b37>:
  10c258:	7d812f83          	lw	t6,2008(sp)

0010c25c <i0000001b38>:
  10c25c:	00e7b433          	sltu	s0,a5,a4

0010c260 <i0000001b39>:
  10c260:	00a21593          	sll	a1,tp,0xa

0010c264 <i0000001b3a>:
  10c264:	7fbeb293          	sltiu	t0,t4,2043

0010c268 <i0000001b3b>:
  10c268:	01936733          	or	a4,t1,s9

0010c26c <i0000001b3c>:
  10c26c:	0d8b3193          	sltiu	gp,s6,216

0010c270 <i0000001b3d>:
  10c270:	404104a3          	sb	tp,1033(sp)
  10c274:	00b00a93          	li	s5,11
  10c278:	00a00d13          	li	s10,10

0010c27c <b0000001b3e>:
  10c27c:	00000033          	add	zero,zero,zero
  10c280:	035d1663          	bne	s10,s5,10c2ac <i0000001b46>
  10c284:	00000033          	add	zero,zero,zero
  10c288:	00a00d13          	li	s10,10

0010c28c <i0000001b3e>:
  10c28c:	12033193          	sltiu	gp,t1,288

0010c290 <i0000001b3f>:
  10c290:	01ef6533          	or	a0,t5,t5

0010c294 <i0000001b40>:
  10c294:	4393f993          	and	s3,t2,1081

0010c298 <i0000001b41>:
  10c298:	62b10723          	sb	a1,1582(sp)

0010c29c <i0000001b42>:
  10c29c:	41e05433          	sra	s0,zero,t5

0010c2a0 <i0000001b43>:
  10c2a0:	3a980917          	auipc	s2,0x3a980

0010c2a4 <i0000001b44>:
  10c2a4:	48812c83          	lw	s9,1160(sp)

0010c2a8 <i0000001b45>:
  10c2a8:	fc6f0b13          	add	s6,t5,-58 # 142f4fc6 <fromhost+0x1416cfb6>

0010c2ac <i0000001b46>:
  10c2ac:	14614f03          	lbu	t5,326(sp)
  10c2b0:	00003117          	auipc	sp,0x3
  10c2b4:	e5010113          	add	sp,sp,-432 # 10f100 <mem>
  10c2b8:	0000f337          	lui	t1,0xf
  10c2bc:	10030313          	add	t1,t1,256 # f100 <_stack_len+0x7100>
  10c2c0:	00610133          	add	sp,sp,t1

0010c2c4 <i0000001b47>:
  10c2c4:	85c14983          	lbu	s3,-1956(sp)

0010c2c8 <i0000001b48>:
  10c2c8:	004b65b3          	or	a1,s6,tp

0010c2cc <i0000001b49>:
  10c2cc:	01ef0ab3          	add	s5,t5,t5

0010c2d0 <i0000001b4a>:
  10c2d0:	2d215003          	lhu	zero,722(sp)

0010c2d4 <i0000001b4b>:
  10c2d4:	f2846913          	or	s2,s0,-216

0010c2d8 <i0000001b4c>:
  10c2d8:	88fdb313          	sltiu	t1,s11,-1905

0010c2dc <i0000001b4d>:
  10c2dc:	4ec11b83          	lh	s7,1260(sp)

0010c2e0 <i0000001b4e>:
  10c2e0:	d77f3f13          	sltiu	t5,t5,-649

0010c2e4 <i0000001b4f>:
  10c2e4:	6d36b737          	lui	a4,0x6d36b

0010c2e8 <i0000001b50>:
  10c2e8:	67710203          	lb	tp,1655(sp)
  10c2ec:	00c00893          	li	a7,12
  10c2f0:	001d0d13          	add	s10,s10,1

0010c2f4 <b0000001b51>:
  10c2f4:	00000033          	add	zero,zero,zero
  10c2f8:	fda8d6e3          	bge	a7,s10,10c2c4 <i0000001b47>
  10c2fc:	00000033          	add	zero,zero,zero
  10c300:	00a00d13          	li	s10,10

0010c304 <i0000001b51>:
  10c304:	01ce9d93          	sll	s11,t4,0x1c

0010c308 <i0000001b52>:
  10c308:	dba15003          	lhu	zero,-582(sp)

0010c30c <i0000001b53>:
  10c30c:	4ce15a83          	lhu	s5,1230(sp)

0010c310 <i0000001b54>:
  10c310:	7c610f03          	lb	t5,1990(sp)

0010c314 <i0000001b55>:
  10c314:	4056dcb3          	sra	s9,a3,t0

0010c318 <i0000001b56>:
  10c318:	e0458493          	add	s1,a1,-508 # 41c72a04 <fromhost+0x41aea9f4>

0010c31c <i0000001b57>:
  10c31c:	28615503          	lhu	a0,646(sp)

0010c320 <i0000001b58>:
  10c320:	00b4e5b3          	or	a1,s1,a1

0010c324 <i0000001b59>:
  10c324:	9e811e23          	sh	s0,-1540(sp)

0010c328 <i0000001b5a>:
  10c328:	01844b33          	xor	s6,s0,s8
  10c32c:	00003117          	auipc	sp,0x3
  10c330:	dd410113          	add	sp,sp,-556 # 10f100 <mem>
  10c334:	0000e337          	lui	t1,0xe
  10c338:	f4830313          	add	t1,t1,-184 # df48 <_stack_len+0x5f48>
  10c33c:	00610133          	add	sp,sp,t1

0010c340 <i0000001b5b>:
  10c340:	aa412b03          	lw	s6,-1372(sp)

0010c344 <i0000001b5c>:
  10c344:	82e11423          	sh	a4,-2008(sp)

0010c348 <i0000001b5d>:
  10c348:	0f757517          	auipc	a0,0xf757
  10c34c:	00003117          	auipc	sp,0x3
  10c350:	db410113          	add	sp,sp,-588 # 10f100 <mem>
  10c354:	00067337          	lui	t1,0x67
  10c358:	a4830313          	add	t1,t1,-1464 # 66a48 <tohost+0x46a40>
  10c35c:	00610133          	add	sp,sp,t1

0010c360 <i0000001b5e>:
  10c360:	49812503          	lw	a0,1176(sp)

0010c364 <i0000001b5f>:
  10c364:	00a20533          	add	a0,tp,a0

0010c368 <i0000001b60>:
  10c368:	0c9b2993          	slti	s3,s6,201

0010c36c <i0000001b61>:
  10c36c:	d4a11823          	sh	a0,-688(sp)

0010c370 <i0000001b62>:
  10c370:	4092d8b3          	sra	a7,t0,s1

0010c374 <i0000001b63>:
  10c374:	04f10203          	lb	tp,79(sp)
  10c378:	00c00993          	li	s3,12
  10c37c:	001d0d13          	add	s10,s10,1

0010c380 <b0000001b64>:
  10c380:	00000033          	add	zero,zero,zero
  10c384:	fd3d42e3          	blt	s10,s3,10c348 <i0000001b5d>
  10c388:	00000033          	add	zero,zero,zero
  10c38c:	00a00d13          	li	s10,10
  10c390:	00003117          	auipc	sp,0x3
  10c394:	d7010113          	add	sp,sp,-656 # 10f100 <mem>
  10c398:	00026337          	lui	t1,0x26
  10c39c:	1d030313          	add	t1,t1,464 # 261d0 <tohost+0x61c8>
  10c3a0:	00610133          	add	sp,sp,t1

0010c3a4 <i0000001b64>:
  10c3a4:	56310d23          	sb	gp,1402(sp)

0010c3a8 <i0000001b65>:
  10c3a8:	0e811883          	lh	a7,232(sp)

0010c3ac <i0000001b66>:
  10c3ac:	ce310903          	lb	s2,-797(sp)

0010c3b0 <i0000001b67>:
  10c3b0:	00951f13          	sll	t5,a0,0x9

0010c3b4 <i0000001b68>:
  10c3b4:	8ab10283          	lb	t0,-1877(sp)

0010c3b8 <i0000001b69>:
  10c3b8:	008f1993          	sll	s3,t5,0x8

0010c3bc <i0000001b6a>:
  10c3bc:	26b103a3          	sb	a1,615(sp)

0010c3c0 <i0000001b6b>:
  10c3c0:	009a6233          	or	tp,s4,s1

0010c3c4 <i0000001b6c>:
  10c3c4:	00405533          	srl	a0,zero,tp

0010c3c8 <i0000001b6d>:
  10c3c8:	4b610823          	sb	s6,1200(sp)
  10c3cc:	00003117          	auipc	sp,0x3
  10c3d0:	d3410113          	add	sp,sp,-716 # 10f100 <mem>
  10c3d4:	0004e337          	lui	t1,0x4e
  10c3d8:	3e030313          	add	t1,t1,992 # 4e3e0 <tohost+0x2e3d8>
  10c3dc:	00610133          	add	sp,sp,t1

0010c3e0 <i0000001b6e>:
  10c3e0:	fd412003          	lw	zero,-44(sp)

0010c3e4 <i0000001b6f>:
  10c3e4:	00a05533          	srl	a0,zero,a0

0010c3e8 <i0000001b70>:
  10c3e8:	f3a11f03          	lh	t5,-198(sp)

0010c3ec <i0000001b71>:
  10c3ec:	4e012f03          	lw	t5,1248(sp)

0010c3f0 <i0000001b72>:
  10c3f0:	00ee6bb3          	or	s7,t3,a4
  10c3f4:	00003117          	auipc	sp,0x3
  10c3f8:	d0c10113          	add	sp,sp,-756 # 10f100 <mem>
  10c3fc:	0000f337          	lui	t1,0xf
  10c400:	4b830313          	add	t1,t1,1208 # f4b8 <_stack_len+0x74b8>
  10c404:	00610133          	add	sp,sp,t1

0010c408 <i0000001b73>:
  10c408:	28811f23          	sh	s0,670(sp)

0010c40c <i0000001b74>:
  10c40c:	7dd11923          	sh	t4,2002(sp)

0010c410 <i0000001b75>:
  10c410:	bc38b493          	sltiu	s1,a7,-1085

0010c414 <i0000001b76>:
  10c414:	22815403          	lhu	s0,552(sp)
  10c418:	00900d93          	li	s11,9

0010c41c <b0000001b77>:
  10c41c:	00000033          	add	zero,zero,zero
  10c420:	f9bd4ce3          	blt	s10,s11,10c3b8 <i0000001b69>
  10c424:	00000033          	add	zero,zero,zero
  10c428:	00a00d13          	li	s10,10

0010c42c <i0000001b77>:
  10c42c:	00a201b3          	add	gp,tp,a0

0010c430 <i0000001b78>:
  10c430:	c7110283          	lb	t0,-911(sp)

0010c434 <i0000001b79>:
  10c434:	afc14503          	lbu	a0,-1284(sp)

0010c438 <i0000001b7a>:
  10c438:	47e11123          	sh	t5,1122(sp)

0010c43c <i0000001b7b>:
  10c43c:	a5614f03          	lbu	t5,-1450(sp)

0010c440 <i0000001b7c>:
  10c440:	e5f7c213          	xor	tp,a5,-417

0010c444 <i0000001b7d>:
  10c444:	5a0e5f17          	auipc	t5,0x5a0e5

0010c448 <i0000001b7e>:
  10c448:	84d10523          	sb	a3,-1974(sp)

0010c44c <i0000001b7f>:
  10c44c:	49112a23          	sw	a7,1172(sp)
  10c450:	00003117          	auipc	sp,0x3
  10c454:	cb010113          	add	sp,sp,-848 # 10f100 <mem>
  10c458:	00013337          	lui	t1,0x13
  10c45c:	6b830313          	add	t1,t1,1720 # 136b8 <_stack_len+0xb6b8>
  10c460:	00610133          	add	sp,sp,t1

0010c464 <i0000001b80>:
  10c464:	e4011803          	lh	a6,-448(sp)

0010c468 <i0000001b81>:
  10c468:	f4815203          	lhu	tp,-184(sp)

0010c46c <i0000001b82>:
  10c46c:	ee011a23          	sh	zero,-268(sp)
  10c470:	00003117          	auipc	sp,0x3
  10c474:	c9010113          	add	sp,sp,-880 # 10f100 <mem>
  10c478:	00022337          	lui	t1,0x22
  10c47c:	0b830313          	add	t1,t1,184 # 220b8 <tohost+0x20b0>
  10c480:	00610133          	add	sp,sp,t1

0010c484 <i0000001b83>:
  10c484:	28c11d83          	lh	s11,652(sp)

0010c488 <i0000001b84>:
  10c488:	61a15b03          	lhu	s6,1562(sp)

0010c48c <i0000001b85>:
  10c48c:	31f13217          	auipc	tp,0x31f13

0010c490 <i0000001b86>:
  10c490:	a1796813          	or	a6,s2,-1513

0010c494 <i0000001b87>:
  10c494:	e9812203          	lw	tp,-360(sp)

0010c498 <i0000001b88>:
  10c498:	b2f14b83          	lbu	s7,-1233(sp)
  10c49c:	00003117          	auipc	sp,0x3
  10c4a0:	c6410113          	add	sp,sp,-924 # 10f100 <mem>
  10c4a4:	0000c337          	lui	t1,0xc
  10c4a8:	96030313          	add	t1,t1,-1696 # b960 <_stack_len+0x3960>
  10c4ac:	00610133          	add	sp,sp,t1

0010c4b0 <i0000001b89>:
  10c4b0:	68410f03          	lb	t5,1668(sp)

0010c4b4 <b0000001b8a>:
  10c4b4:	0200056f          	jal	a0,10c4d4 <i0000001b91>

0010c4b8 <i0000001b8a>:
  10c4b8:	83312023          	sw	s3,-2016(sp)

0010c4bc <i0000001b8b>:
  10c4bc:	008e5ab3          	srl	s5,t3,s0

0010c4c0 <i0000001b8c>:
  10c4c0:	b3212423          	sw	s2,-1240(sp)

0010c4c4 <i0000001b8d>:
  10c4c4:	01d3c533          	xor	a0,t2,t4

0010c4c8 <i0000001b8e>:
  10c4c8:	e8abaf13          	slti	t5,s7,-374

0010c4cc <i0000001b8f>:
  10c4cc:	cad12223          	sw	a3,-860(sp)

0010c4d0 <i0000001b90>:
  10c4d0:	21978513          	add	a0,a5,537 # 6e0a8219 <fromhost+0x6df20209>

0010c4d4 <i0000001b91>:
  10c4d4:	009df033          	and	zero,s11,s1

0010c4d8 <i0000001b92>:
  10c4d8:	6be14503          	lbu	a0,1726(sp)

0010c4dc <i0000001b93>:
  10c4dc:	01bcde13          	srl	t3,s9,0x1b

0010c4e0 <i0000001b94>:
  10c4e0:	006c4cb3          	xor	s9,s8,t1

0010c4e4 <i0000001b95>:
  10c4e4:	74012703          	lw	a4,1856(sp)

0010c4e8 <i0000001b96>:
  10c4e8:	01c303b3          	add	t2,t1,t3

0010c4ec <i0000001b97>:
  10c4ec:	01083833          	sltu	a6,a6,a6

0010c4f0 <i0000001b98>:
  10c4f0:	40b14603          	lbu	a2,1035(sp)

0010c4f4 <i0000001b99>:
  10c4f4:	05e10523          	sb	t5,74(sp)
  10c4f8:	00003117          	auipc	sp,0x3
  10c4fc:	c0810113          	add	sp,sp,-1016 # 10f100 <mem>
  10c500:	00023337          	lui	t1,0x23
  10c504:	f3030313          	add	t1,t1,-208 # 22f30 <tohost+0x2f28>
  10c508:	00610133          	add	sp,sp,t1

0010c50c <i0000001b9a>:
  10c50c:	16012623          	sw	zero,364(sp)

0010c510 <i0000001b9b>:
  10c510:	c9b22513          	slti	a0,tp,-869

0010c514 <i0000001b9c>:
  10c514:	40da5033          	sra	zero,s4,a3
  10c518:	00a00e93          	li	t4,10

0010c51c <b0000001b9d>:
  10c51c:	01dd0863          	beq	s10,t4,10c52c <b0000001b9d+0x10>
  10c520:	00000e97          	auipc	t4,0x0
  10c524:	fbce8e93          	add	t4,t4,-68 # 10c4dc <i0000001b93>
  10c528:	000e8567          	jalr	a0,t4
  10c52c:	00a00d13          	li	s10,10

0010c530 <i0000001b9d>:
  10c530:	314a0517          	auipc	a0,0x314a0

0010c534 <i0000001b9e>:
  10c534:	98e15683          	lhu	a3,-1650(sp)

0010c538 <i0000001b9f>:
  10c538:	fa014503          	lbu	a0,-96(sp)
  10c53c:	00003117          	auipc	sp,0x3
  10c540:	bc410113          	add	sp,sp,-1084 # 10f100 <mem>
  10c544:	00046337          	lui	t1,0x46
  10c548:	83830313          	add	t1,t1,-1992 # 45838 <tohost+0x25830>
  10c54c:	00610133          	add	sp,sp,t1

0010c550 <i0000001ba0>:
  10c550:	cdb10ea3          	sb	s11,-803(sp)

0010c554 <i0000001ba1>:
  10c554:	01001213          	sll	tp,zero,0x10

0010c558 <i0000001ba2>:
  10c558:	a3c15b83          	lhu	s7,-1476(sp)
  10c55c:	00003117          	auipc	sp,0x3
  10c560:	ba410113          	add	sp,sp,-1116 # 10f100 <mem>
  10c564:	00015337          	lui	t1,0x15
  10c568:	73830313          	add	t1,t1,1848 # 15738 <_stack_len+0xd738>
  10c56c:	00610133          	add	sp,sp,t1

0010c570 <i0000001ba3>:
  10c570:	27212c23          	sw	s2,632(sp)

0010c574 <i0000001ba4>:
  10c574:	97f12423          	sw	t6,-1688(sp)

0010c578 <i0000001ba5>:
  10c578:	0a412d83          	lw	s11,164(sp)

0010c57c <i0000001ba6>:
  10c57c:	00a24eb3          	xor	t4,tp,a0
  10c580:	00003117          	auipc	sp,0x3
  10c584:	b8010113          	add	sp,sp,-1152 # 10f100 <mem>
  10c588:	00041337          	lui	t1,0x41
  10c58c:	0d030313          	add	t1,t1,208 # 410d0 <tohost+0x210c8>
  10c590:	00610133          	add	sp,sp,t1

0010c594 <i0000001ba7>:
  10c594:	9c0103a3          	sb	zero,-1593(sp)

0010c598 <i0000001ba8>:
  10c598:	50c10383          	lb	t2,1292(sp)

0010c59c <i0000001ba9>:
  10c59c:	c0e14d83          	lbu	s11,-1010(sp)

0010c5a0 <i0000001baa>:
  10c5a0:	36614503          	lbu	a0,870(sp)

0010c5a4 <i0000001bab>:
  10c5a4:	f1911723          	sh	s9,-242(sp)

0010c5a8 <i0000001bac>:
  10c5a8:	00407b33          	and	s6,zero,tp

0010c5ac <i0000001bad>:
  10c5ac:	01c89213          	sll	tp,a7,0x1c

0010c5b0 <i0000001bae>:
  10c5b0:	0019d513          	srl	a0,s3,0x1

0010c5b4 <i0000001baf>:
  10c5b4:	40f85f13          	sra	t5,a6,0xf
  10c5b8:	00c00e13          	li	t3,12
  10c5bc:	001d0d13          	add	s10,s10,1

0010c5c0 <b0000001bb0>:
  10c5c0:	01cd0463          	beq	s10,t3,10c5c8 <b0000001bb0+0x8>
  10c5c4:	fddff56f          	jal	a0,10c5a0 <i0000001baa>
  10c5c8:	00a00d13          	li	s10,10

0010c5cc <i0000001bb0>:
  10c5cc:	17e15683          	lhu	a3,382(sp)

0010c5d0 <i0000001bb1>:
  10c5d0:	c2a15203          	lhu	tp,-982(sp)

0010c5d4 <i0000001bb2>:
  10c5d4:	01e07f33          	and	t5,zero,t5

0010c5d8 <i0000001bb3>:
  10c5d8:	f1611c23          	sh	s6,-232(sp)

0010c5dc <i0000001bb4>:
  10c5dc:	01cc2b33          	slt	s6,s8,t3

0010c5e0 <i0000001bb5>:
  10c5e0:	539100a3          	sb	s9,1313(sp)
  10c5e4:	00003117          	auipc	sp,0x3
  10c5e8:	b1c10113          	add	sp,sp,-1252 # 10f100 <mem>
  10c5ec:	00040337          	lui	t1,0x40
  10c5f0:	c2030313          	add	t1,t1,-992 # 3fc20 <tohost+0x1fc18>
  10c5f4:	00610133          	add	sp,sp,t1

0010c5f8 <i0000001bb6>:
  10c5f8:	35611183          	lh	gp,854(sp)

0010c5fc <i0000001bb7>:
  10c5fc:	01e56bb3          	or	s7,a0,t5

0010c600 <i0000001bb8>:
  10c600:	01785813          	srl	a6,a6,0x17

0010c604 <i0000001bb9>:
  10c604:	2be10203          	lb	tp,702(sp)

0010c608 <i0000001bba>:
  10c608:	00db5393          	srl	t2,s6,0xd

0010c60c <i0000001bbb>:
  10c60c:	2fe10c23          	sb	t5,760(sp)

0010c610 <i0000001bbc>:
  10c610:	13612c23          	sw	s6,312(sp)

0010c614 <i0000001bbd>:
  10c614:	00b77f33          	and	t5,a4,a1
  10c618:	00003117          	auipc	sp,0x3
  10c61c:	ae810113          	add	sp,sp,-1304 # 10f100 <mem>
  10c620:	00067337          	lui	t1,0x67
  10c624:	a8030313          	add	t1,t1,-1408 # 66a80 <tohost+0x46a78>
  10c628:	00610133          	add	sp,sp,t1

0010c62c <i0000001bbe>:
  10c62c:	879101a3          	sb	s9,-1949(sp)

0010c630 <i0000001bbf>:
  10c630:	7bc11483          	lh	s1,1980(sp)

0010c634 <i0000001bc0>:
  10c634:	3d210503          	lb	a0,978(sp)

0010c638 <i0000001bc1>:
  10c638:	3e012f03          	lw	t5,992(sp)

0010c63c <i0000001bc2>:
  10c63c:	1a04a313          	slti	t1,s1,416
  10c640:	00c00913          	li	s2,12
  10c644:	001d0d13          	add	s10,s10,1

0010c648 <b0000001bc3>:
  10c648:	00000033          	add	zero,zero,zero
  10c64c:	fba956e3          	bge	s2,s10,10c5f8 <i0000001bb6>
  10c650:	00000033          	add	zero,zero,zero
  10c654:	00a00d13          	li	s10,10

0010c658 <i0000001bc3>:
  10c658:	9ca12623          	sw	a0,-1588(sp)

0010c65c <i0000001bc4>:
  10c65c:	d7fb0b13          	add	s6,s6,-641 # 32044c17 <fromhost+0x31ebcc07>

0010c660 <i0000001bc5>:
  10c660:	89e15503          	lhu	a0,-1890(sp)

0010c664 <i0000001bc6>:
  10c664:	36110b03          	lb	s6,865(sp)

0010c668 <i0000001bc7>:
  10c668:	010ceb33          	or	s6,s9,a6

0010c66c <i0000001bc8>:
  10c66c:	38411a23          	sh	tp,916(sp)
  10c670:	00003117          	auipc	sp,0x3
  10c674:	a9010113          	add	sp,sp,-1392 # 10f100 <mem>
  10c678:	00060337          	lui	t1,0x60
  10c67c:	56830313          	add	t1,t1,1384 # 60568 <tohost+0x40560>
  10c680:	00610133          	add	sp,sp,t1

0010c684 <i0000001bc9>:
  10c684:	a3614f03          	lbu	t5,-1482(sp)
  10c688:	00003117          	auipc	sp,0x3
  10c68c:	a7810113          	add	sp,sp,-1416 # 10f100 <mem>
  10c690:	00067337          	lui	t1,0x67
  10c694:	5b030313          	add	t1,t1,1456 # 675b0 <tohost+0x475a8>
  10c698:	00610133          	add	sp,sp,t1

0010c69c <i0000001bca>:
  10c69c:	ec412483          	lw	s1,-316(sp)

0010c6a0 <i0000001bcb>:
  10c6a0:	6c300f93          	li	t6,1731

0010c6a4 <i0000001bcc>:
  10c6a4:	41eb0533          	sub	a0,s6,t5
  10c6a8:	00003117          	auipc	sp,0x3
  10c6ac:	a5810113          	add	sp,sp,-1448 # 10f100 <mem>
  10c6b0:	00026337          	lui	t1,0x26
  10c6b4:	2d030313          	add	t1,t1,720 # 262d0 <tohost+0x62c8>
  10c6b8:	00610133          	add	sp,sp,t1

0010c6bc <i0000001bcd>:
  10c6bc:	df611623          	sh	s6,-532(sp)

0010c6c0 <i0000001bce>:
  10c6c0:	f2912823          	sw	s1,-208(sp)

0010c6c4 <i0000001bcf>:
  10c6c4:	00b952b3          	srl	t0,s2,a1

0010c6c8 <i0000001bd0>:
  10c6c8:	89415183          	lhu	gp,-1900(sp)
  10c6cc:	00003117          	auipc	sp,0x3
  10c6d0:	a3410113          	add	sp,sp,-1484 # 10f100 <mem>
  10c6d4:	00007337          	lui	t1,0x7
  10c6d8:	4c030313          	add	t1,t1,1216 # 74c0 <_min_stack+0x54c0>
  10c6dc:	00610133          	add	sp,sp,t1

0010c6e0 <i0000001bd1>:
  10c6e0:	52e14a83          	lbu	s5,1326(sp)

0010c6e4 <i0000001bd2>:
  10c6e4:	66911c23          	sh	s1,1656(sp)

0010c6e8 <i0000001bd3>:
  10c6e8:	01f423b3          	slt	t2,s0,t6
  10c6ec:	00003117          	auipc	sp,0x3
  10c6f0:	a1410113          	add	sp,sp,-1516 # 10f100 <mem>
  10c6f4:	00016337          	lui	t1,0x16
  10c6f8:	c8030313          	add	t1,t1,-896 # 15c80 <_stack_len+0xdc80>
  10c6fc:	00610133          	add	sp,sp,t1

0010c700 <i0000001bd4>:
  10c700:	c2c15203          	lhu	tp,-980(sp)

0010c704 <i0000001bd5>:
  10c704:	009b5013          	srl	zero,s6,0x9
  10c708:	00900893          	li	a7,9
  10c70c:	00a00d13          	li	s10,10

0010c710 <b0000001bd6>:
  10c710:	00000033          	add	zero,zero,zero
  10c714:	031d4c63          	blt	s10,a7,10c74c <i0000001be1>
  10c718:	00000033          	add	zero,zero,zero
  10c71c:	00a00d13          	li	s10,10

0010c720 <i0000001bd6>:
  10c720:	00ab2033          	slt	zero,s6,a0

0010c724 <i0000001bd7>:
  10c724:	a8411a23          	sh	tp,-1388(sp)

0010c728 <i0000001bd8>:
  10c728:	ccb30513          	add	a0,t1,-821

0010c72c <i0000001bd9>:
  10c72c:	01ef7233          	and	tp,t5,t5

0010c730 <i0000001bda>:
  10c730:	a3a07e93          	and	t4,zero,-1478

0010c734 <i0000001bdb>:
  10c734:	0c702217          	auipc	tp,0xc702

0010c738 <i0000001bdc>:
  10c738:	009da033          	slt	zero,s11,s1

0010c73c <i0000001bdd>:
  10c73c:	99d23793          	sltiu	a5,tp,-1635

0010c740 <i0000001bde>:
  10c740:	02bf4013          	xor	zero,t5,43

0010c744 <i0000001bdf>:
  10c744:	44384293          	xor	t0,a6,1091

0010c748 <i0000001be0>:
  10c748:	00ea4033          	xor	zero,s4,a4

0010c74c <i0000001be1>:
  10c74c:	2a011a83          	lh	s5,672(sp)
  10c750:	00003117          	auipc	sp,0x3
  10c754:	9b010113          	add	sp,sp,-1616 # 10f100 <mem>
  10c758:	00013337          	lui	t1,0x13
  10c75c:	08830313          	add	t1,t1,136 # 13088 <_stack_len+0xb088>
  10c760:	00610133          	add	sp,sp,t1

0010c764 <i0000001be2>:
  10c764:	16a15e83          	lhu	t4,362(sp)

0010c768 <i0000001be3>:
  10c768:	00eab333          	sltu	t1,s5,a4

0010c76c <i0000001be4>:
  10c76c:	8caf0c93          	add	s9,t5,-1846 # 5a1f0d0e <fromhost+0x5a068cfe>

0010c770 <i0000001be5>:
  10c770:	ccb10203          	lb	tp,-821(sp)

0010c774 <i0000001be6>:
  10c774:	d6011503          	lh	a0,-672(sp)

0010c778 <i0000001be7>:
  10c778:	e6f10203          	lb	tp,-401(sp)
  10c77c:	00003117          	auipc	sp,0x3
  10c780:	98410113          	add	sp,sp,-1660 # 10f100 <mem>
  10c784:	00061337          	lui	t1,0x61
  10c788:	0e830313          	add	t1,t1,232 # 610e8 <tohost+0x410e0>
  10c78c:	00610133          	add	sp,sp,t1

0010c790 <i0000001be8>:
  10c790:	8a310a03          	lb	s4,-1885(sp)

0010c794 <b0000001be9>:
  10c794:	0640056f          	jal	a0,10c7f8 <i0000001bf2>

0010c798 <i0000001be9>:
  10c798:	d4422f13          	slti	t5,tp,-700

0010c79c <i0000001bea>:
  10c79c:	8d107f13          	and	t5,zero,-1839

0010c7a0 <i0000001beb>:
  10c7a0:	1f556b93          	or	s7,a0,501
  10c7a4:	00003117          	auipc	sp,0x3
  10c7a8:	95c10113          	add	sp,sp,-1700 # 10f100 <mem>
  10c7ac:	00031337          	lui	t1,0x31
  10c7b0:	8a830313          	add	t1,t1,-1880 # 308a8 <tohost+0x108a0>
  10c7b4:	00610133          	add	sp,sp,t1

0010c7b8 <i0000001bec>:
  10c7b8:	4f912023          	sw	s9,1248(sp)

0010c7bc <i0000001bed>:
  10c7bc:	01e27eb3          	and	t4,tp,t5
  10c7c0:	00003117          	auipc	sp,0x3
  10c7c4:	94010113          	add	sp,sp,-1728 # 10f100 <mem>
  10c7c8:	0006a337          	lui	t1,0x6a
  10c7cc:	35030313          	add	t1,t1,848 # 6a350 <tohost+0x4a348>
  10c7d0:	00610133          	add	sp,sp,t1

0010c7d4 <i0000001bee>:
  10c7d4:	bd612823          	sw	s6,-1072(sp)
  10c7d8:	00003117          	auipc	sp,0x3
  10c7dc:	92810113          	add	sp,sp,-1752 # 10f100 <mem>
  10c7e0:	00021337          	lui	t1,0x21
  10c7e4:	25830313          	add	t1,t1,600 # 21258 <tohost+0x1250>
  10c7e8:	00610133          	add	sp,sp,t1

0010c7ec <i0000001bef>:
  10c7ec:	01614c03          	lbu	s8,22(sp)

0010c7f0 <i0000001bf0>:
  10c7f0:	00363533          	sltu	a0,a2,gp

0010c7f4 <i0000001bf1>:
  10c7f4:	bc011d23          	sh	zero,-1062(sp)

0010c7f8 <i0000001bf2>:
  10c7f8:	0134c5b3          	xor	a1,s1,s3

0010c7fc <i0000001bf3>:
  10c7fc:	7db5ef13          	or	t5,a1,2011

0010c800 <i0000001bf4>:
  10c800:	e9e83b13          	sltiu	s6,a6,-354

0010c804 <i0000001bf5>:
  10c804:	26a11723          	sh	a0,622(sp)

0010c808 <i0000001bf6>:
  10c808:	95412503          	lw	a0,-1708(sp)

0010c80c <i0000001bf7>:
  10c80c:	e35cb013          	sltiu	zero,s9,-459

0010c810 <i0000001bf8>:
  10c810:	19e11923          	sh	t5,402(sp)
  10c814:	00003117          	auipc	sp,0x3
  10c818:	8ec10113          	add	sp,sp,-1812 # 10f100 <mem>
  10c81c:	0005b337          	lui	t1,0x5b
  10c820:	b1830313          	add	t1,t1,-1256 # 5ab18 <tohost+0x3ab10>
  10c824:	00610133          	add	sp,sp,t1

0010c828 <i0000001bf9>:
  10c828:	7b412d83          	lw	s11,1972(sp)

0010c82c <i0000001bfa>:
  10c82c:	00f5c433          	xor	s0,a1,a5

0010c830 <i0000001bfb>:
  10c830:	36812b03          	lw	s6,872(sp)
  10c834:	00900993          	li	s3,9

0010c838 <b0000001bfc>:
  10c838:	00000033          	add	zero,zero,zero
  10c83c:	fda9d4e3          	bge	s3,s10,10c804 <i0000001bf5>
  10c840:	00000033          	add	zero,zero,zero
  10c844:	00a00d13          	li	s10,10

0010c848 <i0000001bfc>:
  10c848:	ab514603          	lbu	a2,-1355(sp)
  10c84c:	00003117          	auipc	sp,0x3
  10c850:	8b410113          	add	sp,sp,-1868 # 10f100 <mem>
  10c854:	00014337          	lui	t1,0x14
  10c858:	d2830313          	add	t1,t1,-728 # 13d28 <_stack_len+0xbd28>
  10c85c:	00610133          	add	sp,sp,t1

0010c860 <i0000001bfd>:
  10c860:	28411283          	lh	t0,644(sp)

0010c864 <i0000001bfe>:
  10c864:	b99b4e13          	xor	t3,s6,-1127

0010c868 <i0000001bff>:
  10c868:	00d61933          	sll	s2,a2,a3

0010c86c <i0000001c00>:
  10c86c:	e0611b23          	sh	t1,-490(sp)

0010c870 <i0000001c01>:
  10c870:	58257393          	and	t2,a0,1410
  10c874:	00003117          	auipc	sp,0x3
  10c878:	88c10113          	add	sp,sp,-1908 # 10f100 <mem>
  10c87c:	0002a337          	lui	t1,0x2a
  10c880:	91030313          	add	t1,t1,-1776 # 29910 <tohost+0x9908>
  10c884:	00610133          	add	sp,sp,t1

0010c888 <i0000001c02>:
  10c888:	aff10723          	sb	t6,-1298(sp)

0010c88c <i0000001c03>:
  10c88c:	01b05b13          	srl	s6,zero,0x1b

0010c890 <i0000001c04>:
  10c890:	bdf10003          	lb	zero,-1057(sp)

0010c894 <i0000001c05>:
  10c894:	01fcedb3          	or	s11,s9,t6

0010c898 <i0000001c06>:
  10c898:	ec011723          	sh	zero,-306(sp)

0010c89c <i0000001c07>:
  10c89c:	82412223          	sw	tp,-2012(sp)

0010c8a0 <i0000001c08>:
  10c8a0:	e2012783          	lw	a5,-480(sp)

0010c8a4 <i0000001c09>:
  10c8a4:	016f6f33          	or	t5,t5,s6

0010c8a8 <i0000001c0a>:
  10c8a8:	f7a14203          	lbu	tp,-134(sp)

0010c8ac <i0000001c0b>:
  10c8ac:	3f015003          	lhu	zero,1008(sp)

0010c8b0 <i0000001c0c>:
  10c8b0:	3e012e83          	lw	t4,992(sp)

0010c8b4 <i0000001c0d>:
  10c8b4:	45812a03          	lw	s4,1112(sp)

0010c8b8 <i0000001c0e>:
  10c8b8:	41f05913          	sra	s2,zero,0x1f
  10c8bc:	00b00b13          	li	s6,11
  10c8c0:	001d0d13          	add	s10,s10,1

0010c8c4 <b0000001c0f>:
  10c8c4:	00000033          	add	zero,zero,zero
  10c8c8:	fd6d08e3          	beq	s10,s6,10c898 <i0000001c06>
  10c8cc:	00000033          	add	zero,zero,zero
  10c8d0:	00a00d13          	li	s10,10
  10c8d4:	00003117          	auipc	sp,0x3
  10c8d8:	82c10113          	add	sp,sp,-2004 # 10f100 <mem>
  10c8dc:	00011337          	lui	t1,0x11
  10c8e0:	6b030313          	add	t1,t1,1712 # 116b0 <_stack_len+0x96b0>
  10c8e4:	00610133          	add	sp,sp,t1

0010c8e8 <i0000001c0f>:
  10c8e8:	8da11f03          	lh	t5,-1830(sp)

0010c8ec <i0000001c10>:
  10c8ec:	413bdf93          	sra	t6,s7,0x13

0010c8f0 <i0000001c11>:
  10c8f0:	000f23b3          	sltz	t2,t5

0010c8f4 <i0000001c12>:
  10c8f4:	01e23b33          	sltu	s6,tp,t5

0010c8f8 <i0000001c13>:
  10c8f8:	90710e03          	lb	t3,-1785(sp)

0010c8fc <i0000001c14>:
  10c8fc:	000f4533          	xor	a0,t5,zero
  10c900:	00003117          	auipc	sp,0x3
  10c904:	80010113          	add	sp,sp,-2048 # 10f100 <mem>
  10c908:	0002a337          	lui	t1,0x2a
  10c90c:	5b830313          	add	t1,t1,1464 # 2a5b8 <tohost+0xa5b0>
  10c910:	00610133          	add	sp,sp,t1

0010c914 <i0000001c15>:
  10c914:	9a114f03          	lbu	t5,-1631(sp)
  10c918:	00002117          	auipc	sp,0x2
  10c91c:	7e810113          	add	sp,sp,2024 # 10f100 <mem>
  10c920:	0001a337          	lui	t1,0x1a
  10c924:	16830313          	add	t1,t1,360 # 1a168 <_stack_len+0x12168>
  10c928:	00610133          	add	sp,sp,t1

0010c92c <i0000001c16>:
  10c92c:	9fc12c83          	lw	s9,-1540(sp)

0010c930 <i0000001c17>:
  10c930:	01281513          	sll	a0,a6,0x12

0010c934 <i0000001c18>:
  10c934:	01d62b33          	slt	s6,a2,t4

0010c938 <i0000001c19>:
  10c938:	40ab0033          	sub	zero,s6,a0

0010c93c <i0000001c1a>:
  10c93c:	3d910503          	lb	a0,985(sp)

0010c940 <i0000001c1b>:
  10c940:	01600333          	add	t1,zero,s6

0010c944 <i0000001c1c>:
  10c944:	95636513          	or	a0,t1,-1706

0010c948 <i0000001c1d>:
  10c948:	8e210383          	lb	t2,-1822(sp)
  10c94c:	00002117          	auipc	sp,0x2
  10c950:	7b410113          	add	sp,sp,1972 # 10f100 <mem>
  10c954:	00068337          	lui	t1,0x68
  10c958:	f3030313          	add	t1,t1,-208 # 67f30 <tohost+0x47f28>
  10c95c:	00610133          	add	sp,sp,t1

0010c960 <i0000001c1e>:
  10c960:	400103a3          	sb	zero,1031(sp)

0010c964 <i0000001c1f>:
  10c964:	d5610a23          	sb	s6,-684(sp)

0010c968 <i0000001c20>:
  10c968:	0197e5b3          	or	a1,a5,s9

0010c96c <i0000001c21>:
  10c96c:	b7422013          	slti	zero,tp,-1164
  10c970:	00900b93          	li	s7,9
  10c974:	00a00d13          	li	s10,10

0010c978 <b0000001c22>:
  10c978:	00000033          	add	zero,zero,zero
  10c97c:	03abd463          	bge	s7,s10,10c9a4 <i0000001c29>
  10c980:	00000033          	add	zero,zero,zero
  10c984:	00a00d13          	li	s10,10

0010c988 <i0000001c22>:
  10c988:	2e014203          	lbu	tp,736(sp)

0010c98c <i0000001c23>:
  10c98c:	7ccb2b13          	slti	s6,s6,1996

0010c990 <i0000001c24>:
  10c990:	01459533          	sll	a0,a1,s4

0010c994 <i0000001c25>:
  10c994:	4ddc3693          	sltiu	a3,s8,1245

0010c998 <i0000001c26>:
  10c998:	d1c12f03          	lw	t5,-740(sp)

0010c99c <i0000001c27>:
  10c99c:	292d8e13          	add	t3,s11,658

0010c9a0 <i0000001c28>:
  10c9a0:	01e06233          	or	tp,zero,t5

0010c9a4 <i0000001c29>:
  10c9a4:	07e11f03          	lh	t5,126(sp)

0010c9a8 <i0000001c2a>:
  10c9a8:	00e42b33          	slt	s6,s0,a4

0010c9ac <i0000001c2b>:
  10c9ac:	e2c10b03          	lb	s6,-468(sp)

0010c9b0 <i0000001c2c>:
  10c9b0:	41b98b33          	sub	s6,s3,s11

0010c9b4 <i0000001c2d>:
  10c9b4:	01eb5233          	srl	tp,s6,t5

0010c9b8 <i0000001c2e>:
  10c9b8:	f4e109a3          	sb	a4,-173(sp)

0010c9bc <i0000001c2f>:
  10c9bc:	33612023          	sw	s6,800(sp)

0010c9c0 <i0000001c30>:
  10c9c0:	1f012203          	lw	tp,496(sp)
  10c9c4:	00002117          	auipc	sp,0x2
  10c9c8:	73c10113          	add	sp,sp,1852 # 10f100 <mem>
  10c9cc:	00040337          	lui	t1,0x40
  10c9d0:	89830313          	add	t1,t1,-1896 # 3f898 <tohost+0x1f890>
  10c9d4:	00610133          	add	sp,sp,t1

0010c9d8 <i0000001c31>:
  10c9d8:	d1d10923          	sb	t4,-750(sp)

0010c9dc <i0000001c32>:
  10c9dc:	019e3db3          	sltu	s11,t3,s9

0010c9e0 <i0000001c33>:
  10c9e0:	4fe14c03          	lbu	s8,1278(sp)

0010c9e4 <i0000001c34>:
  10c9e4:	22c15903          	lhu	s2,556(sp)
  10c9e8:	00900d93          	li	s11,9
  10c9ec:	00a00d13          	li	s10,10

0010c9f0 <b0000001c35>:
  10c9f0:	00000033          	add	zero,zero,zero
  10c9f4:	03bd4c63          	blt	s10,s11,10ca2c <i0000001c3b>
  10c9f8:	00000033          	add	zero,zero,zero
  10c9fc:	00a00d13          	li	s10,10

0010ca00 <i0000001c35>:
  10ca00:	80578493          	add	s1,a5,-2043

0010ca04 <i0000001c36>:
  10ca04:	ae410c23          	sb	tp,-1288(sp)

0010ca08 <i0000001c37>:
  10ca08:	e1793c93          	sltiu	s9,s2,-489

0010ca0c <i0000001c38>:
  10ca0c:	40744613          	xor	a2,s0,1031

0010ca10 <i0000001c39>:
  10ca10:	0fa10b03          	lb	s6,250(sp)
  10ca14:	00002117          	auipc	sp,0x2
  10ca18:	6ec10113          	add	sp,sp,1772 # 10f100 <mem>
  10ca1c:	00067337          	lui	t1,0x67
  10ca20:	28830313          	add	t1,t1,648 # 67288 <tohost+0x47280>
  10ca24:	00610133          	add	sp,sp,t1

0010ca28 <i0000001c3a>:
  10ca28:	33312623          	sw	s3,812(sp)

0010ca2c <i0000001c3b>:
  10ca2c:	de411423          	sh	tp,-536(sp)

0010ca30 <i0000001c3c>:
  10ca30:	09f10703          	lb	a4,159(sp)
  10ca34:	00002117          	auipc	sp,0x2
  10ca38:	6cc10113          	add	sp,sp,1740 # 10f100 <mem>
  10ca3c:	0000d337          	lui	t1,0xd
  10ca40:	a5030313          	add	t1,t1,-1456 # ca50 <_stack_len+0x4a50>
  10ca44:	00610133          	add	sp,sp,t1

0010ca48 <i0000001c3d>:
  10ca48:	3b812b03          	lw	s6,952(sp)

0010ca4c <i0000001c3e>:
  10ca4c:	62e11323          	sh	a4,1574(sp)

0010ca50 <i0000001c3f>:
  10ca50:	00a06b33          	or	s6,zero,a0

0010ca54 <i0000001c40>:
  10ca54:	f4a15783          	lhu	a5,-182(sp)

0010ca58 <i0000001c41>:
  10ca58:	6a410523          	sb	tp,1706(sp)

0010ca5c <i0000001c42>:
  10ca5c:	d4412383          	lw	t2,-700(sp)

0010ca60 <i0000001c43>:
  10ca60:	47f11023          	sh	t6,1120(sp)

0010ca64 <i0000001c44>:
  10ca64:	21728997          	auipc	s3,0x21728

0010ca68 <i0000001c45>:
  10ca68:	000001b3          	add	gp,zero,zero

0010ca6c <i0000001c46>:
  10ca6c:	24010c03          	lb	s8,576(sp)

0010ca70 <i0000001c47>:
  10ca70:	44415783          	lhu	a5,1092(sp)
  10ca74:	00c00b13          	li	s6,12
  10ca78:	001d0d13          	add	s10,s10,1

0010ca7c <b0000001c48>:
  10ca7c:	00000033          	add	zero,zero,zero
  10ca80:	fd6d46e3          	blt	s10,s6,10ca4c <i0000001c3e>
  10ca84:	00000033          	add	zero,zero,zero
  10ca88:	00a00d13          	li	s10,10

0010ca8c <i0000001c48>:
  10ca8c:	95412b83          	lw	s7,-1708(sp)

0010ca90 <i0000001c49>:
  10ca90:	f8b14c03          	lbu	s8,-117(sp)
  10ca94:	00002117          	auipc	sp,0x2
  10ca98:	66c10113          	add	sp,sp,1644 # 10f100 <mem>
  10ca9c:	0002d337          	lui	t1,0x2d
  10caa0:	50030313          	add	t1,t1,1280 # 2d500 <tohost+0xd4f8>
  10caa4:	00610133          	add	sp,sp,t1

0010caa8 <i0000001c4a>:
  10caa8:	a3011203          	lh	tp,-1488(sp)

0010caac <i0000001c4b>:
  10caac:	c0811b83          	lh	s7,-1016(sp)

0010cab0 <i0000001c4c>:
  10cab0:	eb7b6713          	or	a4,s6,-329

0010cab4 <i0000001c4d>:
  10cab4:	2e810203          	lb	tp,744(sp)

0010cab8 <i0000001c4e>:
  10cab8:	66410823          	sb	tp,1648(sp)

0010cabc <i0000001c4f>:
  10cabc:	00ab0533          	add	a0,s6,a0

0010cac0 <i0000001c50>:
  10cac0:	fcd12a23          	sw	a3,-44(sp)
  10cac4:	00002117          	auipc	sp,0x2
  10cac8:	63c10113          	add	sp,sp,1596 # 10f100 <mem>
  10cacc:	00051337          	lui	t1,0x51
  10cad0:	57030313          	add	t1,t1,1392 # 51570 <tohost+0x31568>
  10cad4:	00610133          	add	sp,sp,t1

0010cad8 <i0000001c51>:
  10cad8:	11611b23          	sh	s6,278(sp)

0010cadc <i0000001c52>:
  10cadc:	d0012383          	lw	t2,-768(sp)

0010cae0 <i0000001c53>:
  10cae0:	0c410c23          	sb	tp,216(sp)

0010cae4 <i0000001c54>:
  10cae4:	010ad533          	srl	a0,s5,a6

0010cae8 <i0000001c55>:
  10cae8:	ea210983          	lb	s3,-350(sp)

0010caec <i0000001c56>:
  10caec:	010c9c33          	sll	s8,s9,a6

0010caf0 <i0000001c57>:
  10caf0:	17cb2217          	auipc	tp,0x17cb2

0010caf4 <i0000001c58>:
  10caf4:	019476b3          	and	a3,s0,s9

0010caf8 <i0000001c59>:
  10caf8:	d8f10c03          	lb	s8,-625(sp)

0010cafc <i0000001c5a>:
  10cafc:	f8620413          	add	s0,tp,-122 # 17dbea76 <fromhost+0x17c36a66>
  10cb00:	00b00993          	li	s3,11
  10cb04:	00a00d13          	li	s10,10

0010cb08 <b0000001c5b>:
  10cb08:	00000033          	add	zero,zero,zero
  10cb0c:	093d1063          	bne	s10,s3,10cb8c <i0000001c69>
  10cb10:	00000033          	add	zero,zero,zero
  10cb14:	00a00d13          	li	s10,10

0010cb18 <i0000001c5b>:
  10cb18:	d3c15b03          	lhu	s6,-708(sp)
  10cb1c:	00002117          	auipc	sp,0x2
  10cb20:	5e410113          	add	sp,sp,1508 # 10f100 <mem>
  10cb24:	00022337          	lui	t1,0x22
  10cb28:	79030313          	add	t1,t1,1936 # 22790 <tohost+0x2788>
  10cb2c:	00610133          	add	sp,sp,t1

0010cb30 <i0000001c5c>:
  10cb30:	a0011d23          	sh	zero,-1510(sp)

0010cb34 <i0000001c5d>:
  10cb34:	01e55a33          	srl	s4,a0,t5

0010cb38 <i0000001c5e>:
  10cb38:	f2010823          	sb	zero,-208(sp)

0010cb3c <i0000001c5f>:
  10cb3c:	01e55b33          	srl	s6,a0,t5

0010cb40 <i0000001c60>:
  10cb40:	41655213          	sra	tp,a0,0x16
  10cb44:	00002117          	auipc	sp,0x2
  10cb48:	5bc10113          	add	sp,sp,1468 # 10f100 <mem>
  10cb4c:	0002e337          	lui	t1,0x2e
  10cb50:	bd030313          	add	t1,t1,-1072 # 2dbd0 <tohost+0xdbc8>
  10cb54:	00610133          	add	sp,sp,t1

0010cb58 <i0000001c61>:
  10cb58:	abb10803          	lb	a6,-1349(sp)

0010cb5c <i0000001c62>:
  10cb5c:	91c23913          	sltiu	s2,tp,-1764

0010cb60 <i0000001c63>:
  10cb60:	40a10223          	sb	a0,1028(sp)

0010cb64 <i0000001c64>:
  10cb64:	00ab7db3          	and	s11,s6,a0
  10cb68:	00002117          	auipc	sp,0x2
  10cb6c:	59810113          	add	sp,sp,1432 # 10f100 <mem>
  10cb70:	00017337          	lui	t1,0x17
  10cb74:	17030313          	add	t1,t1,368 # 17170 <_stack_len+0xf170>
  10cb78:	00610133          	add	sp,sp,t1

0010cb7c <i0000001c65>:
  10cb7c:	bf412703          	lw	a4,-1036(sp)

0010cb80 <i0000001c66>:
  10cb80:	6ec15003          	lhu	zero,1772(sp)

0010cb84 <i0000001c67>:
  10cb84:	41e00233          	neg	tp,t5

0010cb88 <i0000001c68>:
  10cb88:	41fc8db3          	sub	s11,s9,t6

0010cb8c <i0000001c69>:
  10cb8c:	016224b3          	slt	s1,tp,s6

0010cb90 <i0000001c6a>:
  10cb90:	48811723          	sh	s0,1166(sp)

0010cb94 <i0000001c6b>:
  10cb94:	39812b03          	lw	s6,920(sp)

0010cb98 <i0000001c6c>:
  10cb98:	40a55db3          	sra	s11,a0,a0

0010cb9c <i0000001c6d>:
  10cb9c:	00d4ab33          	slt	s6,s1,a3
  10cba0:	00900c13          	li	s8,9
  10cba4:	00a00d13          	li	s10,10

0010cba8 <b0000001c6e>:
  10cba8:	00000033          	add	zero,zero,zero
  10cbac:	05ac5463          	bge	s8,s10,10cbf4 <i0000001c78>
  10cbb0:	00000033          	add	zero,zero,zero
  10cbb4:	00a00d13          	li	s10,10

0010cbb8 <i0000001c6e>:
  10cbb8:	e5e11223          	sh	t5,-444(sp)

0010cbbc <i0000001c6f>:
  10cbbc:	70412423          	sw	tp,1800(sp)

0010cbc0 <i0000001c70>:
  10cbc0:	41755193          	sra	gp,a0,0x17

0010cbc4 <i0000001c71>:
  10cbc4:	410c5033          	sra	zero,s8,a6

0010cbc8 <i0000001c72>:
  10cbc8:	3cd95037          	lui	zero,0x3cd95

0010cbcc <i0000001c73>:
  10cbcc:	05412983          	lw	s3,84(sp)

0010cbd0 <i0000001c74>:
  10cbd0:	c2e11023          	sh	a4,-992(sp)

0010cbd4 <i0000001c75>:
  10cbd4:	e5620c93          	add	s9,tp,-426 # fffffe56 <fromhost+0xffe77e46>
  10cbd8:	00002117          	auipc	sp,0x2
  10cbdc:	52810113          	add	sp,sp,1320 # 10f100 <mem>
  10cbe0:	0004b337          	lui	t1,0x4b
  10cbe4:	06830313          	add	t1,t1,104 # 4b068 <tohost+0x2b060>
  10cbe8:	00610133          	add	sp,sp,t1

0010cbec <i0000001c76>:
  10cbec:	f9c12003          	lw	zero,-100(sp)

0010cbf0 <i0000001c77>:
  10cbf0:	00fb5013          	srl	zero,s6,0xf

0010cbf4 <i0000001c78>:
  10cbf4:	31a15e03          	lhu	t3,794(sp)

0010cbf8 <i0000001c79>:
  10cbf8:	b8412823          	sw	tp,-1136(sp)

0010cbfc <i0000001c7a>:
  10cbfc:	b5812503          	lw	a0,-1192(sp)

0010cc00 <i0000001c7b>:
  10cc00:	00457a33          	and	s4,a0,tp

0010cc04 <i0000001c7c>:
  10cc04:	40ab0533          	sub	a0,s6,a0

0010cc08 <i0000001c7d>:
  10cc08:	6ea14c03          	lbu	s8,1770(sp)

0010cc0c <i0000001c7e>:
  10cc0c:	e0df2793          	slti	a5,t5,-499

0010cc10 <i0000001c7f>:
  10cc10:	be614903          	lbu	s2,-1050(sp)

0010cc14 <i0000001c80>:
  10cc14:	1fb10503          	lb	a0,507(sp)
  10cc18:	00c00993          	li	s3,12
  10cc1c:	00a00d13          	li	s10,10

0010cc20 <b0000001c81>:
  10cc20:	00000033          	add	zero,zero,zero
  10cc24:	033d4a63          	blt	s10,s3,10cc58 <i0000001c86>
  10cc28:	00000033          	add	zero,zero,zero
  10cc2c:	00a00d13          	li	s10,10

0010cc30 <i0000001c81>:
  10cc30:	414c09b3          	sub	s3,s8,s4

0010cc34 <i0000001c82>:
  10cc34:	0de11003          	lh	zero,222(sp)
  10cc38:	00002117          	auipc	sp,0x2
  10cc3c:	4c810113          	add	sp,sp,1224 # 10f100 <mem>
  10cc40:	00059337          	lui	t1,0x59
  10cc44:	62830313          	add	t1,t1,1576 # 59628 <tohost+0x39620>
  10cc48:	00610133          	add	sp,sp,t1

0010cc4c <i0000001c83>:
  10cc4c:	9e012c23          	sw	zero,-1544(sp)

0010cc50 <i0000001c84>:
  10cc50:	017f94b3          	sll	s1,t6,s7

0010cc54 <i0000001c85>:
  10cc54:	01fc9bb3          	sll	s7,s9,t6

0010cc58 <i0000001c86>:
  10cc58:	00eb84b3          	add	s1,s7,a4

0010cc5c <i0000001c87>:
  10cc5c:	6eb12623          	sw	a1,1772(sp)

0010cc60 <i0000001c88>:
  10cc60:	00b51f13          	sll	t5,a0,0xb

0010cc64 <i0000001c89>:
  10cc64:	01497533          	and	a0,s2,s4

0010cc68 <i0000001c8a>:
  10cc68:	008d9b33          	sll	s6,s11,s0

0010cc6c <i0000001c8b>:
  10cc6c:	16412983          	lw	s3,356(sp)
  10cc70:	00002117          	auipc	sp,0x2
  10cc74:	49010113          	add	sp,sp,1168 # 10f100 <mem>
  10cc78:	0004b337          	lui	t1,0x4b
  10cc7c:	35830313          	add	t1,t1,856 # 4b358 <tohost+0x2b350>
  10cc80:	00610133          	add	sp,sp,t1

0010cc84 <i0000001c8c>:
  10cc84:	d4812623          	sw	s0,-692(sp)

0010cc88 <i0000001c8d>:
  10cc88:	ebb12e23          	sw	s11,-324(sp)

0010cc8c <i0000001c8e>:
  10cc8c:	a9411203          	lh	tp,-1388(sp)

0010cc90 <i0000001c8f>:
  10cc90:	bec14003          	lbu	zero,-1044(sp)

0010cc94 <i0000001c90>:
  10cc94:	05112623          	sw	a7,76(sp)

0010cc98 <i0000001c91>:
  10cc98:	f3e15f03          	lhu	t5,-194(sp)

0010cc9c <i0000001c92>:
  10cc9c:	80df4713          	xor	a4,t5,-2035

0010cca0 <i0000001c93>:
  10cca0:	40d60433          	sub	s0,a2,a3
  10cca4:	00a00913          	li	s2,10

0010cca8 <b0000001c94>:
  10cca8:	012d0863          	beq	s10,s2,10ccb8 <b0000001c94+0x10>
  10ccac:	00000917          	auipc	s2,0x0
  10ccb0:	fc090913          	add	s2,s2,-64 # 10cc6c <i0000001c8b>
  10ccb4:	00090567          	jalr	a0,s2
  10ccb8:	00a00d13          	li	s10,10

0010ccbc <i0000001c94>:
  10ccbc:	40305693          	sra	a3,zero,0x3

0010ccc0 <i0000001c95>:
  10ccc0:	4e812883          	lw	a7,1256(sp)
  10ccc4:	00002117          	auipc	sp,0x2
  10ccc8:	43c10113          	add	sp,sp,1084 # 10f100 <mem>
  10cccc:	00030337          	lui	t1,0x30
  10ccd0:	12030313          	add	t1,t1,288 # 30120 <tohost+0x10118>
  10ccd4:	00610133          	add	sp,sp,t1

0010ccd8 <i0000001c96>:
  10ccd8:	2b411203          	lh	tp,692(sp)

0010ccdc <i0000001c97>:
  10ccdc:	18512e23          	sw	t0,412(sp)
  10cce0:	00002117          	auipc	sp,0x2
  10cce4:	42010113          	add	sp,sp,1056 # 10f100 <mem>
  10cce8:	00055337          	lui	t1,0x55
  10ccec:	6d030313          	add	t1,t1,1744 # 556d0 <tohost+0x356c8>
  10ccf0:	00610133          	add	sp,sp,t1

0010ccf4 <i0000001c98>:
  10ccf4:	c5e12623          	sw	t5,-948(sp)

0010ccf8 <i0000001c99>:
  10ccf8:	016f0b33          	add	s6,t5,s6

0010ccfc <i0000001c9a>:
  10ccfc:	6f612623          	sw	s6,1772(sp)

0010cd00 <i0000001c9b>:
  10cd00:	5ac15f03          	lhu	t5,1452(sp)

0010cd04 <i0000001c9c>:
  10cd04:	0159c933          	xor	s2,s3,s5

0010cd08 <i0000001c9d>:
  10cd08:	d0910203          	lb	tp,-759(sp)

0010cd0c <i0000001c9e>:
  10cd0c:	00e703b3          	add	t2,a4,a4

0010cd10 <i0000001c9f>:
  10cd10:	91a14303          	lbu	t1,-1766(sp)

0010cd14 <i0000001ca0>:
  10cd14:	5f9d9f17          	auipc	t5,0x5f9d9

0010cd18 <i0000001ca1>:
  10cd18:	dd812203          	lw	tp,-552(sp)
  10cd1c:	00002117          	auipc	sp,0x2
  10cd20:	3e410113          	add	sp,sp,996 # 10f100 <mem>
  10cd24:	00067337          	lui	t1,0x67
  10cd28:	72830313          	add	t1,t1,1832 # 67728 <tohost+0x47720>
  10cd2c:	00610133          	add	sp,sp,t1

0010cd30 <i0000001ca2>:
  10cd30:	5ba11f03          	lh	t5,1466(sp)

0010cd34 <i0000001ca3>:
  10cd34:	5c39ab17          	auipc	s6,0x5c39a

0010cd38 <i0000001ca4>:
  10cd38:	00795013          	srl	zero,s2,0x7

0010cd3c <i0000001ca5>:
  10cd3c:	e3f12223          	sw	t6,-476(sp)
  10cd40:	00002117          	auipc	sp,0x2
  10cd44:	3c010113          	add	sp,sp,960 # 10f100 <mem>
  10cd48:	00053337          	lui	t1,0x53
  10cd4c:	47830313          	add	t1,t1,1144 # 53478 <tohost+0x33470>
  10cd50:	00610133          	add	sp,sp,t1

0010cd54 <i0000001ca6>:
  10cd54:	d0e10ca3          	sb	a4,-743(sp)

0010cd58 <b0000001ca7>:
  10cd58:	00000a17          	auipc	s4,0x0
  10cd5c:	048a0a13          	add	s4,s4,72 # 10cda0 <i0000001cb1>
  10cd60:	000a0567          	jalr	a0,s4

0010cd64 <i0000001ca7>:
  10cd64:	12f12e23          	sw	a5,316(sp)

0010cd68 <i0000001ca8>:
  10cd68:	016577b3          	and	a5,a0,s6

0010cd6c <i0000001ca9>:
  10cd6c:	b2a12623          	sw	a0,-1236(sp)
  10cd70:	00002117          	auipc	sp,0x2
  10cd74:	39010113          	add	sp,sp,912 # 10f100 <mem>
  10cd78:	00050337          	lui	t1,0x50
  10cd7c:	ae030313          	add	t1,t1,-1312 # 4fae0 <tohost+0x2fad8>
  10cd80:	00610133          	add	sp,sp,t1

0010cd84 <i0000001caa>:
  10cd84:	dff102a3          	sb	t6,-539(sp)

0010cd88 <i0000001cab>:
  10cd88:	43611b03          	lh	s6,1078(sp)

0010cd8c <i0000001cac>:
  10cd8c:	f94f7f13          	and	t5,t5,-108

0010cd90 <i0000001cad>:
  10cd90:	e47b3413          	sltiu	s0,s6,-441

0010cd94 <i0000001cae>:
  10cd94:	f0510683          	lb	a3,-251(sp)

0010cd98 <i0000001caf>:
  10cd98:	419e8eb3          	sub	t4,t4,s9

0010cd9c <i0000001cb0>:
  10cd9c:	b4712423          	sw	t2,-1208(sp)

0010cda0 <i0000001cb1>:
  10cda0:	403e5db3          	sra	s11,t3,gp
  10cda4:	00002117          	auipc	sp,0x2
  10cda8:	35c10113          	add	sp,sp,860 # 10f100 <mem>
  10cdac:	0004d337          	lui	t1,0x4d
  10cdb0:	6d830313          	add	t1,t1,1752 # 4d6d8 <tohost+0x2d6d0>
  10cdb4:	00610133          	add	sp,sp,t1

0010cdb8 <i0000001cb2>:
  10cdb8:	89c15803          	lhu	a6,-1892(sp)

0010cdbc <i0000001cb3>:
  10cdbc:	be514203          	lbu	tp,-1051(sp)

0010cdc0 <i0000001cb4>:
  10cdc0:	89053893          	sltiu	a7,a0,-1904

0010cdc4 <i0000001cb5>:
  10cdc4:	bbdf7f13          	and	t5,t5,-1091

0010cdc8 <i0000001cb6>:
  10cdc8:	018c6033          	or	zero,s8,s8

0010cdcc <i0000001cb7>:
  10cdcc:	93812f03          	lw	t5,-1736(sp)

0010cdd0 <i0000001cb8>:
  10cdd0:	012a4033          	xor	zero,s4,s2

0010cdd4 <i0000001cb9>:
  10cdd4:	4d012a83          	lw	s5,1232(sp)
  10cdd8:	00b00a93          	li	s5,11
  10cddc:	00a00d13          	li	s10,10

0010cde0 <b0000001cba>:
  10cde0:	00000033          	add	zero,zero,zero
  10cde4:	05aad263          	bge	s5,s10,10ce28 <i0000001cc3>
  10cde8:	00000033          	add	zero,zero,zero
  10cdec:	00a00d13          	li	s10,10

0010cdf0 <i0000001cba>:
  10cdf0:	00692533          	slt	a0,s2,t1

0010cdf4 <i0000001cbb>:
  10cdf4:	00400233          	add	tp,zero,tp

0010cdf8 <i0000001cbc>:
  10cdf8:	4097dbb3          	sra	s7,a5,s1

0010cdfc <i0000001cbd>:
  10cdfc:	22714903          	lbu	s2,551(sp)
  10ce00:	00002117          	auipc	sp,0x2
  10ce04:	30010113          	add	sp,sp,768 # 10f100 <mem>
  10ce08:	0000e337          	lui	t1,0xe
  10ce0c:	98830313          	add	t1,t1,-1656 # d988 <_stack_len+0x5988>
  10ce10:	00610133          	add	sp,sp,t1

0010ce14 <i0000001cbe>:
  10ce14:	0ec11f03          	lh	t5,236(sp)

0010ce18 <i0000001cbf>:
  10ce18:	01389893          	sll	a7,a7,0x13

0010ce1c <i0000001cc0>:
  10ce1c:	7a087f97          	auipc	t6,0x7a087

0010ce20 <i0000001cc1>:
  10ce20:	9de12623          	sw	t5,-1588(sp)

0010ce24 <i0000001cc2>:
  10ce24:	01db9493          	sll	s1,s7,0x1d

0010ce28 <i0000001cc3>:
  10ce28:	31812003          	lw	zero,792(sp)

0010ce2c <i0000001cc4>:
  10ce2c:	016546b3          	xor	a3,a0,s6

0010ce30 <i0000001cc5>:
  10ce30:	7d214f03          	lbu	t5,2002(sp)

0010ce34 <i0000001cc6>:
  10ce34:	000029b3          	sltz	s3,zero

0010ce38 <i0000001cc7>:
  10ce38:	47410483          	lb	s1,1140(sp)

0010ce3c <i0000001cc8>:
  10ce3c:	25010823          	sb	a6,592(sp)

0010ce40 <i0000001cc9>:
  10ce40:	00df5a13          	srl	s4,t5,0xd

0010ce44 <i0000001cca>:
  10ce44:	4d911223          	sh	s9,1220(sp)

0010ce48 <i0000001ccb>:
  10ce48:	015a1f33          	sll	t5,s4,s5

0010ce4c <i0000001ccc>:
  10ce4c:	82014b03          	lbu	s6,-2016(sp)
  10ce50:	00c00f93          	li	t6,12
  10ce54:	001d0d13          	add	s10,s10,1

0010ce58 <b0000001ccd>:
  10ce58:	01fd0863          	beq	s10,t6,10ce68 <b0000001ccd+0x10>
  10ce5c:	00000f97          	auipc	t6,0x0
  10ce60:	fd4f8f93          	add	t6,t6,-44 # 10ce30 <i0000001cc5>
  10ce64:	000f8567          	jalr	a0,t6
  10ce68:	00a00d13          	li	s10,10

0010ce6c <i0000001ccd>:
  10ce6c:	199b7f13          	and	t5,s6,409

0010ce70 <i0000001cce>:
  10ce70:	a3714903          	lbu	s2,-1481(sp)

0010ce74 <i0000001ccf>:
  10ce74:	af710b03          	lb	s6,-1289(sp)
  10ce78:	00002117          	auipc	sp,0x2
  10ce7c:	28810113          	add	sp,sp,648 # 10f100 <mem>
  10ce80:	0004b337          	lui	t1,0x4b
  10ce84:	8e830313          	add	t1,t1,-1816 # 4a8e8 <tohost+0x2a8e0>
  10ce88:	00610133          	add	sp,sp,t1

0010ce8c <i0000001cd0>:
  10ce8c:	a2a14b03          	lbu	s6,-1494(sp)
  10ce90:	00002117          	auipc	sp,0x2
  10ce94:	27010113          	add	sp,sp,624 # 10f100 <mem>
  10ce98:	0000d337          	lui	t1,0xd
  10ce9c:	38830313          	add	t1,t1,904 # d388 <_stack_len+0x5388>
  10cea0:	00610133          	add	sp,sp,t1

0010cea4 <i0000001cd1>:
  10cea4:	a9c12803          	lw	a6,-1380(sp)

0010cea8 <i0000001cd2>:
  10cea8:	419953b3          	sra	t2,s2,s9

0010ceac <i0000001cd3>:
  10ceac:	01e04bb3          	xor	s7,zero,t5

0010ceb0 <i0000001cd4>:
  10ceb0:	8f654b13          	xor	s6,a0,-1802

0010ceb4 <i0000001cd5>:
  10ceb4:	12f10523          	sb	a5,298(sp)

0010ceb8 <i0000001cd6>:
  10ceb8:	00ab2233          	slt	tp,s6,a0

0010cebc <i0000001cd7>:
  10cebc:	41b05793          	sra	a5,zero,0x1b

0010cec0 <i0000001cd8>:
  10cec0:	01bc09b3          	add	s3,s8,s11

0010cec4 <i0000001cd9>:
  10cec4:	0108a1b3          	slt	gp,a7,a6

0010cec8 <i0000001cda>:
  10cec8:	bcc11a03          	lh	s4,-1076(sp)

0010cecc <i0000001cdb>:
  10cecc:	01e55333          	srl	t1,a0,t5

0010ced0 <i0000001cdc>:
  10ced0:	a3910423          	sb	s9,-1496(sp)

0010ced4 <i0000001cdd>:
  10ced4:	0126b5b3          	sltu	a1,a3,s2

0010ced8 <i0000001cde>:
  10ced8:	08412a23          	sw	tp,148(sp)

0010cedc <i0000001cdf>:
  10cedc:	416b0f33          	sub	t5,s6,s6

0010cee0 <b0000001ce0>:
  10cee0:	0200056f          	jal	a0,10cf00 <i0000001ce7>

0010cee4 <i0000001ce0>:
  10cee4:	00ab1033          	sll	zero,s6,a0

0010cee8 <i0000001ce1>:
  10cee8:	ee912823          	sw	s1,-272(sp)

0010ceec <i0000001ce2>:
  10ceec:	70012a23          	sw	zero,1812(sp)

0010cef0 <i0000001ce3>:
  10cef0:	76012003          	lw	zero,1888(sp)

0010cef4 <i0000001ce4>:
  10cef4:	12400593          	li	a1,292

0010cef8 <i0000001ce5>:
  10cef8:	bf610d23          	sb	s6,-1030(sp)

0010cefc <i0000001ce6>:
  10cefc:	e2a11003          	lh	zero,-470(sp)

0010cf00 <i0000001ce7>:
  10cf00:	8be15783          	lhu	a5,-1858(sp)

0010cf04 <i0000001ce8>:
  10cf04:	40420933          	sub	s2,tp,tp

0010cf08 <i0000001ce9>:
  10cf08:	44011b03          	lh	s6,1088(sp)

0010cf0c <i0000001cea>:
  10cf0c:	3d700c93          	li	s9,983

0010cf10 <i0000001ceb>:
  10cf10:	dfc15483          	lhu	s1,-516(sp)

0010cf14 <i0000001cec>:
  10cf14:	00e5a533          	slt	a0,a1,a4

0010cf18 <i0000001ced>:
  10cf18:	da114a83          	lbu	s5,-607(sp)

0010cf1c <i0000001cee>:
  10cf1c:	b2010723          	sb	zero,-1234(sp)

0010cf20 <i0000001cef>:
  10cf20:	91760a93          	add	s5,a2,-1769 # 3a4a950b <fromhost+0x3a3214fb>

0010cf24 <i0000001cf0>:
  10cf24:	f0c11603          	lh	a2,-244(sp)

0010cf28 <i0000001cf1>:
  10cf28:	6fe10123          	sb	t5,1762(sp)

0010cf2c <i0000001cf2>:
  10cf2c:	416b0c33          	sub	s8,s6,s6
  10cf30:	00900c13          	li	s8,9
  10cf34:	00a00d13          	li	s10,10

0010cf38 <b0000001cf3>:
  10cf38:	00000033          	add	zero,zero,zero
  10cf3c:	07ac5263          	bge	s8,s10,10cfa0 <i0000001cff>
  10cf40:	00000033          	add	zero,zero,zero
  10cf44:	00a00d13          	li	s10,10

0010cf48 <i0000001cf3>:
  10cf48:	01b89a93          	sll	s5,a7,0x1b

0010cf4c <i0000001cf4>:
  10cf4c:	ce410c03          	lb	s8,-796(sp)

0010cf50 <i0000001cf5>:
  10cf50:	20012483          	lw	s1,512(sp)

0010cf54 <i0000001cf6>:
  10cf54:	98412603          	lw	a2,-1660(sp)

0010cf58 <i0000001cf7>:
  10cf58:	38e14403          	lbu	s0,910(sp)

0010cf5c <i0000001cf8>:
  10cf5c:	41655f33          	sra	t5,a0,s6

0010cf60 <i0000001cf9>:
  10cf60:	d4811203          	lh	tp,-696(sp)

0010cf64 <i0000001cfa>:
  10cf64:	20a11683          	lh	a3,522(sp)
  10cf68:	00002117          	auipc	sp,0x2
  10cf6c:	19810113          	add	sp,sp,408 # 10f100 <mem>
  10cf70:	00046337          	lui	t1,0x46
  10cf74:	06830313          	add	t1,t1,104 # 46068 <tohost+0x26060>
  10cf78:	00610133          	add	sp,sp,t1

0010cf7c <i0000001cfb>:
  10cf7c:	3dd10b03          	lb	s6,989(sp)

0010cf80 <i0000001cfc>:
  10cf80:	01625b13          	srl	s6,tp,0x16
  10cf84:	00002117          	auipc	sp,0x2
  10cf88:	17c10113          	add	sp,sp,380 # 10f100 <mem>
  10cf8c:	00055337          	lui	t1,0x55
  10cf90:	56830313          	add	t1,t1,1384 # 55568 <tohost+0x35560>
  10cf94:	00610133          	add	sp,sp,t1

0010cf98 <i0000001cfd>:
  10cf98:	ed110803          	lb	a6,-303(sp)

0010cf9c <i0000001cfe>:
  10cf9c:	17eab013          	sltiu	zero,s5,382

0010cfa0 <i0000001cff>:
  10cfa0:	00605013          	srl	zero,zero,0x6

0010cfa4 <i0000001d00>:
  10cfa4:	d3d10d83          	lb	s11,-707(sp)

0010cfa8 <i0000001d01>:
  10cfa8:	7f510883          	lb	a7,2037(sp)

0010cfac <i0000001d02>:
  10cfac:	08c11b03          	lh	s6,140(sp)

0010cfb0 <i0000001d03>:
  10cfb0:	dea11d23          	sh	a0,-518(sp)

0010cfb4 <i0000001d04>:
  10cfb4:	01b4c933          	xor	s2,s1,s11

0010cfb8 <i0000001d05>:
  10cfb8:	c1e14b03          	lbu	s6,-994(sp)
  10cfbc:	00c00a13          	li	s4,12
  10cfc0:	001d0d13          	add	s10,s10,1

0010cfc4 <b0000001d06>:
  10cfc4:	00000033          	add	zero,zero,zero
  10cfc8:	fd4d48e3          	blt	s10,s4,10cf98 <i0000001cfd>
  10cfcc:	00000033          	add	zero,zero,zero
  10cfd0:	00a00d13          	li	s10,10

0010cfd4 <i0000001d06>:
  10cfd4:	40a055b3          	sra	a1,zero,a0

0010cfd8 <i0000001d07>:
  10cfd8:	2d1aab37          	lui	s6,0x2d1aa

0010cfdc <i0000001d08>:
  10cfdc:	b3800013          	li	zero,-1224

0010cfe0 <i0000001d09>:
  10cfe0:	43ba6737          	lui	a4,0x43ba6

0010cfe4 <i0000001d0a>:
  10cfe4:	2de23393          	sltiu	t2,tp,734
  10cfe8:	00002117          	auipc	sp,0x2
  10cfec:	11810113          	add	sp,sp,280 # 10f100 <mem>
  10cff0:	00051337          	lui	t1,0x51
  10cff4:	cf030313          	add	t1,t1,-784 # 50cf0 <tohost+0x30ce8>
  10cff8:	00610133          	add	sp,sp,t1

0010cffc <i0000001d0b>:
  10cffc:	94512c23          	sw	t0,-1704(sp)
  10d000:	00002117          	auipc	sp,0x2
  10d004:	10010113          	add	sp,sp,256 # 10f100 <mem>
  10d008:	00054337          	lui	t1,0x54
  10d00c:	a8030313          	add	t1,t1,-1408 # 53a80 <tohost+0x33a78>
  10d010:	00610133          	add	sp,sp,t1

0010d014 <i0000001d0c>:
  10d014:	9ca100a3          	sb	a0,-1599(sp)

0010d018 <i0000001d0d>:
  10d018:	41e05633          	sra	a2,zero,t5

0010d01c <i0000001d0e>:
  10d01c:	0103aa33          	slt	s4,t2,a6
  10d020:	00002117          	auipc	sp,0x2
  10d024:	0e010113          	add	sp,sp,224 # 10f100 <mem>
  10d028:	00021337          	lui	t1,0x21
  10d02c:	84030313          	add	t1,t1,-1984 # 20840 <tohost+0x838>
  10d030:	00610133          	add	sp,sp,t1

0010d034 <i0000001d0f>:
  10d034:	4a612c23          	sw	t1,1208(sp)

0010d038 <i0000001d10>:
  10d038:	59011203          	lh	tp,1424(sp)

0010d03c <i0000001d11>:
  10d03c:	016b6933          	or	s2,s6,s6

0010d040 <i0000001d12>:
  10d040:	0177d033          	srl	zero,a5,s7

0010d044 <i0000001d13>:
  10d044:	e7e11e23          	sh	t5,-388(sp)

0010d048 <i0000001d14>:
  10d048:	7e611123          	sh	t1,2018(sp)

0010d04c <i0000001d15>:
  10d04c:	2c510523          	sb	t0,714(sp)
  10d050:	00002117          	auipc	sp,0x2
  10d054:	0b010113          	add	sp,sp,176 # 10f100 <mem>
  10d058:	00010337          	lui	t1,0x10
  10d05c:	ef030313          	add	t1,t1,-272 # fef0 <_stack_len+0x7ef0>
  10d060:	00610133          	add	sp,sp,t1

0010d064 <i0000001d16>:
  10d064:	42412983          	lw	s3,1060(sp)

0010d068 <i0000001d17>:
  10d068:	d1011b03          	lh	s6,-752(sp)

0010d06c <i0000001d18>:
  10d06c:	00424233          	xor	tp,tp,tp
  10d070:	00900913          	li	s2,9
  10d074:	00a00d13          	li	s10,10

0010d078 <b0000001d19>:
  10d078:	00000033          	add	zero,zero,zero
  10d07c:	05a95463          	bge	s2,s10,10d0c4 <i0000001d23>
  10d080:	00000033          	add	zero,zero,zero
  10d084:	00a00d13          	li	s10,10

0010d088 <i0000001d19>:
  10d088:	79411383          	lh	t2,1940(sp)

0010d08c <i0000001d1a>:
  10d08c:	eb310823          	sb	s3,-336(sp)

0010d090 <i0000001d1b>:
  10d090:	d9c12283          	lw	t0,-612(sp)

0010d094 <i0000001d1c>:
  10d094:	406dd233          	sra	tp,s11,t1

0010d098 <i0000001d1d>:
  10d098:	b6414203          	lbu	tp,-1180(sp)
  10d09c:	00002117          	auipc	sp,0x2
  10d0a0:	06410113          	add	sp,sp,100 # 10f100 <mem>
  10d0a4:	00008337          	lui	t1,0x8
  10d0a8:	59830313          	add	t1,t1,1432 # 8598 <_stack_len+0x598>
  10d0ac:	00610133          	add	sp,sp,t1

0010d0b0 <i0000001d1e>:
  10d0b0:	b2011203          	lh	tp,-1248(sp)

0010d0b4 <i0000001d1f>:
  10d0b4:	3da2cf37          	lui	t5,0x3da2c

0010d0b8 <i0000001d20>:
  10d0b8:	00edbdb3          	sltu	s11,s11,a4

0010d0bc <i0000001d21>:
  10d0bc:	2a811b03          	lh	s6,680(sp)

0010d0c0 <i0000001d22>:
  10d0c0:	4a412803          	lw	a6,1188(sp)

0010d0c4 <i0000001d23>:
  10d0c4:	61e14003          	lbu	zero,1566(sp)

0010d0c8 <i0000001d24>:
  10d0c8:	c8a12223          	sw	a0,-892(sp)
  10d0cc:	00002117          	auipc	sp,0x2
  10d0d0:	03410113          	add	sp,sp,52 # 10f100 <mem>
  10d0d4:	0001c337          	lui	t1,0x1c
  10d0d8:	ae030313          	add	t1,t1,-1312 # 1bae0 <_stack_len+0x13ae0>
  10d0dc:	00610133          	add	sp,sp,t1

0010d0e0 <i0000001d25>:
  10d0e0:	2be15003          	lhu	zero,702(sp)
  10d0e4:	00002117          	auipc	sp,0x2
  10d0e8:	01c10113          	add	sp,sp,28 # 10f100 <mem>
  10d0ec:	00020337          	lui	t1,0x20
  10d0f0:	c0030313          	add	t1,t1,-1024 # 1fc00 <_stack_len+0x17c00>
  10d0f4:	00610133          	add	sp,sp,t1

0010d0f8 <i0000001d26>:
  10d0f8:	97514183          	lbu	gp,-1675(sp)

0010d0fc <i0000001d27>:
  10d0fc:	01621f33          	sll	t5,tp,s6

0010d100 <i0000001d28>:
  10d100:	de48bb13          	sltiu	s6,a7,-540

0010d104 <i0000001d29>:
  10d104:	00349f93          	sll	t6,s1,0x3

0010d108 <i0000001d2a>:
  10d108:	95a14783          	lbu	a5,-1702(sp)

0010d10c <i0000001d2b>:
  10d10c:	01dedb13          	srl	s6,t4,0x1d
  10d110:	00c00c13          	li	s8,12
  10d114:	001d0d13          	add	s10,s10,1

0010d118 <b0000001d2c>:
  10d118:	00000033          	add	zero,zero,zero
  10d11c:	fb8d42e3          	blt	s10,s8,10d0c0 <i0000001d22>
  10d120:	00000033          	add	zero,zero,zero
  10d124:	00a00d13          	li	s10,10

0010d128 <i0000001d2c>:
  10d128:	0f4b3013          	sltiu	zero,s6,244

0010d12c <i0000001d2d>:
  10d12c:	14e10503          	lb	a0,334(sp)

0010d130 <i0000001d2e>:
  10d130:	0192ddb3          	srl	s11,t0,s9
  10d134:	00002117          	auipc	sp,0x2
  10d138:	fcc10113          	add	sp,sp,-52 # 10f100 <mem>
  10d13c:	00027337          	lui	t1,0x27
  10d140:	62030313          	add	t1,t1,1568 # 27620 <tohost+0x7618>
  10d144:	00610133          	add	sp,sp,t1

0010d148 <i0000001d2f>:
  10d148:	94010123          	sb	zero,-1726(sp)
  10d14c:	00002117          	auipc	sp,0x2
  10d150:	fb410113          	add	sp,sp,-76 # 10f100 <mem>
  10d154:	00059337          	lui	t1,0x59
  10d158:	42030313          	add	t1,t1,1056 # 59420 <tohost+0x39418>
  10d15c:	00610133          	add	sp,sp,t1

0010d160 <i0000001d30>:
  10d160:	47011923          	sh	a6,1138(sp)

0010d164 <i0000001d31>:
  10d164:	77c11b03          	lh	s6,1916(sp)

0010d168 <i0000001d32>:
  10d168:	15415903          	lhu	s2,340(sp)

0010d16c <i0000001d33>:
  10d16c:	fce54213          	xor	tp,a0,-50
  10d170:	00002117          	auipc	sp,0x2
  10d174:	f9010113          	add	sp,sp,-112 # 10f100 <mem>
  10d178:	00001337          	lui	t1,0x1
  10d17c:	ec830313          	add	t1,t1,-312 # ec8 <_min_stack-0x1138>
  10d180:	00610133          	add	sp,sp,t1

0010d184 <i0000001d34>:
  10d184:	80d12c23          	sw	a3,-2024(sp)
  10d188:	00002117          	auipc	sp,0x2
  10d18c:	f7810113          	add	sp,sp,-136 # 10f100 <mem>
  10d190:	0005b337          	lui	t1,0x5b
  10d194:	32830313          	add	t1,t1,808 # 5b328 <tohost+0x3b320>
  10d198:	00610133          	add	sp,sp,t1

0010d19c <i0000001d35>:
  10d19c:	92a11383          	lh	t2,-1750(sp)

0010d1a0 <i0000001d36>:
  10d1a0:	7a38f013          	and	zero,a7,1955

0010d1a4 <i0000001d37>:
  10d1a4:	3525e013          	or	zero,a1,850
  10d1a8:	00002117          	auipc	sp,0x2
  10d1ac:	f5810113          	add	sp,sp,-168 # 10f100 <mem>
  10d1b0:	0001e337          	lui	t1,0x1e
  10d1b4:	f8030313          	add	t1,t1,-128 # 1df80 <_stack_len+0x15f80>
  10d1b8:	00610133          	add	sp,sp,t1

0010d1bc <i0000001d38>:
  10d1bc:	55810e03          	lb	t3,1368(sp)

0010d1c0 <i0000001d39>:
  10d1c0:	000041b3          	xor	gp,zero,zero

0010d1c4 <i0000001d3a>:
  10d1c4:	08310b03          	lb	s6,131(sp)

0010d1c8 <i0000001d3b>:
  10d1c8:	832b7913          	and	s2,s6,-1998
  10d1cc:	00002117          	auipc	sp,0x2
  10d1d0:	f3410113          	add	sp,sp,-204 # 10f100 <mem>
  10d1d4:	00051337          	lui	t1,0x51
  10d1d8:	6d030313          	add	t1,t1,1744 # 516d0 <tohost+0x316c8>
  10d1dc:	00610133          	add	sp,sp,t1

0010d1e0 <i0000001d3c>:
  10d1e0:	d7311723          	sh	s3,-658(sp)

0010d1e4 <i0000001d3d>:
  10d1e4:	8c211b03          	lh	s6,-1854(sp)

0010d1e8 <i0000001d3e>:
  10d1e8:	2e911e23          	sh	s1,764(sp)
  10d1ec:	00c00e93          	li	t4,12
  10d1f0:	001d0d13          	add	s10,s10,1

0010d1f4 <b0000001d3f>:
  10d1f4:	00000033          	add	zero,zero,zero
  10d1f8:	fbdd16e3          	bne	s10,t4,10d1a4 <i0000001d37>
  10d1fc:	00000033          	add	zero,zero,zero
  10d200:	00a00d13          	li	s10,10

0010d204 <i0000001d3f>:
  10d204:	0172b933          	sltu	s2,t0,s7

0010d208 <i0000001d40>:
  10d208:	01ef0533          	add	a0,t5,t5

0010d20c <i0000001d41>:
  10d20c:	28d14883          	lbu	a7,653(sp)

0010d210 <i0000001d42>:
  10d210:	a8b10fa3          	sb	a1,-1377(sp)

0010d214 <i0000001d43>:
  10d214:	15924513          	xor	a0,tp,345

0010d218 <i0000001d44>:
  10d218:	4c806997          	auipc	s3,0x4c806

0010d21c <i0000001d45>:
  10d21c:	00d38733          	add	a4,t2,a3

0010d220 <i0000001d46>:
  10d220:	0e412b03          	lw	s6,228(sp)

0010d224 <i0000001d47>:
  10d224:	2e800513          	li	a0,744

0010d228 <i0000001d48>:
  10d228:	0145cb33          	xor	s6,a1,s4

0010d22c <i0000001d49>:
  10d22c:	1c412423          	sw	tp,456(sp)

0010d230 <i0000001d4a>:
  10d230:	85815903          	lhu	s2,-1960(sp)

0010d234 <i0000001d4b>:
  10d234:	68f12c23          	sw	a5,1688(sp)
  10d238:	00002117          	auipc	sp,0x2
  10d23c:	ec810113          	add	sp,sp,-312 # 10f100 <mem>
  10d240:	0006d337          	lui	t1,0x6d
  10d244:	9f030313          	add	t1,t1,-1552 # 6c9f0 <tohost+0x4c9e8>
  10d248:	00610133          	add	sp,sp,t1

0010d24c <i0000001d4c>:
  10d24c:	a3f14503          	lbu	a0,-1473(sp)

0010d250 <i0000001d4d>:
  10d250:	2de11c23          	sh	t5,728(sp)

0010d254 <i0000001d4e>:
  10d254:	0ed14003          	lbu	zero,237(sp)

0010d258 <i0000001d4f>:
  10d258:	bfc12a23          	sw	t3,-1036(sp)

0010d25c <i0000001d50>:
  10d25c:	f7415a03          	lhu	s4,-140(sp)

0010d260 <i0000001d51>:
  10d260:	59c11a23          	sh	t3,1428(sp)
  10d264:	00b00e13          	li	t3,11
  10d268:	00a00d13          	li	s10,10

0010d26c <b0000001d52>:
  10d26c:	00000033          	add	zero,zero,zero
  10d270:	05cd1663          	bne	s10,t3,10d2bc <i0000001d5d>
  10d274:	00000033          	add	zero,zero,zero
  10d278:	00a00d13          	li	s10,10

0010d27c <i0000001d52>:
  10d27c:	55e12423          	sw	t5,1352(sp)

0010d280 <i0000001d53>:
  10d280:	e3612823          	sw	s6,-464(sp)

0010d284 <i0000001d54>:
  10d284:	d6c12383          	lw	t2,-660(sp)

0010d288 <i0000001d55>:
  10d288:	c03b7e93          	and	t4,s6,-1021

0010d28c <i0000001d56>:
  10d28c:	e5011203          	lh	tp,-432(sp)

0010d290 <i0000001d57>:
  10d290:	5ea11823          	sh	a0,1520(sp)

0010d294 <i0000001d58>:
  10d294:	497d8fb7          	lui	t6,0x497d8
  10d298:	00002117          	auipc	sp,0x2
  10d29c:	e6810113          	add	sp,sp,-408 # 10f100 <mem>
  10d2a0:	00023337          	lui	t1,0x23
  10d2a4:	b3030313          	add	t1,t1,-1232 # 22b30 <tohost+0x2b28>
  10d2a8:	00610133          	add	sp,sp,t1

0010d2ac <i0000001d59>:
  10d2ac:	f2412a23          	sw	tp,-204(sp)

0010d2b0 <i0000001d5a>:
  10d2b0:	7e412c23          	sw	tp,2040(sp)

0010d2b4 <i0000001d5b>:
  10d2b4:	a7412203          	lw	tp,-1420(sp)

0010d2b8 <i0000001d5c>:
  10d2b8:	01601b33          	sll	s6,zero,s6

0010d2bc <i0000001d5d>:
  10d2bc:	0174d233          	srl	tp,s1,s7

0010d2c0 <i0000001d5e>:
  10d2c0:	cc793b13          	sltiu	s6,s2,-825

0010d2c4 <i0000001d5f>:
  10d2c4:	78339217          	auipc	tp,0x78339
  10d2c8:	00002117          	auipc	sp,0x2
  10d2cc:	e3810113          	add	sp,sp,-456 # 10f100 <mem>
  10d2d0:	0005f337          	lui	t1,0x5f
  10d2d4:	a6830313          	add	t1,t1,-1432 # 5ea68 <tohost+0x3ea60>
  10d2d8:	00610133          	add	sp,sp,t1

0010d2dc <i0000001d60>:
  10d2dc:	04b10423          	sb	a1,72(sp)
  10d2e0:	00002117          	auipc	sp,0x2
  10d2e4:	e2010113          	add	sp,sp,-480 # 10f100 <mem>
  10d2e8:	0006d337          	lui	t1,0x6d
  10d2ec:	16030313          	add	t1,t1,352 # 6d160 <tohost+0x4d158>
  10d2f0:	00610133          	add	sp,sp,t1

0010d2f4 <i0000001d61>:
  10d2f4:	aec10d83          	lb	s11,-1300(sp)

0010d2f8 <i0000001d62>:
  10d2f8:	a8e56893          	or	a7,a0,-1394

0010d2fc <i0000001d63>:
  10d2fc:	01072033          	slt	zero,a4,a6

0010d300 <i0000001d64>:
  10d300:	86ace793          	or	a5,s9,-1942
  10d304:	00c00d93          	li	s11,12
  10d308:	001d0d13          	add	s10,s10,1

0010d30c <b0000001d65>:
  10d30c:	00000033          	add	zero,zero,zero
  10d310:	fbadd8e3          	bge	s11,s10,10d2c0 <i0000001d5e>
  10d314:	00000033          	add	zero,zero,zero
  10d318:	00a00d13          	li	s10,10

0010d31c <i0000001d65>:
  10d31c:	01cf1d93          	sll	s11,t5,0x1c

0010d320 <i0000001d66>:
  10d320:	ddfff013          	and	zero,t6,-545

0010d324 <i0000001d67>:
  10d324:	05912423          	sw	s9,72(sp)

0010d328 <i0000001d68>:
  10d328:	5d610023          	sb	s6,1472(sp)

0010d32c <i0000001d69>:
  10d32c:	ede10223          	sb	t5,-316(sp)

0010d330 <i0000001d6a>:
  10d330:	487916b7          	lui	a3,0x48791

0010d334 <i0000001d6b>:
  10d334:	31764c13          	xor	s8,a2,791

0010d338 <i0000001d6c>:
  10d338:	00381f13          	sll	t5,a6,0x3

0010d33c <i0000001d6d>:
  10d33c:	149a8813          	add	a6,s5,329 # 69e39149 <fromhost+0x69cb1139>

0010d340 <i0000001d6e>:
  10d340:	c2bf2f93          	slti	t6,t5,-981

0010d344 <i0000001d6f>:
  10d344:	01928b33          	add	s6,t0,s9

0010d348 <i0000001d70>:
  10d348:	8189a493          	slti	s1,s3,-2024

0010d34c <i0000001d71>:
  10d34c:	a8c12f03          	lw	t5,-1396(sp)

0010d350 <i0000001d72>:
  10d350:	30f12023          	sw	a5,768(sp)

0010d354 <i0000001d73>:
  10d354:	f2160293          	add	t0,a2,-223

0010d358 <i0000001d74>:
  10d358:	f38a8993          	add	s3,s5,-200

0010d35c <i0000001d75>:
  10d35c:	87548a13          	add	s4,s1,-1931

0010d360 <i0000001d76>:
  10d360:	86010ca3          	sb	zero,-1927(sp)

0010d364 <i0000001d77>:
  10d364:	4a811423          	sh	s0,1192(sp)

0010d368 <b0000001d78>:
  10d368:	00000a17          	auipc	s4,0x0
  10d36c:	060a0a13          	add	s4,s4,96 # 10d3c8 <i0000001d83>
  10d370:	000a0567          	jalr	a0,s4

0010d374 <i0000001d78>:
  10d374:	1ea11323          	sh	a0,486(sp)

0010d378 <i0000001d79>:
  10d378:	00af29b3          	slt	s3,t5,a0

0010d37c <i0000001d7a>:
  10d37c:	66712823          	sw	t2,1648(sp)

0010d380 <i0000001d7b>:
  10d380:	b0710883          	lb	a7,-1273(sp)

0010d384 <i0000001d7c>:
  10d384:	000b0bb3          	add	s7,s6,zero

0010d388 <i0000001d7d>:
  10d388:	99012403          	lw	s0,-1648(sp)

0010d38c <i0000001d7e>:
  10d38c:	1aa11603          	lh	a2,426(sp)
  10d390:	00002117          	auipc	sp,0x2
  10d394:	d7010113          	add	sp,sp,-656 # 10f100 <mem>
  10d398:	0004a337          	lui	t1,0x4a
  10d39c:	fd030313          	add	t1,t1,-48 # 49fd0 <tohost+0x29fc8>
  10d3a0:	00610133          	add	sp,sp,t1

0010d3a4 <i0000001d7f>:
  10d3a4:	cb611b83          	lh	s7,-842(sp)

0010d3a8 <i0000001d80>:
  10d3a8:	01cba8b3          	slt	a7,s7,t3
  10d3ac:	00002117          	auipc	sp,0x2
  10d3b0:	d5410113          	add	sp,sp,-684 # 10f100 <mem>
  10d3b4:	00040337          	lui	t1,0x40
  10d3b8:	f0830313          	add	t1,t1,-248 # 3ff08 <tohost+0x1ff00>
  10d3bc:	00610133          	add	sp,sp,t1

0010d3c0 <i0000001d81>:
  10d3c0:	47114503          	lbu	a0,1137(sp)

0010d3c4 <i0000001d82>:
  10d3c4:	012f1f13          	sll	t5,t5,0x12

0010d3c8 <i0000001d83>:
  10d3c8:	61b29717          	auipc	a4,0x61b29

0010d3cc <i0000001d84>:
  10d3cc:	eeb10a23          	sb	a1,-268(sp)

0010d3d0 <i0000001d85>:
  10d3d0:	00d4b233          	sltu	tp,s1,a3
  10d3d4:	00002117          	auipc	sp,0x2
  10d3d8:	d2c10113          	add	sp,sp,-724 # 10f100 <mem>
  10d3dc:	0003b337          	lui	t1,0x3b
  10d3e0:	46030313          	add	t1,t1,1120 # 3b460 <tohost+0x1b458>
  10d3e4:	00610133          	add	sp,sp,t1

0010d3e8 <i0000001d86>:
  10d3e8:	0b215903          	lhu	s2,178(sp)

0010d3ec <i0000001d87>:
  10d3ec:	01151013          	sll	zero,a0,0x11

0010d3f0 <i0000001d88>:
  10d3f0:	e96f0013          	add	zero,t5,-362 # 3da2be96 <fromhost+0x3d8a3e86>

0010d3f4 <i0000001d89>:
  10d3f4:	01181193          	sll	gp,a6,0x11

0010d3f8 <i0000001d8a>:
  10d3f8:	0035d7b3          	srl	a5,a1,gp
  10d3fc:	00900a93          	li	s5,9

0010d400 <b0000001d8b>:
  10d400:	00000033          	add	zero,zero,zero
  10d404:	f95d44e3          	blt	s10,s5,10d38c <i0000001d7e>
  10d408:	00000033          	add	zero,zero,zero
  10d40c:	00a00d13          	li	s10,10

0010d410 <i0000001d8b>:
  10d410:	9ca02213          	slti	tp,zero,-1590

0010d414 <i0000001d8c>:
  10d414:	0be10fa3          	sb	t5,191(sp)

0010d418 <i0000001d8d>:
  10d418:	54c14e03          	lbu	t3,1356(sp)

0010d41c <i0000001d8e>:
  10d41c:	7f514b83          	lbu	s7,2037(sp)

0010d420 <i0000001d8f>:
  10d420:	012fdf13          	srl	t5,t6,0x12

0010d424 <i0000001d90>:
  10d424:	01eb6033          	or	zero,s6,t5

0010d428 <i0000001d91>:
  10d428:	00c38033          	add	zero,t2,a2

0010d42c <i0000001d92>:
  10d42c:	000b6233          	or	tp,s6,zero

0010d430 <i0000001d93>:
  10d430:	45853a93          	sltiu	s5,a0,1112

0010d434 <i0000001d94>:
  10d434:	d6e97213          	and	tp,s2,-658

0010d438 <i0000001d95>:
  10d438:	07c12c23          	sw	t3,120(sp)

0010d43c <i0000001d96>:
  10d43c:	23b11523          	sh	s11,554(sp)

0010d440 <i0000001d97>:
  10d440:	1cd10f03          	lb	t5,461(sp)

0010d444 <i0000001d98>:
  10d444:	3f015603          	lhu	a2,1008(sp)

0010d448 <i0000001d99>:
  10d448:	00629a33          	sll	s4,t0,t1

0010d44c <i0000001d9a>:
  10d44c:	43610b23          	sb	s6,1078(sp)

0010d450 <i0000001d9b>:
  10d450:	3ec67217          	auipc	tp,0x3ec67
  10d454:	00002117          	auipc	sp,0x2
  10d458:	cac10113          	add	sp,sp,-852 # 10f100 <mem>
  10d45c:	00005337          	lui	t1,0x5
  10d460:	ed030313          	add	t1,t1,-304 # 4ed0 <_min_stack+0x2ed0>
  10d464:	00610133          	add	sp,sp,t1

0010d468 <i0000001d9c>:
  10d468:	80811b03          	lh	s6,-2040(sp)

0010d46c <i0000001d9d>:
  10d46c:	2a4103a3          	sb	tp,679(sp)
  10d470:	00900b93          	li	s7,9

0010d474 <b0000001d9e>:
  10d474:	00000033          	add	zero,zero,zero
  10d478:	fbabd8e3          	bge	s7,s10,10d428 <i0000001d91>
  10d47c:	00000033          	add	zero,zero,zero
  10d480:	00a00d13          	li	s10,10
  10d484:	00002117          	auipc	sp,0x2
  10d488:	c7c10113          	add	sp,sp,-900 # 10f100 <mem>
  10d48c:	00035337          	lui	t1,0x35
  10d490:	57830313          	add	t1,t1,1400 # 35578 <tohost+0x15570>
  10d494:	00610133          	add	sp,sp,t1

0010d498 <i0000001d9e>:
  10d498:	01610023          	sb	s6,0(sp)

0010d49c <i0000001d9f>:
  10d49c:	01621893          	sll	a7,tp,0x16

0010d4a0 <i0000001da0>:
  10d4a0:	2415bb37          	lui	s6,0x2415b
  10d4a4:	00002117          	auipc	sp,0x2
  10d4a8:	c5c10113          	add	sp,sp,-932 # 10f100 <mem>
  10d4ac:	0001f337          	lui	t1,0x1f
  10d4b0:	e0830313          	add	t1,t1,-504 # 1ee08 <_stack_len+0x16e08>
  10d4b4:	00610133          	add	sp,sp,t1

0010d4b8 <i0000001da1>:
  10d4b8:	8a012a23          	sw	zero,-1868(sp)
  10d4bc:	00002117          	auipc	sp,0x2
  10d4c0:	c4410113          	add	sp,sp,-956 # 10f100 <mem>
  10d4c4:	00059337          	lui	t1,0x59
  10d4c8:	ba830313          	add	t1,t1,-1112 # 58ba8 <tohost+0x38ba0>
  10d4cc:	00610133          	add	sp,sp,t1

0010d4d0 <i0000001da2>:
  10d4d0:	d9e11c23          	sh	t5,-616(sp)

0010d4d4 <i0000001da3>:
  10d4d4:	d6a14703          	lbu	a4,-662(sp)

0010d4d8 <i0000001da4>:
  10d4d8:	72e14f03          	lbu	t5,1838(sp)
  10d4dc:	00002117          	auipc	sp,0x2
  10d4e0:	c2410113          	add	sp,sp,-988 # 10f100 <mem>
  10d4e4:	00002337          	lui	t1,0x2
  10d4e8:	e2030313          	add	t1,t1,-480 # 1e20 <_min_stack-0x1e0>
  10d4ec:	00610133          	add	sp,sp,t1

0010d4f0 <i0000001da5>:
  10d4f0:	17c15c03          	lhu	s8,380(sp)

0010d4f4 <i0000001da6>:
  10d4f4:	3cb104a3          	sb	a1,969(sp)

0010d4f8 <i0000001da7>:
  10d4f8:	fb412a03          	lw	s4,-76(sp)

0010d4fc <i0000001da8>:
  10d4fc:	81e14003          	lbu	zero,-2018(sp)

0010d500 <i0000001da9>:
  10d500:	49c11503          	lh	a0,1180(sp)

0010d504 <i0000001daa>:
  10d504:	d0415803          	lhu	a6,-764(sp)

0010d508 <i0000001dab>:
  10d508:	cd102b13          	slti	s6,zero,-815

0010d50c <i0000001dac>:
  10d50c:	c5c14003          	lbu	zero,-932(sp)

0010d510 <i0000001dad>:
  10d510:	0d812b03          	lw	s6,216(sp)

0010d514 <i0000001dae>:
  10d514:	68812183          	lw	gp,1672(sp)

0010d518 <i0000001daf>:
  10d518:	00a20ab3          	add	s5,tp,a0

0010d51c <i0000001db0>:
  10d51c:	be612023          	sw	t1,-1056(sp)
  10d520:	00c00f93          	li	t6,12
  10d524:	00a00d13          	li	s10,10

0010d528 <b0000001db1>:
  10d528:	00000033          	add	zero,zero,zero
  10d52c:	05fd4663          	blt	s10,t6,10d578 <i0000001dbc>
  10d530:	00000033          	add	zero,zero,zero
  10d534:	00a00d13          	li	s10,10

0010d538 <i0000001db1>:
  10d538:	358fc197          	auipc	gp,0x358fc

0010d53c <i0000001db2>:
  10d53c:	a8a10ea3          	sb	a0,-1379(sp)

0010d540 <i0000001db3>:
  10d540:	be615503          	lhu	a0,-1050(sp)

0010d544 <i0000001db4>:
  10d544:	41d65013          	sra	zero,a2,0x1d

0010d548 <i0000001db5>:
  10d548:	b4614683          	lbu	a3,-1210(sp)

0010d54c <i0000001db6>:
  10d54c:	01622933          	slt	s2,tp,s6
  10d550:	00002117          	auipc	sp,0x2
  10d554:	bb010113          	add	sp,sp,-1104 # 10f100 <mem>
  10d558:	00049337          	lui	t1,0x49
  10d55c:	8c830313          	add	t1,t1,-1848 # 488c8 <tohost+0x288c0>
  10d560:	00610133          	add	sp,sp,t1

0010d564 <i0000001db7>:
  10d564:	54415203          	lhu	tp,1348(sp)

0010d568 <i0000001db8>:
  10d568:	b4312423          	sw	gp,-1208(sp)

0010d56c <i0000001db9>:
  10d56c:	73514b83          	lbu	s7,1845(sp)

0010d570 <i0000001dba>:
  10d570:	01e26b33          	or	s6,tp,t5

0010d574 <i0000001dbb>:
  10d574:	127107a3          	sb	t2,303(sp)

0010d578 <i0000001dbc>:
  10d578:	01285233          	srl	tp,a6,s2
  10d57c:	00002117          	auipc	sp,0x2
  10d580:	b8410113          	add	sp,sp,-1148 # 10f100 <mem>
  10d584:	0001e337          	lui	t1,0x1e
  10d588:	da830313          	add	t1,t1,-600 # 1dda8 <_stack_len+0x15da8>
  10d58c:	00610133          	add	sp,sp,t1

0010d590 <i0000001dbd>:
  10d590:	08a100a3          	sb	a0,129(sp)
  10d594:	00002117          	auipc	sp,0x2
  10d598:	b6c10113          	add	sp,sp,-1172 # 10f100 <mem>
  10d59c:	00023337          	lui	t1,0x23
  10d5a0:	88030313          	add	t1,t1,-1920 # 22880 <tohost+0x2878>
  10d5a4:	00610133          	add	sp,sp,t1

0010d5a8 <i0000001dbe>:
  10d5a8:	4e412f03          	lw	t5,1252(sp)

0010d5ac <i0000001dbf>:
  10d5ac:	40590ab3          	sub	s5,s2,t0
  10d5b0:	00002117          	auipc	sp,0x2
  10d5b4:	b5010113          	add	sp,sp,-1200 # 10f100 <mem>
  10d5b8:	0005b337          	lui	t1,0x5b
  10d5bc:	87030313          	add	t1,t1,-1936 # 5a870 <tohost+0x3a868>
  10d5c0:	00610133          	add	sp,sp,t1

0010d5c4 <i0000001dc0>:
  10d5c4:	46215803          	lhu	a6,1122(sp)
  10d5c8:	00002117          	auipc	sp,0x2
  10d5cc:	b3810113          	add	sp,sp,-1224 # 10f100 <mem>
  10d5d0:	00056337          	lui	t1,0x56
  10d5d4:	ed030313          	add	t1,t1,-304 # 55ed0 <tohost+0x35ec8>
  10d5d8:	00610133          	add	sp,sp,t1

0010d5dc <i0000001dc1>:
  10d5dc:	5a412c23          	sw	tp,1464(sp)

0010d5e0 <i0000001dc2>:
  10d5e0:	99615b03          	lhu	s6,-1642(sp)

0010d5e4 <i0000001dc3>:
  10d5e4:	2d611523          	sh	s6,714(sp)
  10d5e8:	00c00c93          	li	s9,12
  10d5ec:	001d0d13          	add	s10,s10,1

0010d5f0 <b0000001dc4>:
  10d5f0:	019d0463          	beq	s10,s9,10d5f8 <b0000001dc4+0x8>
  10d5f4:	f75ff56f          	jal	a0,10d568 <i0000001db8>
  10d5f8:	00a00d13          	li	s10,10

0010d5fc <i0000001dc4>:
  10d5fc:	01d99f33          	sll	t5,s3,t4

0010d600 <i0000001dc5>:
  10d600:	017ec533          	xor	a0,t4,s7

0010d604 <i0000001dc6>:
  10d604:	01f49033          	sll	zero,s1,t6

0010d608 <i0000001dc7>:
  10d608:	0d312c23          	sw	s3,216(sp)

0010d60c <i0000001dc8>:
  10d60c:	0aa11123          	sh	a0,162(sp)

0010d610 <i0000001dc9>:
  10d610:	00a02033          	sgtz	zero,a0

0010d614 <i0000001dca>:
  10d614:	a84e0693          	add	a3,t3,-1404

0010d618 <i0000001dcb>:
  10d618:	96e15783          	lhu	a5,-1682(sp)

0010d61c <i0000001dcc>:
  10d61c:	91e10423          	sb	t5,-1784(sp)
  10d620:	00002117          	auipc	sp,0x2
  10d624:	ae010113          	add	sp,sp,-1312 # 10f100 <mem>
  10d628:	00069337          	lui	t1,0x69
  10d62c:	60830313          	add	t1,t1,1544 # 69608 <tohost+0x49600>
  10d630:	00610133          	add	sp,sp,t1

0010d634 <i0000001dcd>:
  10d634:	ada15503          	lhu	a0,-1318(sp)

0010d638 <i0000001dce>:
  10d638:	54812223          	sw	s0,1348(sp)

0010d63c <i0000001dcf>:
  10d63c:	40ca8f33          	sub	t5,s5,a2

0010d640 <i0000001dd0>:
  10d640:	5a953013          	sltiu	zero,a0,1449

0010d644 <i0000001dd1>:
  10d644:	ffc12423          	sw	t3,-24(sp)

0010d648 <i0000001dd2>:
  10d648:	01cf5f13          	srl	t5,t5,0x1c

0010d64c <i0000001dd3>:
  10d64c:	a1e12423          	sw	t5,-1528(sp)

0010d650 <i0000001dd4>:
  10d650:	000218b3          	sll	a7,tp,zero

0010d654 <i0000001dd5>:
  10d654:	5ade53b7          	lui	t2,0x5ade5

0010d658 <i0000001dd6>:
  10d658:	d1011b83          	lh	s7,-752(sp)
  10d65c:	00a00a13          	li	s4,10

0010d660 <b0000001dd7>:
  10d660:	014d0863          	beq	s10,s4,10d670 <b0000001dd7+0x10>
  10d664:	00000a17          	auipc	s4,0x0
  10d668:	fd4a0a13          	add	s4,s4,-44 # 10d638 <i0000001dce>
  10d66c:	000a0567          	jalr	a0,s4
  10d670:	00a00d13          	li	s10,10

0010d674 <i0000001dd7>:
  10d674:	8de10403          	lb	s0,-1826(sp)

0010d678 <i0000001dd8>:
  10d678:	006c5f13          	srl	t5,s8,0x6

0010d67c <i0000001dd9>:
  10d67c:	11e0b217          	auipc	tp,0x11e0b

0010d680 <i0000001dda>:
  10d680:	06007013          	and	zero,zero,96

0010d684 <i0000001ddb>:
  10d684:	f8415003          	lhu	zero,-124(sp)

0010d688 <i0000001ddc>:
  10d688:	00992f33          	slt	t5,s2,s1

0010d68c <i0000001ddd>:
  10d68c:	417b8db3          	sub	s11,s7,s7
  10d690:	00002117          	auipc	sp,0x2
  10d694:	a7010113          	add	sp,sp,-1424 # 10f100 <mem>
  10d698:	00042337          	lui	t1,0x42
  10d69c:	2c830313          	add	t1,t1,712 # 422c8 <tohost+0x222c0>
  10d6a0:	00610133          	add	sp,sp,t1

0010d6a4 <i0000001dde>:
  10d6a4:	adc12423          	sw	t3,-1336(sp)

0010d6a8 <i0000001ddf>:
  10d6a8:	420fbf17          	auipc	t5,0x420fb

0010d6ac <i0000001de0>:
  10d6ac:	b3c11123          	sh	t3,-1246(sp)

0010d6b0 <i0000001de1>:
  10d6b0:	4137ddb3          	sra	s11,a5,s3

0010d6b4 <i0000001de2>:
  10d6b4:	2f614b03          	lbu	s6,758(sp)
  10d6b8:	00002117          	auipc	sp,0x2
  10d6bc:	a4810113          	add	sp,sp,-1464 # 10f100 <mem>
  10d6c0:	00013337          	lui	t1,0x13
  10d6c4:	39030313          	add	t1,t1,912 # 13390 <_stack_len+0xb390>
  10d6c8:	00610133          	add	sp,sp,t1

0010d6cc <i0000001de3>:
  10d6cc:	35e11023          	sh	t5,832(sp)

0010d6d0 <i0000001de4>:
  10d6d0:	35552793          	slti	a5,a0,853

0010d6d4 <i0000001de5>:
  10d6d4:	d0211b03          	lh	s6,-766(sp)

0010d6d8 <i0000001de6>:
  10d6d8:	43834713          	xor	a4,t1,1080

0010d6dc <i0000001de7>:
  10d6dc:	0a514203          	lbu	tp,165(sp)

0010d6e0 <i0000001de8>:
  10d6e0:	b943ef13          	or	t5,t2,-1132
  10d6e4:	00002117          	auipc	sp,0x2
  10d6e8:	a1c10113          	add	sp,sp,-1508 # 10f100 <mem>
  10d6ec:	00047337          	lui	t1,0x47
  10d6f0:	49830313          	add	t1,t1,1176 # 47498 <tohost+0x27490>
  10d6f4:	00610133          	add	sp,sp,t1

0010d6f8 <i0000001de9>:
  10d6f8:	95c11f03          	lh	t5,-1700(sp)
  10d6fc:	00900e13          	li	t3,9
  10d700:	00a00d13          	li	s10,10

0010d704 <b0000001dea>:
  10d704:	00000033          	add	zero,zero,zero
  10d708:	03cd4263          	blt	s10,t3,10d72c <i0000001df0>
  10d70c:	00000033          	add	zero,zero,zero
  10d710:	00a00d13          	li	s10,10

0010d714 <i0000001dea>:
  10d714:	01e043b3          	xor	t2,zero,t5

0010d718 <i0000001deb>:
  10d718:	412f8533          	sub	a0,t6,s2

0010d71c <i0000001dec>:
  10d71c:	20a5cbb7          	lui	s7,0x20a5c

0010d720 <i0000001ded>:
  10d720:	00402233          	sgtz	tp,tp

0010d724 <i0000001dee>:
  10d724:	be410d83          	lb	s11,-1052(sp)

0010d728 <i0000001def>:
  10d728:	a8810503          	lb	a0,-1400(sp)

0010d72c <i0000001df0>:
  10d72c:	17c12e83          	lw	t4,380(sp)

0010d730 <i0000001df1>:
  10d730:	c9c11703          	lh	a4,-868(sp)
  10d734:	00002117          	auipc	sp,0x2
  10d738:	9cc10113          	add	sp,sp,-1588 # 10f100 <mem>
  10d73c:	00031337          	lui	t1,0x31
  10d740:	ca830313          	add	t1,t1,-856 # 30ca8 <tohost+0x10ca0>
  10d744:	00610133          	add	sp,sp,t1

0010d748 <i0000001df2>:
  10d748:	ff811203          	lh	tp,-8(sp)

0010d74c <i0000001df3>:
  10d74c:	015b1a13          	sll	s4,s6,0x15
  10d750:	00002117          	auipc	sp,0x2
  10d754:	9b010113          	add	sp,sp,-1616 # 10f100 <mem>
  10d758:	00031337          	lui	t1,0x31
  10d75c:	31030313          	add	t1,t1,784 # 31310 <tohost+0x11308>
  10d760:	00610133          	add	sp,sp,t1

0010d764 <i0000001df4>:
  10d764:	79811b03          	lh	s6,1944(sp)

0010d768 <i0000001df5>:
  10d768:	de412203          	lw	tp,-540(sp)

0010d76c <i0000001df6>:
  10d76c:	f709e813          	or	a6,s3,-144

0010d770 <i0000001df7>:
  10d770:	39b12223          	sw	s11,900(sp)

0010d774 <i0000001df8>:
  10d774:	5f8c8e13          	add	t3,s9,1528 # 554be5f8 <fromhost+0x553365e8>

0010d778 <i0000001df9>:
  10d778:	f0e15003          	lhu	zero,-242(sp)

0010d77c <i0000001dfa>:
  10d77c:	0054ba33          	sltu	s4,s1,t0

0010d780 <i0000001dfb>:
  10d780:	015864b3          	or	s1,a6,s5

0010d784 <i0000001dfc>:
  10d784:	1c812f03          	lw	t5,456(sp)
  10d788:	00c00893          	li	a7,12
  10d78c:	00a00d13          	li	s10,10

0010d790 <b0000001dfd>:
  10d790:	00000033          	add	zero,zero,zero
  10d794:	031d4063          	blt	s10,a7,10d7b4 <i0000001e02>
  10d798:	00000033          	add	zero,zero,zero
  10d79c:	00a00d13          	li	s10,10

0010d7a0 <i0000001dfd>:
  10d7a0:	96815b03          	lhu	s6,-1688(sp)

0010d7a4 <i0000001dfe>:
  10d7a4:	c3257213          	and	tp,a0,-974

0010d7a8 <i0000001dff>:
  10d7a8:	00394533          	xor	a0,s2,gp

0010d7ac <i0000001e00>:
  10d7ac:	00641f13          	sll	t5,s0,0x6

0010d7b0 <i0000001e01>:
  10d7b0:	00c95733          	srl	a4,s2,a2

0010d7b4 <i0000001e02>:
  10d7b4:	db210903          	lb	s2,-590(sp)

0010d7b8 <i0000001e03>:
  10d7b8:	44c56c93          	or	s9,a0,1100

0010d7bc <i0000001e04>:
  10d7bc:	45011b23          	sh	a6,1110(sp)

0010d7c0 <i0000001e05>:
  10d7c0:	00d466b3          	or	a3,s0,a3

0010d7c4 <i0000001e06>:
  10d7c4:	01651cb3          	sll	s9,a0,s6

0010d7c8 <i0000001e07>:
  10d7c8:	40450b33          	sub	s6,a0,tp

0010d7cc <i0000001e08>:
  10d7cc:	00f41793          	sll	a5,s0,0xf

0010d7d0 <i0000001e09>:
  10d7d0:	82b14803          	lbu	a6,-2005(sp)

0010d7d4 <i0000001e0a>:
  10d7d4:	03215203          	lhu	tp,50(sp)

0010d7d8 <i0000001e0b>:
  10d7d8:	40405f13          	sra	t5,zero,0x4

0010d7dc <i0000001e0c>:
  10d7dc:	00644733          	xor	a4,s0,t1
  10d7e0:	00002117          	auipc	sp,0x2
  10d7e4:	92010113          	add	sp,sp,-1760 # 10f100 <mem>
  10d7e8:	00015337          	lui	t1,0x15
  10d7ec:	a9030313          	add	t1,t1,-1392 # 14a90 <_stack_len+0xca90>
  10d7f0:	00610133          	add	sp,sp,t1

0010d7f4 <i0000001e0d>:
  10d7f4:	6f012a03          	lw	s4,1776(sp)

0010d7f8 <i0000001e0e>:
  10d7f8:	0cba4f13          	xor	t5,s4,203

0010d7fc <i0000001e0f>:
  10d7fc:	41eb01b3          	sub	gp,s6,t5
  10d800:	00a00813          	li	a6,10
  10d804:	00a00d13          	li	s10,10

0010d808 <b0000001e10>:
  10d808:	00000033          	add	zero,zero,zero
  10d80c:	030d1a63          	bne	s10,a6,10d840 <i0000001e15>
  10d810:	00000033          	add	zero,zero,zero
  10d814:	00a00d13          	li	s10,10

0010d818 <i0000001e10>:
  10d818:	eec10b03          	lb	s6,-276(sp)

0010d81c <i0000001e11>:
  10d81c:	31657413          	and	s0,a0,790

0010d820 <i0000001e12>:
  10d820:	22311523          	sh	gp,554(sp)
  10d824:	00002117          	auipc	sp,0x2
  10d828:	8dc10113          	add	sp,sp,-1828 # 10f100 <mem>
  10d82c:	00027337          	lui	t1,0x27
  10d830:	44830313          	add	t1,t1,1096 # 27448 <tohost+0x7440>
  10d834:	00610133          	add	sp,sp,t1

0010d838 <i0000001e13>:
  10d838:	2e410903          	lb	s2,740(sp)

0010d83c <i0000001e14>:
  10d83c:	3be11283          	lh	t0,958(sp)

0010d840 <i0000001e15>:
  10d840:	6b93b013          	sltiu	zero,t2,1721

0010d844 <i0000001e16>:
  10d844:	6c012b03          	lw	s6,1728(sp)

0010d848 <i0000001e17>:
  10d848:	007497b3          	sll	a5,s1,t2

0010d84c <i0000001e18>:
  10d84c:	62810f83          	lb	t6,1576(sp)

0010d850 <i0000001e19>:
  10d850:	22011223          	sh	zero,548(sp)
  10d854:	00002117          	auipc	sp,0x2
  10d858:	8ac10113          	add	sp,sp,-1876 # 10f100 <mem>
  10d85c:	0003c337          	lui	t1,0x3c
  10d860:	0c830313          	add	t1,t1,200 # 3c0c8 <tohost+0x1c0c0>
  10d864:	00610133          	add	sp,sp,t1

0010d868 <i0000001e1a>:
  10d868:	a9015f83          	lhu	t6,-1392(sp)

0010d86c <i0000001e1b>:
  10d86c:	00050033          	add	zero,a0,zero

0010d870 <i0000001e1c>:
  10d870:	4092d213          	sra	tp,t0,0x9

0010d874 <i0000001e1d>:
  10d874:	1daf4513          	xor	a0,t5,474

0010d878 <i0000001e1e>:
  10d878:	004b57b3          	srl	a5,s6,tp

0010d87c <i0000001e1f>:
  10d87c:	4eb10ea3          	sb	a1,1277(sp)

0010d880 <i0000001e20>:
  10d880:	4d027d93          	and	s11,tp,1232

0010d884 <i0000001e21>:
  10d884:	018f9033          	sll	zero,t6,s8

0010d888 <i0000001e22>:
  10d888:	16812203          	lw	tp,360(sp)

0010d88c <b0000001e23>:
  10d88c:	00000917          	auipc	s2,0x0
  10d890:	02090913          	add	s2,s2,32 # 10d8ac <i0000001e28>
  10d894:	00090567          	jalr	a0,s2

0010d898 <i0000001e23>:
  10d898:	40db84b3          	sub	s1,s7,a3

0010d89c <i0000001e24>:
  10d89c:	40420b33          	sub	s6,tp,tp

0010d8a0 <i0000001e25>:
  10d8a0:	16a11923          	sh	a0,370(sp)

0010d8a4 <i0000001e26>:
  10d8a4:	89412023          	sw	s4,-1920(sp)

0010d8a8 <i0000001e27>:
  10d8a8:	b3d10583          	lb	a1,-1219(sp)

0010d8ac <i0000001e28>:
  10d8ac:	67812183          	lw	gp,1656(sp)

0010d8b0 <i0000001e29>:
  10d8b0:	b4812e83          	lw	t4,-1208(sp)

0010d8b4 <i0000001e2a>:
  10d8b4:	1d512823          	sw	s5,464(sp)

0010d8b8 <i0000001e2b>:
  10d8b8:	c2a12823          	sw	a0,-976(sp)
  10d8bc:	00002117          	auipc	sp,0x2
  10d8c0:	84410113          	add	sp,sp,-1980 # 10f100 <mem>
  10d8c4:	00011337          	lui	t1,0x11
  10d8c8:	28830313          	add	t1,t1,648 # 11288 <_stack_len+0x9288>
  10d8cc:	00610133          	add	sp,sp,t1

0010d8d0 <i0000001e2c>:
  10d8d0:	d0411c83          	lh	s9,-764(sp)

0010d8d4 <i0000001e2d>:
  10d8d4:	01eb2233          	slt	tp,s6,t5

0010d8d8 <i0000001e2e>:
  10d8d8:	0ac11b03          	lh	s6,172(sp)

0010d8dc <i0000001e2f>:
  10d8dc:	00205493          	srl	s1,zero,0x2

0010d8e0 <i0000001e30>:
  10d8e0:	55615003          	lhu	zero,1366(sp)

0010d8e4 <i0000001e31>:
  10d8e4:	ec211e03          	lh	t3,-318(sp)

0010d8e8 <i0000001e32>:
  10d8e8:	01f01013          	sll	zero,zero,0x1f

0010d8ec <i0000001e33>:
  10d8ec:	20eb0b13          	add	s6,s6,526 # 2415b20e <fromhost+0x23fd31fe>

0010d8f0 <i0000001e34>:
  10d8f0:	2cc14183          	lbu	gp,716(sp)

0010d8f4 <i0000001e35>:
  10d8f4:	01051b93          	sll	s7,a0,0x10
  10d8f8:	00c00a93          	li	s5,12
  10d8fc:	00a00d13          	li	s10,10

0010d900 <b0000001e36>:
  10d900:	00000033          	add	zero,zero,zero
  10d904:	035d4e63          	blt	s10,s5,10d940 <i0000001e3d>
  10d908:	00000033          	add	zero,zero,zero
  10d90c:	00a00d13          	li	s10,10

0010d910 <i0000001e36>:
  10d910:	01eb4533          	xor	a0,s6,t5

0010d914 <i0000001e37>:
  10d914:	8ce12223          	sw	a4,-1852(sp)

0010d918 <i0000001e38>:
  10d918:	fac12303          	lw	t1,-84(sp)

0010d91c <i0000001e39>:
  10d91c:	01e07033          	and	zero,zero,t5

0010d920 <i0000001e3a>:
  10d920:	01eb4fb3          	xor	t6,s6,t5
  10d924:	00001117          	auipc	sp,0x1
  10d928:	7dc10113          	add	sp,sp,2012 # 10f100 <mem>
  10d92c:	0005c337          	lui	t1,0x5c
  10d930:	94030313          	add	t1,t1,-1728 # 5b940 <tohost+0x3b938>
  10d934:	00610133          	add	sp,sp,t1

0010d938 <i0000001e3b>:
  10d938:	4a211b83          	lh	s7,1186(sp)

0010d93c <i0000001e3c>:
  10d93c:	defdc913          	xor	s2,s11,-529

0010d940 <i0000001e3d>:
  10d940:	51012b03          	lw	s6,1296(sp)

0010d944 <i0000001e3e>:
  10d944:	a4611203          	lh	tp,-1466(sp)
  10d948:	00001117          	auipc	sp,0x1
  10d94c:	7b810113          	add	sp,sp,1976 # 10f100 <mem>
  10d950:	00034337          	lui	t1,0x34
  10d954:	0d830313          	add	t1,t1,216 # 340d8 <tohost+0x140d0>
  10d958:	00610133          	add	sp,sp,t1

0010d95c <i0000001e3f>:
  10d95c:	f6614f83          	lbu	t6,-154(sp)

0010d960 <i0000001e40>:
  10d960:	00901013          	sll	zero,zero,0x9

0010d964 <i0000001e41>:
  10d964:	000b3033          	sltu	zero,s6,zero

0010d968 <i0000001e42>:
  10d968:	af612823          	sw	s6,-1296(sp)
  10d96c:	00001117          	auipc	sp,0x1
  10d970:	79410113          	add	sp,sp,1940 # 10f100 <mem>
  10d974:	0000b337          	lui	t1,0xb
  10d978:	f3830313          	add	t1,t1,-200 # af38 <_stack_len+0x2f38>
  10d97c:	00610133          	add	sp,sp,t1

0010d980 <i0000001e43>:
  10d980:	73710aa3          	sb	s7,1845(sp)

0010d984 <i0000001e44>:
  10d984:	00879c13          	sll	s8,a5,0x8

0010d988 <i0000001e45>:
  10d988:	cc8f4013          	xor	zero,t5,-824

0010d98c <i0000001e46>:
  10d98c:	00400233          	add	tp,zero,tp

0010d990 <i0000001e47>:
  10d990:	7e6c8893          	add	a7,s9,2022
  10d994:	00001117          	auipc	sp,0x1
  10d998:	76c10113          	add	sp,sp,1900 # 10f100 <mem>
  10d99c:	0003f337          	lui	t1,0x3f
  10d9a0:	85830313          	add	t1,t1,-1960 # 3e858 <tohost+0x1e850>
  10d9a4:	00610133          	add	sp,sp,t1

0010d9a8 <i0000001e48>:
  10d9a8:	ca210503          	lb	a0,-862(sp)

0010d9ac <b0000001e49>:
  10d9ac:	0600056f          	jal	a0,10da0c <i0000001e56>

0010d9b0 <i0000001e49>:
  10d9b0:	00a50f33          	add	t5,a0,a0

0010d9b4 <i0000001e4a>:
  10d9b4:	b1a50293          	add	t0,a0,-1254 # 315ac04a <fromhost+0x3142403a>
  10d9b8:	00001117          	auipc	sp,0x1
  10d9bc:	74810113          	add	sp,sp,1864 # 10f100 <mem>
  10d9c0:	00064337          	lui	t1,0x64
  10d9c4:	74030313          	add	t1,t1,1856 # 64740 <tohost+0x44738>
  10d9c8:	00610133          	add	sp,sp,t1

0010d9cc <i0000001e4b>:
  10d9cc:	4b612c23          	sw	s6,1208(sp)

0010d9d0 <i0000001e4c>:
  10d9d0:	3dd10ea3          	sb	t4,989(sp)
  10d9d4:	00001117          	auipc	sp,0x1
  10d9d8:	72c10113          	add	sp,sp,1836 # 10f100 <mem>
  10d9dc:	00045337          	lui	t1,0x45
  10d9e0:	33830313          	add	t1,t1,824 # 45338 <tohost+0x25330>
  10d9e4:	00610133          	add	sp,sp,t1

0010d9e8 <i0000001e4d>:
  10d9e8:	0b215a83          	lhu	s5,178(sp)

0010d9ec <i0000001e4e>:
  10d9ec:	1c412823          	sw	tp,464(sp)

0010d9f0 <i0000001e4f>:
  10d9f0:	40020f33          	sub	t5,tp,zero

0010d9f4 <i0000001e50>:
  10d9f4:	1b812d83          	lw	s11,440(sp)

0010d9f8 <i0000001e51>:
  10d9f8:	00e4c533          	xor	a0,s1,a4

0010d9fc <i0000001e52>:
  10d9fc:	4e410003          	lb	zero,1252(sp)

0010da00 <i0000001e53>:
  10da00:	00439013          	sll	zero,t2,0x4

0010da04 <i0000001e54>:
  10da04:	03612223          	sw	s6,36(sp)

0010da08 <i0000001e55>:
  10da08:	57fe0217          	auipc	tp,0x57fe0

0010da0c <i0000001e56>:
  10da0c:	01e034b3          	snez	s1,t5

0010da10 <i0000001e57>:
  10da10:	84b10483          	lb	s1,-1973(sp)

0010da14 <i0000001e58>:
  10da14:	40ee5b33          	sra	s6,t3,a4

0010da18 <i0000001e59>:
  10da18:	4181da93          	sra	s5,gp,0x18

0010da1c <i0000001e5a>:
  10da1c:	e0a10d23          	sb	a0,-486(sp)

0010da20 <i0000001e5b>:
  10da20:	01655cb3          	srl	s9,a0,s6
  10da24:	00900913          	li	s2,9

0010da28 <b0000001e5c>:
  10da28:	00000033          	add	zero,zero,zero
  10da2c:	fda950e3          	bge	s2,s10,10d9ec <i0000001e4e>
  10da30:	00000033          	add	zero,zero,zero
  10da34:	00a00d13          	li	s10,10

0010da38 <i0000001e5c>:
  10da38:	5d411203          	lh	tp,1492(sp)

0010da3c <i0000001e5d>:
  10da3c:	00a50233          	add	tp,a0,a0

0010da40 <i0000001e5e>:
  10da40:	01e03f33          	snez	t5,t5

0010da44 <i0000001e5f>:
  10da44:	01654f33          	xor	t5,a0,s6
  10da48:	00001117          	auipc	sp,0x1
  10da4c:	6b810113          	add	sp,sp,1720 # 10f100 <mem>
  10da50:	0001d337          	lui	t1,0x1d
  10da54:	71830313          	add	t1,t1,1816 # 1d718 <_stack_len+0x15718>
  10da58:	00610133          	add	sp,sp,t1

0010da5c <i0000001e60>:
  10da5c:	9ab11d23          	sh	a1,-1606(sp)

0010da60 <i0000001e61>:
  10da60:	56215683          	lhu	a3,1378(sp)

0010da64 <i0000001e62>:
  10da64:	0036bcb3          	sltu	s9,a3,gp

0010da68 <i0000001e63>:
  10da68:	01624233          	xor	tp,tp,s6
  10da6c:	00001117          	auipc	sp,0x1
  10da70:	69410113          	add	sp,sp,1684 # 10f100 <mem>
  10da74:	00027337          	lui	t1,0x27
  10da78:	a1030313          	add	t1,t1,-1520 # 26a10 <tohost+0x6a08>
  10da7c:	00610133          	add	sp,sp,t1

0010da80 <i0000001e64>:
  10da80:	49410f23          	sb	s4,1182(sp)

0010da84 <i0000001e65>:
  10da84:	01c801b3          	add	gp,a6,t3

0010da88 <i0000001e66>:
  10da88:	011bff33          	and	t5,s7,a7

0010da8c <i0000001e67>:
  10da8c:	5c012f03          	lw	t5,1472(sp)

0010da90 <i0000001e68>:
  10da90:	0186de33          	srl	t3,a3,s8

0010da94 <i0000001e69>:
  10da94:	95412403          	lw	s0,-1708(sp)

0010da98 <i0000001e6a>:
  10da98:	73ec3f17          	auipc	t5,0x73ec3

0010da9c <i0000001e6b>:
  10da9c:	014f5e13          	srl	t3,t5,0x14

0010daa0 <i0000001e6c>:
  10daa0:	dcc15b83          	lhu	s7,-564(sp)

0010daa4 <i0000001e6d>:
  10daa4:	61210aa3          	sb	s2,1557(sp)
  10daa8:	00001117          	auipc	sp,0x1
  10daac:	65810113          	add	sp,sp,1624 # 10f100 <mem>
  10dab0:	00029337          	lui	t1,0x29
  10dab4:	42030313          	add	t1,t1,1056 # 29420 <tohost+0x9418>
  10dab8:	00610133          	add	sp,sp,t1

0010dabc <i0000001e6e>:
  10dabc:	d2812223          	sw	s0,-732(sp)
  10dac0:	00b00d93          	li	s11,11
  10dac4:	001d0d13          	add	s10,s10,1

0010dac8 <b0000001e6f>:
  10dac8:	00000033          	add	zero,zero,zero
  10dacc:	fdbd04e3          	beq	s10,s11,10da94 <i0000001e69>
  10dad0:	00000033          	add	zero,zero,zero
  10dad4:	00a00d13          	li	s10,10

0010dad8 <i0000001e6f>:
  10dad8:	9ec10c03          	lb	s8,-1556(sp)

0010dadc <i0000001e70>:
  10dadc:	29412f03          	lw	t5,660(sp)
  10dae0:	00001117          	auipc	sp,0x1
  10dae4:	62010113          	add	sp,sp,1568 # 10f100 <mem>
  10dae8:	00067337          	lui	t1,0x67
  10daec:	d8830313          	add	t1,t1,-632 # 66d88 <tohost+0x46d80>
  10daf0:	00610133          	add	sp,sp,t1

0010daf4 <i0000001e71>:
  10daf4:	40610003          	lb	zero,1030(sp)

0010daf8 <i0000001e72>:
  10daf8:	a7f14f03          	lbu	t5,-1409(sp)

0010dafc <i0000001e73>:
  10dafc:	41e55533          	sra	a0,a0,t5

0010db00 <i0000001e74>:
  10db00:	23e11323          	sh	t5,550(sp)

0010db04 <i0000001e75>:
  10db04:	0181e433          	or	s0,gp,s8

0010db08 <i0000001e76>:
  10db08:	d3a15903          	lhu	s2,-710(sp)

0010db0c <i0000001e77>:
  10db0c:	cd611003          	lh	zero,-810(sp)

0010db10 <i0000001e78>:
  10db10:	00a52db3          	slt	s11,a0,a0

0010db14 <i0000001e79>:
  10db14:	40840eb3          	sub	t4,s0,s0

0010db18 <i0000001e7a>:
  10db18:	00421233          	sll	tp,tp,tp

0010db1c <i0000001e7b>:
  10db1c:	d8c10503          	lb	a0,-628(sp)

0010db20 <i0000001e7c>:
  10db20:	004047b3          	xor	a5,zero,tp

0010db24 <i0000001e7d>:
  10db24:	26910b23          	sb	s1,630(sp)
  10db28:	00001117          	auipc	sp,0x1
  10db2c:	5d810113          	add	sp,sp,1496 # 10f100 <mem>
  10db30:	00027337          	lui	t1,0x27
  10db34:	49830313          	add	t1,t1,1176 # 27498 <tohost+0x7490>
  10db38:	00610133          	add	sp,sp,t1

0010db3c <i0000001e7e>:
  10db3c:	40e15003          	lhu	zero,1038(sp)

0010db40 <i0000001e7f>:
  10db40:	40a11a23          	sh	a0,1044(sp)

0010db44 <i0000001e80>:
  10db44:	5eb18a37          	lui	s4,0x5eb18

0010db48 <i0000001e81>:
  10db48:	a6412823          	sw	tp,-1424(sp)
  10db4c:	00000b93          	li	s7,0

0010db50 <b0000001e82>:
  10db50:	00000033          	add	zero,zero,zero
  10db54:	fd7d02e3          	beq	s10,s7,10db18 <i0000001e7a>
  10db58:	00000033          	add	zero,zero,zero
  10db5c:	00a00d13          	li	s10,10

0010db60 <i0000001e82>:
  10db60:	8c48c213          	xor	tp,a7,-1852

0010db64 <i0000001e83>:
  10db64:	40e25193          	sra	gp,tp,0xe

0010db68 <i0000001e84>:
  10db68:	d2e11803          	lh	a6,-722(sp)

0010db6c <i0000001e85>:
  10db6c:	26a14e03          	lbu	t3,618(sp)

0010db70 <i0000001e86>:
  10db70:	20a12023          	sw	a0,512(sp)

0010db74 <i0000001e87>:
  10db74:	80bf2413          	slti	s0,t5,-2037

0010db78 <i0000001e88>:
  10db78:	ac276a13          	or	s4,a4,-1342

0010db7c <i0000001e89>:
  10db7c:	34c12e23          	sw	a2,860(sp)

0010db80 <i0000001e8a>:
  10db80:	0103a3b3          	slt	t2,t2,a6

0010db84 <i0000001e8b>:
  10db84:	322a9c37          	lui	s8,0x322a9

0010db88 <i0000001e8c>:
  10db88:	36951b17          	auipc	s6,0x36951

0010db8c <i0000001e8d>:
  10db8c:	33257f13          	and	t5,a0,818

0010db90 <i0000001e8e>:
  10db90:	dc415903          	lhu	s2,-572(sp)

0010db94 <i0000001e8f>:
  10db94:	ce811f03          	lh	t5,-792(sp)

0010db98 <i0000001e90>:
  10db98:	0056b233          	sltu	tp,a3,t0

0010db9c <i0000001e91>:
  10db9c:	cd2a6213          	or	tp,s4,-814

0010dba0 <i0000001e92>:
  10dba0:	d6e15f03          	lhu	t5,-658(sp)

0010dba4 <i0000001e93>:
  10dba4:	01929e33          	sll	t3,t0,s9

0010dba8 <i0000001e94>:
  10dba8:	016b1333          	sll	t1,s6,s6
  10dbac:	00900993          	li	s3,9

0010dbb0 <b0000001e95>:
  10dbb0:	00000033          	add	zero,zero,zero
  10dbb4:	fda9dee3          	bge	s3,s10,10db90 <i0000001e8e>
  10dbb8:	00000033          	add	zero,zero,zero
  10dbbc:	00a00d13          	li	s10,10

0010dbc0 <i0000001e95>:
  10dbc0:	00a55033          	srl	zero,a0,a0

0010dbc4 <i0000001e96>:
  10dbc4:	f0612423          	sw	t1,-248(sp)

0010dbc8 <i0000001e97>:
  10dbc8:	c3415003          	lhu	zero,-972(sp)
  10dbcc:	00001117          	auipc	sp,0x1
  10dbd0:	53410113          	add	sp,sp,1332 # 10f100 <mem>
  10dbd4:	0000a337          	lui	t1,0xa
  10dbd8:	5c830313          	add	t1,t1,1480 # a5c8 <_stack_len+0x25c8>
  10dbdc:	00610133          	add	sp,sp,t1

0010dbe0 <i0000001e98>:
  10dbe0:	8ae15f03          	lhu	t5,-1874(sp)

0010dbe4 <i0000001e99>:
  10dbe4:	53514683          	lbu	a3,1333(sp)

0010dbe8 <i0000001e9a>:
  10dbe8:	00669933          	sll	s2,a3,t1
  10dbec:	00001117          	auipc	sp,0x1
  10dbf0:	51410113          	add	sp,sp,1300 # 10f100 <mem>
  10dbf4:	00033337          	lui	t1,0x33
  10dbf8:	ad830313          	add	t1,t1,-1320 # 32ad8 <tohost+0x12ad0>
  10dbfc:	00610133          	add	sp,sp,t1

0010dc00 <i0000001e9b>:
  10dc00:	9cc12683          	lw	a3,-1588(sp)

0010dc04 <i0000001e9c>:
  10dc04:	0126b533          	sltu	a0,a3,s2

0010dc08 <i0000001e9d>:
  10dc08:	08011003          	lh	zero,128(sp)

0010dc0c <i0000001e9e>:
  10dc0c:	016545b3          	xor	a1,a0,s6

0010dc10 <i0000001e9f>:
  10dc10:	fcc12e03          	lw	t3,-52(sp)
  10dc14:	00001117          	auipc	sp,0x1
  10dc18:	4ec10113          	add	sp,sp,1260 # 10f100 <mem>
  10dc1c:	0004e337          	lui	t1,0x4e
  10dc20:	76030313          	add	t1,t1,1888 # 4e760 <tohost+0x2e758>
  10dc24:	00610133          	add	sp,sp,t1

0010dc28 <i0000001ea0>:
  10dc28:	31f102a3          	sb	t6,773(sp)

0010dc2c <i0000001ea1>:
  10dc2c:	41e20233          	sub	tp,tp,t5

0010dc30 <i0000001ea2>:
  10dc30:	89deab93          	slti	s7,t4,-1891

0010dc34 <i0000001ea3>:
  10dc34:	01e07c33          	and	s8,zero,t5

0010dc38 <i0000001ea4>:
  10dc38:	cbc06b13          	or	s6,zero,-836

0010dc3c <i0000001ea5>:
  10dc3c:	22815203          	lhu	tp,552(sp)

0010dc40 <i0000001ea6>:
  10dc40:	016b47b3          	xor	a5,s6,s6

0010dc44 <i0000001ea7>:
  10dc44:	6fe105a3          	sb	t5,1771(sp)
  10dc48:	00b00c93          	li	s9,11
  10dc4c:	00a00d13          	li	s10,10

0010dc50 <b0000001ea8>:
  10dc50:	00000033          	add	zero,zero,zero
  10dc54:	05acdc63          	bge	s9,s10,10dcac <i0000001eb6>
  10dc58:	00000033          	add	zero,zero,zero
  10dc5c:	00a00d13          	li	s10,10
  10dc60:	00001117          	auipc	sp,0x1
  10dc64:	4a010113          	add	sp,sp,1184 # 10f100 <mem>
  10dc68:	00013337          	lui	t1,0x13
  10dc6c:	2c030313          	add	t1,t1,704 # 132c0 <_stack_len+0xb2c0>
  10dc70:	00610133          	add	sp,sp,t1

0010dc74 <i0000001ea8>:
  10dc74:	36812903          	lw	s2,872(sp)

0010dc78 <i0000001ea9>:
  10dc78:	00457e33          	and	t3,a0,tp

0010dc7c <i0000001eaa>:
  10dc7c:	0172fdb3          	and	s11,t0,s7

0010dc80 <i0000001eab>:
  10dc80:	9d314e83          	lbu	t4,-1581(sp)

0010dc84 <i0000001eac>:
  10dc84:	01dfd9b3          	srl	s3,t6,t4

0010dc88 <i0000001ead>:
  10dc88:	00d6dc13          	srl	s8,a3,0xd

0010dc8c <i0000001eae>:
  10dc8c:	1cd80b37          	lui	s6,0x1cd80

0010dc90 <i0000001eaf>:
  10dc90:	7d456613          	or	a2,a0,2004

0010dc94 <i0000001eb0>:
  10dc94:	3583fb17          	auipc	s6,0x3583f

0010dc98 <i0000001eb1>:
  10dc98:	0196eb33          	or	s6,a3,s9

0010dc9c <i0000001eb2>:
  10dc9c:	416f0033          	sub	zero,t5,s6

0010dca0 <i0000001eb3>:
  10dca0:	41db8033          	sub	zero,s7,t4

0010dca4 <i0000001eb4>:
  10dca4:	ff206613          	or	a2,zero,-14

0010dca8 <i0000001eb5>:
  10dca8:	a561a013          	slti	zero,gp,-1450

0010dcac <i0000001eb6>:
  10dcac:	92514583          	lbu	a1,-1755(sp)

0010dcb0 <i0000001eb7>:
  10dcb0:	482abc93          	sltiu	s9,s5,1154

0010dcb4 <i0000001eb8>:
  10dcb4:	27a15203          	lhu	tp,634(sp)

0010dcb8 <i0000001eb9>:
  10dcb8:	b9478013          	add	zero,a5,-1132

0010dcbc <i0000001eba>:
  10dcbc:	f6215b03          	lhu	s6,-158(sp)
  10dcc0:	00900b13          	li	s6,9
  10dcc4:	00a00d13          	li	s10,10

0010dcc8 <b0000001ebb>:
  10dcc8:	00000033          	add	zero,zero,zero
  10dccc:	03ab5c63          	bge	s6,s10,10dd04 <i0000001ec1>
  10dcd0:	00000033          	add	zero,zero,zero
  10dcd4:	00a00d13          	li	s10,10

0010dcd8 <i0000001ebb>:
  10dcd8:	011ed493          	srl	s1,t4,0x11

0010dcdc <i0000001ebc>:
  10dcdc:	005bc533          	xor	a0,s7,t0

0010dce0 <i0000001ebd>:
  10dce0:	76248637          	lui	a2,0x76248
  10dce4:	00001117          	auipc	sp,0x1
  10dce8:	41c10113          	add	sp,sp,1052 # 10f100 <mem>
  10dcec:	0000e337          	lui	t1,0xe
  10dcf0:	2f030313          	add	t1,t1,752 # e2f0 <_stack_len+0x62f0>
  10dcf4:	00610133          	add	sp,sp,t1

0010dcf8 <i0000001ebe>:
  10dcf8:	91c15783          	lhu	a5,-1764(sp)

0010dcfc <i0000001ebf>:
  10dcfc:	8f410183          	lb	gp,-1804(sp)

0010dd00 <i0000001ec0>:
  10dd00:	85010203          	lb	tp,-1968(sp)

0010dd04 <i0000001ec1>:
  10dd04:	a6a11823          	sh	a0,-1424(sp)

0010dd08 <i0000001ec2>:
  10dd08:	47a51417          	auipc	s0,0x47a51

0010dd0c <i0000001ec3>:
  10dd0c:	29494013          	xor	zero,s2,660

0010dd10 <i0000001ec4>:
  10dd10:	68a6c413          	xor	s0,a3,1674

0010dd14 <i0000001ec5>:
  10dd14:	d937a013          	slti	zero,a5,-621
  10dd18:	00001117          	auipc	sp,0x1
  10dd1c:	3e810113          	add	sp,sp,1000 # 10f100 <mem>
  10dd20:	0005e337          	lui	t1,0x5e
  10dd24:	f9030313          	add	t1,t1,-112 # 5df90 <tohost+0x3df88>
  10dd28:	00610133          	add	sp,sp,t1

0010dd2c <i0000001ec6>:
  10dd2c:	77111023          	sh	a7,1888(sp)

0010dd30 <i0000001ec7>:
  10dd30:	59d3c513          	xor	a0,t2,1437

0010dd34 <i0000001ec8>:
  10dd34:	32e11923          	sh	a4,818(sp)

0010dd38 <i0000001ec9>:
  10dd38:	67db6197          	auipc	gp,0x67db6

0010dd3c <i0000001eca>:
  10dd3c:	00052b33          	sltz	s6,a0

0010dd40 <i0000001ecb>:
  10dd40:	26615203          	lhu	tp,614(sp)

0010dd44 <i0000001ecc>:
  10dd44:	ff611503          	lh	a0,-10(sp)

0010dd48 <i0000001ecd>:
  10dd48:	81410183          	lb	gp,-2028(sp)
  10dd4c:	00c00b13          	li	s6,12
  10dd50:	001d0d13          	add	s10,s10,1

0010dd54 <b0000001ece>:
  10dd54:	00000033          	add	zero,zero,zero
  10dd58:	fbab5ce3          	bge	s6,s10,10dd10 <i0000001ec4>
  10dd5c:	00000033          	add	zero,zero,zero
  10dd60:	00a00d13          	li	s10,10

0010dd64 <i0000001ece>:
  10dd64:	40825b13          	sra	s6,tp,0x8

0010dd68 <i0000001ecf>:
  10dd68:	fa010e23          	sb	zero,-68(sp)

0010dd6c <i0000001ed0>:
  10dd6c:	2d711e23          	sh	s7,732(sp)

0010dd70 <i0000001ed1>:
  10dd70:	c4c12003          	lw	zero,-948(sp)

0010dd74 <i0000001ed2>:
  10dd74:	57610a23          	sb	s6,1396(sp)

0010dd78 <i0000001ed3>:
  10dd78:	d80fc293          	xor	t0,t6,-640

0010dd7c <i0000001ed4>:
  10dd7c:	0e214383          	lbu	t2,226(sp)

0010dd80 <i0000001ed5>:
  10dd80:	0cc10723          	sb	a2,206(sp)

0010dd84 <i0000001ed6>:
  10dd84:	6a610f83          	lb	t6,1702(sp)

0010dd88 <i0000001ed7>:
  10dd88:	86014503          	lbu	a0,-1952(sp)

0010dd8c <i0000001ed8>:
  10dd8c:	00050b33          	add	s6,a0,zero

0010dd90 <i0000001ed9>:
  10dd90:	09e11323          	sh	t5,134(sp)

0010dd94 <i0000001eda>:
  10dd94:	45e10aa3          	sb	t5,1109(sp)

0010dd98 <i0000001edb>:
  10dd98:	3c7f4213          	xor	tp,t5,967

0010dd9c <i0000001edc>:
  10dd9c:	004b1c33          	sll	s8,s6,tp

0010dda0 <i0000001edd>:
  10dda0:	0083fb33          	and	s6,t2,s0

0010dda4 <i0000001ede>:
  10dda4:	6c012283          	lw	t0,1728(sp)

0010dda8 <i0000001edf>:
  10dda8:	21612c23          	sw	s6,536(sp)

0010ddac <i0000001ee0>:
  10ddac:	00ba8ab3          	add	s5,s5,a1
  10ddb0:	00c00a93          	li	s5,12
  10ddb4:	001d0d13          	add	s10,s10,1

0010ddb8 <b0000001ee1>:
  10ddb8:	00000033          	add	zero,zero,zero
  10ddbc:	fd5d40e3          	blt	s10,s5,10dd7c <i0000001ed4>
  10ddc0:	00000033          	add	zero,zero,zero
  10ddc4:	00a00d13          	li	s10,10

0010ddc8 <i0000001ee1>:
  10ddc8:	012a4033          	xor	zero,s4,s2

0010ddcc <i0000001ee2>:
  10ddcc:	20a106a3          	sb	a0,525(sp)

0010ddd0 <i0000001ee3>:
  10ddd0:	00ca1f13          	sll	t5,s4,0xc

0010ddd4 <i0000001ee4>:
  10ddd4:	5cf14b03          	lbu	s6,1487(sp)

0010ddd8 <i0000001ee5>:
  10ddd8:	6354a213          	slti	tp,s1,1589

0010dddc <i0000001ee6>:
  10dddc:	616a41b7          	lui	gp,0x616a4
  10dde0:	00001117          	auipc	sp,0x1
  10dde4:	32010113          	add	sp,sp,800 # 10f100 <mem>
  10dde8:	00038337          	lui	t1,0x38
  10ddec:	0d030313          	add	t1,t1,208 # 380d0 <tohost+0x180c8>
  10ddf0:	00610133          	add	sp,sp,t1

0010ddf4 <i0000001ee7>:
  10ddf4:	75e11d83          	lh	s11,1886(sp)

0010ddf8 <i0000001ee8>:
  10ddf8:	00020b33          	add	s6,tp,zero

0010ddfc <i0000001ee9>:
  10ddfc:	fb314e03          	lbu	t3,-77(sp)

0010de00 <i0000001eea>:
  10de00:	000224b3          	sltz	s1,tp

0010de04 <i0000001eeb>:
  10de04:	28bb2637          	lui	a2,0x28bb2

0010de08 <i0000001eec>:
  10de08:	86a11923          	sh	a0,-1934(sp)

0010de0c <i0000001eed>:
  10de0c:	80215f03          	lhu	t5,-2046(sp)

0010de10 <i0000001eee>:
  10de10:	ca612a23          	sw	t1,-844(sp)

0010de14 <i0000001eef>:
  10de14:	01dc47b3          	xor	a5,s8,t4

0010de18 <i0000001ef0>:
  10de18:	416b5933          	sra	s2,s6,s6

0010de1c <i0000001ef1>:
  10de1c:	9495b293          	sltiu	t0,a1,-1719
  10de20:	00001117          	auipc	sp,0x1
  10de24:	2e010113          	add	sp,sp,736 # 10f100 <mem>
  10de28:	00019337          	lui	t1,0x19
  10de2c:	24030313          	add	t1,t1,576 # 19240 <_stack_len+0x11240>
  10de30:	00610133          	add	sp,sp,t1

0010de34 <i0000001ef2>:
  10de34:	b6411023          	sh	tp,-1184(sp)

0010de38 <i0000001ef3>:
  10de38:	411e53b3          	sra	t2,t3,a7
  10de3c:	00c00813          	li	a6,12
  10de40:	00a00d13          	li	s10,10

0010de44 <b0000001ef4>:
  10de44:	00000033          	add	zero,zero,zero
  10de48:	050d4c63          	blt	s10,a6,10dea0 <i0000001efd>
  10de4c:	00000033          	add	zero,zero,zero
  10de50:	00a00d13          	li	s10,10

0010de54 <i0000001ef4>:
  10de54:	d9610ea3          	sb	s6,-611(sp)

0010de58 <i0000001ef5>:
  10de58:	01fb1493          	sll	s1,s6,0x1f

0010de5c <i0000001ef6>:
  10de5c:	00347333          	and	t1,s0,gp

0010de60 <i0000001ef7>:
  10de60:	01eb4333          	xor	t1,s6,t5

0010de64 <i0000001ef8>:
  10de64:	00b6cb33          	xor	s6,a3,a1

0010de68 <i0000001ef9>:
  10de68:	01711223          	sh	s7,4(sp)
  10de6c:	00001117          	auipc	sp,0x1
  10de70:	29410113          	add	sp,sp,660 # 10f100 <mem>
  10de74:	00066337          	lui	t1,0x66
  10de78:	e5830313          	add	t1,t1,-424 # 65e58 <tohost+0x45e50>
  10de7c:	00610133          	add	sp,sp,t1

0010de80 <i0000001efa>:
  10de80:	348104a3          	sb	s0,841(sp)

0010de84 <i0000001efb>:
  10de84:	5fb10a83          	lb	s5,1531(sp)
  10de88:	00001117          	auipc	sp,0x1
  10de8c:	27810113          	add	sp,sp,632 # 10f100 <mem>
  10de90:	00046337          	lui	t1,0x46
  10de94:	aa830313          	add	t1,t1,-1368 # 45aa8 <tohost+0x25aa0>
  10de98:	00610133          	add	sp,sp,t1

0010de9c <i0000001efc>:
  10de9c:	cea12423          	sw	a0,-792(sp)

0010dea0 <i0000001efd>:
  10dea0:	36b14f03          	lbu	t5,875(sp)

0010dea4 <i0000001efe>:
  10dea4:	00f1ae33          	slt	t3,gp,a5

0010dea8 <i0000001eff>:
  10dea8:	2e904497          	auipc	s1,0x2e904

0010deac <i0000001f00>:
  10deac:	00189237          	lui	tp,0x189

0010deb0 <i0000001f01>:
  10deb0:	88c12c23          	sw	a2,-1896(sp)

0010deb4 <i0000001f02>:
  10deb4:	a2e15883          	lhu	a7,-1490(sp)

0010deb8 <i0000001f03>:
  10deb8:	4eb37e13          	and	t3,t1,1259

0010debc <i0000001f04>:
  10debc:	d3812183          	lw	gp,-712(sp)

0010dec0 <i0000001f05>:
  10dec0:	1ba15b03          	lhu	s6,442(sp)
  10dec4:	00001117          	auipc	sp,0x1
  10dec8:	23c10113          	add	sp,sp,572 # 10f100 <mem>
  10decc:	00009337          	lui	t1,0x9
  10ded0:	e6830313          	add	t1,t1,-408 # 8e68 <_stack_len+0xe68>
  10ded4:	00610133          	add	sp,sp,t1

0010ded8 <i0000001f06>:
  10ded8:	0ac15f03          	lhu	t5,172(sp)
  10dedc:	00900e13          	li	t3,9

0010dee0 <b0000001f07>:
  10dee0:	00000033          	add	zero,zero,zero
  10dee4:	fdcd44e3          	blt	s10,t3,10deac <i0000001f00>
  10dee8:	00000033          	add	zero,zero,zero
  10deec:	00a00d13          	li	s10,10

0010def0 <i0000001f07>:
  10def0:	afe15283          	lhu	t0,-1282(sp)

0010def4 <i0000001f08>:
  10def4:	18314683          	lbu	a3,387(sp)

0010def8 <i0000001f09>:
  10def8:	5c811503          	lh	a0,1480(sp)

0010defc <i0000001f0a>:
  10defc:	6d0c7517          	auipc	a0,0x6d0c7

0010df00 <i0000001f0b>:
  10df00:	b6411f03          	lh	t5,-1180(sp)

0010df04 <i0000001f0c>:
  10df04:	e1c06593          	or	a1,zero,-484

0010df08 <i0000001f0d>:
  10df08:	28e11403          	lh	s0,654(sp)

0010df0c <i0000001f0e>:
  10df0c:	00b83233          	sltu	tp,a6,a1

0010df10 <i0000001f0f>:
  10df10:	93a11503          	lh	a0,-1734(sp)

0010df14 <i0000001f10>:
  10df14:	1e4104a3          	sb	tp,489(sp)

0010df18 <i0000001f11>:
  10df18:	00155513          	srl	a0,a0,0x1
  10df1c:	00001117          	auipc	sp,0x1
  10df20:	1e410113          	add	sp,sp,484 # 10f100 <mem>
  10df24:	0003e337          	lui	t1,0x3e
  10df28:	e8830313          	add	t1,t1,-376 # 3de88 <tohost+0x1de80>
  10df2c:	00610133          	add	sp,sp,t1

0010df30 <i0000001f12>:
  10df30:	28811003          	lh	zero,648(sp)

0010df34 <i0000001f13>:
  10df34:	71c10c83          	lb	s9,1820(sp)

0010df38 <i0000001f14>:
  10df38:	006ddf13          	srl	t5,s11,0x6

0010df3c <i0000001f15>:
  10df3c:	ea610fa3          	sb	t1,-321(sp)

0010df40 <i0000001f16>:
  10df40:	018b1a93          	sll	s5,s6,0x18

0010df44 <i0000001f17>:
  10df44:	01650b33          	add	s6,a0,s6

0010df48 <i0000001f18>:
  10df48:	91290013          	add	zero,s2,-1774

0010df4c <i0000001f19>:
  10df4c:	01d7aa33          	slt	s4,a5,t4
  10df50:	00000f93          	li	t6,0

0010df54 <b0000001f1a>:
  10df54:	00000033          	add	zero,zero,zero
  10df58:	fbfd0ae3          	beq	s10,t6,10df0c <i0000001f0e>
  10df5c:	00000033          	add	zero,zero,zero
  10df60:	00a00d13          	li	s10,10

0010df64 <i0000001f1a>:
  10df64:	530102a3          	sb	a6,1317(sp)

0010df68 <i0000001f1b>:
  10df68:	6d710f83          	lb	t6,1751(sp)
  10df6c:	00001117          	auipc	sp,0x1
  10df70:	19410113          	add	sp,sp,404 # 10f100 <mem>
  10df74:	0001b337          	lui	t1,0x1b
  10df78:	75830313          	add	t1,t1,1880 # 1b758 <_stack_len+0x13758>
  10df7c:	00610133          	add	sp,sp,t1

0010df80 <i0000001f1c>:
  10df80:	7ee11f23          	sh	a4,2046(sp)

0010df84 <i0000001f1d>:
  10df84:	04012303          	lw	t1,64(sp)

0010df88 <i0000001f1e>:
  10df88:	1aa105a3          	sb	a0,427(sp)

0010df8c <i0000001f1f>:
  10df8c:	89900013          	li	zero,-1895

0010df90 <i0000001f20>:
  10df90:	99511c23          	sh	s5,-1640(sp)

0010df94 <i0000001f21>:
  10df94:	5d4b4493          	xor	s1,s6,1492

0010df98 <i0000001f22>:
  10df98:	01d44033          	xor	zero,s0,t4

0010df9c <i0000001f23>:
  10df9c:	008a7233          	and	tp,s4,s0

0010dfa0 <i0000001f24>:
  10dfa0:	00e35533          	srl	a0,t1,a4

0010dfa4 <i0000001f25>:
  10dfa4:	46010123          	sb	zero,1122(sp)
  10dfa8:	00001117          	auipc	sp,0x1
  10dfac:	15810113          	add	sp,sp,344 # 10f100 <mem>
  10dfb0:	00002337          	lui	t1,0x2
  10dfb4:	27830313          	add	t1,t1,632 # 2278 <_min_stack+0x278>
  10dfb8:	00610133          	add	sp,sp,t1

0010dfbc <i0000001f26>:
  10dfbc:	f1412e83          	lw	t4,-236(sp)

0010dfc0 <i0000001f27>:
  10dfc0:	b5e12e23          	sw	t5,-1188(sp)

0010dfc4 <i0000001f28>:
  10dfc4:	84012a23          	sw	zero,-1964(sp)

0010dfc8 <i0000001f29>:
  10dfc8:	636102a3          	sb	s6,1573(sp)

0010dfcc <i0000001f2a>:
  10dfcc:	bb3f0193          	add	gp,t5,-1101 # 73fd064b <fromhost+0x73e4863b>
  10dfd0:	00001117          	auipc	sp,0x1
  10dfd4:	13010113          	add	sp,sp,304 # 10f100 <mem>
  10dfd8:	00055337          	lui	t1,0x55
  10dfdc:	82030313          	add	t1,t1,-2016 # 54820 <tohost+0x34818>
  10dfe0:	00610133          	add	sp,sp,t1

0010dfe4 <i0000001f2b>:
  10dfe4:	b6412403          	lw	s0,-1180(sp)

0010dfe8 <i0000001f2c>:
  10dfe8:	01a2a893          	slti	a7,t0,26
  10dfec:	00c00b93          	li	s7,12
  10dff0:	001d0d13          	add	s10,s10,1

0010dff4 <b0000001f2d>:
  10dff4:	017d0863          	beq	s10,s7,10e004 <b0000001f2d+0x10>
  10dff8:	00000b97          	auipc	s7,0x0
  10dffc:	f9cb8b93          	add	s7,s7,-100 # 10df94 <i0000001f21>
  10e000:	000b8567          	jalr	a0,s7
  10e004:	00a00d13          	li	s10,10

0010e008 <i0000001f2d>:
  10e008:	2de10923          	sb	t5,722(sp)
  10e00c:	00001117          	auipc	sp,0x1
  10e010:	0f410113          	add	sp,sp,244 # 10f100 <mem>
  10e014:	0005e337          	lui	t1,0x5e
  10e018:	04830313          	add	t1,t1,72 # 5e048 <tohost+0x3e040>
  10e01c:	00610133          	add	sp,sp,t1

0010e020 <i0000001f2e>:
  10e020:	d9812b03          	lw	s6,-616(sp)
  10e024:	00001117          	auipc	sp,0x1
  10e028:	0dc10113          	add	sp,sp,220 # 10f100 <mem>
  10e02c:	00014337          	lui	t1,0x14
  10e030:	f7030313          	add	t1,t1,-144 # 13f70 <_stack_len+0xbf70>
  10e034:	00610133          	add	sp,sp,t1

0010e038 <i0000001f2f>:
  10e038:	f0215483          	lhu	s1,-254(sp)

0010e03c <i0000001f30>:
  10e03c:	40be8c33          	sub	s8,t4,a1

0010e040 <i0000001f31>:
  10e040:	018f5313          	srl	t1,t5,0x18

0010e044 <i0000001f32>:
  10e044:	fd106813          	or	a6,zero,-47

0010e048 <i0000001f33>:
  10e048:	4099d733          	sra	a4,s3,s1

0010e04c <i0000001f34>:
  10e04c:	011795b3          	sll	a1,a5,a7

0010e050 <i0000001f35>:
  10e050:	05324013          	xor	zero,tp,83

0010e054 <i0000001f36>:
  10e054:	45f90f13          	add	t5,s2,1119

0010e058 <i0000001f37>:
  10e058:	00e6d513          	srl	a0,a3,0xe

0010e05c <i0000001f38>:
  10e05c:	09bec513          	xor	a0,t4,155

0010e060 <i0000001f39>:
  10e060:	00022e33          	sltz	t3,tp

0010e064 <i0000001f3a>:
  10e064:	50714503          	lbu	a0,1287(sp)

0010e068 <i0000001f3b>:
  10e068:	2fef8897          	auipc	a7,0x2fef8

0010e06c <i0000001f3c>:
  10e06c:	24fa4613          	xor	a2,s4,591

0010e070 <i0000001f3d>:
  10e070:	d7210703          	lb	a4,-654(sp)

0010e074 <i0000001f3e>:
  10e074:	f0015203          	lhu	tp,-256(sp)

0010e078 <i0000001f3f>:
  10e078:	d0812003          	lw	zero,-760(sp)
  10e07c:	00c00b13          	li	s6,12
  10e080:	001d0d13          	add	s10,s10,1

0010e084 <b0000001f40>:
  10e084:	00000033          	add	zero,zero,zero
  10e088:	ff6d10e3          	bne	s10,s6,10e068 <i0000001f3b>
  10e08c:	00000033          	add	zero,zero,zero
  10e090:	00a00d13          	li	s10,10

0010e094 <i0000001f40>:
  10e094:	66211a83          	lh	s5,1634(sp)

0010e098 <i0000001f41>:
  10e098:	ebf11623          	sh	t6,-340(sp)

0010e09c <i0000001f42>:
  10e09c:	0d5e2393          	slti	t2,t3,213

0010e0a0 <i0000001f43>:
  10e0a0:	00c634b3          	sltu	s1,a2,a2

0010e0a4 <i0000001f44>:
  10e0a4:	bd415e03          	lhu	t3,-1068(sp)
  10e0a8:	00001117          	auipc	sp,0x1
  10e0ac:	05810113          	add	sp,sp,88 # 10f100 <mem>
  10e0b0:	0004b337          	lui	t1,0x4b
  10e0b4:	47830313          	add	t1,t1,1144 # 4b478 <tohost+0x2b470>
  10e0b8:	00610133          	add	sp,sp,t1

0010e0bc <i0000001f45>:
  10e0bc:	7eb109a3          	sb	a1,2035(sp)

0010e0c0 <i0000001f46>:
  10e0c0:	68510023          	sb	t0,1664(sp)

0010e0c4 <i0000001f47>:
  10e0c4:	00f25893          	srl	a7,tp,0xf

0010e0c8 <i0000001f48>:
  10e0c8:	da0f7f13          	and	t5,t5,-608

0010e0cc <i0000001f49>:
  10e0cc:	14e14203          	lbu	tp,334(sp)

0010e0d0 <i0000001f4a>:
  10e0d0:	44e10623          	sb	a4,1100(sp)
  10e0d4:	00001117          	auipc	sp,0x1
  10e0d8:	02c10113          	add	sp,sp,44 # 10f100 <mem>
  10e0dc:	00046337          	lui	t1,0x46
  10e0e0:	5c030313          	add	t1,t1,1472 # 465c0 <tohost+0x265b8>
  10e0e4:	00610133          	add	sp,sp,t1

0010e0e8 <i0000001f4b>:
  10e0e8:	f6010ca3          	sb	zero,-135(sp)

0010e0ec <i0000001f4c>:
  10e0ec:	ff212023          	sw	s2,-32(sp)

0010e0f0 <i0000001f4d>:
  10e0f0:	f2012e23          	sw	zero,-196(sp)

0010e0f4 <i0000001f4e>:
  10e0f4:	91211583          	lh	a1,-1774(sp)
  10e0f8:	00001117          	auipc	sp,0x1
  10e0fc:	00810113          	add	sp,sp,8 # 10f100 <mem>
  10e100:	0005f337          	lui	t1,0x5f
  10e104:	a9830313          	add	t1,t1,-1384 # 5ea98 <tohost+0x3ea90>
  10e108:	00610133          	add	sp,sp,t1

0010e10c <i0000001f4f>:
  10e10c:	c2a12023          	sw	a0,-992(sp)

0010e110 <i0000001f50>:
  10e110:	01622233          	slt	tp,tp,s6

0010e114 <i0000001f51>:
  10e114:	5b712223          	sw	s7,1444(sp)

0010e118 <i0000001f52>:
  10e118:	90a10e83          	lb	t4,-1782(sp)
  10e11c:	00900a93          	li	s5,9

0010e120 <b0000001f53>:
  10e120:	00000033          	add	zero,zero,zero
  10e124:	fdaad8e3          	bge	s5,s10,10e0f4 <i0000001f4e>
  10e128:	00000033          	add	zero,zero,zero
  10e12c:	00a00d13          	li	s10,10

0010e130 <i0000001f53>:
  10e130:	dff11e23          	sh	t6,-516(sp)

0010e134 <i0000001f54>:
  10e134:	dd011923          	sh	a6,-558(sp)

0010e138 <i0000001f55>:
  10e138:	7025db17          	auipc	s6,0x7025d

0010e13c <i0000001f56>:
  10e13c:	da411403          	lh	s0,-604(sp)

0010e140 <i0000001f57>:
  10e140:	dcc11723          	sh	a2,-562(sp)

0010e144 <i0000001f58>:
  10e144:	01e22633          	slt	a2,tp,t5

0010e148 <i0000001f59>:
  10e148:	01e05233          	srl	tp,zero,t5
  10e14c:	00001117          	auipc	sp,0x1
  10e150:	fb410113          	add	sp,sp,-76 # 10f100 <mem>
  10e154:	00010337          	lui	t1,0x10
  10e158:	c8030313          	add	t1,t1,-896 # fc80 <_stack_len+0x7c80>
  10e15c:	00610133          	add	sp,sp,t1

0010e160 <i0000001f5a>:
  10e160:	a0710803          	lb	a6,-1529(sp)

0010e164 <i0000001f5b>:
  10e164:	90653213          	sltiu	tp,a0,-1786

0010e168 <i0000001f5c>:
  10e168:	79d102a3          	sb	t4,1925(sp)

0010e16c <i0000001f5d>:
  10e16c:	412bddb3          	sra	s11,s7,s2

0010e170 <i0000001f5e>:
  10e170:	01d74c33          	xor	s8,a4,t4

0010e174 <i0000001f5f>:
  10e174:	dea11f03          	lh	t5,-534(sp)

0010e178 <i0000001f60>:
  10e178:	40400533          	neg	a0,tp

0010e17c <i0000001f61>:
  10e17c:	40f3dd93          	sra	s11,t2,0xf

0010e180 <i0000001f62>:
  10e180:	00027fb3          	and	t6,tp,zero

0010e184 <i0000001f63>:
  10e184:	588db013          	sltiu	zero,s11,1416

0010e188 <i0000001f64>:
  10e188:	b2012a23          	sw	zero,-1228(sp)

0010e18c <i0000001f65>:
  10e18c:	2c110003          	lb	zero,705(sp)

0010e190 <b0000001f66>:
  10e190:	00000c97          	auipc	s9,0x0
  10e194:	024c8c93          	add	s9,s9,36 # 10e1b4 <i0000001f6c>
  10e198:	000c8567          	jalr	a0,s9

0010e19c <i0000001f66>:
  10e19c:	4c8100a3          	sb	s0,1217(sp)

0010e1a0 <i0000001f67>:
  10e1a0:	35815203          	lhu	tp,856(sp)

0010e1a4 <i0000001f68>:
  10e1a4:	0184b033          	sltu	zero,s1,s8

0010e1a8 <i0000001f69>:
  10e1a8:	004ffd97          	auipc	s11,0x4ff

0010e1ac <i0000001f6a>:
  10e1ac:	0079e833          	or	a6,s3,t2

0010e1b0 <i0000001f6b>:
  10e1b0:	62c3b037          	lui	zero,0x62c3b

0010e1b4 <i0000001f6c>:
  10e1b4:	5ea12023          	sw	a0,1504(sp)

0010e1b8 <i0000001f6d>:
  10e1b8:	63e15a83          	lhu	s5,1598(sp)

0010e1bc <i0000001f6e>:
  10e1bc:	09010123          	sb	a6,130(sp)

0010e1c0 <i0000001f6f>:
  10e1c0:	5a614f83          	lbu	t6,1446(sp)

0010e1c4 <i0000001f70>:
  10e1c4:	40a004b3          	neg	s1,a0

0010e1c8 <i0000001f71>:
  10e1c8:	2e9c6017          	auipc	zero,0x2e9c6

0010e1cc <i0000001f72>:
  10e1cc:	00454e33          	xor	t3,a0,tp

0010e1d0 <i0000001f73>:
  10e1d0:	33815003          	lhu	zero,824(sp)

0010e1d4 <i0000001f74>:
  10e1d4:	7b714383          	lbu	t2,1975(sp)

0010e1d8 <i0000001f75>:
  10e1d8:	42a104a3          	sb	a0,1065(sp)

0010e1dc <i0000001f76>:
  10e1dc:	843105a3          	sb	gp,-1973(sp)

0010e1e0 <i0000001f77>:
  10e1e0:	4c610723          	sb	t1,1230(sp)

0010e1e4 <i0000001f78>:
  10e1e4:	54512e23          	sw	t0,1372(sp)
  10e1e8:	00c00c13          	li	s8,12
  10e1ec:	00a00d13          	li	s10,10

0010e1f0 <b0000001f79>:
  10e1f0:	00000033          	add	zero,zero,zero
  10e1f4:	058d4663          	blt	s10,s8,10e240 <i0000001f84>
  10e1f8:	00000033          	add	zero,zero,zero
  10e1fc:	00a00d13          	li	s10,10

0010e200 <i0000001f79>:
  10e200:	f6998793          	add	a5,s3,-151 # 4c913181 <fromhost+0x4c78b171>

0010e204 <i0000001f7a>:
  10e204:	01c898b3          	sll	a7,a7,t3

0010e208 <i0000001f7b>:
  10e208:	5a410183          	lb	gp,1444(sp)
  10e20c:	00001117          	auipc	sp,0x1
  10e210:	ef410113          	add	sp,sp,-268 # 10f100 <mem>
  10e214:	0004f337          	lui	t1,0x4f
  10e218:	8a830313          	add	t1,t1,-1880 # 4e8a8 <tohost+0x2e8a0>
  10e21c:	00610133          	add	sp,sp,t1

0010e220 <i0000001f7c>:
  10e220:	ce510503          	lb	a0,-795(sp)

0010e224 <i0000001f7d>:
  10e224:	56211b03          	lh	s6,1378(sp)

0010e228 <i0000001f7e>:
  10e228:	00c21493          	sll	s1,tp,0xc

0010e22c <i0000001f7f>:
  10e22c:	82c60b13          	add	s6,a2,-2004 # 28bb182c <fromhost+0x28a2981c>

0010e230 <i0000001f80>:
  10e230:	0128d3b3          	srl	t2,a7,s2

0010e234 <i0000001f81>:
  10e234:	62f66593          	or	a1,a2,1583

0010e238 <i0000001f82>:
  10e238:	abc11783          	lh	a5,-1348(sp)

0010e23c <i0000001f83>:
  10e23c:	00004f33          	xor	t5,zero,zero

0010e240 <i0000001f84>:
  10e240:	8d211223          	sh	s2,-1852(sp)

0010e244 <i0000001f85>:
  10e244:	07e10203          	lb	tp,126(sp)

0010e248 <i0000001f86>:
  10e248:	3aa11503          	lh	a0,938(sp)

0010e24c <i0000001f87>:
  10e24c:	016f5033          	srl	zero,t5,s6

0010e250 <i0000001f88>:
  10e250:	7263cb37          	lui	s6,0x7263c

0010e254 <i0000001f89>:
  10e254:	e0811603          	lh	a2,-504(sp)

0010e258 <i0000001f8a>:
  10e258:	c8811d83          	lh	s11,-888(sp)

0010e25c <i0000001f8b>:
  10e25c:	b14f0993          	add	s3,t5,-1260
  10e260:	00b00b13          	li	s6,11
  10e264:	00a00d13          	li	s10,10

0010e268 <b0000001f8c>:
  10e268:	00000033          	add	zero,zero,zero
  10e26c:	05ab5263          	bge	s6,s10,10e2b0 <i0000001f95>
  10e270:	00000033          	add	zero,zero,zero
  10e274:	00a00d13          	li	s10,10

0010e278 <i0000001f8c>:
  10e278:	c9cc4b13          	xor	s6,s8,-868

0010e27c <i0000001f8d>:
  10e27c:	004f6f33          	or	t5,t5,tp

0010e280 <i0000001f8e>:
  10e280:	96d14003          	lbu	zero,-1683(sp)

0010e284 <i0000001f8f>:
  10e284:	d3012803          	lw	a6,-720(sp)

0010e288 <i0000001f90>:
  10e288:	adc10d83          	lb	s11,-1316(sp)

0010e28c <i0000001f91>:
  10e28c:	ab510c03          	lb	s8,-1355(sp)
  10e290:	00001117          	auipc	sp,0x1
  10e294:	e7010113          	add	sp,sp,-400 # 10f100 <mem>
  10e298:	00064337          	lui	t1,0x64
  10e29c:	b5830313          	add	t1,t1,-1192 # 63b58 <tohost+0x43b50>
  10e2a0:	00610133          	add	sp,sp,t1

0010e2a4 <i0000001f92>:
  10e2a4:	57f11023          	sh	t6,1376(sp)

0010e2a8 <i0000001f93>:
  10e2a8:	01d84c33          	xor	s8,a6,t4

0010e2ac <i0000001f94>:
  10e2ac:	efe104a3          	sb	t5,-279(sp)

0010e2b0 <i0000001f95>:
  10e2b0:	01649f13          	sll	t5,s1,0x16

0010e2b4 <i0000001f96>:
  10e2b4:	41e45f13          	sra	t5,s0,0x1e
  10e2b8:	00001117          	auipc	sp,0x1
  10e2bc:	e4810113          	add	sp,sp,-440 # 10f100 <mem>
  10e2c0:	00049337          	lui	t1,0x49
  10e2c4:	8e830313          	add	t1,t1,-1816 # 488e8 <tohost+0x288e0>
  10e2c8:	00610133          	add	sp,sp,t1

0010e2cc <i0000001f97>:
  10e2cc:	0d810e83          	lb	t4,216(sp)

0010e2d0 <i0000001f98>:
  10e2d0:	7f411383          	lh	t2,2036(sp)

0010e2d4 <i0000001f99>:
  10e2d4:	e3314f83          	lbu	t6,-461(sp)

0010e2d8 <i0000001f9a>:
  10e2d8:	00bc14b3          	sll	s1,s8,a1

0010e2dc <i0000001f9b>:
  10e2dc:	e9012003          	lw	zero,-368(sp)

0010e2e0 <i0000001f9c>:
  10e2e0:	00424833          	xor	a6,tp,tp

0010e2e4 <i0000001f9d>:
  10e2e4:	3ea15a83          	lhu	s5,1002(sp)

0010e2e8 <i0000001f9e>:
  10e2e8:	67812503          	lw	a0,1656(sp)
  10e2ec:	00a00f93          	li	t6,10
  10e2f0:	00a00d13          	li	s10,10

0010e2f4 <b0000001f9f>:
  10e2f4:	00000033          	add	zero,zero,zero
  10e2f8:	05fd1263          	bne	s10,t6,10e33c <i0000001fad>
  10e2fc:	00000033          	add	zero,zero,zero
  10e300:	00a00d13          	li	s10,10

0010e304 <i0000001f9f>:
  10e304:	016518b3          	sll	a7,a0,s6

0010e308 <i0000001fa0>:
  10e308:	01e051b3          	srl	gp,zero,t5

0010e30c <i0000001fa1>:
  10e30c:	71bf0993          	add	s3,t5,1819

0010e310 <i0000001fa2>:
  10e310:	00f55c93          	srl	s9,a0,0xf

0010e314 <i0000001fa3>:
  10e314:	92bb4513          	xor	a0,s6,-1749

0010e318 <i0000001fa4>:
  10e318:	015c5f13          	srl	t5,s8,0x15

0010e31c <i0000001fa5>:
  10e31c:	01654033          	xor	zero,a0,s6

0010e320 <i0000001fa6>:
  10e320:	52f76993          	or	s3,a4,1327

0010e324 <i0000001fa7>:
  10e324:	00056233          	or	tp,a0,zero

0010e328 <i0000001fa8>:
  10e328:	04056013          	or	zero,a0,64

0010e32c <i0000001fa9>:
  10e32c:	4087d793          	sra	a5,a5,0x8

0010e330 <i0000001faa>:
  10e330:	62b35037          	lui	zero,0x62b35

0010e334 <i0000001fab>:
  10e334:	0039a033          	slt	zero,s3,gp

0010e338 <i0000001fac>:
  10e338:	a8b57513          	and	a0,a0,-1397

0010e33c <i0000001fad>:
  10e33c:	018ef5b3          	and	a1,t4,s8

0010e340 <i0000001fae>:
  10e340:	41ef0233          	sub	tp,t5,t5

0010e344 <i0000001faf>:
  10e344:	15904213          	xor	tp,zero,345

0010e348 <i0000001fb0>:
  10e348:	77142717          	auipc	a4,0x77142

0010e34c <i0000001fb1>:
  10e34c:	439fe313          	or	t1,t6,1081
  10e350:	00b00b13          	li	s6,11
  10e354:	00a00d13          	li	s10,10

0010e358 <b0000001fb2>:
  10e358:	00000033          	add	zero,zero,zero
  10e35c:	036d1663          	bne	s10,s6,10e388 <i0000001fba>
  10e360:	00000033          	add	zero,zero,zero
  10e364:	00a00d13          	li	s10,10

0010e368 <i0000001fb2>:
  10e368:	75416b17          	auipc	s6,0x75416

0010e36c <i0000001fb3>:
  10e36c:	d29af593          	and	a1,s5,-727

0010e370 <i0000001fb4>:
  10e370:	cf207993          	and	s3,zero,-782

0010e374 <i0000001fb5>:
  10e374:	01e25f33          	srl	t5,tp,t5

0010e378 <i0000001fb6>:
  10e378:	882b3293          	sltiu	t0,s6,-1918

0010e37c <i0000001fb7>:
  10e37c:	41805693          	sra	a3,zero,0x18

0010e380 <i0000001fb8>:
  10e380:	792ad517          	auipc	a0,0x792ad

0010e384 <i0000001fb9>:
  10e384:	01089893          	sll	a7,a7,0x10

0010e388 <i0000001fba>:
  10e388:	f3c53f13          	sltiu	t5,a0,-196

0010e38c <i0000001fbb>:
  10e38c:	0033c033          	xor	zero,t2,gp

0010e390 <i0000001fbc>:
  10e390:	01eb2233          	slt	tp,s6,t5

0010e394 <i0000001fbd>:
  10e394:	41e55b33          	sra	s6,a0,t5

0010e398 <i0000001fbe>:
  10e398:	01965b13          	srl	s6,a2,0x19

0010e39c <i0000001fbf>:
  10e39c:	01e27033          	and	zero,tp,t5

0010e3a0 <i0000001fc0>:
  10e3a0:	774b5c17          	auipc	s8,0x774b5

0010e3a4 <i0000001fc1>:
  10e3a4:	0129fc33          	and	s8,s3,s2

0010e3a8 <i0000001fc2>:
  10e3a8:	0186b333          	sltu	t1,a3,s8

0010e3ac <i0000001fc3>:
  10e3ac:	00380533          	add	a0,a6,gp

0010e3b0 <i0000001fc4>:
  10e3b0:	003c7b33          	and	s6,s8,gp
  10e3b4:	00900913          	li	s2,9
  10e3b8:	00a00d13          	li	s10,10

0010e3bc <b0000001fc5>:
  10e3bc:	00000033          	add	zero,zero,zero
  10e3c0:	05a95063          	bge	s2,s10,10e400 <i0000001fd2>
  10e3c4:	00000033          	add	zero,zero,zero
  10e3c8:	00a00d13          	li	s10,10

0010e3cc <i0000001fc5>:
  10e3cc:	01620f33          	add	t5,tp,s6

0010e3d0 <i0000001fc6>:
  10e3d0:	4d5f9597          	auipc	a1,0x4d5f9

0010e3d4 <i0000001fc7>:
  10e3d4:	00871633          	sll	a2,a4,s0

0010e3d8 <i0000001fc8>:
  10e3d8:	6c424213          	xor	tp,tp,1732

0010e3dc <i0000001fc9>:
  10e3dc:	186f4513          	xor	a0,t5,390

0010e3e0 <i0000001fca>:
  10e3e0:	01e21eb3          	sll	t4,tp,t5

0010e3e4 <i0000001fcb>:
  10e3e4:	2b1a0b13          	add	s6,s4,689 # 5eb182b1 <fromhost+0x5e9902a1>

0010e3e8 <i0000001fcc>:
  10e3e8:	005f9233          	sll	tp,t6,t0

0010e3ec <i0000001fcd>:
  10e3ec:	00540f33          	add	t5,s0,t0

0010e3f0 <i0000001fce>:
  10e3f0:	8affc213          	xor	tp,t6,-1873

0010e3f4 <i0000001fcf>:
  10e3f4:	e2bac193          	xor	gp,s5,-469

0010e3f8 <i0000001fd0>:
  10e3f8:	012a63b3          	or	t2,s4,s2

0010e3fc <i0000001fd1>:
  10e3fc:	01c8bb33          	sltu	s6,a7,t3

0010e400 <i0000001fd2>:
  10e400:	003fdb13          	srl	s6,t6,0x3

0010e404 <i0000001fd3>:
  10e404:	52c1b637          	lui	a2,0x52c1b

0010e408 <i0000001fd4>:
  10e408:	012f5913          	srl	s2,t5,0x12

0010e40c <i0000001fd5>:
  10e40c:	01e53633          	sltu	a2,a0,t5

0010e410 <i0000001fd6>:
  10e410:	3aa74593          	xor	a1,a4,938

0010e414 <i0000001fd7>:
  10e414:	b4c8a013          	slti	zero,a7,-1204
  10e418:	00c00913          	li	s2,12
  10e41c:	00a00d13          	li	s10,10

0010e420 <b0000001fd8>:
  10e420:	00000033          	add	zero,zero,zero
  10e424:	032d4463          	blt	s10,s2,10e44c <i0000001fdf>
  10e428:	00000033          	add	zero,zero,zero
  10e42c:	00a00d13          	li	s10,10

0010e430 <i0000001fd8>:
  10e430:	79836713          	or	a4,t1,1944

0010e434 <i0000001fd9>:
  10e434:	98b20813          	add	a6,tp,-1653 # 18898b <fromhost+0x97b>

0010e438 <i0000001fda>:
  10e438:	b27f3213          	sltiu	tp,t5,-1241

0010e43c <i0000001fdb>:
  10e43c:	01eb16b3          	sll	a3,s6,t5

0010e440 <i0000001fdc>:
  10e440:	68c9a017          	auipc	zero,0x68c9a

0010e444 <i0000001fdd>:
  10e444:	00889b13          	sll	s6,a7,0x8

0010e448 <i0000001fde>:
  10e448:	40addb93          	sra	s7,s11,0xa

0010e44c <i0000001fdf>:
  10e44c:	00eb5f13          	srl	t5,s6,0xe

0010e450 <i0000001fe0>:
  10e450:	2f3e3513          	sltiu	a0,t3,755

0010e454 <i0000001fe1>:
  10e454:	01289f33          	sll	t5,a7,s2

0010e458 <i0000001fe2>:
  10e458:	3cdfc413          	xor	s0,t6,973

0010e45c <i0000001fe3>:
  10e45c:	70637537          	lui	a0,0x70637

0010e460 <i0000001fe4>:
  10e460:	012cf8b3          	and	a7,s9,s2

0010e464 <i0000001fe5>:
  10e464:	88d8fc93          	and	s9,a7,-1907

0010e468 <i0000001fe6>:
  10e468:	266c0713          	add	a4,s8,614 # 775c3606 <fromhost+0x7743b5f6>

0010e46c <i0000001fe7>:
  10e46c:	00b45033          	srl	zero,s0,a1

0010e470 <i0000001fe8>:
  10e470:	bdc07313          	and	t1,zero,-1060

0010e474 <i0000001fe9>:
  10e474:	00405533          	srl	a0,zero,tp

0010e478 <i0000001fea>:
  10e478:	1b1ec917          	auipc	s2,0x1b1ec
  10e47c:	00a00893          	li	a7,10
  10e480:	00a00d13          	li	s10,10

0010e484 <b0000001feb>:
  10e484:	00000033          	add	zero,zero,zero
  10e488:	031d1463          	bne	s10,a7,10e4b0 <i0000001ff2>
  10e48c:	00000033          	add	zero,zero,zero
  10e490:	00a00d13          	li	s10,10

0010e494 <i0000001feb>:
  10e494:	32cb2e13          	slti	t3,s6,812

0010e498 <i0000001fec>:
  10e498:	0108d213          	srl	tp,a7,0x10

0010e49c <i0000001fed>:
  10e49c:	01d51813          	sll	a6,a0,0x1d

0010e4a0 <i0000001fee>:
  10e4a0:	017db233          	sltu	tp,s11,s7

0010e4a4 <i0000001fef>:
  10e4a4:	40005033          	sra	zero,zero,zero

0010e4a8 <i0000001ff0>:
  10e4a8:	01650f33          	add	t5,a0,s6

0010e4ac <i0000001ff1>:
  10e4ac:	01b89533          	sll	a0,a7,s11

0010e4b0 <i0000001ff2>:
  10e4b0:	00a50f33          	add	t5,a0,a0

0010e4b4 <i0000001ff3>:
  10e4b4:	7e2e1837          	lui	a6,0x7e2e1

0010e4b8 <i0000001ff4>:
  10e4b8:	01329533          	sll	a0,t0,s3

0010e4bc <i0000001ff5>:
  10e4bc:	47024493          	xor	s1,tp,1136

0010e4c0 <i0000001ff6>:
  10e4c0:	00a51533          	sll	a0,a0,a0

0010e4c4 <i0000001ff7>:
  10e4c4:	016214b3          	sll	s1,tp,s6

0010e4c8 <i0000001ff8>:
  10e4c8:	41f95293          	sra	t0,s2,0x1f

0010e4cc <i0000001ff9>:
  10e4cc:	7bb48317          	auipc	t1,0x7bb48

0010e4d0 <i0000001ffa>:
  10e4d0:	00007633          	and	a2,zero,zero

0010e4d4 <i0000001ffb>:
  10e4d4:	c76a6b13          	or	s6,s4,-906

0010e4d8 <i0000001ffc>:
  10e4d8:	77d66c93          	or	s9,a2,1917

0010e4dc <i0000001ffd>:
  10e4dc:	41e50033          	sub	zero,a0,t5
  10e4e0:	00900893          	li	a7,9
  10e4e4:	00a00d13          	li	s10,10

0010e4e8 <b0000001ffe>:
  10e4e8:	00000033          	add	zero,zero,zero
  10e4ec:	03a8d863          	bge	a7,s10,10e51c <i0000002007>
  10e4f0:	00000033          	add	zero,zero,zero
  10e4f4:	00a00d13          	li	s10,10

0010e4f8 <i0000001ffe>:
  10e4f8:	25141637          	lui	a2,0x25141

0010e4fc <i0000001fff>:
  10e4fc:	01d7b533          	sltu	a0,a5,t4

0010e500 <i0000002000>:
  10e500:	00a21233          	sll	tp,tp,a0

0010e504 <i0000002001>:
  10e504:	541f4213          	xor	tp,t5,1345

0010e508 <i0000002002>:
  10e508:	00632233          	slt	tp,t1,t1

0010e50c <i0000002003>:
  10e50c:	40dde537          	lui	a0,0x40dde

0010e510 <i0000002004>:
  10e510:	207c6a97          	auipc	s5,0x207c6

0010e514 <i0000002005>:
  10e514:	01499513          	sll	a0,s3,0x14

0010e518 <i0000002006>:
  10e518:	4d187537          	lui	a0,0x4d187

0010e51c <i0000002007>:
  10e51c:	004f6233          	or	tp,t5,tp

0010e520 <i0000002008>:
  10e520:	41c35513          	sra	a0,t1,0x1c

0010e524 <i0000002009>:
  10e524:	01606c33          	or	s8,zero,s6

0010e528 <i000000200a>:
  10e528:	40455f33          	sra	t5,a0,tp

0010e52c <i000000200b>:
  10e52c:	01531533          	sll	a0,t1,s5

0010e530 <i000000200c>:
  10e530:	41b55213          	sra	tp,a0,0x1b

0010e534 <i000000200d>:
  10e534:	011a0db3          	add	s11,s4,a7

0010e538 <i000000200e>:
  10e538:	35de4213          	xor	tp,t3,861

0010e53c <i000000200f>:
  10e53c:	baab3213          	sltiu	tp,s6,-1110

0010e540 <i0000002010>:
  10e540:	019a42b3          	xor	t0,s4,s9
  10e544:	00900913          	li	s2,9

0010e548 <b0000002011>:
  10e548:	00000033          	add	zero,zero,zero
  10e54c:	fd2d46e3          	blt	s10,s2,10e518 <i0000002006>
  10e550:	00000033          	add	zero,zero,zero
  10e554:	00a00d13          	li	s10,10

0010e558 <i0000002011>:
  10e558:	8d503513          	sltiu	a0,zero,-1835

0010e55c <i0000002012>:
  10e55c:	01d8b933          	sltu	s2,a7,t4

0010e560 <i0000002013>:
  10e560:	405b6313          	or	t1,s6,1029

0010e564 <i0000002014>:
  10e564:	00a51533          	sll	a0,a0,a0

0010e568 <i0000002015>:
  10e568:	01199193          	sll	gp,s3,0x11

0010e56c <i0000002016>:
  10e56c:	0192c6b3          	xor	a3,t0,s9

0010e570 <i0000002017>:
  10e570:	000b1233          	sll	tp,s6,zero

0010e574 <i0000002018>:
  10e574:	00e4a193          	slti	gp,s1,14

0010e578 <i0000002019>:
  10e578:	01490533          	add	a0,s2,s4

0010e57c <i000000201a>:
  10e57c:	291d3b37          	lui	s6,0x291d3

0010e580 <i000000201b>:
  10e580:	00a26833          	or	a6,tp,a0

0010e584 <i000000201c>:
  10e584:	1d4d0697          	auipc	a3,0x1d4d0

0010e588 <i000000201d>:
  10e588:	352dd297          	auipc	t0,0x352dd

0010e58c <i000000201e>:
  10e58c:	0079e633          	or	a2,s3,t2

0010e590 <i000000201f>:
  10e590:	007be533          	or	a0,s7,t2

0010e594 <i0000002020>:
  10e594:	843f2b13          	slti	s6,t5,-1981

0010e598 <i0000002021>:
  10e598:	09ef2013          	slti	zero,t5,158

0010e59c <i0000002022>:
  10e59c:	ba854f13          	xor	t5,a0,-1112

0010e5a0 <i0000002023>:
  10e5a0:	01b63f33          	sltu	t5,a2,s11
  10e5a4:	00c00a13          	li	s4,12
  10e5a8:	001d0d13          	add	s10,s10,1

0010e5ac <b0000002024>:
  10e5ac:	00000033          	add	zero,zero,zero
  10e5b0:	fdaa56e3          	bge	s4,s10,10e57c <i000000201a>
  10e5b4:	00000033          	add	zero,zero,zero
  10e5b8:	00a00d13          	li	s10,10

0010e5bc <i0000002024>:
  10e5bc:	41db87b3          	sub	a5,s7,t4

0010e5c0 <i0000002025>:
  10e5c0:	013fafb3          	slt	t6,t6,s3

0010e5c4 <i0000002026>:
  10e5c4:	698ba513          	slti	a0,s7,1688

0010e5c8 <i0000002027>:
  10e5c8:	00057f33          	and	t5,a0,zero

0010e5cc <i0000002028>:
  10e5cc:	41855293          	sra	t0,a0,0x18

0010e5d0 <i0000002029>:
  10e5d0:	983cf013          	and	zero,s9,-1661

0010e5d4 <i000000202a>:
  10e5d4:	d2e5ca13          	xor	s4,a1,-722

0010e5d8 <i000000202b>:
  10e5d8:	005accb3          	xor	s9,s5,t0

0010e5dc <i000000202c>:
  10e5dc:	33450a13          	add	s4,a0,820 # 4d187334 <fromhost+0x4cfff324>

0010e5e0 <i000000202d>:
  10e5e0:	79777b93          	and	s7,a4,1943

0010e5e4 <i000000202e>:
  10e5e4:	aca1b213          	sltiu	tp,gp,-1334

0010e5e8 <i000000202f>:
  10e5e8:	40a50533          	sub	a0,a0,a0

0010e5ec <i0000002030>:
  10e5ec:	cd1cb213          	sltiu	tp,s9,-815

0010e5f0 <i0000002031>:
  10e5f0:	9026c613          	xor	a2,a3,-1790

0010e5f4 <i0000002032>:
  10e5f4:	01705c93          	srl	s9,zero,0x17

0010e5f8 <i0000002033>:
  10e5f8:	40d40533          	sub	a0,s0,a3

0010e5fc <i0000002034>:
  10e5fc:	40e05293          	sra	t0,zero,0xe

0010e600 <i0000002035>:
  10e600:	00004b33          	xor	s6,zero,zero

0010e604 <i0000002036>:
  10e604:	08bf4e93          	xor	t4,t5,139
  10e608:	00c00d93          	li	s11,12
  10e60c:	001d0d13          	add	s10,s10,1

0010e610 <b0000002037>:
  10e610:	00000033          	add	zero,zero,zero
  10e614:	fdbd46e3          	blt	s10,s11,10e5e0 <i000000202d>
  10e618:	00000033          	add	zero,zero,zero
  10e61c:	00a00d13          	li	s10,10

0010e620 <i0000002037>:
  10e620:	00de9013          	sll	zero,t4,0xd

0010e624 <i0000002038>:
  10e624:	00a01933          	sll	s2,zero,a0

0010e628 <i0000002039>:
  10e628:	27c50517          	auipc	a0,0x27c50

0010e62c <i000000203a>:
  10e62c:	320ba013          	slti	zero,s7,800

0010e630 <i000000203b>:
  10e630:	69574ab7          	lui	s5,0x69574

0010e634 <i000000203c>:
  10e634:	00251f13          	sll	t5,a0,0x2

0010e638 <i000000203d>:
  10e638:	01eb1bb3          	sll	s7,s6,t5

0010e63c <i000000203e>:
  10e63c:	404008b3          	neg	a7,tp

0010e640 <i000000203f>:
  10e640:	41e05b33          	sra	s6,zero,t5

0010e644 <i0000002040>:
  10e644:	016f7b33          	and	s6,t5,s6

0010e648 <i0000002041>:
  10e648:	00ab57b3          	srl	a5,s6,a0

0010e64c <i0000002042>:
  10e64c:	cf3d8493          	add	s1,s11,-781 # 60ce9b <fromhost+0x484e8b>

0010e650 <i0000002043>:
  10e650:	e5cf4013          	xor	zero,t5,-420

0010e654 <i0000002044>:
  10e654:	01741db3          	sll	s11,s0,s7

0010e658 <i0000002045>:
  10e658:	01569493          	sll	s1,a3,0x15

0010e65c <i0000002046>:
  10e65c:	493a6193          	or	gp,s4,1171

0010e660 <i0000002047>:
  10e660:	4045db13          	sra	s6,a1,0x4

0010e664 <i0000002048>:
  10e664:	139fc013          	xor	zero,t6,313

0010e668 <i0000002049>:
  10e668:	b1de8013          	add	zero,t4,-1251
  10e66c:	00a00c13          	li	s8,10
  10e670:	00a00d13          	li	s10,10

0010e674 <b000000204a>:
  10e674:	00000033          	add	zero,zero,zero
  10e678:	038d1463          	bne	s10,s8,10e6a0 <i0000002051>
  10e67c:	00000033          	add	zero,zero,zero
  10e680:	00a00d13          	li	s10,10

0010e684 <i000000204a>:
  10e684:	9bd53b13          	sltiu	s6,a0,-1603

0010e688 <i000000204b>:
  10e688:	5ff23f13          	sltiu	t5,tp,1535

0010e68c <i000000204c>:
  10e68c:	719c6713          	or	a4,s8,1817

0010e690 <i000000204d>:
  10e690:	4faa78b7          	lui	a7,0x4faa7

0010e694 <i000000204e>:
  10e694:	40a50c33          	sub	s8,a0,a0

0010e698 <i000000204f>:
  10e698:	00501513          	sll	a0,zero,0x5

0010e69c <i0000002050>:
  10e69c:	2ec91417          	auipc	s0,0x2ec91

0010e6a0 <i0000002051>:
  10e6a0:	016b39b3          	sltu	s3,s6,s6

0010e6a4 <i0000002052>:
  10e6a4:	41d9dfb3          	sra	t6,s3,t4

0010e6a8 <i0000002053>:
  10e6a8:	00ab41b3          	xor	gp,s6,a0

0010e6ac <i0000002054>:
  10e6ac:	41eb0433          	sub	s0,s6,t5

0010e6b0 <i0000002055>:
  10e6b0:	309856b7          	lui	a3,0x30985

0010e6b4 <i0000002056>:
  10e6b4:	0099adb3          	slt	s11,s3,s1

0010e6b8 <i0000002057>:
  10e6b8:	016f5033          	srl	zero,t5,s6

0010e6bc <i0000002058>:
  10e6bc:	004b7333          	and	t1,s6,tp

0010e6c0 <i0000002059>:
  10e6c0:	37e84013          	xor	zero,a6,894

0010e6c4 <i000000205a>:
  10e6c4:	00a05033          	srl	zero,zero,a0

0010e6c8 <i000000205b>:
  10e6c8:	01196b33          	or	s6,s2,a7

0010e6cc <i000000205c>:
  10e6cc:	40ff5b13          	sra	s6,t5,0xf
  10e6d0:	00900993          	li	s3,9
  10e6d4:	00a00d13          	li	s10,10

0010e6d8 <b000000205d>:
  10e6d8:	00000033          	add	zero,zero,zero
  10e6dc:	05a9d063          	bge	s3,s10,10e71c <i000000206a>
  10e6e0:	00000033          	add	zero,zero,zero
  10e6e4:	00a00d13          	li	s10,10

0010e6e8 <i000000205d>:
  10e6e8:	cfeb0b13          	add	s6,s6,-770 # 291d2cfe <fromhost+0x2904acee>

0010e6ec <i000000205e>:
  10e6ec:	e8600b93          	li	s7,-378

0010e6f0 <i000000205f>:
  10e6f0:	00006233          	or	tp,zero,zero

0010e6f4 <i0000002060>:
  10e6f4:	41165613          	sra	a2,a2,0x11

0010e6f8 <i0000002061>:
  10e6f8:	41e05933          	sra	s2,zero,t5

0010e6fc <i0000002062>:
  10e6fc:	d5c3a213          	slti	tp,t2,-676

0010e700 <i0000002063>:
  10e700:	40bc5533          	sra	a0,s8,a1

0010e704 <i0000002064>:
  10e704:	7ea25297          	auipc	t0,0x7ea25

0010e708 <i0000002065>:
  10e708:	000068b3          	or	a7,zero,zero

0010e70c <i0000002066>:
  10e70c:	00e21e13          	sll	t3,tp,0xe

0010e710 <i0000002067>:
  10e710:	013c4e33          	xor	t3,s8,s3

0010e714 <i0000002068>:
  10e714:	01925513          	srl	a0,tp,0x19

0010e718 <i0000002069>:
  10e718:	008c64b3          	or	s1,s8,s0

0010e71c <i000000206a>:
  10e71c:	09743eb7          	lui	t4,0x9743

0010e720 <i000000206b>:
  10e720:	66749217          	auipc	tp,0x66749

0010e724 <i000000206c>:
  10e724:	ed444013          	xor	zero,s0,-300

0010e728 <i000000206d>:
  10e728:	00529013          	sll	zero,t0,0x5

0010e72c <i000000206e>:
  10e72c:	0172bbb3          	sltu	s7,t0,s7

0010e730 <i000000206f>:
  10e730:	011c3f33          	sltu	t5,s8,a7
  10e734:	00c00e13          	li	t3,12
  10e738:	00a00d13          	li	s10,10

0010e73c <b0000002070>:
  10e73c:	00000033          	add	zero,zero,zero
  10e740:	05cd4063          	blt	s10,t3,10e780 <i000000207d>
  10e744:	00000033          	add	zero,zero,zero
  10e748:	00a00d13          	li	s10,10

0010e74c <i0000002070>:
  10e74c:	000553b3          	srl	t2,a0,zero

0010e750 <i0000002071>:
  10e750:	4231ea93          	or	s5,gp,1059

0010e754 <i0000002072>:
  10e754:	004b1233          	sll	tp,s6,tp

0010e758 <i0000002073>:
  10e758:	40366f13          	or	t5,a2,1027

0010e75c <i0000002074>:
  10e75c:	6b556517          	auipc	a0,0x6b556

0010e760 <i0000002075>:
  10e760:	4ce9c013          	xor	zero,s3,1230

0010e764 <i0000002076>:
  10e764:	016b3b33          	sltu	s6,s6,s6

0010e768 <i0000002077>:
  10e768:	004a1c13          	sll	s8,s4,0x4

0010e76c <i0000002078>:
  10e76c:	01944833          	xor	a6,s0,s9

0010e770 <i0000002079>:
  10e770:	4bf53eb7          	lui	t4,0x4bf53

0010e774 <i000000207a>:
  10e774:	51adf013          	and	zero,s11,1306

0010e778 <i000000207b>:
  10e778:	01cdd013          	srl	zero,s11,0x1c

0010e77c <i000000207c>:
  10e77c:	0122deb3          	srl	t4,t0,s2

0010e780 <i000000207d>:
  10e780:	00ab3fb3          	sltu	t6,s6,a0

0010e784 <i000000207e>:
  10e784:	0102f4b3          	and	s1,t0,a6

0010e788 <i000000207f>:
  10e788:	dde24413          	xor	s0,tp,-546

0010e78c <i0000002080>:
  10e78c:	00e93fb3          	sltu	t6,s2,a4

0010e790 <i0000002081>:
  10e790:	01335533          	srl	a0,t1,s3

0010e794 <i0000002082>:
  10e794:	39b26513          	or	a0,tp,923
  10e798:	00c00913          	li	s2,12
  10e79c:	001d0d13          	add	s10,s10,1

0010e7a0 <b0000002083>:
  10e7a0:	012d0863          	beq	s10,s2,10e7b0 <b0000002083+0x10>
  10e7a4:	00000917          	auipc	s2,0x0
  10e7a8:	fc090913          	add	s2,s2,-64 # 10e764 <i0000002076>
  10e7ac:	00090567          	jalr	a0,s2
  10e7b0:	00a00d13          	li	s10,10

0010e7b4 <i0000002083>:
  10e7b4:	4c1d1a37          	lui	s4,0x4c1d1

0010e7b8 <i0000002084>:
  10e7b8:	00cf9533          	sll	a0,t6,a2

0010e7bc <i0000002085>:
  10e7bc:	01f356b3          	srl	a3,t1,t6

0010e7c0 <i0000002086>:
  10e7c0:	23afb513          	sltiu	a0,t6,570

0010e7c4 <i0000002087>:
  10e7c4:	c60f7213          	and	tp,t5,-928

0010e7c8 <i0000002088>:
  10e7c8:	e3d20493          	add	s1,tp,-451 # 6685755d <fromhost+0x666cf54d>

0010e7cc <i0000002089>:
  10e7cc:	41bd85b3          	sub	a1,s11,s11

0010e7d0 <i000000208a>:
  10e7d0:	b5ca0213          	add	tp,s4,-1188 # 4c1d0b5c <fromhost+0x4c048b4c>

0010e7d4 <i000000208b>:
  10e7d4:	007675b3          	and	a1,a2,t2

0010e7d8 <i000000208c>:
  10e7d8:	014eb033          	sltu	zero,t4,s4

0010e7dc <i000000208d>:
  10e7dc:	008c8533          	add	a0,s9,s0

0010e7e0 <i000000208e>:
  10e7e0:	01d79233          	sll	tp,a5,t4

0010e7e4 <i000000208f>:
  10e7e4:	9e183513          	sltiu	a0,a6,-1567

0010e7e8 <i0000002090>:
  10e7e8:	d8277613          	and	a2,a4,-638

0010e7ec <i0000002091>:
  10e7ec:	ca904213          	xor	tp,zero,-855

0010e7f0 <i0000002092>:
  10e7f0:	01e20533          	add	a0,tp,t5

0010e7f4 <i0000002093>:
  10e7f4:	db027013          	and	zero,tp,-592

0010e7f8 <i0000002094>:
  10e7f8:	16d85917          	auipc	s2,0x16d85

0010e7fc <i0000002095>:
  10e7fc:	01ef1f33          	sll	t5,t5,t5
  10e800:	00c00893          	li	a7,12
  10e804:	00a00d13          	li	s10,10

0010e808 <b0000002096>:
  10e808:	00000033          	add	zero,zero,zero
  10e80c:	031d4663          	blt	s10,a7,10e838 <i000000209e>
  10e810:	00000033          	add	zero,zero,zero
  10e814:	00a00d13          	li	s10,10

0010e818 <i0000002096>:
  10e818:	5287ef93          	or	t6,a5,1320

0010e81c <i0000002097>:
  10e81c:	16b3b213          	sltiu	tp,t2,363

0010e820 <i0000002098>:
  10e820:	00129993          	sll	s3,t0,0x1

0010e824 <i0000002099>:
  10e824:	413b3b13          	sltiu	s6,s6,1043

0010e828 <i000000209a>:
  10e828:	9fdbbb13          	sltiu	s6,s7,-1539

0010e82c <i000000209b>:
  10e82c:	400252b3          	sra	t0,tp,zero

0010e830 <i000000209c>:
  10e830:	a1543f93          	sltiu	t6,s0,-1515

0010e834 <i000000209d>:
  10e834:	00d6d033          	srl	zero,a3,a3

0010e838 <i000000209e>:
  10e838:	8c49af13          	slti	t5,s3,-1852

0010e83c <i000000209f>:
  10e83c:	00420c33          	add	s8,tp,tp

0010e840 <i00000020a0>:
  10e840:	00a22c33          	slt	s8,tp,a0

0010e844 <i00000020a1>:
  10e844:	9b8b3613          	sltiu	a2,s6,-1608

0010e848 <i00000020a2>:
  10e848:	4c548893          	add	a7,s1,1221 # 2ea1236d <fromhost+0x2e88a35d>

0010e84c <i00000020a3>:
  10e84c:	29a17217          	auipc	tp,0x29a17

0010e850 <i00000020a4>:
  10e850:	fd228013          	add	zero,t0,-46 # 7eb336d6 <fromhost+0x7e9ab6c6>

0010e854 <i00000020a5>:
  10e854:	01245c33          	srl	s8,s0,s2

0010e858 <i00000020a6>:
  10e858:	01985e33          	srl	t3,a6,s9

0010e85c <i00000020a7>:
  10e85c:	00e51593          	sll	a1,a0,0xe

0010e860 <i00000020a8>:
  10e860:	00b5b5b3          	sltu	a1,a1,a1

0010e864 <b00000020a9>:
  10e864:	0300056f          	jal	a0,10e894 <i00000020b4>

0010e868 <i00000020a9>:
  10e868:	7a960697          	auipc	a3,0x7a960

0010e86c <i00000020aa>:
  10e86c:	008a7f33          	and	t5,s4,s0

0010e870 <i00000020ab>:
  10e870:	016525b3          	slt	a1,a0,s6

0010e874 <i00000020ac>:
  10e874:	00ec7733          	and	a4,s8,a4

0010e878 <i00000020ad>:
  10e878:	015befb3          	or	t6,s7,s5

0010e87c <i00000020ae>:
  10e87c:	add3a013          	slti	zero,t2,-1315

0010e880 <i00000020af>:
  10e880:	000b0233          	add	tp,s6,zero

0010e884 <i00000020b0>:
  10e884:	01b05a93          	srl	s5,zero,0x1b

0010e888 <i00000020b1>:
  10e888:	33adfc37          	lui	s8,0x33adf

0010e88c <i00000020b2>:
  10e88c:	ca357a13          	and	s4,a0,-861

0010e890 <i00000020b3>:
  10e890:	01e56233          	or	tp,a0,t5

0010e894 <i00000020b4>:
  10e894:	000b4033          	xor	zero,s6,zero

0010e898 <i00000020b5>:
  10e898:	404058b3          	sra	a7,zero,tp

0010e89c <i00000020b6>:
  10e89c:	4e11e5b7          	lui	a1,0x4e11e

0010e8a0 <i00000020b7>:
  10e8a0:	41168333          	sub	t1,a3,a7

0010e8a4 <i00000020b8>:
  10e8a4:	b73a2313          	slti	t1,s4,-1165

0010e8a8 <i00000020b9>:
  10e8a8:	00cc08b3          	add	a7,s8,a2

0010e8ac <i00000020ba>:
  10e8ac:	35c8e813          	or	a6,a7,860

0010e8b0 <i00000020bb>:
  10e8b0:	00a009b3          	add	s3,zero,a0
  10e8b4:	00000f93          	li	t6,0

0010e8b8 <b00000020bc>:
  10e8b8:	00000033          	add	zero,zero,zero
  10e8bc:	03fd0a63          	beq	s10,t6,10e8f0 <i00000020c6>
  10e8c0:	00000033          	add	zero,zero,zero
  10e8c4:	00a00d13          	li	s10,10

0010e8c8 <i00000020bc>:
  10e8c8:	65f9e213          	or	tp,s3,1631

0010e8cc <i00000020bd>:
  10e8cc:	0003d213          	srl	tp,t2,0x0

0010e8d0 <i00000020be>:
  10e8d0:	014a54b3          	srl	s1,s4,s4

0010e8d4 <i00000020bf>:
  10e8d4:	40835213          	sra	tp,t1,0x8

0010e8d8 <i00000020c0>:
  10e8d8:	00d4ce33          	xor	t3,s1,a3

0010e8dc <i00000020c1>:
  10e8dc:	048b4893          	xor	a7,s6,72

0010e8e0 <i00000020c2>:
  10e8e0:	411d8033          	sub	zero,s11,a7

0010e8e4 <i00000020c3>:
  10e8e4:	01eb2933          	slt	s2,s6,t5

0010e8e8 <i00000020c4>:
  10e8e8:	009e0eb3          	add	t4,t3,s1

0010e8ec <i00000020c5>:
  10e8ec:	00e66033          	or	zero,a2,a4

0010e8f0 <i00000020c6>:
  10e8f0:	00640a33          	add	s4,s0,t1

0010e8f4 <i00000020c7>:
  10e8f4:	f3dca213          	slti	tp,s9,-195

0010e8f8 <i00000020c8>:
  10e8f8:	0b9f3393          	sltiu	t2,t5,185

0010e8fc <i00000020c9>:
  10e8fc:	01e21533          	sll	a0,tp,t5

0010e900 <i00000020ca>:
  10e900:	41625db3          	sra	s11,tp,s6

0010e904 <i00000020cb>:
  10e904:	00c7ce33          	xor	t3,a5,a2

0010e908 <i00000020cc>:
  10e908:	00427a33          	and	s4,tp,tp

0010e90c <i00000020cd>:
  10e90c:	01925513          	srl	a0,tp,0x19

0010e910 <i00000020ce>:
  10e910:	45faff17          	auipc	t5,0x45faf
  10e914:	00c00b13          	li	s6,12
  10e918:	001d0d13          	add	s10,s10,1

0010e91c <b00000020cf>:
  10e91c:	016d0863          	beq	s10,s6,10e92c <b00000020cf+0x10>
  10e920:	00000b17          	auipc	s6,0x0
  10e924:	fbcb0b13          	add	s6,s6,-68 # 10e8dc <i00000020c1>
  10e928:	000b0567          	jalr	a0,s6
  10e92c:	00a00d13          	li	s10,10

0010e930 <i00000020cf>:
  10e930:	2462a017          	auipc	zero,0x2462a

0010e934 <i00000020d0>:
  10e934:	4078d213          	sra	tp,a7,0x7

0010e938 <i00000020d1>:
  10e938:	000556b3          	srl	a3,a0,zero

0010e93c <i00000020d2>:
  10e93c:	01855f13          	srl	t5,a0,0x18

0010e940 <i00000020d3>:
  10e940:	5c8cba97          	auipc	s5,0x5c8cb

0010e944 <i00000020d4>:
  10e944:	00026a33          	or	s4,tp,zero

0010e948 <i00000020d5>:
  10e948:	30054f93          	xor	t6,a0,768

0010e94c <i00000020d6>:
  10e94c:	40668fb3          	sub	t6,a3,t1

0010e950 <i00000020d7>:
  10e950:	00022eb3          	sltz	t4,tp

0010e954 <i00000020d8>:
  10e954:	40c6d213          	sra	tp,a3,0xc

0010e958 <i00000020d9>:
  10e958:	012aab33          	slt	s6,s5,s2

0010e95c <i00000020da>:
  10e95c:	7ca4c537          	lui	a0,0x7ca4c

0010e960 <i00000020db>:
  10e960:	42e8fc17          	auipc	s8,0x42e8f

0010e964 <i00000020dc>:
  10e964:	01ef2b33          	slt	s6,t5,t5

0010e968 <i00000020dd>:
  10e968:	79fea393          	slti	t2,t4,1951

0010e96c <i00000020de>:
  10e96c:	55404193          	xor	gp,zero,1364

0010e970 <i00000020df>:
  10e970:	41e504b3          	sub	s1,a0,t5

0010e974 <i00000020e0>:
  10e974:	005e8ab3          	add	s5,t4,t0

0010e978 <i00000020e1>:
  10e978:	41e55233          	sra	tp,a0,t5
  10e97c:	00900f93          	li	t6,9
  10e980:	00a00d13          	li	s10,10

0010e984 <b00000020e2>:
  10e984:	00000033          	add	zero,zero,zero
  10e988:	05afd063          	bge	t6,s10,10e9c8 <i00000020ef>
  10e98c:	00000033          	add	zero,zero,zero
  10e990:	00a00d13          	li	s10,10

0010e994 <i00000020e2>:
  10e994:	00af7f33          	and	t5,t5,a0

0010e998 <i00000020e3>:
  10e998:	010af233          	and	tp,s5,a6

0010e99c <i00000020e4>:
  10e99c:	4284b013          	sltiu	zero,s1,1064

0010e9a0 <i00000020e5>:
  10e9a0:	00e75f13          	srl	t5,a4,0xe

0010e9a4 <i00000020e6>:
  10e9a4:	f8507813          	and	a6,zero,-123

0010e9a8 <i00000020e7>:
  10e9a8:	2b627d93          	and	s11,tp,694

0010e9ac <i00000020e8>:
  10e9ac:	01e04f33          	xor	t5,zero,t5

0010e9b0 <i00000020e9>:
  10e9b0:	41c8d3b3          	sra	t2,a7,t3

0010e9b4 <i00000020ea>:
  10e9b4:	4075de13          	sra	t3,a1,0x7

0010e9b8 <i00000020eb>:
  10e9b8:	01770fb3          	add	t6,a4,s7

0010e9bc <i00000020ec>:
  10e9bc:	4be03b13          	sltiu	s6,zero,1214

0010e9c0 <i00000020ed>:
  10e9c0:	57076f97          	auipc	t6,0x57076

0010e9c4 <i00000020ee>:
  10e9c4:	c6527b13          	and	s6,tp,-923

0010e9c8 <i00000020ef>:
  10e9c8:	20b80013          	add	zero,a6,523 # 7e2e120b <fromhost+0x7e1591fb>

0010e9cc <i00000020f0>:
  10e9cc:	08ff4493          	xor	s1,t5,143

0010e9d0 <i00000020f1>:
  10e9d0:	014f9213          	sll	tp,t6,0x14

0010e9d4 <i00000020f2>:
  10e9d4:	65752293          	slti	t0,a0,1623

0010e9d8 <i00000020f3>:
  10e9d8:	5f322413          	slti	s0,tp,1523

0010e9dc <i00000020f4>:
  10e9dc:	d516ab13          	slti	s6,a3,-687

0010e9e0 <b00000020f5>:
  10e9e0:	00000a97          	auipc	s5,0x0
  10e9e4:	040a8a93          	add	s5,s5,64 # 10ea20 <i0000002102>
  10e9e8:	000a8567          	jalr	a0,s5

0010e9ec <i00000020f5>:
  10e9ec:	77907413          	and	s0,zero,1913

0010e9f0 <i00000020f6>:
  10e9f0:	40ab0b33          	sub	s6,s6,a0

0010e9f4 <i00000020f7>:
  10e9f4:	dd343b13          	sltiu	s6,s0,-557

0010e9f8 <i00000020f8>:
  10e9f8:	01f25813          	srl	a6,tp,0x1f

0010e9fc <i00000020f9>:
  10e9fc:	003c15b3          	sll	a1,s8,gp

0010ea00 <i00000020fa>:
  10ea00:	00004233          	xor	tp,zero,zero

0010ea04 <i00000020fb>:
  10ea04:	46af0f13          	add	t5,t5,1130 # 460bdd7a <fromhost+0x45f35d6a>

0010ea08 <i00000020fc>:
  10ea08:	0179b833          	sltu	a6,s3,s7

0010ea0c <i00000020fd>:
  10ea0c:	400f5733          	sra	a4,t5,zero

0010ea10 <i00000020fe>:
  10ea10:	66062013          	slti	zero,a2,1632

0010ea14 <i00000020ff>:
  10ea14:	4ceaab37          	lui	s6,0x4ceaa

0010ea18 <i0000002100>:
  10ea18:	01c5c333          	xor	t1,a1,t3

0010ea1c <i0000002101>:
  10ea1c:	00051b33          	sll	s6,a0,zero

0010ea20 <i0000002102>:
  10ea20:	00407733          	and	a4,zero,tp

0010ea24 <i0000002103>:
  10ea24:	00ab5b13          	srl	s6,s6,0xa

0010ea28 <i0000002104>:
  10ea28:	4012df13          	sra	t5,t0,0x1

0010ea2c <i0000002105>:
  10ea2c:	b2890293          	add	t0,s2,-1240 # 16e93320 <fromhost+0x16d0b310>

0010ea30 <i0000002106>:
  10ea30:	007354b3          	srl	s1,t1,t2

0010ea34 <i0000002107>:
  10ea34:	0b919797          	auipc	a5,0xb919
  10ea38:	00c00c13          	li	s8,12
  10ea3c:	00a00d13          	li	s10,10

0010ea40 <b0000002108>:
  10ea40:	00000033          	add	zero,zero,zero
  10ea44:	038d4063          	blt	s10,s8,10ea64 <i000000210d>
  10ea48:	00000033          	add	zero,zero,zero
  10ea4c:	00a00d13          	li	s10,10

0010ea50 <i0000002108>:
  10ea50:	01263633          	sltu	a2,a2,s2

0010ea54 <i0000002109>:
  10ea54:	00050ab3          	add	s5,a0,zero

0010ea58 <i000000210a>:
  10ea58:	00b45593          	srl	a1,s0,0xb

0010ea5c <i000000210b>:
  10ea5c:	66880a93          	add	s5,a6,1640

0010ea60 <i000000210c>:
  10ea60:	007daa33          	slt	s4,s11,t2

0010ea64 <i000000210d>:
  10ea64:	4b0a7c97          	auipc	s9,0x4b0a7

0010ea68 <i000000210e>:
  10ea68:	004b2233          	slt	tp,s6,tp

0010ea6c <i000000210f>:
  10ea6c:	41e05633          	sra	a2,zero,t5

0010ea70 <i0000002110>:
  10ea70:	012fcab3          	xor	s5,t6,s2

0010ea74 <i0000002111>:
  10ea74:	3202eb13          	or	s6,t0,800

0010ea78 <i0000002112>:
  10ea78:	01eb4f33          	xor	t5,s6,t5

0010ea7c <i0000002113>:
  10ea7c:	9bbdad93          	slti	s11,s11,-1605

0010ea80 <i0000002114>:
  10ea80:	0088d613          	srl	a2,a7,0x8

0010ea84 <i0000002115>:
  10ea84:	01f2ee33          	or	t3,t0,t6

0010ea88 <i0000002116>:
  10ea88:	40f77513          	and	a0,a4,1039

0010ea8c <i0000002117>:
  10ea8c:	769733b7          	lui	t2,0x76973

0010ea90 <i0000002118>:
  10ea90:	00a50533          	add	a0,a0,a0

0010ea94 <i0000002119>:
  10ea94:	01081213          	sll	tp,a6,0x10

0010ea98 <i000000211a>:
  10ea98:	40a25b33          	sra	s6,tp,a0
  10ea9c:	00900b93          	li	s7,9
  10eaa0:	00a00d13          	li	s10,10

0010eaa4 <b000000211b>:
  10eaa4:	00000033          	add	zero,zero,zero
  10eaa8:	037d4463          	blt	s10,s7,10ead0 <i0000002122>
  10eaac:	00000033          	add	zero,zero,zero
  10eab0:	00a00d13          	li	s10,10

0010eab4 <i000000211b>:
  10eab4:	01e91013          	sll	zero,s2,0x1e

0010eab8 <i000000211c>:
  10eab8:	c6de3293          	sltiu	t0,t3,-915

0010eabc <i000000211d>:
  10eabc:	0091df93          	srl	t6,gp,0x9

0010eac0 <i000000211e>:
  10eac0:	010bdb33          	srl	s6,s7,a6

0010eac4 <i000000211f>:
  10eac4:	00a558b3          	srl	a7,a0,a0

0010eac8 <i0000002120>:
  10eac8:	0087d633          	srl	a2,a5,s0

0010eacc <i0000002121>:
  10eacc:	01e23433          	sltu	s0,tp,t5

0010ead0 <i0000002122>:
  10ead0:	00ab1233          	sll	tp,s6,a0

0010ead4 <i0000002123>:
  10ead4:	40995b33          	sra	s6,s2,s1

0010ead8 <i0000002124>:
  10ead8:	414dd793          	sra	a5,s11,0x14

0010eadc <i0000002125>:
  10eadc:	c6426013          	or	zero,tp,-924

0010eae0 <i0000002126>:
  10eae0:	8d596613          	or	a2,s2,-1835

0010eae4 <i0000002127>:
  10eae4:	00af7533          	and	a0,t5,a0

0010eae8 <i0000002128>:
  10eae8:	01781533          	sll	a0,a6,s7

0010eaec <i0000002129>:
  10eaec:	00003533          	snez	a0,zero

0010eaf0 <i000000212a>:
  10eaf0:	07c5e213          	or	tp,a1,124

0010eaf4 <i000000212b>:
  10eaf4:	01bc39b3          	sltu	s3,s8,s11

0010eaf8 <i000000212c>:
  10eaf8:	01652ab3          	slt	s5,a0,s6

0010eafc <i000000212d>:
  10eafc:	00026b33          	or	s6,tp,zero
  10eb00:	00900a13          	li	s4,9

0010eb04 <b000000212e>:
  10eb04:	00000033          	add	zero,zero,zero
  10eb08:	fd4d4ae3          	blt	s10,s4,10eadc <i0000002125>
  10eb0c:	00000033          	add	zero,zero,zero
  10eb10:	00a00d13          	li	s10,10

0010eb14 <i000000212e>:
  10eb14:	403987b3          	sub	a5,s3,gp

0010eb18 <i000000212f>:
  10eb18:	016f69b3          	or	s3,t5,s6

0010eb1c <i0000002130>:
  10eb1c:	46a53393          	sltiu	t2,a0,1130

0010eb20 <i0000002131>:
  10eb20:	000224b3          	sltz	s1,tp

0010eb24 <i0000002132>:
  10eb24:	00a208b3          	add	a7,tp,a0

0010eb28 <i0000002133>:
  10eb28:	b319ff13          	and	t5,s3,-1231

0010eb2c <i0000002134>:
  10eb2c:	846f7213          	and	tp,t5,-1978

0010eb30 <i0000002135>:
  10eb30:	40450f33          	sub	t5,a0,tp

0010eb34 <i0000002136>:
  10eb34:	00339f93          	sll	t6,t2,0x3

0010eb38 <i0000002137>:
  10eb38:	41655f33          	sra	t5,a0,s6

0010eb3c <i0000002138>:
  10eb3c:	406dd7b3          	sra	a5,s11,t1

0010eb40 <i0000002139>:
  10eb40:	a7a48313          	add	t1,s1,-1414

0010eb44 <i000000213a>:
  10eb44:	555cfe13          	and	t3,s9,1365

0010eb48 <i000000213b>:
  10eb48:	40050b33          	sub	s6,a0,zero

0010eb4c <i000000213c>:
  10eb4c:	00ba9593          	sll	a1,s5,0xb

0010eb50 <i000000213d>:
  10eb50:	00ab63b3          	or	t2,s6,a0

0010eb54 <i000000213e>:
  10eb54:	7988a937          	lui	s2,0x7988a

0010eb58 <i000000213f>:
  10eb58:	ae553793          	sltiu	a5,a0,-1307

0010eb5c <i0000002140>:
  10eb5c:	49623a13          	sltiu	s4,tp,1174
  10eb60:	00a00f93          	li	t6,10

0010eb64 <b0000002141>:
  10eb64:	00000033          	add	zero,zero,zero
  10eb68:	fffd12e3          	bne	s10,t6,10eb4c <i000000213c>
  10eb6c:	00000033          	add	zero,zero,zero
  10eb70:	00a00d13          	li	s10,10

0010eb74 <i0000002141>:
  10eb74:	20affeb7          	lui	t4,0x20aff

0010eb78 <i0000002142>:
  10eb78:	00405233          	srl	tp,zero,tp

0010eb7c <i0000002143>:
  10eb7c:	00a95213          	srl	tp,s2,0xa

0010eb80 <i0000002144>:
  10eb80:	d11b0513          	add	a0,s6,-751 # 4cea9d11 <fromhost+0x4cd21d01>

0010eb84 <i0000002145>:
  10eb84:	00960513          	add	a0,a2,9 # 25141009 <fromhost+0x24fb8ff9>

0010eb88 <i0000002146>:
  10eb88:	4dbb0d93          	add	s11,s6,1243

0010eb8c <i0000002147>:
  10eb8c:	00add813          	srl	a6,s11,0xa

0010eb90 <i0000002148>:
  10eb90:	01e05233          	srl	tp,zero,t5

0010eb94 <i0000002149>:
  10eb94:	00fa6bb3          	or	s7,s4,a5

0010eb98 <i000000214a>:
  10eb98:	1cb82393          	slti	t2,a6,459

0010eb9c <i000000214b>:
  10eb9c:	f9f7cc93          	xor	s9,a5,-97

0010eba0 <i000000214c>:
  10eba0:	003cd593          	srl	a1,s9,0x3

0010eba4 <i000000214d>:
  10eba4:	00457233          	and	tp,a0,tp

0010eba8 <i000000214e>:
  10eba8:	12491237          	lui	tp,0x12491

0010ebac <i000000214f>:
  10ebac:	00af5533          	srl	a0,t5,a0

0010ebb0 <i0000002150>:
  10ebb0:	69827593          	and	a1,tp,1688

0010ebb4 <i0000002151>:
  10ebb4:	01a7d293          	srl	t0,a5,0x1a

0010ebb8 <i0000002152>:
  10ebb8:	7336e593          	or	a1,a3,1843

0010ebbc <i0000002153>:
  10ebbc:	af1e4f13          	xor	t5,t3,-1295
  10ebc0:	00a00e93          	li	t4,10

0010ebc4 <b0000002154>:
  10ebc4:	00000033          	add	zero,zero,zero
  10ebc8:	fddd10e3          	bne	s10,t4,10eb88 <i0000002146>
  10ebcc:	00000033          	add	zero,zero,zero
  10ebd0:	00a00d13          	li	s10,10

0010ebd4 <i0000002154>:
  10ebd4:	009b9533          	sll	a0,s7,s1

0010ebd8 <i0000002155>:
  10ebd8:	01221a93          	sll	s5,tp,0x12

0010ebdc <i0000002156>:
  10ebdc:	26e1f713          	and	a4,gp,622

0010ebe0 <i0000002157>:
  10ebe0:	400b5233          	sra	tp,s6,zero

0010ebe4 <i0000002158>:
  10ebe4:	404f0b33          	sub	s6,t5,tp

0010ebe8 <i0000002159>:
  10ebe8:	000257b3          	srl	a5,tp,zero

0010ebec <i000000215a>:
  10ebec:	bf4b3513          	sltiu	a0,s6,-1036

0010ebf0 <i000000215b>:
  10ebf0:	00883fb3          	sltu	t6,a6,s0

0010ebf4 <i000000215c>:
  10ebf4:	54954593          	xor	a1,a0,1353

0010ebf8 <i000000215d>:
  10ebf8:	00056233          	or	tp,a0,zero

0010ebfc <i000000215e>:
  10ebfc:	00a207b3          	add	a5,tp,a0

0010ec00 <i000000215f>:
  10ec00:	012b9913          	sll	s2,s7,0x12

0010ec04 <i0000002160>:
  10ec04:	01b49813          	sll	a6,s1,0x1b

0010ec08 <i0000002161>:
  10ec08:	00536a33          	or	s4,t1,t0

0010ec0c <i0000002162>:
  10ec0c:	01c1c533          	xor	a0,gp,t3

0010ec10 <i0000002163>:
  10ec10:	002a5393          	srl	t2,s4,0x2

0010ec14 <i0000002164>:
  10ec14:	f01be193          	or	gp,s7,-255

0010ec18 <i0000002165>:
  10ec18:	011653b3          	srl	t2,a2,a7

0010ec1c <i0000002166>:
  10ec1c:	01225b13          	srl	s6,tp,0x12
  10ec20:	00c00a93          	li	s5,12
  10ec24:	001d0d13          	add	s10,s10,1

0010ec28 <b0000002167>:
  10ec28:	00000033          	add	zero,zero,zero
  10ec2c:	fd5d4ae3          	blt	s10,s5,10ec00 <i000000215f>
  10ec30:	00000033          	add	zero,zero,zero
  10ec34:	00a00d13          	li	s10,10
  10ec38:	00008067          	ret

0010ec3c <default_exc_handler>:
  10ec3c:	2580006f          	j	10ee94 <simple_exc_handler>

0010ec40 <timer_handler>:
  10ec40:	3940006f          	j	10efd4 <simple_timer_handler>

0010ec44 <reset_handler>:
  10ec44:	00000093          	li	ra,0
  10ec48:	00008113          	mv	sp,ra
  10ec4c:	00008193          	mv	gp,ra
  10ec50:	00008213          	mv	tp,ra
  10ec54:	00008293          	mv	t0,ra
  10ec58:	00008313          	mv	t1,ra
  10ec5c:	00008393          	mv	t2,ra
  10ec60:	00008413          	mv	s0,ra
  10ec64:	00008493          	mv	s1,ra
  10ec68:	00008513          	mv	a0,ra
  10ec6c:	00008593          	mv	a1,ra
  10ec70:	00008613          	mv	a2,ra
  10ec74:	00008693          	mv	a3,ra
  10ec78:	00008713          	mv	a4,ra
  10ec7c:	00008793          	mv	a5,ra
  10ec80:	00008813          	mv	a6,ra
  10ec84:	00008893          	mv	a7,ra
  10ec88:	00008913          	mv	s2,ra
  10ec8c:	00008993          	mv	s3,ra
  10ec90:	00008a13          	mv	s4,ra
  10ec94:	00008a93          	mv	s5,ra
  10ec98:	00008b13          	mv	s6,ra
  10ec9c:	00008b93          	mv	s7,ra
  10eca0:	00008c13          	mv	s8,ra
  10eca4:	00008c93          	mv	s9,ra
  10eca8:	00008d13          	mv	s10,ra
  10ecac:	00008d93          	mv	s11,ra
  10ecb0:	00008e13          	mv	t3,ra
  10ecb4:	00008e93          	mv	t4,ra
  10ecb8:	00008f13          	mv	t5,ra
  10ecbc:	00008f93          	mv	t6,ra
  10ecc0:	00079117          	auipc	sp,0x79
  10ecc4:	34010113          	add	sp,sp,832 # 188000 <_stack_start>

0010ecc8 <_start>:
  10ecc8:	00070d17          	auipc	s10,0x70
  10eccc:	438d0d13          	add	s10,s10,1080 # 17f100 <time_increment>
  10ecd0:	00070d97          	auipc	s11,0x70
  10ecd4:	440d8d93          	add	s11,s11,1088 # 17f110 <_bss_end>
  10ecd8:	01bd5863          	bge	s10,s11,10ece8 <main_entry>

0010ecdc <zero_loop>:
  10ecdc:	000d2023          	sw	zero,0(s10)
  10ece0:	004d0d13          	add	s10,s10,4
  10ece4:	ffaddce3          	bge	s11,s10,10ecdc <zero_loop>

0010ece8 <main_entry>:
  10ece8:	00000513          	li	a0,0
  10ecec:	00000593          	li	a1,0
  10ecf0:	e30f10ef          	jal	100320 <main>
  10ecf4:	000202b7          	lui	t0,0x20
  10ecf8:	00828293          	add	t0,t0,8 # 20008 <tohost>
  10ecfc:	00100313          	li	t1,1
  10ed00:	0062a023          	sw	t1,0(t0)

0010ed04 <sleep_loop>:
  10ed04:	10500073          	wfi
  10ed08:	ffdff06f          	j	10ed04 <sleep_loop>

0010ed0c <putchar>:
  10ed0c:	0ff57793          	zext.b	a5,a0
  10ed10:	00020737          	lui	a4,0x20
  10ed14:	00f72023          	sw	a5,0(a4) # 20000 <_stack_len+0x18000>
  10ed18:	00008067          	ret

0010ed1c <puts>:
  10ed1c:	00020737          	lui	a4,0x20
  10ed20:	00054783          	lbu	a5,0(a0) # 7ca4c000 <fromhost+0x7c8c3ff0>
  10ed24:	00079663          	bnez	a5,10ed30 <puts+0x14>
  10ed28:	00000513          	li	a0,0
  10ed2c:	00008067          	ret
  10ed30:	00150513          	add	a0,a0,1
  10ed34:	00f72023          	sw	a5,0(a4) # 20000 <_stack_len+0x18000>
  10ed38:	fe9ff06f          	j	10ed20 <puts+0x4>

0010ed3c <puthex>:
  10ed3c:	00800713          	li	a4,8
  10ed40:	00900613          	li	a2,9
  10ed44:	000206b7          	lui	a3,0x20
  10ed48:	01c55793          	srl	a5,a0,0x1c
  10ed4c:	00f66e63          	bltu	a2,a5,10ed68 <puthex+0x2c>
  10ed50:	03078793          	add	a5,a5,48 # ba27a64 <fromhost+0xb89fa54>
  10ed54:	00f6a023          	sw	a5,0(a3) # 20000 <_stack_len+0x18000>
  10ed58:	fff70713          	add	a4,a4,-1
  10ed5c:	00451513          	sll	a0,a0,0x4
  10ed60:	fe0714e3          	bnez	a4,10ed48 <puthex+0xc>
  10ed64:	00008067          	ret
  10ed68:	03778793          	add	a5,a5,55
  10ed6c:	fe9ff06f          	j	10ed54 <puthex+0x18>

0010ed70 <sim_halt>:
  10ed70:	000207b7          	lui	a5,0x20
  10ed74:	00100713          	li	a4,1
  10ed78:	00e7a423          	sw	a4,8(a5) # 20008 <tohost>
  10ed7c:	00008067          	ret

0010ed80 <pcount_reset>:
  10ed80:	b0201073          	csrw	minstret,zero
  10ed84:	b0001073          	csrw	mcycle,zero
  10ed88:	b0301073          	csrw	mhpmcounter3,zero
  10ed8c:	b0401073          	csrw	mhpmcounter4,zero
  10ed90:	b0501073          	csrw	mhpmcounter5,zero
  10ed94:	b0601073          	csrw	mhpmcounter6,zero
  10ed98:	b0701073          	csrw	mhpmcounter7,zero
  10ed9c:	b0801073          	csrw	mhpmcounter8,zero
  10eda0:	b0901073          	csrw	mhpmcounter9,zero
  10eda4:	b0a01073          	csrw	mhpmcounter10,zero
  10eda8:	b0b01073          	csrw	mhpmcounter11,zero
  10edac:	b0c01073          	csrw	mhpmcounter12,zero
  10edb0:	b0d01073          	csrw	mhpmcounter13,zero
  10edb4:	b0e01073          	csrw	mhpmcounter14,zero
  10edb8:	b0f01073          	csrw	mhpmcounter15,zero
  10edbc:	b1001073          	csrw	mhpmcounter16,zero
  10edc0:	b1101073          	csrw	mhpmcounter17,zero
  10edc4:	b1201073          	csrw	mhpmcounter18,zero
  10edc8:	b1301073          	csrw	mhpmcounter19,zero
  10edcc:	b1401073          	csrw	mhpmcounter20,zero
  10edd0:	b1501073          	csrw	mhpmcounter21,zero
  10edd4:	b1601073          	csrw	mhpmcounter22,zero
  10edd8:	b1701073          	csrw	mhpmcounter23,zero
  10eddc:	b1801073          	csrw	mhpmcounter24,zero
  10ede0:	b1901073          	csrw	mhpmcounter25,zero
  10ede4:	b1a01073          	csrw	mhpmcounter26,zero
  10ede8:	b1b01073          	csrw	mhpmcounter27,zero
  10edec:	b1c01073          	csrw	mhpmcounter28,zero
  10edf0:	b1d01073          	csrw	mhpmcounter29,zero
  10edf4:	b1e01073          	csrw	mhpmcounter30,zero
  10edf8:	b1f01073          	csrw	mhpmcounter31,zero
  10edfc:	b8201073          	csrw	minstreth,zero
  10ee00:	b8001073          	csrw	mcycleh,zero
  10ee04:	b8301073          	csrw	mhpmcounter3h,zero
  10ee08:	b8401073          	csrw	mhpmcounter4h,zero
  10ee0c:	b8501073          	csrw	mhpmcounter5h,zero
  10ee10:	b8601073          	csrw	mhpmcounter6h,zero
  10ee14:	b8701073          	csrw	mhpmcounter7h,zero
  10ee18:	b8801073          	csrw	mhpmcounter8h,zero
  10ee1c:	b8901073          	csrw	mhpmcounter9h,zero
  10ee20:	b8a01073          	csrw	mhpmcounter10h,zero
  10ee24:	b8b01073          	csrw	mhpmcounter11h,zero
  10ee28:	b8c01073          	csrw	mhpmcounter12h,zero
  10ee2c:	b8d01073          	csrw	mhpmcounter13h,zero
  10ee30:	b8e01073          	csrw	mhpmcounter14h,zero
  10ee34:	b8f01073          	csrw	mhpmcounter15h,zero
  10ee38:	b9001073          	csrw	mhpmcounter16h,zero
  10ee3c:	b9101073          	csrw	mhpmcounter17h,zero
  10ee40:	b9201073          	csrw	mhpmcounter18h,zero
  10ee44:	b9301073          	csrw	mhpmcounter19h,zero
  10ee48:	b9401073          	csrw	mhpmcounter20h,zero
  10ee4c:	b9501073          	csrw	mhpmcounter21h,zero
  10ee50:	b9601073          	csrw	mhpmcounter22h,zero
  10ee54:	b9701073          	csrw	mhpmcounter23h,zero
  10ee58:	b9801073          	csrw	mhpmcounter24h,zero
  10ee5c:	b9901073          	csrw	mhpmcounter25h,zero
  10ee60:	b9a01073          	csrw	mhpmcounter26h,zero
  10ee64:	b9b01073          	csrw	mhpmcounter27h,zero
  10ee68:	b9c01073          	csrw	mhpmcounter28h,zero
  10ee6c:	b9d01073          	csrw	mhpmcounter29h,zero
  10ee70:	b9e01073          	csrw	mhpmcounter30h,zero
  10ee74:	b9f01073          	csrw	mhpmcounter31h,zero
  10ee78:	00008067          	ret

0010ee7c <get_mepc>:
  10ee7c:	34102573          	csrr	a0,mepc
  10ee80:	00008067          	ret

0010ee84 <get_mcause>:
  10ee84:	34202573          	csrr	a0,mcause
  10ee88:	00008067          	ret

0010ee8c <get_mtval>:
  10ee8c:	34302573          	csrr	a0,mtval
  10ee90:	00008067          	ret

0010ee94 <simple_exc_handler>:
  10ee94:	ff010113          	add	sp,sp,-16
  10ee98:	00000517          	auipc	a0,0x0
  10ee9c:	22450513          	add	a0,a0,548 # 10f0bc <simple_timer_handler+0xe8>
  10eea0:	00112623          	sw	ra,12(sp)
  10eea4:	e79ff0ef          	jal	10ed1c <puts>
  10eea8:	00000517          	auipc	a0,0x0
  10eeac:	22450513          	add	a0,a0,548 # 10f0cc <simple_timer_handler+0xf8>
  10eeb0:	e6dff0ef          	jal	10ed1c <puts>
  10eeb4:	00000517          	auipc	a0,0x0
  10eeb8:	22850513          	add	a0,a0,552 # 10f0dc <simple_timer_handler+0x108>
  10eebc:	e61ff0ef          	jal	10ed1c <puts>
  10eec0:	34102573          	csrr	a0,mepc
  10eec4:	e79ff0ef          	jal	10ed3c <puthex>
  10eec8:	00000517          	auipc	a0,0x0
  10eecc:	22050513          	add	a0,a0,544 # 10f0e8 <simple_timer_handler+0x114>
  10eed0:	e4dff0ef          	jal	10ed1c <puts>
  10eed4:	34202573          	csrr	a0,mcause
  10eed8:	e65ff0ef          	jal	10ed3c <puthex>
  10eedc:	00000517          	auipc	a0,0x0
  10eee0:	21850513          	add	a0,a0,536 # 10f0f4 <simple_timer_handler+0x120>
  10eee4:	e39ff0ef          	jal	10ed1c <puts>
  10eee8:	34302573          	csrr	a0,mtval
  10eeec:	e51ff0ef          	jal	10ed3c <puthex>
  10eef0:	000207b7          	lui	a5,0x20
  10eef4:	00a00713          	li	a4,10
  10eef8:	00e7a023          	sw	a4,0(a5) # 20000 <_stack_len+0x18000>
  10eefc:	00100713          	li	a4,1
  10ef00:	00e7a423          	sw	a4,8(a5)
  10ef04:	0000006f          	j	10ef04 <simple_exc_handler+0x70>

0010ef08 <timer_disable>:
  10ef08:	08000793          	li	a5,128
  10ef0c:	3047b073          	csrc	mie,a5
  10ef10:	00008067          	ret

0010ef14 <timer_read>:
  10ef14:	000307b7          	lui	a5,0x30
  10ef18:	0047a703          	lw	a4,4(a5) # 30004 <tohost+0xfffc>
  10ef1c:	0007a503          	lw	a0,0(a5)
  10ef20:	0047a583          	lw	a1,4(a5)
  10ef24:	fee59ae3          	bne	a1,a4,10ef18 <timer_read+0x4>
  10ef28:	00008067          	ret

0010ef2c <timecmp_update>:
  10ef2c:	000307b7          	lui	a5,0x30
  10ef30:	fff00713          	li	a4,-1
  10ef34:	00e7a423          	sw	a4,8(a5) # 30008 <tohost+0x10000>
  10ef38:	00b7a623          	sw	a1,12(a5)
  10ef3c:	00a7a423          	sw	a0,8(a5)
  10ef40:	00008067          	ret

0010ef44 <timer_enable>:
  10ef44:	ff010113          	add	sp,sp,-16
  10ef48:	00112623          	sw	ra,12(sp)
  10ef4c:	00812423          	sw	s0,8(sp)
  10ef50:	00912223          	sw	s1,4(sp)
  10ef54:	00000693          	li	a3,0
  10ef58:	00070797          	auipc	a5,0x70
  10ef5c:	1b078793          	add	a5,a5,432 # 17f108 <time_elapsed>
  10ef60:	00d7a023          	sw	a3,0(a5)
  10ef64:	00000713          	li	a4,0
  10ef68:	00e7a223          	sw	a4,4(a5)
  10ef6c:	00070797          	auipc	a5,0x70
  10ef70:	19478793          	add	a5,a5,404 # 17f100 <time_increment>
  10ef74:	00050413          	mv	s0,a0
  10ef78:	00058493          	mv	s1,a1
  10ef7c:	00a7a023          	sw	a0,0(a5)
  10ef80:	00b7a223          	sw	a1,4(a5)
  10ef84:	f91ff0ef          	jal	10ef14 <timer_read>
  10ef88:	00a40533          	add	a0,s0,a0
  10ef8c:	00853433          	sltu	s0,a0,s0
  10ef90:	00b485b3          	add	a1,s1,a1
  10ef94:	00b405b3          	add	a1,s0,a1
  10ef98:	f95ff0ef          	jal	10ef2c <timecmp_update>
  10ef9c:	08000793          	li	a5,128
  10efa0:	3047a073          	csrs	mie,a5
  10efa4:	00800793          	li	a5,8
  10efa8:	3007a073          	csrs	mstatus,a5
  10efac:	00c12083          	lw	ra,12(sp)
  10efb0:	00812403          	lw	s0,8(sp)
  10efb4:	00412483          	lw	s1,4(sp)
  10efb8:	01010113          	add	sp,sp,16
  10efbc:	00008067          	ret

0010efc0 <get_elapsed_time>:
  10efc0:	00070797          	auipc	a5,0x70
  10efc4:	14878793          	add	a5,a5,328 # 17f108 <time_elapsed>
  10efc8:	0007a503          	lw	a0,0(a5)
  10efcc:	0047a583          	lw	a1,4(a5)
  10efd0:	00008067          	ret

0010efd4 <simple_timer_handler>:
  10efd4:	fb010113          	add	sp,sp,-80
  10efd8:	02f12023          	sw	a5,32(sp)
  10efdc:	00070797          	auipc	a5,0x70
  10efe0:	12478793          	add	a5,a5,292 # 17f100 <time_increment>
  10efe4:	02812e23          	sw	s0,60(sp)
  10efe8:	0007a403          	lw	s0,0(a5)
  10efec:	02912c23          	sw	s1,56(sp)
  10eff0:	0047a483          	lw	s1,4(a5)
  10eff4:	02c12623          	sw	a2,44(sp)
  10eff8:	01012e23          	sw	a6,28(sp)
  10effc:	01112c23          	sw	a7,24(sp)
  10f000:	04112623          	sw	ra,76(sp)
  10f004:	04512423          	sw	t0,72(sp)
  10f008:	04612223          	sw	t1,68(sp)
  10f00c:	04712023          	sw	t2,64(sp)
  10f010:	02d12423          	sw	a3,40(sp)
  10f014:	02e12223          	sw	a4,36(sp)
  10f018:	01c12a23          	sw	t3,20(sp)
  10f01c:	01d12823          	sw	t4,16(sp)
  10f020:	01e12623          	sw	t5,12(sp)
  10f024:	01f12423          	sw	t6,8(sp)
  10f028:	02a12a23          	sw	a0,52(sp)
  10f02c:	02b12823          	sw	a1,48(sp)
  10f030:	ee5ff0ef          	jal	10ef14 <timer_read>
  10f034:	00a40533          	add	a0,s0,a0
  10f038:	00853433          	sltu	s0,a0,s0
  10f03c:	00b485b3          	add	a1,s1,a1
  10f040:	00b405b3          	add	a1,s0,a1
  10f044:	ee9ff0ef          	jal	10ef2c <timecmp_update>
  10f048:	00070597          	auipc	a1,0x70
  10f04c:	0c058593          	add	a1,a1,192 # 17f108 <time_elapsed>
  10f050:	0005a803          	lw	a6,0(a1)
  10f054:	0045a883          	lw	a7,4(a1)
  10f058:	03c12403          	lw	s0,60(sp)
  10f05c:	00180513          	add	a0,a6,1
  10f060:	01053633          	sltu	a2,a0,a6
  10f064:	011607b3          	add	a5,a2,a7
  10f068:	00a5a023          	sw	a0,0(a1)
  10f06c:	00f5a223          	sw	a5,4(a1)
  10f070:	04c12083          	lw	ra,76(sp)
  10f074:	04812283          	lw	t0,72(sp)
  10f078:	04412303          	lw	t1,68(sp)
  10f07c:	04012383          	lw	t2,64(sp)
  10f080:	03812483          	lw	s1,56(sp)
  10f084:	03412503          	lw	a0,52(sp)
  10f088:	03012583          	lw	a1,48(sp)
  10f08c:	02c12603          	lw	a2,44(sp)
  10f090:	02812683          	lw	a3,40(sp)
  10f094:	02412703          	lw	a4,36(sp)
  10f098:	02012783          	lw	a5,32(sp)
  10f09c:	01c12803          	lw	a6,28(sp)
  10f0a0:	01812883          	lw	a7,24(sp)
  10f0a4:	01412e03          	lw	t3,20(sp)
  10f0a8:	01012e83          	lw	t4,16(sp)
  10f0ac:	00c12f03          	lw	t5,12(sp)
  10f0b0:	00812f83          	lw	t6,8(sp)
  10f0b4:	05010113          	add	sp,sp,80
  10f0b8:	30200073          	mret
